                              1 ;--------------------------------------------------------
                              2 ; File Created by SDCC : free open source ANSI-C Compiler
                              3 ; Version 2.8.0 #5117 (Mar 23 2008) (MINGW32)
                              4 ; This file was generated Sun Jan 30 19:17:44 2011
                              5 ;--------------------------------------------------------
                              6 	.module uip
                              7 	.optsdcc -mmcs51 --model-large
                              8 	
                              9 ;--------------------------------------------------------
                             10 ; Public variables in this module
                             11 ;--------------------------------------------------------
                             12 	.globl _uip_ethaddr
                             13 	.globl _uip_send_PARM_2
                             14 	.globl _uip_connect_PARM_2
                             15 	.globl _uip_chksum_PARM_2
                             16 	.globl _chksum_PARM_3
                             17 	.globl _chksum_PARM_2
                             18 	.globl _uip_acc32
                             19 	.globl _uip_listenports
                             20 	.globl _uip_conns
                             21 	.globl _uip_conn
                             22 	.globl _uip_flags
                             23 	.globl _uip_slen
                             24 	.globl _uip_len
                             25 	.globl _uip_sappdata
                             26 	.globl _uip_appdata
                             27 	.globl _uip_buf
                             28 	.globl _uip_netmask
                             29 	.globl _uip_draddr
                             30 	.globl _uip_hostaddr
                             31 	.globl _uip_setipid
                             32 	.globl _uip_add32
                             33 	.globl _uip_chksum
                             34 	.globl _uip_ipchksum
                             35 	.globl _uip_tcpchksum
                             36 	.globl _uip_init
                             37 	.globl _uip_connect
                             38 	.globl _uip_unlisten
                             39 	.globl _uip_listen
                             40 	.globl _uip_process
                             41 	.globl _htons
                             42 	.globl _uip_send
                             43 ;--------------------------------------------------------
                             44 ; special function registers
                             45 ;--------------------------------------------------------
                             46 	.area RSEG    (DATA)
                             47 ;--------------------------------------------------------
                             48 ; special function bits
                             49 ;--------------------------------------------------------
                             50 	.area RSEG    (DATA)
                             51 ;--------------------------------------------------------
                             52 ; overlayable register banks
                             53 ;--------------------------------------------------------
                             54 	.area REG_BANK_0	(REL,OVR,DATA)
   0000                      55 	.ds 8
                             56 ;--------------------------------------------------------
                             57 ; internal ram data
                             58 ;--------------------------------------------------------
                             59 	.area DSEG    (DATA)
                    0000     60 Luip_connect$sloc0$1$0==.
   0000                      61 _uip_connect_sloc0_1_0:
   0000                      62 	.ds 3
                    0003     63 Luip_connect$sloc1$1$0==.
   0003                      64 _uip_connect_sloc1_1_0:
   0003                      65 	.ds 3
                    0006     66 Luip_process$sloc0$1$0==.
   0006                      67 _uip_process_sloc0_1_0:
   0006                      68 	.ds 3
                    0009     69 Luip_process$sloc1$1$0==.
   0009                      70 _uip_process_sloc1_1_0:
   0009                      71 	.ds 1
                    000A     72 Luip_process$sloc2$1$0==.
   000A                      73 _uip_process_sloc2_1_0:
   000A                      74 	.ds 1
                    000B     75 Luip_process$sloc3$1$0==.
   000B                      76 _uip_process_sloc3_1_0:
   000B                      77 	.ds 3
                    000E     78 Luip_process$sloc4$1$0==.
   000E                      79 _uip_process_sloc4_1_0:
   000E                      80 	.ds 3
                    0011     81 Luip_process$sloc5$1$0==.
   0011                      82 _uip_process_sloc5_1_0:
   0011                      83 	.ds 3
                             84 ;--------------------------------------------------------
                             85 ; overlayable items in internal ram 
                             86 ;--------------------------------------------------------
                             87 	.area	OSEG    (OVR,DATA)
                    0000     88 Lchksum$sloc0$1$0==.
   0000                      89 _chksum_sloc0_1_0::
   0000                      90 	.ds 3
                    0003     91 Lchksum$sloc1$1$0==.
   0003                      92 _chksum_sloc1_1_0::
   0003                      93 	.ds 2
                             94 ;--------------------------------------------------------
                             95 ; indirectly addressable internal ram data
                             96 ;--------------------------------------------------------
                             97 	.area ISEG    (DATA)
                             98 ;--------------------------------------------------------
                             99 ; absolute internal ram data
                            100 ;--------------------------------------------------------
                            101 	.area IABS    (ABS,DATA)
                            102 	.area IABS    (ABS,DATA)
                            103 ;--------------------------------------------------------
                            104 ; bit data
                            105 ;--------------------------------------------------------
                            106 	.area BSEG    (BIT)
                            107 ;--------------------------------------------------------
                            108 ; paged external ram data
                            109 ;--------------------------------------------------------
                            110 	.area PSEG    (PAG,XDATA)
                            111 ;--------------------------------------------------------
                            112 ; external ram data
                            113 ;--------------------------------------------------------
                            114 	.area XSEG    (XDATA)
                    0000    115 G$uip_hostaddr$0$0==.
   0000                     116 _uip_hostaddr::
   0000                     117 	.ds 4
                    0004    118 G$uip_draddr$0$0==.
   0004                     119 _uip_draddr::
   0004                     120 	.ds 4
                    0008    121 G$uip_netmask$0$0==.
   0008                     122 _uip_netmask::
   0008                     123 	.ds 4
                    000C    124 G$uip_buf$0$0==.
   000C                     125 _uip_buf::
   000C                     126 	.ds 402
                    019E    127 G$uip_appdata$0$0==.
   019E                     128 _uip_appdata::
   019E                     129 	.ds 3
                    01A1    130 G$uip_sappdata$0$0==.
   01A1                     131 _uip_sappdata::
   01A1                     132 	.ds 3
                    01A4    133 G$uip_len$0$0==.
   01A4                     134 _uip_len::
   01A4                     135 	.ds 2
                    01A6    136 G$uip_slen$0$0==.
   01A6                     137 _uip_slen::
   01A6                     138 	.ds 2
                    01A8    139 G$uip_flags$0$0==.
   01A8                     140 _uip_flags::
   01A8                     141 	.ds 1
                    01A9    142 G$uip_conn$0$0==.
   01A9                     143 _uip_conn::
   01A9                     144 	.ds 3
                    01AC    145 G$uip_conns$0$0==.
   01AC                     146 _uip_conns::
   01AC                     147 	.ds 2960
                    0D3C    148 G$uip_listenports$0$0==.
   0D3C                     149 _uip_listenports::
   0D3C                     150 	.ds 20
                    0D50    151 Fuip$ipid$0$0==.
   0D50                     152 _ipid:
   0D50                     153 	.ds 2
                    0D52    154 Luip_setipid$id$1$1==.
   0D52                     155 _uip_setipid_id_1_1:
   0D52                     156 	.ds 2
                    0D54    157 Fuip$iss$0$0==.
   0D54                     158 _iss:
   0D54                     159 	.ds 4
                    0D58    160 Fuip$lastport$0$0==.
   0D58                     161 _lastport:
   0D58                     162 	.ds 2
                    0D5A    163 G$uip_acc32$0$0==.
   0D5A                     164 _uip_acc32::
   0D5A                     165 	.ds 4
                    0D5E    166 Fuip$c$0$0==.
   0D5E                     167 _c:
   0D5E                     168 	.ds 1
                    0D5F    169 Fuip$opt$0$0==.
   0D5F                     170 _opt:
   0D5F                     171 	.ds 1
                    0D60    172 Fuip$tmp16$0$0==.
   0D60                     173 _tmp16:
   0D60                     174 	.ds 2
                    0D62    175 Lchksum$indata$1$1==.
   0D62                     176 _chksum_PARM_2:
   0D62                     177 	.ds 3
                    0D65    178 Lchksum$len$1$1==.
   0D65                     179 _chksum_PARM_3:
   0D65                     180 	.ds 2
                    0D67    181 Lchksum$sum$1$1==.
   0D67                     182 _chksum_sum_1_1:
   0D67                     183 	.ds 2
                    0D69    184 Luip_chksum$len$1$1==.
   0D69                     185 _uip_chksum_PARM_2:
   0D69                     186 	.ds 2
                    0D6B    187 Luip_chksum$indata$1$1==.
   0D6B                     188 _uip_chksum_indata_1_1:
   0D6B                     189 	.ds 3
                    0D6E    190 Lupper_layer_chksum$proto$1$1==.
   0D6E                     191 _upper_layer_chksum_proto_1_1:
   0D6E                     192 	.ds 1
                    0D6F    193 Lupper_layer_chksum$upper_layer_len$1$1==.
   0D6F                     194 _upper_layer_chksum_upper_layer_len_1_1:
   0D6F                     195 	.ds 2
                    0D71    196 Luip_connect$rport$1$1==.
   0D71                     197 _uip_connect_PARM_2:
   0D71                     198 	.ds 2
                    0D73    199 Luip_connect$ripaddr$1$1==.
   0D73                     200 _uip_connect_ripaddr_1_1:
   0D73                     201 	.ds 3
                    0D76    202 Luip_connect$conn$1$1==.
   0D76                     203 _uip_connect_conn_1_1:
   0D76                     204 	.ds 3
                    0D79    205 Luip_connect$cconn$1$1==.
   0D79                     206 _uip_connect_cconn_1_1:
   0D79                     207 	.ds 3
                    0D7C    208 Luip_unlisten$port$1$1==.
   0D7C                     209 _uip_unlisten_port_1_1:
   0D7C                     210 	.ds 2
                    0D7E    211 Luip_listen$port$1$1==.
   0D7E                     212 _uip_listen_port_1_1:
   0D7E                     213 	.ds 2
                    0D80    214 Luip_add_rcv_nxt$n$1$1==.
   0D80                     215 _uip_add_rcv_nxt_n_1_1:
   0D80                     216 	.ds 2
                    0D82    217 Luip_process$flag$1$1==.
   0D82                     218 _uip_process_flag_1_1:
   0D82                     219 	.ds 1
                    0D83    220 Luip_process$uip_connr$1$1==.
   0D83                     221 _uip_process_uip_connr_1_1:
   0D83                     222 	.ds 3
                    0D86    223 Luip_process$m$4$61==.
   0D86                     224 _uip_process_m_4_61:
   0D86                     225 	.ds 1
                    0D87    226 Lhtons$val$1$1==.
   0D87                     227 _htons_val_1_1:
   0D87                     228 	.ds 2
                    0D89    229 Luip_send$len$1$1==.
   0D89                     230 _uip_send_PARM_2:
   0D89                     231 	.ds 2
                    0D8B    232 Luip_send$indata$1$1==.
   0D8B                     233 _uip_send_indata_1_1:
   0D8B                     234 	.ds 3
                            235 ;--------------------------------------------------------
                            236 ; absolute external ram data
                            237 ;--------------------------------------------------------
                            238 	.area XABS    (ABS,XDATA)
                            239 ;--------------------------------------------------------
                            240 ; external initialized ram data
                            241 ;--------------------------------------------------------
                            242 	.area XISEG   (XDATA)
                    0000    243 G$uip_ethaddr$0$0==.
   0000                     244 _uip_ethaddr::
   0000                     245 	.ds 6
                            246 	.area HOME    (CODE)
                            247 	.area GSINIT0 (CODE)
                            248 	.area GSINIT1 (CODE)
                            249 	.area GSINIT2 (CODE)
                            250 	.area GSINIT3 (CODE)
                            251 	.area GSINIT4 (CODE)
                            252 	.area GSINIT5 (CODE)
                            253 	.area GSINIT  (CODE)
                            254 	.area GSFINAL (CODE)
                            255 	.area CSEG    (CODE)
                            256 ;--------------------------------------------------------
                            257 ; global & static initialisations
                            258 ;--------------------------------------------------------
                            259 	.area HOME    (CODE)
                            260 	.area GSINIT  (CODE)
                            261 	.area GSFINAL (CODE)
                            262 	.area GSINIT  (CODE)
                            263 ;--------------------------------------------------------
                            264 ; Home
                            265 ;--------------------------------------------------------
                            266 	.area HOME    (CODE)
                            267 	.area HOME    (CODE)
                            268 ;--------------------------------------------------------
                            269 ; code
                            270 ;--------------------------------------------------------
                            271 	.area UIP_BANK(CODE)
                            272 ;------------------------------------------------------------
                            273 ;Allocation info for local variables in function 'uip_setipid'
                            274 ;------------------------------------------------------------
                            275 ;id                        Allocated with name '_uip_setipid_id_1_1'
                            276 ;------------------------------------------------------------
                    0000    277 	G$uip_setipid$0$0 ==.
                    0000    278 	C$uip.c$191$0$0 ==.
                            279 ;	..\uip\uip.c:191: void uip_setipid(u16_t id) banked { ipid = id;
                            280 ;	-----------------------------------------
                            281 ;	 function uip_setipid
                            282 ;	-----------------------------------------
   0000                     283 _uip_setipid:
                    0002    284 	ar2 = 0x02
                    0003    285 	ar3 = 0x03
                    0004    286 	ar4 = 0x04
                    0005    287 	ar5 = 0x05
                    0006    288 	ar6 = 0x06
                    0007    289 	ar7 = 0x07
                    0000    290 	ar0 = 0x00
                    0001    291 	ar1 = 0x01
   0000 AA 83               292 	mov	r2,dph
   0002 E5 82               293 	mov	a,dpl
   0004 90s0Dr52            294 	mov	dptr,#_uip_setipid_id_1_1
   0007 F0                  295 	movx	@dptr,a
   0008 A3                  296 	inc	dptr
   0009 EA                  297 	mov	a,r2
   000A F0                  298 	movx	@dptr,a
   000B 90s0Dr52            299 	mov	dptr,#_uip_setipid_id_1_1
   000E E0                  300 	movx	a,@dptr
   000F FA                  301 	mov	r2,a
   0010 A3                  302 	inc	dptr
   0011 E0                  303 	movx	a,@dptr
   0012 FB                  304 	mov	r3,a
   0013 90s0Dr50            305 	mov	dptr,#_ipid
   0016 EA                  306 	mov	a,r2
   0017 F0                  307 	movx	@dptr,a
   0018 A3                  308 	inc	dptr
   0019 EB                  309 	mov	a,r3
   001A F0                  310 	movx	@dptr,a
                    001B    311 	C$uip.c$192$1$1 ==.
                    001B    312 	XG$uip_setipid$0$0 ==.
   001B 02s00r00            313 	ljmp	__sdcc_banked_ret
                            314 ;------------------------------------------------------------
                            315 ;Allocation info for local variables in function 'uip_add32'
                            316 ;------------------------------------------------------------
                            317 ;op16                      Allocated to stack - offset -4
                            318 ;op32                      Allocated to stack - offset 1
                            319 ;------------------------------------------------------------
                    001E    320 	G$uip_add32$0$0 ==.
                    001E    321 	C$uip.c$260$1$1 ==.
                            322 ;	..\uip\uip.c:260: uip_add32(u8_t *op32, u16_t op16) __reentrant
                            323 ;	-----------------------------------------
                            324 ;	 function uip_add32
                            325 ;	-----------------------------------------
   001E                     326 _uip_add32:
   001E C0*00               327 	push	_bp
   0020 85 81*00            328 	mov	_bp,sp
   0023 C0 82               329 	push	dpl
   0025 C0 83               330 	push	dph
   0027 C0 F0               331 	push	b
                    0029    332 	C$uip.c$262$1$1 ==.
                            333 ;	..\uip\uip.c:262: uip_acc32[3] = op32[3] + (op16 & 0xff);
   0029 A8*00               334 	mov	r0,_bp
   002B 08                  335 	inc	r0
   002C 74 03               336 	mov	a,#0x03
   002E 26                  337 	add	a,@r0
   002F FD                  338 	mov	r5,a
   0030 E4                  339 	clr	a
   0031 08                  340 	inc	r0
   0032 36                  341 	addc	a,@r0
   0033 FE                  342 	mov	r6,a
   0034 08                  343 	inc	r0
   0035 86 07               344 	mov	ar7,@r0
   0037 8D 82               345 	mov	dpl,r5
   0039 8E 83               346 	mov	dph,r6
   003B 8F F0               347 	mov	b,r7
   003D 12s00r00            348 	lcall	__gptrget
   0040 FD                  349 	mov	r5,a
   0041 E5*00               350 	mov	a,_bp
   0043 24 FC               351 	add	a,#0xfc
   0045 F8                  352 	mov	r0,a
   0046 86 06               353 	mov	ar6,@r0
   0048 EE                  354 	mov	a,r6
   0049 2D                  355 	add	a,r5
   004A 90s0Dr5D            356 	mov	dptr,#(_uip_acc32 + 0x0003)
   004D F0                  357 	movx	@dptr,a
                    004E    358 	C$uip.c$263$1$1 ==.
                            359 ;	..\uip\uip.c:263: uip_acc32[2] = op32[2] + (op16 >> 8);
   004E A8*00               360 	mov	r0,_bp
   0050 08                  361 	inc	r0
   0051 74 02               362 	mov	a,#0x02
   0053 26                  363 	add	a,@r0
   0054 FD                  364 	mov	r5,a
   0055 E4                  365 	clr	a
   0056 08                  366 	inc	r0
   0057 36                  367 	addc	a,@r0
   0058 FE                  368 	mov	r6,a
   0059 08                  369 	inc	r0
   005A 86 07               370 	mov	ar7,@r0
   005C 8D 82               371 	mov	dpl,r5
   005E 8E 83               372 	mov	dph,r6
   0060 8F F0               373 	mov	b,r7
   0062 12s00r00            374 	lcall	__gptrget
   0065 FD                  375 	mov	r5,a
   0066 E5*00               376 	mov	a,_bp
   0068 24 FC               377 	add	a,#0xfc
   006A F8                  378 	mov	r0,a
   006B 08                  379 	inc	r0
   006C E6                  380 	mov	a,@r0
   006D 2D                  381 	add	a,r5
   006E FD                  382 	mov	r5,a
   006F 90s0Dr5C            383 	mov	dptr,#(_uip_acc32 + 0x0002)
   0072 F0                  384 	movx	@dptr,a
                    0073    385 	C$uip.c$264$1$1 ==.
                            386 ;	..\uip\uip.c:264: uip_acc32[1] = op32[1];
   0073 A8*00               387 	mov	r0,_bp
   0075 08                  388 	inc	r0
   0076 74 01               389 	mov	a,#0x01
   0078 26                  390 	add	a,@r0
   0079 FE                  391 	mov	r6,a
   007A E4                  392 	clr	a
   007B 08                  393 	inc	r0
   007C 36                  394 	addc	a,@r0
   007D FF                  395 	mov	r7,a
   007E 08                  396 	inc	r0
   007F 86 02               397 	mov	ar2,@r0
   0081 8E 82               398 	mov	dpl,r6
   0083 8F 83               399 	mov	dph,r7
   0085 8A F0               400 	mov	b,r2
   0087 12s00r00            401 	lcall	__gptrget
   008A FE                  402 	mov	r6,a
   008B 90s0Dr5B            403 	mov	dptr,#(_uip_acc32 + 0x0001)
   008E F0                  404 	movx	@dptr,a
                    008F    405 	C$uip.c$265$1$1 ==.
                            406 ;	..\uip\uip.c:265: uip_acc32[0] = op32[0];
   008F A8*00               407 	mov	r0,_bp
   0091 08                  408 	inc	r0
   0092 86 82               409 	mov	dpl,@r0
   0094 08                  410 	inc	r0
   0095 86 83               411 	mov	dph,@r0
   0097 08                  412 	inc	r0
   0098 86 F0               413 	mov	b,@r0
   009A 12s00r00            414 	lcall	__gptrget
   009D 90s0Dr5A            415 	mov	dptr,#_uip_acc32
   00A0 F0                  416 	movx	@dptr,a
                    00A1    417 	C$uip.c$267$1$1 ==.
                            418 ;	..\uip\uip.c:267: if (uip_acc32[2] < (op16 >> 8)) {
   00A1 E5*00               419 	mov	a,_bp
   00A3 24 FC               420 	add	a,#0xfc
   00A5 F8                  421 	mov	r0,a
   00A6 08                  422 	inc	r0
   00A7 86 02               423 	mov	ar2,@r0
   00A9 7B 00               424 	mov	r3,#0x00
   00AB 7C 00               425 	mov	r4,#0x00
   00AD C3                  426 	clr	c
   00AE ED                  427 	mov	a,r5
   00AF 9A                  428 	subb	a,r2
   00B0 EC                  429 	mov	a,r4
   00B1 9B                  430 	subb	a,r3
   00B2 50 19               431 	jnc	00104$
                    00B4    432 	C$uip.c$268$2$2 ==.
                            433 ;	..\uip\uip.c:268: ++uip_acc32[1];
   00B4 90s0Dr5B            434 	mov	dptr,#(_uip_acc32 + 0x0001)
   00B7 E0                  435 	movx	a,@dptr
   00B8 FA                  436 	mov	r2,a
   00B9 0A                  437 	inc	r2
   00BA 90s0Dr5B            438 	mov	dptr,#(_uip_acc32 + 0x0001)
   00BD EA                  439 	mov	a,r2
   00BE F0                  440 	movx	@dptr,a
                    00BF    441 	C$uip.c$269$2$2 ==.
                            442 ;	..\uip\uip.c:269: if (uip_acc32[1] == 0) {
   00BF EA                  443 	mov	a,r2
   00C0 70 0B               444 	jnz	00104$
                    00C2    445 	C$uip.c$270$3$3 ==.
                            446 ;	..\uip\uip.c:270: ++uip_acc32[0];
   00C2 90s0Dr5A            447 	mov	dptr,#_uip_acc32
   00C5 E0                  448 	movx	a,@dptr
   00C6 FA                  449 	mov	r2,a
   00C7 0A                  450 	inc	r2
   00C8 90s0Dr5A            451 	mov	dptr,#_uip_acc32
   00CB EA                  452 	mov	a,r2
   00CC F0                  453 	movx	@dptr,a
   00CD                     454 00104$:
                    00CD    455 	C$uip.c$275$1$1 ==.
                            456 ;	..\uip\uip.c:275: if (uip_acc32[3] < (op16 & 0xff)) {
   00CD 90s0Dr5D            457 	mov	dptr,#(_uip_acc32 + 0x0003)
   00D0 E0                  458 	movx	a,@dptr
   00D1 FA                  459 	mov	r2,a
   00D2 E5*00               460 	mov	a,_bp
   00D4 24 FC               461 	add	a,#0xfc
   00D6 F8                  462 	mov	r0,a
   00D7 86 03               463 	mov	ar3,@r0
   00D9 7C 00               464 	mov	r4,#0x00
   00DB 7D 00               465 	mov	r5,#0x00
   00DD C3                  466 	clr	c
   00DE EA                  467 	mov	a,r2
   00DF 9B                  468 	subb	a,r3
   00E0 ED                  469 	mov	a,r5
   00E1 9C                  470 	subb	a,r4
   00E2 50 27               471 	jnc	00111$
                    00E4    472 	C$uip.c$276$2$4 ==.
                            473 ;	..\uip\uip.c:276: ++uip_acc32[2];
   00E4 90s0Dr5C            474 	mov	dptr,#(_uip_acc32 + 0x0002)
   00E7 E0                  475 	movx	a,@dptr
   00E8 FA                  476 	mov	r2,a
   00E9 0A                  477 	inc	r2
   00EA 90s0Dr5C            478 	mov	dptr,#(_uip_acc32 + 0x0002)
   00ED EA                  479 	mov	a,r2
   00EE F0                  480 	movx	@dptr,a
                    00EF    481 	C$uip.c$277$2$4 ==.
                            482 ;	..\uip\uip.c:277: if (uip_acc32[2] == 0) {
   00EF EA                  483 	mov	a,r2
   00F0 70 19               484 	jnz	00111$
                    00F2    485 	C$uip.c$278$3$5 ==.
                            486 ;	..\uip\uip.c:278: ++uip_acc32[1];
   00F2 90s0Dr5B            487 	mov	dptr,#(_uip_acc32 + 0x0001)
   00F5 E0                  488 	movx	a,@dptr
   00F6 FA                  489 	mov	r2,a
   00F7 0A                  490 	inc	r2
   00F8 90s0Dr5B            491 	mov	dptr,#(_uip_acc32 + 0x0001)
   00FB EA                  492 	mov	a,r2
   00FC F0                  493 	movx	@dptr,a
                    00FD    494 	C$uip.c$279$3$5 ==.
                            495 ;	..\uip\uip.c:279: if (uip_acc32[1] == 0) {
   00FD EA                  496 	mov	a,r2
   00FE 70 0B               497 	jnz	00111$
                    0100    498 	C$uip.c$280$4$6 ==.
                            499 ;	..\uip\uip.c:280: ++uip_acc32[0];
   0100 90s0Dr5A            500 	mov	dptr,#_uip_acc32
   0103 E0                  501 	movx	a,@dptr
   0104 FA                  502 	mov	r2,a
   0105 0A                  503 	inc	r2
   0106 90s0Dr5A            504 	mov	dptr,#_uip_acc32
   0109 EA                  505 	mov	a,r2
   010A F0                  506 	movx	@dptr,a
   010B                     507 00111$:
   010B 85*00 81            508 	mov	sp,_bp
   010E D0*00               509 	pop	_bp
                    0110    510 	C$uip.c$284$1$1 ==.
                    0110    511 	XG$uip_add32$0$0 ==.
   0110 22                  512 	ret
                            513 ;------------------------------------------------------------
                            514 ;Allocation info for local variables in function 'chksum'
                            515 ;------------------------------------------------------------
                            516 ;indata                    Allocated with name '_chksum_PARM_2'
                            517 ;len                       Allocated with name '_chksum_PARM_3'
                            518 ;sum                       Allocated with name '_chksum_sum_1_1'
                            519 ;t                         Allocated with name '_chksum_t_1_1'
                            520 ;dataptr                   Allocated with name '_chksum_dataptr_1_1'
                            521 ;last_byte                 Allocated with name '_chksum_last_byte_1_1'
                            522 ;sloc0                     Allocated with name '_chksum_sloc0_1_0'
                            523 ;sloc1                     Allocated with name '_chksum_sloc1_1_0'
                            524 ;------------------------------------------------------------
                    0111    525 	Fuip$chksum$0$0 ==.
                    0111    526 	C$uip.c$291$1$1 ==.
                            527 ;	..\uip\uip.c:291: chksum(u16_t sum, const u8_t *indata, u16_t len)
                            528 ;	-----------------------------------------
                            529 ;	 function chksum
                            530 ;	-----------------------------------------
   0111                     531 _chksum:
   0111 AA 83               532 	mov	r2,dph
   0113 E5 82               533 	mov	a,dpl
   0115 90s0Dr67            534 	mov	dptr,#_chksum_sum_1_1
   0118 F0                  535 	movx	@dptr,a
   0119 A3                  536 	inc	dptr
   011A EA                  537 	mov	a,r2
   011B F0                  538 	movx	@dptr,a
                    011C    539 	C$uip.c$297$1$1 ==.
                            540 ;	..\uip\uip.c:297: dataptr = indata;
   011C 90s0Dr62            541 	mov	dptr,#_chksum_PARM_2
   011F E0                  542 	movx	a,@dptr
   0120 FA                  543 	mov	r2,a
   0121 A3                  544 	inc	dptr
   0122 E0                  545 	movx	a,@dptr
   0123 FB                  546 	mov	r3,a
   0124 A3                  547 	inc	dptr
   0125 E0                  548 	movx	a,@dptr
   0126 FC                  549 	mov	r4,a
                    0127    550 	C$uip.c$298$1$1 ==.
                            551 ;	..\uip\uip.c:298: last_byte = indata + len - 1;
   0127 90s0Dr65            552 	mov	dptr,#_chksum_PARM_3
   012A E0                  553 	movx	a,@dptr
   012B FD                  554 	mov	r5,a
   012C A3                  555 	inc	dptr
   012D E0                  556 	movx	a,@dptr
   012E FE                  557 	mov	r6,a
   012F ED                  558 	mov	a,r5
   0130 2A                  559 	add	a,r2
   0131 FD                  560 	mov	r5,a
   0132 EE                  561 	mov	a,r6
   0133 3B                  562 	addc	a,r3
   0134 FE                  563 	mov	r6,a
   0135 8C 07               564 	mov	ar7,r4
   0137 1D                  565 	dec	r5
   0138 BD FF 01            566 	cjne	r5,#0xff,00118$
   013B 1E                  567 	dec	r6
   013C                     568 00118$:
                    013C    569 	C$uip.c$300$1$1 ==.
                            570 ;	..\uip\uip.c:300: while (dataptr < last_byte) {	/* At least two more bytes */
   013C 8D*00               571 	mov	_chksum_sloc0_1_0,r5
   013E 8E*01               572 	mov	(_chksum_sloc0_1_0 + 1),r6
   0140 8F*02               573 	mov	(_chksum_sloc0_1_0 + 2),r7
   0142                     574 00103$:
   0142 C0 05               575 	push	ar5
   0144 C0 06               576 	push	ar6
   0146 C0 07               577 	push	ar7
   0148 8A 00               578 	mov	ar0,r2
   014A 8B 01               579 	mov	ar1,r3
   014C 8C 05               580 	mov	ar5,r4
   014E C3                  581 	clr	c
   014F E8                  582 	mov	a,r0
   0150 95*00               583 	subb	a,_chksum_sloc0_1_0
   0152 E9                  584 	mov	a,r1
   0153 95*01               585 	subb	a,(_chksum_sloc0_1_0 + 1)
   0155 ED                  586 	mov	a,r5
   0156 95*02               587 	subb	a,(_chksum_sloc0_1_0 + 2)
   0158 D0 07               588 	pop	ar7
   015A D0 06               589 	pop	ar6
   015C D0 05               590 	pop	ar5
   015E 40 03               591 	jc	00119$
   0160 02s01rD4            592 	ljmp	00105$
   0163                     593 00119$:
                    0163    594 	C$uip.c$301$1$1 ==.
                            595 ;	..\uip\uip.c:301: t = (dataptr[0] << 8) + dataptr[1];
   0163 C0 05               596 	push	ar5
   0165 C0 06               597 	push	ar6
   0167 C0 07               598 	push	ar7
   0169 8A 82               599 	mov	dpl,r2
   016B 8B 83               600 	mov	dph,r3
   016D 8C F0               601 	mov	b,r4
   016F 12s00r00            602 	lcall	__gptrget
   0172 F9                  603 	mov	r1,a
   0173 78 00               604 	mov	r0,#0x00
   0175 74 01               605 	mov	a,#0x01
   0177 2A                  606 	add	a,r2
   0178 FD                  607 	mov	r5,a
   0179 E4                  608 	clr	a
   017A 3B                  609 	addc	a,r3
   017B FE                  610 	mov	r6,a
   017C 8C 07               611 	mov	ar7,r4
   017E 8D 82               612 	mov	dpl,r5
   0180 8E 83               613 	mov	dph,r6
   0182 8F F0               614 	mov	b,r7
   0184 12s00r00            615 	lcall	__gptrget
   0187 FD                  616 	mov	r5,a
   0188 7E 00               617 	mov	r6,#0x00
   018A ED                  618 	mov	a,r5
   018B 28                  619 	add	a,r0
   018C F8                  620 	mov	r0,a
   018D EE                  621 	mov	a,r6
   018E 39                  622 	addc	a,r1
   018F F9                  623 	mov	r1,a
                    0190    624 	C$uip.c$302$2$2 ==.
                            625 ;	..\uip\uip.c:302: sum += t;
   0190 90s0Dr67            626 	mov	dptr,#_chksum_sum_1_1
   0193 E0                  627 	movx	a,@dptr
   0194 FD                  628 	mov	r5,a
   0195 A3                  629 	inc	dptr
   0196 E0                  630 	movx	a,@dptr
   0197 FE                  631 	mov	r6,a
   0198 90s0Dr67            632 	mov	dptr,#_chksum_sum_1_1
   019B E8                  633 	mov	a,r0
   019C 2D                  634 	add	a,r5
   019D F0                  635 	movx	@dptr,a
   019E E9                  636 	mov	a,r1
   019F 3E                  637 	addc	a,r6
   01A0 A3                  638 	inc	dptr
   01A1 F0                  639 	movx	@dptr,a
                    01A2    640 	C$uip.c$303$2$2 ==.
                            641 ;	..\uip\uip.c:303: if (sum < t) {
   01A2 90s0Dr67            642 	mov	dptr,#_chksum_sum_1_1
   01A5 E0                  643 	movx	a,@dptr
   01A6 F5*03               644 	mov	_chksum_sloc1_1_0,a
   01A8 A3                  645 	inc	dptr
   01A9 E0                  646 	movx	a,@dptr
   01AA F5*04               647 	mov	(_chksum_sloc1_1_0 + 1),a
   01AC C3                  648 	clr	c
   01AD E5*03               649 	mov	a,_chksum_sloc1_1_0
   01AF 98                  650 	subb	a,r0
   01B0 E5*04               651 	mov	a,(_chksum_sloc1_1_0 + 1)
   01B2 99                  652 	subb	a,r1
   01B3 E4                  653 	clr	a
   01B4 33                  654 	rlc	a
   01B5 D0 07               655 	pop	ar7
   01B7 D0 06               656 	pop	ar6
   01B9 D0 05               657 	pop	ar5
   01BB 60 0D               658 	jz	00102$
                    01BD    659 	C$uip.c$304$3$3 ==.
                            660 ;	..\uip\uip.c:304: sum++;		/* carry */
   01BD 90s0Dr67            661 	mov	dptr,#_chksum_sum_1_1
   01C0 74 01               662 	mov	a,#0x01
   01C2 25*03               663 	add	a,_chksum_sloc1_1_0
   01C4 F0                  664 	movx	@dptr,a
   01C5 E4                  665 	clr	a
   01C6 35*04               666 	addc	a,(_chksum_sloc1_1_0 + 1)
   01C8 A3                  667 	inc	dptr
   01C9 F0                  668 	movx	@dptr,a
   01CA                     669 00102$:
                    01CA    670 	C$uip.c$306$2$2 ==.
                            671 ;	..\uip\uip.c:306: dataptr += 2;
   01CA 74 02               672 	mov	a,#0x02
   01CC 2A                  673 	add	a,r2
   01CD FA                  674 	mov	r2,a
   01CE E4                  675 	clr	a
   01CF 3B                  676 	addc	a,r3
   01D0 FB                  677 	mov	r3,a
   01D1 02s01r42            678 	ljmp	00103$
   01D4                     679 00105$:
                    01D4    680 	C$uip.c$309$1$1 ==.
                            681 ;	..\uip\uip.c:309: if (dataptr == last_byte) {
   01D4 EA                  682 	mov	a,r2
   01D5 B5 05 40            683 	cjne	a,ar5,00109$
   01D8 EB                  684 	mov	a,r3
   01D9 B5 06 3C            685 	cjne	a,ar6,00109$
   01DC EC                  686 	mov	a,r4
   01DD B5 07 38            687 	cjne	a,ar7,00109$
                    01E0    688 	C$uip.c$310$2$4 ==.
                            689 ;	..\uip\uip.c:310: t = (dataptr[0] << 8) + 0;
   01E0 8A 82               690 	mov	dpl,r2
   01E2 8B 83               691 	mov	dph,r3
   01E4 8C F0               692 	mov	b,r4
   01E6 12s00r00            693 	lcall	__gptrget
   01E9 FB                  694 	mov	r3,a
   01EA 7A 00               695 	mov	r2,#0x00
                    01EC    696 	C$uip.c$311$2$4 ==.
                            697 ;	..\uip\uip.c:311: sum += t;
   01EC 90s0Dr67            698 	mov	dptr,#_chksum_sum_1_1
   01EF E0                  699 	movx	a,@dptr
   01F0 FC                  700 	mov	r4,a
   01F1 A3                  701 	inc	dptr
   01F2 E0                  702 	movx	a,@dptr
   01F3 FD                  703 	mov	r5,a
   01F4 90s0Dr67            704 	mov	dptr,#_chksum_sum_1_1
   01F7 EA                  705 	mov	a,r2
   01F8 2C                  706 	add	a,r4
   01F9 F0                  707 	movx	@dptr,a
   01FA EB                  708 	mov	a,r3
   01FB 3D                  709 	addc	a,r5
   01FC A3                  710 	inc	dptr
   01FD F0                  711 	movx	@dptr,a
                    01FE    712 	C$uip.c$312$2$4 ==.
                            713 ;	..\uip\uip.c:312: if (sum < t) {
   01FE 90s0Dr67            714 	mov	dptr,#_chksum_sum_1_1
   0201 E0                  715 	movx	a,@dptr
   0202 FC                  716 	mov	r4,a
   0203 A3                  717 	inc	dptr
   0204 E0                  718 	movx	a,@dptr
   0205 FD                  719 	mov	r5,a
   0206 C3                  720 	clr	c
   0207 EC                  721 	mov	a,r4
   0208 9A                  722 	subb	a,r2
   0209 ED                  723 	mov	a,r5
   020A 9B                  724 	subb	a,r3
   020B 50 0B               725 	jnc	00109$
                    020D    726 	C$uip.c$313$3$5 ==.
                            727 ;	..\uip\uip.c:313: sum++;		/* carry */
   020D 90s0Dr67            728 	mov	dptr,#_chksum_sum_1_1
   0210 74 01               729 	mov	a,#0x01
   0212 2C                  730 	add	a,r4
   0213 F0                  731 	movx	@dptr,a
   0214 E4                  732 	clr	a
   0215 3D                  733 	addc	a,r5
   0216 A3                  734 	inc	dptr
   0217 F0                  735 	movx	@dptr,a
   0218                     736 00109$:
                    0218    737 	C$uip.c$318$1$1 ==.
                            738 ;	..\uip\uip.c:318: return sum;
   0218 90s0Dr67            739 	mov	dptr,#_chksum_sum_1_1
   021B E0                  740 	movx	a,@dptr
   021C FA                  741 	mov	r2,a
   021D A3                  742 	inc	dptr
   021E E0                  743 	movx	a,@dptr
                    021F    744 	C$uip.c$319$1$1 ==.
                    021F    745 	XFuip$chksum$0$0 ==.
   021F 8A 82               746 	mov	dpl,r2
   0221 F5 83               747 	mov	dph,a
   0223 22                  748 	ret
                            749 ;------------------------------------------------------------
                            750 ;Allocation info for local variables in function 'uip_chksum'
                            751 ;------------------------------------------------------------
                            752 ;len                       Allocated with name '_uip_chksum_PARM_2'
                            753 ;indata                    Allocated with name '_uip_chksum_indata_1_1'
                            754 ;------------------------------------------------------------
                    0224    755 	G$uip_chksum$0$0 ==.
                    0224    756 	C$uip.c$322$1$1 ==.
                            757 ;	..\uip\uip.c:322: uip_chksum(u16_t *indata, u16_t len) banked
                            758 ;	-----------------------------------------
                            759 ;	 function uip_chksum
                            760 ;	-----------------------------------------
   0224                     761 _uip_chksum:
   0224 AA F0               762 	mov	r2,b
   0226 AB 83               763 	mov	r3,dph
   0228 E5 82               764 	mov	a,dpl
   022A 90s0Dr6B            765 	mov	dptr,#_uip_chksum_indata_1_1
   022D F0                  766 	movx	@dptr,a
   022E A3                  767 	inc	dptr
   022F EB                  768 	mov	a,r3
   0230 F0                  769 	movx	@dptr,a
   0231 A3                  770 	inc	dptr
   0232 EA                  771 	mov	a,r2
   0233 F0                  772 	movx	@dptr,a
                    0234    773 	C$uip.c$324$1$1 ==.
                            774 ;	..\uip\uip.c:324: return htons(chksum(0, (u8_t *)indata, len));
   0234 90s0Dr6B            775 	mov	dptr,#_uip_chksum_indata_1_1
   0237 E0                  776 	movx	a,@dptr
   0238 FA                  777 	mov	r2,a
   0239 A3                  778 	inc	dptr
   023A E0                  779 	movx	a,@dptr
   023B FB                  780 	mov	r3,a
   023C A3                  781 	inc	dptr
   023D E0                  782 	movx	a,@dptr
   023E FC                  783 	mov	r4,a
   023F 90s0Dr69            784 	mov	dptr,#_uip_chksum_PARM_2
   0242 E0                  785 	movx	a,@dptr
   0243 FD                  786 	mov	r5,a
   0244 A3                  787 	inc	dptr
   0245 E0                  788 	movx	a,@dptr
   0246 FE                  789 	mov	r6,a
   0247 90s0Dr62            790 	mov	dptr,#_chksum_PARM_2
   024A EA                  791 	mov	a,r2
   024B F0                  792 	movx	@dptr,a
   024C A3                  793 	inc	dptr
   024D EB                  794 	mov	a,r3
   024E F0                  795 	movx	@dptr,a
   024F A3                  796 	inc	dptr
   0250 EC                  797 	mov	a,r4
   0251 F0                  798 	movx	@dptr,a
   0252 90s0Dr65            799 	mov	dptr,#_chksum_PARM_3
   0255 ED                  800 	mov	a,r5
   0256 F0                  801 	movx	@dptr,a
   0257 A3                  802 	inc	dptr
   0258 EE                  803 	mov	a,r6
   0259 F0                  804 	movx	@dptr,a
   025A 90 00 00            805 	mov	dptr,#0x0000
   025D 12s01r11            806 	lcall	_chksum
   0260 78r15               807 	mov	r0,#_htons
   0262 79s27               808 	mov	r1,#(_htons >> 8)
   0264 7As00               809 	mov	r2,#(_htons >> 16)
   0266 12s00r00            810 	lcall	__sdcc_banked_call
   0269 AA 82               811 	mov	r2,dpl
   026B AB 83               812 	mov  r3,dph
                    026D    813 	C$uip.c$325$1$1 ==.
                    026D    814 	XG$uip_chksum$0$0 ==.
   026D 02s00r00            815 	ljmp	__sdcc_banked_ret
                            816 ;------------------------------------------------------------
                            817 ;Allocation info for local variables in function 'uip_ipchksum'
                            818 ;------------------------------------------------------------
                            819 ;sum                       Allocated with name '_uip_ipchksum_sum_1_1'
                            820 ;------------------------------------------------------------
                    0270    821 	G$uip_ipchksum$0$0 ==.
                    0270    822 	C$uip.c$328$1$1 ==.
                            823 ;	..\uip\uip.c:328: u16_t uip_ipchksum(void) banked
                            824 ;	-----------------------------------------
                            825 ;	 function uip_ipchksum
                            826 ;	-----------------------------------------
   0270                     827 _uip_ipchksum:
                    0270    828 	C$uip.c$332$1$1 ==.
                            829 ;	..\uip\uip.c:332: sum = chksum(0, &uip_buf[UIP_LLH_LEN], UIP_IPH_LEN);
   0270 90s0Dr62            830 	mov	dptr,#_chksum_PARM_2
   0273 74r1A               831 	mov	a,#(_uip_buf + 0x000e)
   0275 F0                  832 	movx	@dptr,a
   0276 A3                  833 	inc	dptr
   0277 74s00               834 	mov	a,#((_uip_buf + 0x000e) >> 8)
   0279 F0                  835 	movx	@dptr,a
   027A A3                  836 	inc	dptr
   027B E4                  837 	clr	a
   027C F0                  838 	movx	@dptr,a
   027D 90s0Dr65            839 	mov	dptr,#_chksum_PARM_3
   0280 74 14               840 	mov	a,#0x14
   0282 F0                  841 	movx	@dptr,a
   0283 E4                  842 	clr	a
   0284 A3                  843 	inc	dptr
   0285 F0                  844 	movx	@dptr,a
   0286 90 00 00            845 	mov	dptr,#0x0000
   0289 12s01r11            846 	lcall	_chksum
   028C AA 82               847 	mov	r2,dpl
   028E AB 83               848 	mov	r3,dph
                    0290    849 	C$uip.c$334$1$1 ==.
                            850 ;	..\uip\uip.c:334: return (sum == 0) ? 0xffff : htons(sum);
   0290 EA                  851 	mov	a,r2
   0291 4B                  852 	orl	a,r3
   0292 B4 01 00            853 	cjne	a,#0x01,00106$
   0295                     854 00106$:
   0295 E4                  855 	clr	a
   0296 33                  856 	rlc	a
   0297 FC                  857 	mov	r4,a
   0298 60 06               858 	jz	00103$
   029A 7C FF               859 	mov	r4,#0xFF
   029C 7D FF               860 	mov	r5,#0xFF
   029E 80 11               861 	sjmp	00104$
   02A0                     862 00103$:
   02A0 8A 82               863 	mov	dpl,r2
   02A2 8B 83               864 	mov	dph,r3
   02A4 78r15               865 	mov	r0,#_htons
   02A6 79s27               866 	mov	r1,#(_htons >> 8)
   02A8 7As00               867 	mov	r2,#(_htons >> 16)
   02AA 12s00r00            868 	lcall	__sdcc_banked_call
   02AD AC 82               869 	mov	r4,dpl
   02AF AD 83               870 	mov	r5,dph
   02B1                     871 00104$:
   02B1 8C 82               872 	mov	dpl,r4
   02B3 8D 83               873 	mov	dph,r5
                    02B5    874 	C$uip.c$335$1$1 ==.
                    02B5    875 	XG$uip_ipchksum$0$0 ==.
   02B5 02s00r00            876 	ljmp	__sdcc_banked_ret
                            877 ;------------------------------------------------------------
                            878 ;Allocation info for local variables in function 'upper_layer_chksum'
                            879 ;------------------------------------------------------------
                            880 ;proto                     Allocated with name '_upper_layer_chksum_proto_1_1'
                            881 ;upper_layer_len           Allocated with name '_upper_layer_chksum_upper_layer_len_1_1'
                            882 ;sum                       Allocated with name '_upper_layer_chksum_sum_1_1'
                            883 ;------------------------------------------------------------
                    02B8    884 	Fuip$upper_layer_chksum$0$0 ==.
                    02B8    885 	C$uip.c$339$1$1 ==.
                            886 ;	..\uip\uip.c:339: upper_layer_chksum(u8_t proto)
                            887 ;	-----------------------------------------
                            888 ;	 function upper_layer_chksum
                            889 ;	-----------------------------------------
   02B8                     890 _upper_layer_chksum:
   02B8 E5 82               891 	mov	a,dpl
   02BA 90s0Dr6E            892 	mov	dptr,#_upper_layer_chksum_proto_1_1
   02BD F0                  893 	movx	@dptr,a
                    02BE    894 	C$uip.c$347$1$1 ==.
                            895 ;	..\uip\uip.c:347: upper_layer_len = (((u16_t)(BUF->len[0]) << 8) + BUF->len[1]) - UIP_IPH_LEN;
   02BE 7Ar1C               896 	mov	r2,#(_uip_buf + 0x0010)
   02C0 7Bs00               897 	mov	r3,#((_uip_buf + 0x0010) >> 8)
   02C2 7C 00               898 	mov	r4,#0x00
   02C4 8A 82               899 	mov	dpl,r2
   02C6 8B 83               900 	mov	dph,r3
   02C8 8C F0               901 	mov	b,r4
   02CA 12s00r00            902 	lcall	__gptrget
   02CD FB                  903 	mov	r3,a
   02CE 7A 00               904 	mov	r2,#0x00
   02D0 90s00r1D            905 	mov	dptr,#(_uip_buf + 0x0011)
   02D3 75 F0 00            906 	mov	b,#0x00
   02D6 12s00r00            907 	lcall	__gptrget
   02D9 FC                  908 	mov	r4,a
   02DA 7D 00               909 	mov	r5,#0x00
   02DC EC                  910 	mov	a,r4
   02DD 2A                  911 	add	a,r2
   02DE FA                  912 	mov	r2,a
   02DF ED                  913 	mov	a,r5
   02E0 3B                  914 	addc	a,r3
   02E1 FB                  915 	mov	r3,a
   02E2 EA                  916 	mov	a,r2
   02E3 24 EC               917 	add	a,#0xec
   02E5 FA                  918 	mov	r2,a
   02E6 EB                  919 	mov	a,r3
   02E7 34 FF               920 	addc	a,#0xff
   02E9 FB                  921 	mov	r3,a
   02EA 90s0Dr6F            922 	mov	dptr,#_upper_layer_chksum_upper_layer_len_1_1
   02ED EA                  923 	mov	a,r2
   02EE F0                  924 	movx	@dptr,a
   02EF A3                  925 	inc	dptr
   02F0 EB                  926 	mov	a,r3
   02F1 F0                  927 	movx	@dptr,a
                    02F2    928 	C$uip.c$353$1$1 ==.
                            929 ;	..\uip\uip.c:353: sum = upper_layer_len + proto;
   02F2 90s0Dr6E            930 	mov	dptr,#_upper_layer_chksum_proto_1_1
   02F5 E0                  931 	movx	a,@dptr
   02F6 FC                  932 	mov	r4,a
   02F7 7D 00               933 	mov	r5,#0x00
   02F9 EC                  934 	mov	a,r4
   02FA 2A                  935 	add	a,r2
   02FB FA                  936 	mov	r2,a
   02FC ED                  937 	mov	a,r5
   02FD 3B                  938 	addc	a,r3
   02FE FB                  939 	mov	r3,a
                    02FF    940 	C$uip.c$355$1$1 ==.
                            941 ;	..\uip\uip.c:355: sum = chksum(sum, (u8_t *)&BUF->srcipaddr[0], 2 * sizeof(uip_ipaddr_t));
   02FF 90s0Dr62            942 	mov	dptr,#_chksum_PARM_2
   0302 74r26               943 	mov	a,#(_uip_buf + 0x001a)
   0304 F0                  944 	movx	@dptr,a
   0305 A3                  945 	inc	dptr
   0306 74s00               946 	mov	a,#((_uip_buf + 0x001a) >> 8)
   0308 F0                  947 	movx	@dptr,a
   0309 A3                  948 	inc	dptr
   030A E4                  949 	clr	a
   030B F0                  950 	movx	@dptr,a
   030C 90s0Dr65            951 	mov	dptr,#_chksum_PARM_3
   030F 74 08               952 	mov	a,#0x08
   0311 F0                  953 	movx	@dptr,a
   0312 E4                  954 	clr	a
   0313 A3                  955 	inc	dptr
   0314 F0                  956 	movx	@dptr,a
   0315 8A 82               957 	mov	dpl,r2
   0317 8B 83               958 	mov	dph,r3
   0319 12s01r11            959 	lcall	_chksum
   031C AA 82               960 	mov	r2,dpl
   031E AB 83               961 	mov	r3,dph
                    0320    962 	C$uip.c$358$1$1 ==.
                            963 ;	..\uip\uip.c:358: sum = chksum(sum, &uip_buf[UIP_IPH_LEN + UIP_LLH_LEN],
                    0320    964 	C$uip.c$359$1$1 ==.
                            965 ;	..\uip\uip.c:359: upper_layer_len);
   0320 90s0Dr6F            966 	mov	dptr,#_upper_layer_chksum_upper_layer_len_1_1
   0323 E0                  967 	movx	a,@dptr
   0324 FC                  968 	mov	r4,a
   0325 A3                  969 	inc	dptr
   0326 E0                  970 	movx	a,@dptr
   0327 FD                  971 	mov	r5,a
   0328 90s0Dr62            972 	mov	dptr,#_chksum_PARM_2
   032B 74r2E               973 	mov	a,#(_uip_buf + 0x0022)
   032D F0                  974 	movx	@dptr,a
   032E A3                  975 	inc	dptr
   032F 74s00               976 	mov	a,#((_uip_buf + 0x0022) >> 8)
   0331 F0                  977 	movx	@dptr,a
   0332 A3                  978 	inc	dptr
   0333 E4                  979 	clr	a
   0334 F0                  980 	movx	@dptr,a
   0335 90s0Dr65            981 	mov	dptr,#_chksum_PARM_3
   0338 EC                  982 	mov	a,r4
   0339 F0                  983 	movx	@dptr,a
   033A A3                  984 	inc	dptr
   033B ED                  985 	mov	a,r5
   033C F0                  986 	movx	@dptr,a
   033D 8A 82               987 	mov	dpl,r2
   033F 8B 83               988 	mov	dph,r3
   0341 12s01r11            989 	lcall	_chksum
   0344 AA 82               990 	mov	r2,dpl
   0346 AB 83               991 	mov	r3,dph
                    0348    992 	C$uip.c$361$1$1 ==.
                            993 ;	..\uip\uip.c:361: return (sum == 0) ? 0xffff : htons(sum);
   0348 EA                  994 	mov	a,r2
   0349 4B                  995 	orl	a,r3
   034A B4 01 00            996 	cjne	a,#0x01,00106$
   034D                     997 00106$:
   034D E4                  998 	clr	a
   034E 33                  999 	rlc	a
   034F FC                 1000 	mov	r4,a
   0350 60 06              1001 	jz	00103$
   0352 7C FF              1002 	mov	r4,#0xFF
   0354 7D FF              1003 	mov	r5,#0xFF
   0356 80 11              1004 	sjmp	00104$
   0358                    1005 00103$:
   0358 8A 82              1006 	mov	dpl,r2
   035A 8B 83              1007 	mov	dph,r3
   035C 78r15              1008 	mov	r0,#_htons
   035E 79s27              1009 	mov	r1,#(_htons >> 8)
   0360 7As00              1010 	mov	r2,#(_htons >> 16)
   0362 12s00r00           1011 	lcall	__sdcc_banked_call
   0365 AC 82              1012 	mov	r4,dpl
   0367 AD 83              1013 	mov	r5,dph
   0369                    1014 00104$:
   0369 8C 82              1015 	mov	dpl,r4
   036B 8D 83              1016 	mov	dph,r5
                    036D   1017 	C$uip.c$362$1$1 ==.
                    036D   1018 	XFuip$upper_layer_chksum$0$0 ==.
   036D 22                 1019 	ret
                           1020 ;------------------------------------------------------------
                           1021 ;Allocation info for local variables in function 'uip_tcpchksum'
                           1022 ;------------------------------------------------------------
                           1023 ;------------------------------------------------------------
                    036E   1024 	G$uip_tcpchksum$0$0 ==.
                    036E   1025 	C$uip.c$374$1$1 ==.
                           1026 ;	..\uip\uip.c:374: uip_tcpchksum(void) banked
                           1027 ;	-----------------------------------------
                           1028 ;	 function uip_tcpchksum
                           1029 ;	-----------------------------------------
   036E                    1030 _uip_tcpchksum:
                    036E   1031 	C$uip.c$376$1$1 ==.
                           1032 ;	..\uip\uip.c:376: return upper_layer_chksum(UIP_PROTO_TCP);
   036E 75 82 06           1033 	mov	dpl,#0x06
   0371 12s02rB8           1034 	lcall	_upper_layer_chksum
   0374 AA 82              1035 	mov	r2,dpl
   0376 AB 83              1036 	mov  r3,dph
                    0378   1037 	C$uip.c$377$1$1 ==.
                    0378   1038 	XG$uip_tcpchksum$0$0 ==.
   0378 02s00r00           1039 	ljmp	__sdcc_banked_ret
                           1040 ;------------------------------------------------------------
                           1041 ;Allocation info for local variables in function 'uip_init'
                           1042 ;------------------------------------------------------------
                           1043 ;------------------------------------------------------------
                    037B   1044 	G$uip_init$0$0 ==.
                    037B   1045 	C$uip.c$389$1$1 ==.
                           1046 ;	..\uip\uip.c:389: uip_init(void) banked
                           1047 ;	-----------------------------------------
                           1048 ;	 function uip_init
                           1049 ;	-----------------------------------------
   037B                    1050 _uip_init:
                    037B   1051 	C$uip.c$391$1$1 ==.
                           1052 ;	..\uip\uip.c:391: for (c = 0; c < UIP_LISTENPORTS; ++c) {
   037B 90s0Dr5E           1053 	mov	dptr,#_c
   037E E4                 1054 	clr	a
   037F F0                 1055 	movx	@dptr,a
   0380                    1056 00101$:
   0380 90s0Dr5E           1057 	mov	dptr,#_c
   0383 E0                 1058 	movx	a,@dptr
   0384 FA                 1059 	mov	r2,a
   0385 BA 0A 00           1060 	cjne	r2,#0x0A,00114$
   0388                    1061 00114$:
   0388 50 18              1062 	jnc	00104$
                    038A   1063 	C$uip.c$392$2$2 ==.
                           1064 ;	..\uip\uip.c:392: uip_listenports[c] = 0;
   038A EA                 1065 	mov	a,r2
   038B 2A                 1066 	add	a,r2
   038C FB                 1067 	mov	r3,a
   038D 24r3C              1068 	add	a,#_uip_listenports
   038F F5 82              1069 	mov	dpl,a
   0391 E4                 1070 	clr	a
   0392 34s0D              1071 	addc	a,#(_uip_listenports >> 8)
   0394 F5 83              1072 	mov	dph,a
   0396 E4                 1073 	clr	a
   0397 F0                 1074 	movx	@dptr,a
   0398 A3                 1075 	inc	dptr
   0399 F0                 1076 	movx	@dptr,a
                    039A   1077 	C$uip.c$391$1$1 ==.
                           1078 ;	..\uip\uip.c:391: for (c = 0; c < UIP_LISTENPORTS; ++c) {
   039A 90s0Dr5E           1079 	mov	dptr,#_c
   039D EA                 1080 	mov	a,r2
   039E 04                 1081 	inc	a
   039F F0                 1082 	movx	@dptr,a
   03A0 80 DE              1083 	sjmp	00101$
   03A2                    1084 00104$:
                    03A2   1085 	C$uip.c$394$1$1 ==.
                           1086 ;	..\uip\uip.c:394: for (c = 0; c < UIP_CONNS; ++c) {
   03A2 90s0Dr5E           1087 	mov	dptr,#_c
   03A5 74 0A              1088 	mov	a,#0x0A
   03A7 F0                 1089 	movx	@dptr,a
   03A8                    1090 00107$:
                    03A8   1091 	C$uip.c$395$2$3 ==.
                           1092 ;	..\uip\uip.c:395: uip_conns[c].tcpstateflags = UIP_CLOSED;
   03A8 90s0Dr5E           1093 	mov	dptr,#_c
   03AB E0                 1094 	movx	a,@dptr
   03AC FA                 1095 	mov	r2,a
   03AD 1A                 1096 	dec	r2
   03AE 90s00r00           1097 	mov	dptr,#__mulint_PARM_2
   03B1 EA                 1098 	mov	a,r2
   03B2 F0                 1099 	movx	@dptr,a
   03B3 A3                 1100 	inc	dptr
   03B4 E4                 1101 	clr	a
   03B5 F0                 1102 	movx	@dptr,a
   03B6 90 01 28           1103 	mov	dptr,#0x0128
   03B9 C0 02              1104 	push	ar2
   03BB 12s00r00           1105 	lcall	__mulint
   03BE AB 82              1106 	mov	r3,dpl
   03C0 AC 83              1107 	mov	r4,dph
   03C2 D0 02              1108 	pop	ar2
   03C4 EB                 1109 	mov	a,r3
   03C5 24rAC              1110 	add	a,#_uip_conns
   03C7 FB                 1111 	mov	r3,a
   03C8 EC                 1112 	mov	a,r4
   03C9 34s01              1113 	addc	a,#(_uip_conns >> 8)
   03CB FC                 1114 	mov	r4,a
   03CC 74 19              1115 	mov	a,#0x19
   03CE 2B                 1116 	add	a,r3
   03CF F5 82              1117 	mov	dpl,a
   03D1 E4                 1118 	clr	a
   03D2 3C                 1119 	addc	a,r4
   03D3 F5 83              1120 	mov	dph,a
   03D5 E4                 1121 	clr	a
   03D6 F0                 1122 	movx	@dptr,a
                    03D7   1123 	C$uip.c$394$2$3 ==.
                           1124 ;	..\uip\uip.c:394: for (c = 0; c < UIP_CONNS; ++c) {
   03D7 90s0Dr5E           1125 	mov	dptr,#_c
   03DA EA                 1126 	mov	a,r2
   03DB F0                 1127 	movx	@dptr,a
   03DC E0                 1128 	movx	a,@dptr
   03DD FA                 1129 	mov	r2,a
   03DE 70 C8              1130 	jnz	00107$
   03E0 90s0Dr5E           1131 	mov	dptr,#_c
   03E3 74 0A              1132 	mov	a,#0x0A
   03E5 F0                 1133 	movx	@dptr,a
                    03E6   1134 	C$uip.c$398$1$1 ==.
                           1135 ;	..\uip\uip.c:398: lastport = 1024;
   03E6 90s0Dr58           1136 	mov	dptr,#_lastport
   03E9 E4                 1137 	clr	a
   03EA F0                 1138 	movx	@dptr,a
   03EB A3                 1139 	inc	dptr
   03EC 74 04              1140 	mov	a,#0x04
   03EE F0                 1141 	movx	@dptr,a
                    03EF   1142 	C$uip.c$413$1$1 ==.
                    03EF   1143 	XG$uip_init$0$0 ==.
   03EF 02s00r00           1144 	ljmp	__sdcc_banked_ret
                           1145 ;------------------------------------------------------------
                           1146 ;Allocation info for local variables in function 'uip_connect'
                           1147 ;------------------------------------------------------------
                           1148 ;sloc0                     Allocated with name '_uip_connect_sloc0_1_0'
                           1149 ;sloc1                     Allocated with name '_uip_connect_sloc1_1_0'
                           1150 ;rport                     Allocated with name '_uip_connect_PARM_2'
                           1151 ;ripaddr                   Allocated with name '_uip_connect_ripaddr_1_1'
                           1152 ;conn                      Allocated with name '_uip_connect_conn_1_1'
                           1153 ;cconn                     Allocated with name '_uip_connect_cconn_1_1'
                           1154 ;------------------------------------------------------------
                    03F2   1155 	G$uip_connect$0$0 ==.
                    03F2   1156 	C$uip.c$417$1$1 ==.
                           1157 ;	..\uip\uip.c:417: uip_connect(uip_ipaddr_t *ripaddr, u16_t rport) banked
                           1158 ;	-----------------------------------------
                           1159 ;	 function uip_connect
                           1160 ;	-----------------------------------------
   03F2                    1161 _uip_connect:
   03F2 AA F0              1162 	mov	r2,b
   03F4 AB 83              1163 	mov	r3,dph
   03F6 E5 82              1164 	mov	a,dpl
   03F8 90s0Dr73           1165 	mov	dptr,#_uip_connect_ripaddr_1_1
   03FB F0                 1166 	movx	@dptr,a
   03FC A3                 1167 	inc	dptr
   03FD EB                 1168 	mov	a,r3
   03FE F0                 1169 	movx	@dptr,a
   03FF A3                 1170 	inc	dptr
   0400 EA                 1171 	mov	a,r2
   0401 F0                 1172 	movx	@dptr,a
                    0402   1173 	C$uip.c$422$2$3 ==.
                           1174 ;	..\uip\uip.c:422: again:
   0402                    1175 00101$:
                    0402   1176 	C$uip.c$423$1$1 ==.
                           1177 ;	..\uip\uip.c:423: ++lastport;
   0402 90s0Dr58           1178 	mov	dptr,#_lastport
   0405 E0                 1179 	movx	a,@dptr
   0406 24 01              1180 	add	a,#0x01
   0408 F0                 1181 	movx	@dptr,a
   0409 A3                 1182 	inc	dptr
   040A E0                 1183 	movx	a,@dptr
   040B 34 00              1184 	addc	a,#0x00
   040D F0                 1185 	movx	@dptr,a
                    040E   1186 	C$uip.c$425$1$1 ==.
                           1187 ;	..\uip\uip.c:425: if (lastport >= 32000) {
   040E 90s0Dr58           1188 	mov	dptr,#_lastport
   0411 E0                 1189 	movx	a,@dptr
   0412 FA                 1190 	mov	r2,a
   0413 A3                 1191 	inc	dptr
   0414 E0                 1192 	movx	a,@dptr
   0415 FB                 1193 	mov	r3,a
   0416 C3                 1194 	clr	c
   0417 94 7D              1195 	subb	a,#0x7D
   0419 40 09              1196 	jc	00103$
                    041B   1197 	C$uip.c$426$2$2 ==.
                           1198 ;	..\uip\uip.c:426: lastport = 4096;
   041B 90s0Dr58           1199 	mov	dptr,#_lastport
   041E E4                 1200 	clr	a
   041F F0                 1201 	movx	@dptr,a
   0420 A3                 1202 	inc	dptr
   0421 74 10              1203 	mov	a,#0x10
   0423 F0                 1204 	movx	@dptr,a
   0424                    1205 00103$:
                    0424   1206 	C$uip.c$431$1$1 ==.
                           1207 ;	..\uip\uip.c:431: for (c = 0; c < UIP_CONNS; ++c) {
   0424 90s0Dr5E           1208 	mov	dptr,#_c
   0427 E4                 1209 	clr	a
   0428 F0                 1210 	movx	@dptr,a
   0429                    1211 00123$:
   0429 90s0Dr5E           1212 	mov	dptr,#_c
   042C E0                 1213 	movx	a,@dptr
   042D FA                 1214 	mov	r2,a
   042E BA 0A 00           1215 	cjne	r2,#0x0A,00141$
   0431                    1216 00141$:
   0431 40 03              1217 	jc	00142$
   0433 02s04rB2           1218 	ljmp	00126$
   0436                    1219 00142$:
                    0436   1220 	C$uip.c$432$2$3 ==.
                           1221 ;	..\uip\uip.c:432: conn = &uip_conns[c];
   0436 90s00r00           1222 	mov	dptr,#__mulint_PARM_2
   0439 EA                 1223 	mov	a,r2
   043A F0                 1224 	movx	@dptr,a
   043B A3                 1225 	inc	dptr
   043C E4                 1226 	clr	a
   043D F0                 1227 	movx	@dptr,a
   043E 90 01 28           1228 	mov	dptr,#0x0128
   0441 12s00r00           1229 	lcall	__mulint
   0444 AA 82              1230 	mov	r2,dpl
   0446 AB 83              1231 	mov	r3,dph
   0448 EA                 1232 	mov	a,r2
   0449 24rAC              1233 	add	a,#_uip_conns
   044B FA                 1234 	mov	r2,a
   044C EB                 1235 	mov	a,r3
   044D 34s01              1236 	addc	a,#(_uip_conns >> 8)
   044F FB                 1237 	mov	r3,a
   0450 7C 00              1238 	mov	r4,#0x00
                    0452   1239 	C$uip.c$433$2$3 ==.
                           1240 ;	..\uip\uip.c:433: if (conn->tcpstateflags != UIP_CLOSED &&
   0452 74 19              1241 	mov	a,#0x19
   0454 2A                 1242 	add	a,r2
   0455 FD                 1243 	mov	r5,a
   0456 E4                 1244 	clr	a
   0457 3B                 1245 	addc	a,r3
   0458 FE                 1246 	mov	r6,a
   0459 8C 07              1247 	mov	ar7,r4
   045B 8D 82              1248 	mov	dpl,r5
   045D 8E 83              1249 	mov	dph,r6
   045F 8F F0              1250 	mov	b,r7
   0461 12s00r00           1251 	lcall	__gptrget
   0464 60 42              1252 	jz	00125$
                    0466   1253 	C$uip.c$434$2$3 ==.
                           1254 ;	..\uip\uip.c:434: conn->lport == htons(lastport)) {
   0466 74 04              1255 	mov	a,#0x04
   0468 2A                 1256 	add	a,r2
   0469 FA                 1257 	mov	r2,a
   046A E4                 1258 	clr	a
   046B 3B                 1259 	addc	a,r3
   046C FB                 1260 	mov	r3,a
   046D 8A 82              1261 	mov	dpl,r2
   046F 8B 83              1262 	mov	dph,r3
   0471 8C F0              1263 	mov	b,r4
   0473 12s00r00           1264 	lcall	__gptrget
   0476 FA                 1265 	mov	r2,a
   0477 A3                 1266 	inc	dptr
   0478 12s00r00           1267 	lcall	__gptrget
   047B FB                 1268 	mov	r3,a
   047C 90s0Dr58           1269 	mov	dptr,#_lastport
   047F E0                 1270 	movx	a,@dptr
   0480 FC                 1271 	mov	r4,a
   0481 A3                 1272 	inc	dptr
   0482 E0                 1273 	movx	a,@dptr
   0483 FD                 1274 	mov	r5,a
   0484 8C 82              1275 	mov	dpl,r4
   0486 8D 83              1276 	mov	dph,r5
   0488 C0 02              1277 	push	ar2
   048A C0 03              1278 	push	ar3
   048C 78r15              1279 	mov	r0,#_htons
   048E 79s27              1280 	mov	r1,#(_htons >> 8)
   0490 7As00              1281 	mov	r2,#(_htons >> 16)
   0492 12s00r00           1282 	lcall	__sdcc_banked_call
   0495 AC 82              1283 	mov	r4,dpl
   0497 AD 83              1284 	mov	r5,dph
   0499 D0 03              1285 	pop	ar3
   049B D0 02              1286 	pop	ar2
   049D EA                 1287 	mov	a,r2
   049E B5 04 07           1288 	cjne	a,ar4,00144$
   04A1 EB                 1289 	mov	a,r3
   04A2 B5 05 03           1290 	cjne	a,ar5,00144$
   04A5 02s04r02           1291 	ljmp	00101$
   04A8                    1292 00144$:
                    04A8   1293 	C$uip.c$435$1$3 ==.
                           1294 ;	..\uip\uip.c:435: goto again;
   04A8                    1295 00125$:
                    04A8   1296 	C$uip.c$431$1$1 ==.
                           1297 ;	..\uip\uip.c:431: for (c = 0; c < UIP_CONNS; ++c) {
   04A8 90s0Dr5E           1298 	mov	dptr,#_c
   04AB E0                 1299 	movx	a,@dptr
   04AC 24 01              1300 	add	a,#0x01
   04AE F0                 1301 	movx	@dptr,a
   04AF 02s04r29           1302 	ljmp	00123$
   04B2                    1303 00126$:
                    04B2   1304 	C$uip.c$439$1$1 ==.
                           1305 ;	..\uip\uip.c:439: conn = 0;
   04B2 90s0Dr76           1306 	mov	dptr,#_uip_connect_conn_1_1
                    04B5   1307 	C$uip.c$440$1$1 ==.
                           1308 ;	..\uip\uip.c:440: for (c = 0; c < UIP_CONNS; ++c) {
   04B5 E4                 1309 	clr	a
   04B6 F0                 1310 	movx	@dptr,a
   04B7 A3                 1311 	inc	dptr
   04B8 F0                 1312 	movx	@dptr,a
   04B9 A3                 1313 	inc	dptr
   04BA F0                 1314 	movx	@dptr,a
   04BB 90s0Dr5E           1315 	mov	dptr,#_c
   04BE F0                 1316 	movx	@dptr,a
   04BF                    1317 00114$:
   04BF 90s0Dr5E           1318 	mov	dptr,#_c
   04C2 E0                 1319 	movx	a,@dptr
   04C3 FA                 1320 	mov	r2,a
   04C4 BA 0A 00           1321 	cjne	r2,#0x0A,00145$
   04C7                    1322 00145$:
   04C7 40 03              1323 	jc	00146$
   04C9 02s05r6E           1324 	ljmp	00117$
   04CC                    1325 00146$:
                    04CC   1326 	C$uip.c$441$2$5 ==.
                           1327 ;	..\uip\uip.c:441: cconn = &uip_conns[c];
   04CC 90s00r00           1328 	mov	dptr,#__mulint_PARM_2
   04CF EA                 1329 	mov	a,r2
   04D0 F0                 1330 	movx	@dptr,a
   04D1 A3                 1331 	inc	dptr
   04D2 E4                 1332 	clr	a
   04D3 F0                 1333 	movx	@dptr,a
   04D4 90 01 28           1334 	mov	dptr,#0x0128
   04D7 12s00r00           1335 	lcall	__mulint
   04DA AA 82              1336 	mov	r2,dpl
   04DC AB 83              1337 	mov	r3,dph
   04DE EA                 1338 	mov	a,r2
   04DF 24rAC              1339 	add	a,#_uip_conns
   04E1 FA                 1340 	mov	r2,a
   04E2 EB                 1341 	mov	a,r3
   04E3 34s01              1342 	addc	a,#(_uip_conns >> 8)
   04E5 FB                 1343 	mov	r3,a
   04E6 7C 00              1344 	mov	r4,#0x00
   04E8 90s0Dr79           1345 	mov	dptr,#_uip_connect_cconn_1_1
   04EB EA                 1346 	mov	a,r2
   04EC F0                 1347 	movx	@dptr,a
   04ED A3                 1348 	inc	dptr
   04EE EB                 1349 	mov	a,r3
   04EF F0                 1350 	movx	@dptr,a
   04F0 A3                 1351 	inc	dptr
   04F1 EC                 1352 	mov	a,r4
   04F2 F0                 1353 	movx	@dptr,a
                    04F3   1354 	C$uip.c$442$2$5 ==.
                           1355 ;	..\uip\uip.c:442: if (cconn->tcpstateflags == UIP_CLOSED) {
   04F3 74 19              1356 	mov	a,#0x19
   04F5 2A                 1357 	add	a,r2
   04F6 FD                 1358 	mov	r5,a
   04F7 E4                 1359 	clr	a
   04F8 3B                 1360 	addc	a,r3
   04F9 FE                 1361 	mov	r6,a
   04FA 8C 07              1362 	mov	ar7,r4
   04FC 8D 82              1363 	mov	dpl,r5
   04FE 8E 83              1364 	mov	dph,r6
   0500 8F F0              1365 	mov	b,r7
   0502 12s00r00           1366 	lcall	__gptrget
   0505 FD                 1367 	mov	r5,a
   0506 70 0D              1368 	jnz	00108$
                    0508   1369 	C$uip.c$443$3$6 ==.
                           1370 ;	..\uip\uip.c:443: conn = cconn;
   0508 90s0Dr76           1371 	mov	dptr,#_uip_connect_conn_1_1
   050B EA                 1372 	mov	a,r2
   050C F0                 1373 	movx	@dptr,a
   050D A3                 1374 	inc	dptr
   050E EB                 1375 	mov	a,r3
   050F F0                 1376 	movx	@dptr,a
   0510 A3                 1377 	inc	dptr
   0511 EC                 1378 	mov	a,r4
   0512 F0                 1379 	movx	@dptr,a
                    0513   1380 	C$uip.c$444$3$6 ==.
                           1381 ;	..\uip\uip.c:444: break;
   0513 80 59              1382 	sjmp	00117$
   0515                    1383 00108$:
                    0515   1384 	C$uip.c$446$2$5 ==.
                           1385 ;	..\uip\uip.c:446: if (cconn->tcpstateflags == UIP_TIME_WAIT) {
   0515 BD 07 4C           1386 	cjne	r5,#0x07,00116$
                    0518   1387 	C$uip.c$447$3$7 ==.
                           1388 ;	..\uip\uip.c:447: if (conn == 0 ||
   0518 90s0Dr76           1389 	mov	dptr,#_uip_connect_conn_1_1
   051B E0                 1390 	movx	a,@dptr
   051C FD                 1391 	mov	r5,a
   051D A3                 1392 	inc	dptr
   051E E0                 1393 	movx	a,@dptr
   051F FE                 1394 	mov	r6,a
   0520 A3                 1395 	inc	dptr
   0521 E0                 1396 	movx	a,@dptr
   0522 FF                 1397 	mov	r7,a
   0523 ED                 1398 	mov	a,r5
   0524 4E                 1399 	orl	a,r6
   0525 4F                 1400 	orl	a,r7
   0526 60 26              1401 	jz	00109$
                    0528   1402 	C$uip.c$448$3$7 ==.
                           1403 ;	..\uip\uip.c:448: cconn->timer > conn->timer) {
   0528 74 1A              1404 	mov	a,#0x1A
   052A 2A                 1405 	add	a,r2
   052B FA                 1406 	mov	r2,a
   052C E4                 1407 	clr	a
   052D 3B                 1408 	addc	a,r3
   052E FB                 1409 	mov	r3,a
   052F 8A 82              1410 	mov	dpl,r2
   0531 8B 83              1411 	mov	dph,r3
   0533 8C F0              1412 	mov	b,r4
   0535 12s00r00           1413 	lcall	__gptrget
   0538 FA                 1414 	mov	r2,a
   0539 74 1A              1415 	mov	a,#0x1A
   053B 2D                 1416 	add	a,r5
   053C FD                 1417 	mov	r5,a
   053D E4                 1418 	clr	a
   053E 3E                 1419 	addc	a,r6
   053F FE                 1420 	mov	r6,a
   0540 8D 82              1421 	mov	dpl,r5
   0542 8E 83              1422 	mov	dph,r6
   0544 8F F0              1423 	mov	b,r7
   0546 12s00r00           1424 	lcall	__gptrget
   0549 FD                 1425 	mov	r5,a
   054A C3                 1426 	clr	c
   054B 9A                 1427 	subb	a,r2
   054C 50 16              1428 	jnc	00116$
   054E                    1429 00109$:
                    054E   1430 	C$uip.c$449$4$8 ==.
                           1431 ;	..\uip\uip.c:449: conn = cconn;
   054E 90s0Dr79           1432 	mov	dptr,#_uip_connect_cconn_1_1
   0551 E0                 1433 	movx	a,@dptr
   0552 FA                 1434 	mov	r2,a
   0553 A3                 1435 	inc	dptr
   0554 E0                 1436 	movx	a,@dptr
   0555 FB                 1437 	mov	r3,a
   0556 A3                 1438 	inc	dptr
   0557 E0                 1439 	movx	a,@dptr
   0558 FC                 1440 	mov	r4,a
   0559 90s0Dr76           1441 	mov	dptr,#_uip_connect_conn_1_1
   055C EA                 1442 	mov	a,r2
   055D F0                 1443 	movx	@dptr,a
   055E A3                 1444 	inc	dptr
   055F EB                 1445 	mov	a,r3
   0560 F0                 1446 	movx	@dptr,a
   0561 A3                 1447 	inc	dptr
   0562 EC                 1448 	mov	a,r4
   0563 F0                 1449 	movx	@dptr,a
   0564                    1450 00116$:
                    0564   1451 	C$uip.c$440$1$1 ==.
                           1452 ;	..\uip\uip.c:440: for (c = 0; c < UIP_CONNS; ++c) {
   0564 90s0Dr5E           1453 	mov	dptr,#_c
   0567 E0                 1454 	movx	a,@dptr
   0568 24 01              1455 	add	a,#0x01
   056A F0                 1456 	movx	@dptr,a
   056B 02s04rBF           1457 	ljmp	00114$
   056E                    1458 00117$:
                    056E   1459 	C$uip.c$454$1$1 ==.
                           1460 ;	..\uip\uip.c:454: if (conn == 0) {
   056E 90s0Dr76           1461 	mov	dptr,#_uip_connect_conn_1_1
   0571 E0                 1462 	movx	a,@dptr
   0572 FA                 1463 	mov	r2,a
   0573 A3                 1464 	inc	dptr
   0574 E0                 1465 	movx	a,@dptr
   0575 FB                 1466 	mov	r3,a
   0576 A3                 1467 	inc	dptr
   0577 E0                 1468 	movx	a,@dptr
   0578 FC                 1469 	mov	r4,a
   0579 EA                 1470 	mov	a,r2
   057A 4B                 1471 	orl	a,r3
   057B 4C                 1472 	orl	a,r4
                    057C   1473 	C$uip.c$455$2$9 ==.
                           1474 ;	..\uip\uip.c:455: return 0;
   057C 70 08              1475 	jnz	00119$
   057E 90 00 00           1476 	mov	dptr,#0x0000
   0581 F5 F0              1477 	mov	b,a
   0583 02s07r8C           1478 	ljmp	00127$
   0586                    1479 00119$:
                    0586   1480 	C$uip.c$458$1$1 ==.
                           1481 ;	..\uip\uip.c:458: conn->tcpstateflags = UIP_SYN_SENT;
   0586 74 19              1482 	mov	a,#0x19
   0588 2A                 1483 	add	a,r2
   0589 FD                 1484 	mov	r5,a
   058A E4                 1485 	clr	a
   058B 3B                 1486 	addc	a,r3
   058C FE                 1487 	mov	r6,a
   058D 8C 07              1488 	mov	ar7,r4
   058F 8D 82              1489 	mov	dpl,r5
   0591 8E 83              1490 	mov	dph,r6
   0593 8F F0              1491 	mov	b,r7
   0595 74 02              1492 	mov	a,#0x02
   0597 12s00r00           1493 	lcall	__gptrput
                    059A   1494 	C$uip.c$460$1$1 ==.
                           1495 ;	..\uip\uip.c:460: conn->snd_nxt[0] = iss[0];
   059A 74 0C              1496 	mov	a,#0x0C
   059C 2A                 1497 	add	a,r2
   059D FD                 1498 	mov	r5,a
   059E E4                 1499 	clr	a
   059F 3B                 1500 	addc	a,r3
   05A0 FE                 1501 	mov	r6,a
   05A1 8C 07              1502 	mov	ar7,r4
   05A3 90s0Dr54           1503 	mov	dptr,#_iss
   05A6 E0                 1504 	movx	a,@dptr
   05A7 8D 82              1505 	mov	dpl,r5
   05A9 8E 83              1506 	mov	dph,r6
   05AB 8F F0              1507 	mov	b,r7
   05AD 12s00r00           1508 	lcall	__gptrput
                    05B0   1509 	C$uip.c$461$1$1 ==.
                           1510 ;	..\uip\uip.c:461: conn->snd_nxt[1] = iss[1];
   05B0 74 0C              1511 	mov	a,#0x0C
   05B2 2A                 1512 	add	a,r2
   05B3 F5*00              1513 	mov	_uip_connect_sloc0_1_0,a
   05B5 E4                 1514 	clr	a
   05B6 3B                 1515 	addc	a,r3
   05B7 F5*01              1516 	mov	(_uip_connect_sloc0_1_0 + 1),a
   05B9 8C*02              1517 	mov	(_uip_connect_sloc0_1_0 + 2),r4
   05BB 74 01              1518 	mov	a,#0x01
   05BD 25*00              1519 	add	a,_uip_connect_sloc0_1_0
   05BF F8                 1520 	mov	r0,a
   05C0 E4                 1521 	clr	a
   05C1 35*01              1522 	addc	a,(_uip_connect_sloc0_1_0 + 1)
   05C3 F9                 1523 	mov	r1,a
   05C4 AD*02              1524 	mov	r5,(_uip_connect_sloc0_1_0 + 2)
   05C6 90s0Dr55           1525 	mov	dptr,#(_iss + 0x0001)
   05C9 E0                 1526 	movx	a,@dptr
   05CA 88 82              1527 	mov	dpl,r0
   05CC 89 83              1528 	mov	dph,r1
   05CE 8D F0              1529 	mov	b,r5
   05D0 12s00r00           1530 	lcall	__gptrput
                    05D3   1531 	C$uip.c$462$1$1 ==.
                           1532 ;	..\uip\uip.c:462: conn->snd_nxt[2] = iss[2];
   05D3 74 02              1533 	mov	a,#0x02
   05D5 25*00              1534 	add	a,_uip_connect_sloc0_1_0
   05D7 FD                 1535 	mov	r5,a
   05D8 E4                 1536 	clr	a
   05D9 35*01              1537 	addc	a,(_uip_connect_sloc0_1_0 + 1)
   05DB FE                 1538 	mov	r6,a
   05DC AF*02              1539 	mov	r7,(_uip_connect_sloc0_1_0 + 2)
   05DE 90s0Dr56           1540 	mov	dptr,#(_iss + 0x0002)
   05E1 E0                 1541 	movx	a,@dptr
   05E2 8D 82              1542 	mov	dpl,r5
   05E4 8E 83              1543 	mov	dph,r6
   05E6 8F F0              1544 	mov	b,r7
   05E8 12s00r00           1545 	lcall	__gptrput
                    05EB   1546 	C$uip.c$463$1$1 ==.
                           1547 ;	..\uip\uip.c:463: conn->snd_nxt[3] = iss[3];
   05EB 74 03              1548 	mov	a,#0x03
   05ED 25*00              1549 	add	a,_uip_connect_sloc0_1_0
   05EF FD                 1550 	mov	r5,a
   05F0 E4                 1551 	clr	a
   05F1 35*01              1552 	addc	a,(_uip_connect_sloc0_1_0 + 1)
   05F3 FE                 1553 	mov	r6,a
   05F4 AF*02              1554 	mov	r7,(_uip_connect_sloc0_1_0 + 2)
   05F6 90s0Dr57           1555 	mov	dptr,#(_iss + 0x0003)
   05F9 E0                 1556 	movx	a,@dptr
   05FA 8D 82              1557 	mov	dpl,r5
   05FC 8E 83              1558 	mov	dph,r6
   05FE 8F F0              1559 	mov	b,r7
   0600 12s00r00           1560 	lcall	__gptrput
                    0603   1561 	C$uip.c$465$1$1 ==.
                           1562 ;	..\uip\uip.c:465: conn->initialmss = conn->mss = UIP_TCP_MSS;
   0603 74 14              1563 	mov	a,#0x14
   0605 2A                 1564 	add	a,r2
   0606 F5*00              1565 	mov	_uip_connect_sloc0_1_0,a
   0608 E4                 1566 	clr	a
   0609 3B                 1567 	addc	a,r3
   060A F5*01              1568 	mov	(_uip_connect_sloc0_1_0 + 1),a
   060C 8C*02              1569 	mov	(_uip_connect_sloc0_1_0 + 2),r4
   060E 74 12              1570 	mov	a,#0x12
   0610 2A                 1571 	add	a,r2
   0611 F8                 1572 	mov	r0,a
   0612 E4                 1573 	clr	a
   0613 3B                 1574 	addc	a,r3
   0614 F9                 1575 	mov	r1,a
   0615 8C 05              1576 	mov	ar5,r4
   0617 88 82              1577 	mov	dpl,r0
   0619 89 83              1578 	mov	dph,r1
   061B 8D F0              1579 	mov	b,r5
   061D 74 5A              1580 	mov	a,#0x5A
   061F 12s00r00           1581 	lcall	__gptrput
   0622 A3                 1582 	inc	dptr
   0623 74 01              1583 	mov	a,#0x01
   0625 12s00r00           1584 	lcall	__gptrput
   0628 85*00 82           1585 	mov	dpl,_uip_connect_sloc0_1_0
   062B 85*01 83           1586 	mov	dph,(_uip_connect_sloc0_1_0 + 1)
   062E 85*02 F0           1587 	mov	b,(_uip_connect_sloc0_1_0 + 2)
   0631 74 5A              1588 	mov	a,#0x5A
   0633 12s00r00           1589 	lcall	__gptrput
   0636 A3                 1590 	inc	dptr
   0637 74 01              1591 	mov	a,#0x01
   0639 12s00r00           1592 	lcall	__gptrput
                    063C   1593 	C$uip.c$467$1$1 ==.
                           1594 ;	..\uip\uip.c:467: conn->len = 1;   /* TCP length of the SYN is one. */
   063C 74 10              1595 	mov	a,#0x10
   063E 2A                 1596 	add	a,r2
   063F FD                 1597 	mov	r5,a
   0640 E4                 1598 	clr	a
   0641 3B                 1599 	addc	a,r3
   0642 FE                 1600 	mov	r6,a
   0643 8C 07              1601 	mov	ar7,r4
   0645 8D 82              1602 	mov	dpl,r5
   0647 8E 83              1603 	mov	dph,r6
   0649 8F F0              1604 	mov	b,r7
   064B 74 01              1605 	mov	a,#0x01
   064D 12s00r00           1606 	lcall	__gptrput
   0650 A3                 1607 	inc	dptr
   0651 E4                 1608 	clr	a
   0652 12s00r00           1609 	lcall	__gptrput
                    0655   1610 	C$uip.c$468$1$1 ==.
                           1611 ;	..\uip\uip.c:468: conn->nrtx = 0;
   0655 74 1B              1612 	mov	a,#0x1B
   0657 2A                 1613 	add	a,r2
   0658 FD                 1614 	mov	r5,a
   0659 E4                 1615 	clr	a
   065A 3B                 1616 	addc	a,r3
   065B FE                 1617 	mov	r6,a
   065C 8C 07              1618 	mov	ar7,r4
   065E 8D 82              1619 	mov	dpl,r5
   0660 8E 83              1620 	mov	dph,r6
   0662 8F F0              1621 	mov	b,r7
   0664 E4                 1622 	clr	a
   0665 12s00r00           1623 	lcall	__gptrput
                    0668   1624 	C$uip.c$469$1$1 ==.
                           1625 ;	..\uip\uip.c:469: conn->timer = 1; /* Send the SYN next time around. */
   0668 74 1A              1626 	mov	a,#0x1A
   066A 2A                 1627 	add	a,r2
   066B FD                 1628 	mov	r5,a
   066C E4                 1629 	clr	a
   066D 3B                 1630 	addc	a,r3
   066E FE                 1631 	mov	r6,a
   066F 8C 07              1632 	mov	ar7,r4
   0671 8D 82              1633 	mov	dpl,r5
   0673 8E 83              1634 	mov	dph,r6
   0675 8F F0              1635 	mov	b,r7
   0677 74 01              1636 	mov	a,#0x01
   0679 12s00r00           1637 	lcall	__gptrput
                    067C   1638 	C$uip.c$470$1$1 ==.
                           1639 ;	..\uip\uip.c:470: conn->rto = UIP_RTO;
   067C 74 18              1640 	mov	a,#0x18
   067E 2A                 1641 	add	a,r2
   067F FD                 1642 	mov	r5,a
   0680 E4                 1643 	clr	a
   0681 3B                 1644 	addc	a,r3
   0682 FE                 1645 	mov	r6,a
   0683 8C 07              1646 	mov	ar7,r4
   0685 8D 82              1647 	mov	dpl,r5
   0687 8E 83              1648 	mov	dph,r6
   0689 8F F0              1649 	mov	b,r7
   068B 74 03              1650 	mov	a,#0x03
   068D 12s00r00           1651 	lcall	__gptrput
                    0690   1652 	C$uip.c$471$1$1 ==.
                           1653 ;	..\uip\uip.c:471: conn->sa = 0;
   0690 74 16              1654 	mov	a,#0x16
   0692 2A                 1655 	add	a,r2
   0693 FD                 1656 	mov	r5,a
   0694 E4                 1657 	clr	a
   0695 3B                 1658 	addc	a,r3
   0696 FE                 1659 	mov	r6,a
   0697 8C 07              1660 	mov	ar7,r4
   0699 8D 82              1661 	mov	dpl,r5
   069B 8E 83              1662 	mov	dph,r6
   069D 8F F0              1663 	mov	b,r7
   069F E4                 1664 	clr	a
   06A0 12s00r00           1665 	lcall	__gptrput
                    06A3   1666 	C$uip.c$472$1$1 ==.
                           1667 ;	..\uip\uip.c:472: conn->sv = 16;   /* Initial value of the RTT variance. */
   06A3 74 17              1668 	mov	a,#0x17
   06A5 2A                 1669 	add	a,r2
   06A6 FD                 1670 	mov	r5,a
   06A7 E4                 1671 	clr	a
   06A8 3B                 1672 	addc	a,r3
   06A9 FE                 1673 	mov	r6,a
   06AA 8C 07              1674 	mov	ar7,r4
   06AC 8D 82              1675 	mov	dpl,r5
   06AE 8E 83              1676 	mov	dph,r6
   06B0 8F F0              1677 	mov	b,r7
   06B2 74 10              1678 	mov	a,#0x10
   06B4 12s00r00           1679 	lcall	__gptrput
                    06B7   1680 	C$uip.c$473$1$1 ==.
                           1681 ;	..\uip\uip.c:473: conn->lport = htons(lastport);
   06B7 74 04              1682 	mov	a,#0x04
   06B9 2A                 1683 	add	a,r2
   06BA FD                 1684 	mov	r5,a
   06BB E4                 1685 	clr	a
   06BC 3B                 1686 	addc	a,r3
   06BD FE                 1687 	mov	r6,a
   06BE 8C 07              1688 	mov	ar7,r4
   06C0 90s0Dr58           1689 	mov	dptr,#_lastport
   06C3 E0                 1690 	movx	a,@dptr
   06C4 F8                 1691 	mov	r0,a
   06C5 A3                 1692 	inc	dptr
   06C6 E0                 1693 	movx	a,@dptr
   06C7 F9                 1694 	mov	r1,a
   06C8 88 82              1695 	mov	dpl,r0
   06CA 89 83              1696 	mov	dph,r1
   06CC C0 02              1697 	push	ar2
   06CE C0 03              1698 	push	ar3
   06D0 C0 04              1699 	push	ar4
   06D2 C0 05              1700 	push	ar5
   06D4 C0 06              1701 	push	ar6
   06D6 C0 07              1702 	push	ar7
   06D8 78r15              1703 	mov	r0,#_htons
   06DA 79s27              1704 	mov	r1,#(_htons >> 8)
   06DC 7As00              1705 	mov	r2,#(_htons >> 16)
   06DE 12s00r00           1706 	lcall	__sdcc_banked_call
   06E1 A8 82              1707 	mov	r0,dpl
   06E3 A9 83              1708 	mov	r1,dph
   06E5 D0 07              1709 	pop	ar7
   06E7 D0 06              1710 	pop	ar6
   06E9 D0 05              1711 	pop	ar5
   06EB D0 04              1712 	pop	ar4
   06ED D0 03              1713 	pop	ar3
   06EF D0 02              1714 	pop	ar2
   06F1 8D 82              1715 	mov	dpl,r5
   06F3 8E 83              1716 	mov	dph,r6
   06F5 8F F0              1717 	mov	b,r7
   06F7 E8                 1718 	mov	a,r0
   06F8 12s00r00           1719 	lcall	__gptrput
   06FB A3                 1720 	inc	dptr
   06FC E9                 1721 	mov	a,r1
   06FD 12s00r00           1722 	lcall	__gptrput
                    0700   1723 	C$uip.c$474$1$1 ==.
                           1724 ;	..\uip\uip.c:474: conn->rport = rport;
   0700 74 06              1725 	mov	a,#0x06
   0702 2A                 1726 	add	a,r2
   0703 FD                 1727 	mov	r5,a
   0704 E4                 1728 	clr	a
   0705 3B                 1729 	addc	a,r3
   0706 FE                 1730 	mov	r6,a
   0707 8C 07              1731 	mov	ar7,r4
   0709 90s0Dr71           1732 	mov	dptr,#_uip_connect_PARM_2
   070C E0                 1733 	movx	a,@dptr
   070D F8                 1734 	mov	r0,a
   070E A3                 1735 	inc	dptr
   070F E0                 1736 	movx	a,@dptr
   0710 F9                 1737 	mov	r1,a
   0711 8D 82              1738 	mov	dpl,r5
   0713 8E 83              1739 	mov	dph,r6
   0715 8F F0              1740 	mov	b,r7
   0717 E8                 1741 	mov	a,r0
   0718 12s00r00           1742 	lcall	__gptrput
   071B A3                 1743 	inc	dptr
   071C E9                 1744 	mov	a,r1
   071D 12s00r00           1745 	lcall	__gptrput
                    0720   1746 	C$uip.c$475$2$10 ==.
                           1747 ;	..\uip\uip.c:475: uip_ipaddr_copy(&conn->ripaddr, ripaddr);
   0720 90s0Dr73           1748 	mov	dptr,#_uip_connect_ripaddr_1_1
   0723 E0                 1749 	movx	a,@dptr
   0724 F5*00              1750 	mov	_uip_connect_sloc0_1_0,a
   0726 A3                 1751 	inc	dptr
   0727 E0                 1752 	movx	a,@dptr
   0728 F5*01              1753 	mov	(_uip_connect_sloc0_1_0 + 1),a
   072A A3                 1754 	inc	dptr
   072B E0                 1755 	movx	a,@dptr
   072C F5*02              1756 	mov	(_uip_connect_sloc0_1_0 + 2),a
   072E 85*00 82           1757 	mov	dpl,_uip_connect_sloc0_1_0
   0731 85*01 83           1758 	mov	dph,(_uip_connect_sloc0_1_0 + 1)
   0734 85*02 F0           1759 	mov	b,(_uip_connect_sloc0_1_0 + 2)
   0737 12s00r00           1760 	lcall	__gptrget
   073A F8                 1761 	mov	r0,a
   073B A3                 1762 	inc	dptr
   073C 12s00r00           1763 	lcall	__gptrget
   073F F9                 1764 	mov	r1,a
   0740 8A 82              1765 	mov	dpl,r2
   0742 8B 83              1766 	mov	dph,r3
   0744 8C F0              1767 	mov	b,r4
   0746 E8                 1768 	mov	a,r0
   0747 12s00r00           1769 	lcall	__gptrput
   074A A3                 1770 	inc	dptr
   074B E9                 1771 	mov	a,r1
   074C 12s00r00           1772 	lcall	__gptrput
   074F 74 02              1773 	mov	a,#0x02
   0751 2A                 1774 	add	a,r2
   0752 F5*03              1775 	mov	_uip_connect_sloc1_1_0,a
   0754 E4                 1776 	clr	a
   0755 3B                 1777 	addc	a,r3
   0756 F5*04              1778 	mov	(_uip_connect_sloc1_1_0 + 1),a
   0758 8C*05              1779 	mov	(_uip_connect_sloc1_1_0 + 2),r4
   075A 74 02              1780 	mov	a,#0x02
   075C 25*00              1781 	add	a,_uip_connect_sloc0_1_0
   075E FE                 1782 	mov	r6,a
   075F E4                 1783 	clr	a
   0760 35*01              1784 	addc	a,(_uip_connect_sloc0_1_0 + 1)
   0762 FF                 1785 	mov	r7,a
   0763 AD*02              1786 	mov	r5,(_uip_connect_sloc0_1_0 + 2)
   0765 8E 82              1787 	mov	dpl,r6
   0767 8F 83              1788 	mov	dph,r7
   0769 8D F0              1789 	mov	b,r5
   076B 12s00r00           1790 	lcall	__gptrget
   076E FE                 1791 	mov	r6,a
   076F A3                 1792 	inc	dptr
   0770 12s00r00           1793 	lcall	__gptrget
   0773 FF                 1794 	mov	r7,a
   0774 85*03 82           1795 	mov	dpl,_uip_connect_sloc1_1_0
   0777 85*04 83           1796 	mov	dph,(_uip_connect_sloc1_1_0 + 1)
   077A 85*05 F0           1797 	mov	b,(_uip_connect_sloc1_1_0 + 2)
   077D EE                 1798 	mov	a,r6
   077E 12s00r00           1799 	lcall	__gptrput
   0781 A3                 1800 	inc	dptr
   0782 EF                 1801 	mov	a,r7
   0783 12s00r00           1802 	lcall	__gptrput
                    0786   1803 	C$uip.c$477$1$1 ==.
                           1804 ;	..\uip\uip.c:477: return conn;
   0786 8A 82              1805 	mov	dpl,r2
   0788 8B 83              1806 	mov	dph,r3
   078A 8C F0              1807 	mov	b,r4
   078C                    1808 00127$:
                    078C   1809 	C$uip.c$478$1$1 ==.
                    078C   1810 	XG$uip_connect$0$0 ==.
   078C 02s00r00           1811 	ljmp	__sdcc_banked_ret
                           1812 ;------------------------------------------------------------
                           1813 ;Allocation info for local variables in function 'uip_unlisten'
                           1814 ;------------------------------------------------------------
                           1815 ;port                      Allocated with name '_uip_unlisten_port_1_1'
                           1816 ;------------------------------------------------------------
                    078F   1817 	G$uip_unlisten$0$0 ==.
                    078F   1818 	C$uip.c$528$1$1 ==.
                           1819 ;	..\uip\uip.c:528: uip_unlisten(u16_t port) banked
                           1820 ;	-----------------------------------------
                           1821 ;	 function uip_unlisten
                           1822 ;	-----------------------------------------
   078F                    1823 _uip_unlisten:
   078F AA 83              1824 	mov	r2,dph
   0791 E5 82              1825 	mov	a,dpl
   0793 90s0Dr7C           1826 	mov	dptr,#_uip_unlisten_port_1_1
   0796 F0                 1827 	movx	@dptr,a
   0797 A3                 1828 	inc	dptr
   0798 EA                 1829 	mov	a,r2
   0799 F0                 1830 	movx	@dptr,a
                    079A   1831 	C$uip.c$530$1$1 ==.
                           1832 ;	..\uip\uip.c:530: for (c = 0; c < UIP_LISTENPORTS; ++c) {
   079A 90s0Dr5E           1833 	mov	dptr,#_c
   079D E4                 1834 	clr	a
   079E F0                 1835 	movx	@dptr,a
   079F 90s0Dr7C           1836 	mov	dptr,#_uip_unlisten_port_1_1
   07A2 E0                 1837 	movx	a,@dptr
   07A3 FA                 1838 	mov	r2,a
   07A4 A3                 1839 	inc	dptr
   07A5 E0                 1840 	movx	a,@dptr
   07A6 FB                 1841 	mov	r3,a
   07A7                    1842 00103$:
   07A7 90s0Dr5E           1843 	mov	dptr,#_c
   07AA E0                 1844 	movx	a,@dptr
   07AB FC                 1845 	mov	r4,a
   07AC BC 0A 00           1846 	cjne	r4,#0x0A,00112$
   07AF                    1847 00112$:
   07AF 50 2C              1848 	jnc	00107$
                    07B1   1849 	C$uip.c$531$2$2 ==.
                           1850 ;	..\uip\uip.c:531: if (uip_listenports[c] == port) {
   07B1 EC                 1851 	mov	a,r4
   07B2 2C                 1852 	add	a,r4
   07B3 24r3C              1853 	add	a,#_uip_listenports
   07B5 FD                 1854 	mov	r5,a
   07B6 E4                 1855 	clr	a
   07B7 34s0D              1856 	addc	a,#(_uip_listenports >> 8)
   07B9 FE                 1857 	mov	r6,a
   07BA 8D 82              1858 	mov	dpl,r5
   07BC 8E 83              1859 	mov	dph,r6
   07BE E0                 1860 	movx	a,@dptr
   07BF FF                 1861 	mov	r7,a
   07C0 A3                 1862 	inc	dptr
   07C1 E0                 1863 	movx	a,@dptr
   07C2 F8                 1864 	mov	r0,a
   07C3 EF                 1865 	mov	a,r7
   07C4 B5 02 0E           1866 	cjne	a,ar2,00105$
   07C7 E8                 1867 	mov	a,r0
   07C8 B5 03 0A           1868 	cjne	a,ar3,00105$
                    07CB   1869 	C$uip.c$532$3$3 ==.
                           1870 ;	..\uip\uip.c:532: uip_listenports[c] = 0;
   07CB 8D 82              1871 	mov	dpl,r5
   07CD 8E 83              1872 	mov	dph,r6
   07CF E4                 1873 	clr	a
   07D0 F0                 1874 	movx	@dptr,a
   07D1 A3                 1875 	inc	dptr
   07D2 F0                 1876 	movx	@dptr,a
                    07D3   1877 	C$uip.c$533$3$3 ==.
                           1878 ;	..\uip\uip.c:533: return;
   07D3 80 08              1879 	sjmp	00107$
   07D5                    1880 00105$:
                    07D5   1881 	C$uip.c$530$1$1 ==.
                           1882 ;	..\uip\uip.c:530: for (c = 0; c < UIP_LISTENPORTS; ++c) {
   07D5 90s0Dr5E           1883 	mov	dptr,#_c
   07D8 EC                 1884 	mov	a,r4
   07D9 04                 1885 	inc	a
   07DA F0                 1886 	movx	@dptr,a
   07DB 80 CA              1887 	sjmp	00103$
   07DD                    1888 00107$:
                    07DD   1889 	C$uip.c$536$1$1 ==.
                    07DD   1890 	XG$uip_unlisten$0$0 ==.
   07DD 02s00r00           1891 	ljmp	__sdcc_banked_ret
                           1892 ;------------------------------------------------------------
                           1893 ;Allocation info for local variables in function 'uip_listen'
                           1894 ;------------------------------------------------------------
                           1895 ;port                      Allocated with name '_uip_listen_port_1_1'
                           1896 ;------------------------------------------------------------
                    07E0   1897 	G$uip_listen$0$0 ==.
                    07E0   1898 	C$uip.c$539$1$1 ==.
                           1899 ;	..\uip\uip.c:539: uip_listen(u16_t port) banked
                           1900 ;	-----------------------------------------
                           1901 ;	 function uip_listen
                           1902 ;	-----------------------------------------
   07E0                    1903 _uip_listen:
   07E0 AA 83              1904 	mov	r2,dph
   07E2 E5 82              1905 	mov	a,dpl
   07E4 90s0Dr7E           1906 	mov	dptr,#_uip_listen_port_1_1
   07E7 F0                 1907 	movx	@dptr,a
   07E8 A3                 1908 	inc	dptr
   07E9 EA                 1909 	mov	a,r2
   07EA F0                 1910 	movx	@dptr,a
                    07EB   1911 	C$uip.c$541$1$1 ==.
                           1912 ;	..\uip\uip.c:541: for (c = 0; c < UIP_LISTENPORTS; ++c) {
   07EB 90s0Dr5E           1913 	mov	dptr,#_c
   07EE E4                 1914 	clr	a
   07EF F0                 1915 	movx	@dptr,a
   07F0                    1916 00103$:
   07F0 90s0Dr5E           1917 	mov	dptr,#_c
   07F3 E0                 1918 	movx	a,@dptr
   07F4 FA                 1919 	mov	r2,a
   07F5 BA 0A 00           1920 	cjne	r2,#0x0A,00112$
   07F8                    1921 00112$:
   07F8 50 30              1922 	jnc	00107$
                    07FA   1923 	C$uip.c$542$2$2 ==.
                           1924 ;	..\uip\uip.c:542: if (uip_listenports[c] == 0) {
   07FA EA                 1925 	mov	a,r2
   07FB 2A                 1926 	add	a,r2
   07FC 24r3C              1927 	add	a,#_uip_listenports
   07FE FB                 1928 	mov	r3,a
   07FF E4                 1929 	clr	a
   0800 34s0D              1930 	addc	a,#(_uip_listenports >> 8)
   0802 FC                 1931 	mov	r4,a
   0803 8B 82              1932 	mov	dpl,r3
   0805 8C 83              1933 	mov	dph,r4
   0807 E0                 1934 	movx	a,@dptr
   0808 FD                 1935 	mov	r5,a
   0809 A3                 1936 	inc	dptr
   080A E0                 1937 	movx	a,@dptr
   080B FE                 1938 	mov	r6,a
   080C 4D                 1939 	orl	a,r5
   080D 70 13              1940 	jnz	00105$
                    080F   1941 	C$uip.c$543$3$3 ==.
                           1942 ;	..\uip\uip.c:543: uip_listenports[c] = port;
   080F 90s0Dr7E           1943 	mov	dptr,#_uip_listen_port_1_1
   0812 E0                 1944 	movx	a,@dptr
   0813 FD                 1945 	mov	r5,a
   0814 A3                 1946 	inc	dptr
   0815 E0                 1947 	movx	a,@dptr
   0816 FE                 1948 	mov	r6,a
   0817 8B 82              1949 	mov	dpl,r3
   0819 8C 83              1950 	mov	dph,r4
   081B ED                 1951 	mov	a,r5
   081C F0                 1952 	movx	@dptr,a
   081D A3                 1953 	inc	dptr
   081E EE                 1954 	mov	a,r6
   081F F0                 1955 	movx	@dptr,a
                    0820   1956 	C$uip.c$544$3$3 ==.
                           1957 ;	..\uip\uip.c:544: return;
   0820 80 08              1958 	sjmp	00107$
   0822                    1959 00105$:
                    0822   1960 	C$uip.c$541$1$1 ==.
                           1961 ;	..\uip\uip.c:541: for (c = 0; c < UIP_LISTENPORTS; ++c) {
   0822 90s0Dr5E           1962 	mov	dptr,#_c
   0825 EA                 1963 	mov	a,r2
   0826 04                 1964 	inc	a
   0827 F0                 1965 	movx	@dptr,a
   0828 80 C6              1966 	sjmp	00103$
   082A                    1967 00107$:
                    082A   1968 	C$uip.c$547$1$1 ==.
                    082A   1969 	XG$uip_listen$0$0 ==.
   082A 02s00r00           1970 	ljmp	__sdcc_banked_ret
                           1971 ;------------------------------------------------------------
                           1972 ;Allocation info for local variables in function 'uip_add_rcv_nxt'
                           1973 ;------------------------------------------------------------
                           1974 ;n                         Allocated with name '_uip_add_rcv_nxt_n_1_1'
                           1975 ;------------------------------------------------------------
                    082D   1976 	Fuip$uip_add_rcv_nxt$0$0 ==.
                    082D   1977 	C$uip.c$683$1$1 ==.
                           1978 ;	..\uip\uip.c:683: uip_add_rcv_nxt(u16_t n)
                           1979 ;	-----------------------------------------
                           1980 ;	 function uip_add_rcv_nxt
                           1981 ;	-----------------------------------------
   082D                    1982 _uip_add_rcv_nxt:
   082D AA 83              1983 	mov	r2,dph
   082F E5 82              1984 	mov	a,dpl
   0831 90s0Dr80           1985 	mov	dptr,#_uip_add_rcv_nxt_n_1_1
   0834 F0                 1986 	movx	@dptr,a
   0835 A3                 1987 	inc	dptr
   0836 EA                 1988 	mov	a,r2
   0837 F0                 1989 	movx	@dptr,a
                    0838   1990 	C$uip.c$685$1$1 ==.
                           1991 ;	..\uip\uip.c:685: uip_add32(uip_conn->rcv_nxt, n);
   0838 90s01rA9           1992 	mov	dptr,#_uip_conn
   083B E0                 1993 	movx	a,@dptr
   083C FA                 1994 	mov	r2,a
   083D A3                 1995 	inc	dptr
   083E E0                 1996 	movx	a,@dptr
   083F FB                 1997 	mov	r3,a
   0840 A3                 1998 	inc	dptr
   0841 E0                 1999 	movx	a,@dptr
   0842 FC                 2000 	mov	r4,a
   0843 74 08              2001 	mov	a,#0x08
   0845 2A                 2002 	add	a,r2
   0846 FA                 2003 	mov	r2,a
   0847 E4                 2004 	clr	a
   0848 3B                 2005 	addc	a,r3
   0849 FB                 2006 	mov	r3,a
   084A 90s0Dr80           2007 	mov	dptr,#_uip_add_rcv_nxt_n_1_1
   084D E0                 2008 	movx	a,@dptr
   084E C0 E0              2009 	push	acc
   0850 A3                 2010 	inc	dptr
   0851 E0                 2011 	movx	a,@dptr
   0852 C0 E0              2012 	push	acc
   0854 8A 82              2013 	mov	dpl,r2
   0856 8B 83              2014 	mov	dph,r3
   0858 8C F0              2015 	mov	b,r4
   085A 12s00r1E           2016 	lcall	_uip_add32
   085D 15 81              2017 	dec	sp
   085F 15 81              2018 	dec	sp
                    0861   2019 	C$uip.c$686$1$1 ==.
                           2020 ;	..\uip\uip.c:686: uip_conn->rcv_nxt[0] = uip_acc32[0];
   0861 90s01rA9           2021 	mov	dptr,#_uip_conn
   0864 E0                 2022 	movx	a,@dptr
   0865 FA                 2023 	mov	r2,a
   0866 A3                 2024 	inc	dptr
   0867 E0                 2025 	movx	a,@dptr
   0868 FB                 2026 	mov	r3,a
   0869 A3                 2027 	inc	dptr
   086A E0                 2028 	movx	a,@dptr
   086B FC                 2029 	mov	r4,a
   086C 74 08              2030 	mov	a,#0x08
   086E 2A                 2031 	add	a,r2
   086F FA                 2032 	mov	r2,a
   0870 E4                 2033 	clr	a
   0871 3B                 2034 	addc	a,r3
   0872 FB                 2035 	mov	r3,a
   0873 8A 05              2036 	mov	ar5,r2
   0875 8B 06              2037 	mov	ar6,r3
   0877 8C 07              2038 	mov	ar7,r4
   0879 90s0Dr5A           2039 	mov	dptr,#_uip_acc32
   087C E0                 2040 	movx	a,@dptr
   087D 8D 82              2041 	mov	dpl,r5
   087F 8E 83              2042 	mov	dph,r6
   0881 8F F0              2043 	mov	b,r7
   0883 12s00r00           2044 	lcall	__gptrput
                    0886   2045 	C$uip.c$687$1$1 ==.
                           2046 ;	..\uip\uip.c:687: uip_conn->rcv_nxt[1] = uip_acc32[1];
   0886 74 01              2047 	mov	a,#0x01
   0888 2A                 2048 	add	a,r2
   0889 FD                 2049 	mov	r5,a
   088A E4                 2050 	clr	a
   088B 3B                 2051 	addc	a,r3
   088C FE                 2052 	mov	r6,a
   088D 8C 07              2053 	mov	ar7,r4
   088F 90s0Dr5B           2054 	mov	dptr,#(_uip_acc32 + 0x0001)
   0892 E0                 2055 	movx	a,@dptr
   0893 8D 82              2056 	mov	dpl,r5
   0895 8E 83              2057 	mov	dph,r6
   0897 8F F0              2058 	mov	b,r7
   0899 12s00r00           2059 	lcall	__gptrput
                    089C   2060 	C$uip.c$688$1$1 ==.
                           2061 ;	..\uip\uip.c:688: uip_conn->rcv_nxt[2] = uip_acc32[2];
   089C 74 02              2062 	mov	a,#0x02
   089E 2A                 2063 	add	a,r2
   089F FD                 2064 	mov	r5,a
   08A0 E4                 2065 	clr	a
   08A1 3B                 2066 	addc	a,r3
   08A2 FE                 2067 	mov	r6,a
   08A3 8C 07              2068 	mov	ar7,r4
   08A5 90s0Dr5C           2069 	mov	dptr,#(_uip_acc32 + 0x0002)
   08A8 E0                 2070 	movx	a,@dptr
   08A9 8D 82              2071 	mov	dpl,r5
   08AB 8E 83              2072 	mov	dph,r6
   08AD 8F F0              2073 	mov	b,r7
   08AF 12s00r00           2074 	lcall	__gptrput
                    08B2   2075 	C$uip.c$689$1$1 ==.
                           2076 ;	..\uip\uip.c:689: uip_conn->rcv_nxt[3] = uip_acc32[3];
   08B2 74 03              2077 	mov	a,#0x03
   08B4 2A                 2078 	add	a,r2
   08B5 FA                 2079 	mov	r2,a
   08B6 E4                 2080 	clr	a
   08B7 3B                 2081 	addc	a,r3
   08B8 FB                 2082 	mov	r3,a
   08B9 90s0Dr5D           2083 	mov	dptr,#(_uip_acc32 + 0x0003)
   08BC E0                 2084 	movx	a,@dptr
   08BD 8A 82              2085 	mov	dpl,r2
   08BF 8B 83              2086 	mov	dph,r3
   08C1 8C F0              2087 	mov	b,r4
                    08C3   2088 	C$uip.c$690$1$1 ==.
                    08C3   2089 	XFuip$uip_add_rcv_nxt$0$0 ==.
   08C3 02s00r00           2090 	ljmp	__gptrput
                           2091 ;------------------------------------------------------------
                           2092 ;Allocation info for local variables in function 'uip_process'
                           2093 ;------------------------------------------------------------
                           2094 ;sloc0                     Allocated with name '_uip_process_sloc0_1_0'
                           2095 ;sloc1                     Allocated with name '_uip_process_sloc1_1_0'
                           2096 ;sloc2                     Allocated with name '_uip_process_sloc2_1_0'
                           2097 ;sloc3                     Allocated with name '_uip_process_sloc3_1_0'
                           2098 ;sloc4                     Allocated with name '_uip_process_sloc4_1_0'
                           2099 ;sloc5                     Allocated with name '_uip_process_sloc5_1_0'
                           2100 ;flag                      Allocated with name '_uip_process_flag_1_1'
                           2101 ;uip_connr                 Allocated with name '_uip_process_uip_connr_1_1'
                           2102 ;m                         Allocated with name '_uip_process_m_4_61'
                           2103 ;------------------------------------------------------------
                    08C6   2104 	G$uip_process$0$0 ==.
                    08C6   2105 	C$uip.c$693$1$1 ==.
                           2106 ;	..\uip\uip.c:693: uip_process(u8_t flag) banked
                           2107 ;	-----------------------------------------
                           2108 ;	 function uip_process
                           2109 ;	-----------------------------------------
   08C6                    2110 _uip_process:
   08C6 E5 82              2111 	mov	a,dpl
   08C8 90s0Dr82           2112 	mov	dptr,#_uip_process_flag_1_1
   08CB F0                 2113 	movx	@dptr,a
                    08CC   2114 	C$uip.c$695$1$1 ==.
                           2115 ;	..\uip\uip.c:695: register struct uip_conn *uip_connr = uip_conn;
   08CC 90s01rA9           2116 	mov	dptr,#_uip_conn
   08CF E0                 2117 	movx	a,@dptr
   08D0 FA                 2118 	mov	r2,a
   08D1 A3                 2119 	inc	dptr
   08D2 E0                 2120 	movx	a,@dptr
   08D3 FB                 2121 	mov	r3,a
   08D4 A3                 2122 	inc	dptr
   08D5 E0                 2123 	movx	a,@dptr
   08D6 FC                 2124 	mov	r4,a
   08D7 90s0Dr83           2125 	mov	dptr,#_uip_process_uip_connr_1_1
   08DA EA                 2126 	mov	a,r2
   08DB F0                 2127 	movx	@dptr,a
   08DC A3                 2128 	inc	dptr
   08DD EB                 2129 	mov	a,r3
   08DE F0                 2130 	movx	@dptr,a
   08DF A3                 2131 	inc	dptr
   08E0 EC                 2132 	mov	a,r4
   08E1 F0                 2133 	movx	@dptr,a
                    08E2   2134 	C$uip.c$703$1$1 ==.
                           2135 ;	..\uip\uip.c:703: uip_sappdata = uip_appdata = &uip_buf[UIP_IPTCPH_LEN + UIP_LLH_LEN];
   08E2 90s01r9E           2136 	mov	dptr,#_uip_appdata
   08E5 74r42              2137 	mov	a,#(_uip_buf + 0x0036)
   08E7 F0                 2138 	movx	@dptr,a
   08E8 A3                 2139 	inc	dptr
   08E9 74s00              2140 	mov	a,#((_uip_buf + 0x0036) >> 8)
   08EB F0                 2141 	movx	@dptr,a
   08EC A3                 2142 	inc	dptr
   08ED E4                 2143 	clr	a
   08EE F0                 2144 	movx	@dptr,a
   08EF 90s01rA1           2145 	mov	dptr,#_uip_sappdata
   08F2 74r42              2146 	mov	a,#(_uip_buf + 0x0036)
   08F4 F0                 2147 	movx	@dptr,a
   08F5 A3                 2148 	inc	dptr
   08F6 74s00              2149 	mov	a,#((_uip_buf + 0x0036) >> 8)
   08F8 F0                 2150 	movx	@dptr,a
   08F9 A3                 2151 	inc	dptr
   08FA E4                 2152 	clr	a
   08FB F0                 2153 	movx	@dptr,a
                    08FC   2154 	C$uip.c$707$1$1 ==.
                           2155 ;	..\uip\uip.c:707: if (flag == UIP_POLL_REQUEST) {
   08FC 90s0Dr82           2156 	mov	dptr,#_uip_process_flag_1_1
   08FF E0                 2157 	movx	a,@dptr
   0900 FD                 2158 	mov	r5,a
   0901 BD 03 56           2159 	cjne	r5,#0x03,00140$
                    0904   2160 	C$uip.c$708$2$2 ==.
                           2161 ;	..\uip\uip.c:708: if ((uip_connr->tcpstateflags & UIP_TS_MASK) == UIP_ESTABLISHED &&
   0904 74 19              2162 	mov	a,#0x19
   0906 2A                 2163 	add	a,r2
   0907 FE                 2164 	mov	r6,a
   0908 E4                 2165 	clr	a
   0909 3B                 2166 	addc	a,r3
   090A FF                 2167 	mov	r7,a
   090B 8C 00              2168 	mov	ar0,r4
   090D 8E 82              2169 	mov	dpl,r6
   090F 8F 83              2170 	mov	dph,r7
   0911 88 F0              2171 	mov	b,r0
   0913 12s00r00           2172 	lcall	__gptrget
   0916 FE                 2173 	mov	r6,a
   0917 53 06 0F           2174 	anl	ar6,#0x0F
   091A BE 03 02           2175 	cjne	r6,#0x03,00520$
   091D 80 03              2176 	sjmp	00521$
   091F                    2177 00520$:
   091F 02s27r06           2178 	ljmp	00379$
   0922                    2179 00521$:
                    0922   2180 	C$uip.c$709$2$2 ==.
                           2181 ;	..\uip\uip.c:709: !uip_outstanding(uip_connr)) {
   0922 74 10              2182 	mov	a,#0x10
   0924 2A                 2183 	add	a,r2
   0925 FE                 2184 	mov	r6,a
   0926 E4                 2185 	clr	a
   0927 3B                 2186 	addc	a,r3
   0928 FF                 2187 	mov	r7,a
   0929 8C 00              2188 	mov	ar0,r4
   092B 8E 82              2189 	mov	dpl,r6
   092D 8F 83              2190 	mov	dph,r7
   092F 88 F0              2191 	mov	b,r0
   0931 12s00r00           2192 	lcall	__gptrget
   0934 FE                 2193 	mov	r6,a
   0935 A3                 2194 	inc	dptr
   0936 12s00r00           2195 	lcall	__gptrget
   0939 FF                 2196 	mov	r7,a
   093A 4E                 2197 	orl	a,r6
   093B 60 03              2198 	jz	00522$
   093D 02s27r06           2199 	ljmp	00379$
   0940                    2200 00522$:
                    0940   2201 	C$uip.c$710$3$3 ==.
                           2202 ;	..\uip\uip.c:710: uip_flags = UIP_POLL;
   0940 90s01rA8           2203 	mov	dptr,#_uip_flags
   0943 74 08              2204 	mov	a,#0x08
   0945 F0                 2205 	movx	@dptr,a
                    0946   2206 	C$uip.c$711$3$3 ==.
                           2207 ;	..\uip\uip.c:711: uip_len = uip_slen = 0;
   0946 90s01rA6           2208 	mov	dptr,#_uip_slen
   0949 E4                 2209 	clr	a
   094A F0                 2210 	movx	@dptr,a
   094B A3                 2211 	inc	dptr
   094C F0                 2212 	movx	@dptr,a
   094D 90s01rA4           2213 	mov	dptr,#_uip_len
   0950 E4                 2214 	clr	a
   0951 F0                 2215 	movx	@dptr,a
   0952 A3                 2216 	inc	dptr
   0953 F0                 2217 	movx	@dptr,a
                    0954   2218 	C$uip.c$712$3$3 ==.
                           2219 ;	..\uip\uip.c:712: UIP_APPCALL();
   0954 12s00r00           2220 	lcall	_uip_tcp_app_exec
                    0957   2221 	C$uip.c$713$3$3 ==.
                           2222 ;	..\uip\uip.c:713: goto appsend;
   0957 02s1FrC1           2223 	ljmp	00313$
                    095A   2224 	C$uip.c$715$1$1 ==.
                           2225 ;	..\uip\uip.c:715: goto drop;
   095A                    2226 00140$:
                    095A   2227 	C$uip.c$718$1$1 ==.
                           2228 ;	..\uip\uip.c:718: } else if (flag == UIP_TIMER) {
   095A BD 02 02           2229 	cjne	r5,#0x02,00523$
   095D 80 03              2230 	sjmp	00524$
   095F                    2231 00523$:
   095F 02s0Br3E           2232 	ljmp	00141$
   0962                    2233 00524$:
                    0962   2234 	C$uip.c$725$2$4 ==.
                           2235 ;	..\uip\uip.c:725: if (++iss[3] == 0) {
   0962 90s0Dr57           2236 	mov	dptr,#(_iss + 0x0003)
   0965 E0                 2237 	movx	a,@dptr
   0966 FD                 2238 	mov	r5,a
   0967 0D                 2239 	inc	r5
   0968 90s0Dr57           2240 	mov	dptr,#(_iss + 0x0003)
   096B ED                 2241 	mov	a,r5
   096C F0                 2242 	movx	@dptr,a
   096D ED                 2243 	mov	a,r5
   096E 70 27              2244 	jnz	00109$
                    0970   2245 	C$uip.c$726$3$5 ==.
                           2246 ;	..\uip\uip.c:726: if (++iss[2] == 0) {
   0970 90s0Dr56           2247 	mov	dptr,#(_iss + 0x0002)
   0973 E0                 2248 	movx	a,@dptr
   0974 FD                 2249 	mov	r5,a
   0975 0D                 2250 	inc	r5
   0976 90s0Dr56           2251 	mov	dptr,#(_iss + 0x0002)
   0979 ED                 2252 	mov	a,r5
   097A F0                 2253 	movx	@dptr,a
   097B ED                 2254 	mov	a,r5
   097C 70 19              2255 	jnz	00109$
                    097E   2256 	C$uip.c$727$4$6 ==.
                           2257 ;	..\uip\uip.c:727: if (++iss[1] == 0) {
   097E 90s0Dr55           2258 	mov	dptr,#(_iss + 0x0001)
   0981 E0                 2259 	movx	a,@dptr
   0982 FD                 2260 	mov	r5,a
   0983 0D                 2261 	inc	r5
   0984 90s0Dr55           2262 	mov	dptr,#(_iss + 0x0001)
   0987 ED                 2263 	mov	a,r5
   0988 F0                 2264 	movx	@dptr,a
   0989 ED                 2265 	mov	a,r5
   098A 70 0B              2266 	jnz	00109$
                    098C   2267 	C$uip.c$728$5$7 ==.
                           2268 ;	..\uip\uip.c:728: ++iss[0];
   098C 90s0Dr54           2269 	mov	dptr,#_iss
   098F E0                 2270 	movx	a,@dptr
   0990 FD                 2271 	mov	r5,a
   0991 0D                 2272 	inc	r5
   0992 90s0Dr54           2273 	mov	dptr,#_iss
   0995 ED                 2274 	mov	a,r5
   0996 F0                 2275 	movx	@dptr,a
   0997                    2276 00109$:
                    0997   2277 	C$uip.c$734$2$4 ==.
                           2278 ;	..\uip\uip.c:734: uip_len = 0;
   0997 90s01rA4           2279 	mov	dptr,#_uip_len
   099A E4                 2280 	clr	a
   099B F0                 2281 	movx	@dptr,a
   099C A3                 2282 	inc	dptr
   099D F0                 2283 	movx	@dptr,a
                    099E   2284 	C$uip.c$735$2$4 ==.
                           2285 ;	..\uip\uip.c:735: uip_slen = 0;
   099E 90s01rA6           2286 	mov	dptr,#_uip_slen
   09A1 E4                 2287 	clr	a
   09A2 F0                 2288 	movx	@dptr,a
   09A3 A3                 2289 	inc	dptr
   09A4 F0                 2290 	movx	@dptr,a
                    09A5   2291 	C$uip.c$741$2$4 ==.
                           2292 ;	..\uip\uip.c:741: if (uip_connr->tcpstateflags == UIP_TIME_WAIT ||
   09A5 74 19              2293 	mov	a,#0x19
   09A7 2A                 2294 	add	a,r2
   09A8 FD                 2295 	mov	r5,a
   09A9 E4                 2296 	clr	a
   09AA 3B                 2297 	addc	a,r3
   09AB FE                 2298 	mov	r6,a
   09AC 8C 07              2299 	mov	ar7,r4
   09AE 8D 82              2300 	mov	dpl,r5
   09B0 8E 83              2301 	mov	dph,r6
   09B2 8F F0              2302 	mov	b,r7
   09B4 12s00r00           2303 	lcall	__gptrget
   09B7 F8                 2304 	mov	r0,a
   09B8 B8 07 02           2305 	cjne	r0,#0x07,00528$
   09BB 80 03              2306 	sjmp	00133$
   09BD                    2307 00528$:
                    09BD   2308 	C$uip.c$742$2$4 ==.
                           2309 ;	..\uip\uip.c:742: uip_connr->tcpstateflags == UIP_FIN_WAIT_2) {
   09BD B8 05 41           2310 	cjne	r0,#0x05,00134$
   09C0                    2311 00133$:
                    09C0   2312 	C$uip.c$743$1$1 ==.
                           2313 ;	..\uip\uip.c:743: ++(uip_connr->timer);
   09C0 C0 05              2314 	push	ar5
   09C2 C0 06              2315 	push	ar6
   09C4 C0 07              2316 	push	ar7
   09C6 74 1A              2317 	mov	a,#0x1A
   09C8 2A                 2318 	add	a,r2
   09C9 F9                 2319 	mov	r1,a
   09CA E4                 2320 	clr	a
   09CB 3B                 2321 	addc	a,r3
   09CC FD                 2322 	mov	r5,a
   09CD 8C 06              2323 	mov	ar6,r4
   09CF 89 82              2324 	mov	dpl,r1
   09D1 8D 83              2325 	mov	dph,r5
   09D3 8E F0              2326 	mov	b,r6
   09D5 12s00r00           2327 	lcall	__gptrget
   09D8 FF                 2328 	mov	r7,a
   09D9 0F                 2329 	inc	r7
   09DA 89 82              2330 	mov	dpl,r1
   09DC 8D 83              2331 	mov	dph,r5
   09DE 8E F0              2332 	mov	b,r6
   09E0 EF                 2333 	mov	a,r7
   09E1 12s00r00           2334 	lcall	__gptrput
                    09E4   2335 	C$uip.c$744$3$8 ==.
                           2336 ;	..\uip\uip.c:744: if (uip_connr->timer == UIP_TIME_WAIT_TIMEOUT) {
   09E4 E4                 2337 	clr	a
   09E5 BF 78 01           2338 	cjne	r7,#0x78,00531$
   09E8 04                 2339 	inc	a
   09E9                    2340 00531$:
   09E9 D0 07              2341 	pop	ar7
   09EB D0 06              2342 	pop	ar6
   09ED D0 05              2343 	pop	ar5
   09EF 70 03              2344 	jnz	00533$
   09F1 02s27r06           2345 	ljmp	00379$
   09F4                    2346 00533$:
                    09F4   2347 	C$uip.c$745$4$9 ==.
                           2348 ;	..\uip\uip.c:745: uip_connr->tcpstateflags = UIP_CLOSED;
   09F4 8D 82              2349 	mov	dpl,r5
   09F6 8E 83              2350 	mov	dph,r6
   09F8 8F F0              2351 	mov	b,r7
   09FA E4                 2352 	clr	a
   09FB 12s00r00           2353 	lcall	__gptrput
   09FE 02s27r06           2354 	ljmp	00379$
   0A01                    2355 00134$:
                    0A01   2356 	C$uip.c$747$2$4 ==.
                           2357 ;	..\uip\uip.c:747: } else if (uip_connr->tcpstateflags != UIP_CLOSED) {
   0A01 E8                 2358 	mov	a,r0
   0A02 70 03              2359 	jnz	00534$
   0A04 02s27r06           2360 	ljmp	00379$
   0A07                    2361 00534$:
                    0A07   2362 	C$uip.c$751$1$1 ==.
                           2363 ;	..\uip\uip.c:751: if (uip_outstanding(uip_connr)) {
   0A07 C0 05              2364 	push	ar5
   0A09 C0 06              2365 	push	ar6
   0A0B C0 07              2366 	push	ar7
   0A0D 74 10              2367 	mov	a,#0x10
   0A0F 2A                 2368 	add	a,r2
   0A10 F9                 2369 	mov	r1,a
   0A11 E4                 2370 	clr	a
   0A12 3B                 2371 	addc	a,r3
   0A13 FD                 2372 	mov	r5,a
   0A14 8C 06              2373 	mov	ar6,r4
   0A16 89 82              2374 	mov	dpl,r1
   0A18 8D 83              2375 	mov	dph,r5
   0A1A 8E F0              2376 	mov	b,r6
   0A1C 12s00r00           2377 	lcall	__gptrget
   0A1F F9                 2378 	mov	r1,a
   0A20 A3                 2379 	inc	dptr
   0A21 12s00r00           2380 	lcall	__gptrget
   0A24 49                 2381 	orl	a,r1
   0A25 D0 07              2382 	pop	ar7
   0A27 D0 06              2383 	pop	ar6
   0A29 D0 05              2384 	pop	ar5
   0A2B 70 03              2385 	jnz	00535$
   0A2D 02s0Br27           2386 	ljmp	00129$
   0A30                    2387 00535$:
                    0A30   2388 	C$uip.c$752$1$1 ==.
                           2389 ;	..\uip\uip.c:752: if (uip_connr->timer-- == 0) {
   0A30 C0 05              2390 	push	ar5
   0A32 C0 06              2391 	push	ar6
   0A34 C0 07              2392 	push	ar7
   0A36 74 1A              2393 	mov	a,#0x1A
   0A38 2A                 2394 	add	a,r2
   0A39 F5*06              2395 	mov	_uip_process_sloc0_1_0,a
   0A3B E4                 2396 	clr	a
   0A3C 3B                 2397 	addc	a,r3
   0A3D F5*07              2398 	mov	(_uip_process_sloc0_1_0 + 1),a
   0A3F 8C*08              2399 	mov	(_uip_process_sloc0_1_0 + 2),r4
   0A41 85*06 82           2400 	mov	dpl,_uip_process_sloc0_1_0
   0A44 85*07 83           2401 	mov	dph,(_uip_process_sloc0_1_0 + 1)
   0A47 85*08 F0           2402 	mov	b,(_uip_process_sloc0_1_0 + 2)
   0A4A 12s00r00           2403 	lcall	__gptrget
   0A4D F9                 2404 	mov	r1,a
   0A4E 14                 2405 	dec	a
   0A4F 85*06 82           2406 	mov	dpl,_uip_process_sloc0_1_0
   0A52 85*07 83           2407 	mov	dph,(_uip_process_sloc0_1_0 + 1)
   0A55 85*08 F0           2408 	mov	b,(_uip_process_sloc0_1_0 + 2)
   0A58 12s00r00           2409 	lcall	__gptrput
   0A5B D0 07              2410 	pop	ar7
   0A5D D0 06              2411 	pop	ar6
   0A5F D0 05              2412 	pop	ar5
   0A61 E9                 2413 	mov	a,r1
   0A62 60 03              2414 	jz	00536$
   0A64 02s27r06           2415 	ljmp	00379$
   0A67                    2416 00536$:
                    0A67   2417 	C$uip.c$753$5$12 ==.
                           2418 ;	..\uip\uip.c:753: if (uip_connr->nrtx == UIP_MAXRTX ||
   0A67 74 1B              2419 	mov	a,#0x1B
   0A69 2A                 2420 	add	a,r2
   0A6A FA                 2421 	mov	r2,a
   0A6B E4                 2422 	clr	a
   0A6C 3B                 2423 	addc	a,r3
   0A6D FB                 2424 	mov	r3,a
   0A6E 8A 82              2425 	mov	dpl,r2
   0A70 8B 83              2426 	mov	dph,r3
   0A72 8C F0              2427 	mov	b,r4
   0A74 12s00r00           2428 	lcall	__gptrget
   0A77 F9                 2429 	mov	r1,a
   0A78 B9 08 02           2430 	cjne	r1,#0x08,00537$
   0A7B 80 0B              2431 	sjmp	00112$
   0A7D                    2432 00537$:
                    0A7D   2433 	C$uip.c$754$5$12 ==.
                           2434 ;	..\uip\uip.c:754: ((uip_connr->tcpstateflags == UIP_SYN_SENT ||
   0A7D B8 02 02           2435 	cjne	r0,#0x02,00538$
   0A80 80 03              2436 	sjmp	00115$
   0A82                    2437 00538$:
                    0A82   2438 	C$uip.c$755$5$12 ==.
                           2439 ;	..\uip\uip.c:755: uip_connr->tcpstateflags == UIP_SYN_RCVD) &&
   0A82 B8 01 24           2440 	cjne	r0,#0x01,00113$
   0A85                    2441 00115$:
                    0A85   2442 	C$uip.c$756$5$12 ==.
                           2443 ;	..\uip\uip.c:756: uip_connr->nrtx == UIP_MAXSYNRTX)) {
   0A85 B9 05 21           2444 	cjne	r1,#0x05,00113$
   0A88                    2445 00112$:
                    0A88   2446 	C$uip.c$757$6$13 ==.
                           2447 ;	..\uip\uip.c:757: uip_connr->tcpstateflags = UIP_CLOSED;
   0A88 8D 82              2448 	mov	dpl,r5
   0A8A 8E 83              2449 	mov	dph,r6
   0A8C 8F F0              2450 	mov	b,r7
   0A8E E4                 2451 	clr	a
   0A8F 12s00r00           2452 	lcall	__gptrput
                    0A92   2453 	C$uip.c$762$6$13 ==.
                           2454 ;	..\uip\uip.c:762: uip_flags = UIP_TIMEDOUT;
   0A92 90s01rA8           2455 	mov	dptr,#_uip_flags
   0A95 74 80              2456 	mov	a,#0x80
   0A97 F0                 2457 	movx	@dptr,a
                    0A98   2458 	C$uip.c$763$6$13 ==.
                           2459 ;	..\uip\uip.c:763: UIP_APPCALL();
   0A98 12s00r00           2460 	lcall	_uip_tcp_app_exec
                    0A9B   2461 	C$uip.c$766$6$13 ==.
                           2462 ;	..\uip\uip.c:766: BUF->flags = TCP_RST | TCP_ACK;
   0A9B 90s00r3B           2463 	mov	dptr,#(_uip_buf + 0x002f)
   0A9E 75 F0 00           2464 	mov	b,#0x00
   0AA1 74 14              2465 	mov	a,#0x14
   0AA3 12s00r00           2466 	lcall	__gptrput
                    0AA6   2467 	C$uip.c$767$6$13 ==.
                           2468 ;	..\uip\uip.c:767: goto tcp_send_nodata;
   0AA6 02s23rAF           2469 	ljmp	00364$
   0AA9                    2470 00113$:
                    0AA9   2471 	C$uip.c$771$5$12 ==.
                           2472 ;	..\uip\uip.c:771: uip_connr->timer = UIP_RTO << (uip_connr->nrtx > 4?
   0AA9 E9                 2473 	mov	a,r1
   0AAA 24 FB              2474 	add	a,#0xff - 0x04
   0AAC 50 04              2475 	jnc	00390$
                    0AAE   2476 	C$uip.c$772$5$12 ==.
                           2477 ;	..\uip\uip.c:772: 4:
   0AAE 7D 04              2478 	mov	r5,#0x04
   0AB0 80 02              2479 	sjmp	00391$
   0AB2                    2480 00390$:
                    0AB2   2481 	C$uip.c$773$5$12 ==.
                           2482 ;	..\uip\uip.c:773: uip_connr->nrtx);
   0AB2 89 05              2483 	mov	ar5,r1
   0AB4                    2484 00391$:
   0AB4 8D F0              2485 	mov	b,r5
   0AB6 05 F0              2486 	inc	b
   0AB8 74 03              2487 	mov	a,#0x03
   0ABA 80 02              2488 	sjmp	00546$
   0ABC                    2489 00544$:
   0ABC 25 E0              2490 	add	a,acc
   0ABE                    2491 00546$:
   0ABE D5 F0 FB           2492 	djnz	b,00544$
   0AC1 FD                 2493 	mov	r5,a
   0AC2 85*06 82           2494 	mov	dpl,_uip_process_sloc0_1_0
   0AC5 85*07 83           2495 	mov	dph,(_uip_process_sloc0_1_0 + 1)
   0AC8 85*08 F0           2496 	mov	b,(_uip_process_sloc0_1_0 + 2)
   0ACB 12s00r00           2497 	lcall	__gptrput
                    0ACE   2498 	C$uip.c$774$5$12 ==.
                           2499 ;	..\uip\uip.c:774: ++(uip_connr->nrtx);
   0ACE 09                 2500 	inc	r1
   0ACF 8A 82              2501 	mov	dpl,r2
   0AD1 8B 83              2502 	mov	dph,r3
   0AD3 8C F0              2503 	mov	b,r4
   0AD5 E9                 2504 	mov	a,r1
   0AD6 12s00r00           2505 	lcall	__gptrput
                    0AD9   2506 	C$uip.c$783$5$12 ==.
                           2507 ;	..\uip\uip.c:783: switch (uip_connr->tcpstateflags & UIP_TS_MASK) {
   0AD9 74 0F              2508 	mov	a,#0x0F
   0ADB 58                 2509 	anl	a,r0
   0ADC FA                 2510 	mov  r2,a
   0ADD 24 F7              2511 	add	a,#0xff - 0x08
   0ADF 50 03              2512 	jnc	00547$
   0AE1 02s27r06           2513 	ljmp	00379$
   0AE4                    2514 00547$:
   0AE4 EA                 2515 	mov	a,r2
   0AE5 2A                 2516 	add	a,r2
   0AE6 2A                 2517 	add	a,r2
   0AE7 90s0ArEB           2518 	mov	dptr,#00548$
   0AEA 73                 2519 	jmp	@a+dptr
   0AEB                    2520 00548$:
   0AEB 02s0Br24           2521 	ljmp	00123$
   0AEE 02s0Br06           2522 	ljmp	00117$
   0AF1 02s0Br09           2523 	ljmp	00118$
   0AF4 02s0Br15           2524 	ljmp	00119$
   0AF7 02s0Br21           2525 	ljmp	00120$
   0AFA 02s0Br24           2526 	ljmp	00123$
   0AFD 02s0Br21           2527 	ljmp	00121$
   0B00 02s0Br24           2528 	ljmp	00123$
   0B03 02s0Br21           2529 	ljmp	00122$
                    0B06   2530 	C$uip.c$784$6$14 ==.
                           2531 ;	..\uip\uip.c:784: case UIP_SYN_RCVD:
   0B06                    2532 00117$:
                    0B06   2533 	C$uip.c$787$6$14 ==.
                           2534 ;	..\uip\uip.c:787: goto tcp_send_synack;
   0B06 02s15r87           2535 	ljmp	00239$
                    0B09   2536 	C$uip.c$790$6$14 ==.
                           2537 ;	..\uip\uip.c:790: case UIP_SYN_SENT:
   0B09                    2538 00118$:
                    0B09   2539 	C$uip.c$792$6$14 ==.
                           2540 ;	..\uip\uip.c:792: BUF->flags = 0;
   0B09 90s00r3B           2541 	mov	dptr,#(_uip_buf + 0x002f)
   0B0C E4                 2542 	clr	a
   0B0D F5 F0              2543 	mov	b,a
   0B0F 12s00r00           2544 	lcall	__gptrput
                    0B12   2545 	C$uip.c$793$6$14 ==.
                           2546 ;	..\uip\uip.c:793: goto tcp_send_syn;
   0B12 02s15r92           2547 	ljmp	00240$
                    0B15   2548 	C$uip.c$796$6$14 ==.
                           2549 ;	..\uip\uip.c:796: case UIP_ESTABLISHED:
   0B15                    2550 00119$:
                    0B15   2551 	C$uip.c$801$6$14 ==.
                           2552 ;	..\uip\uip.c:801: uip_flags = UIP_REXMIT;
   0B15 90s01rA8           2553 	mov	dptr,#_uip_flags
   0B18 74 04              2554 	mov	a,#0x04
   0B1A F0                 2555 	movx	@dptr,a
                    0B1B   2556 	C$uip.c$802$6$14 ==.
                           2557 ;	..\uip\uip.c:802: UIP_APPCALL();
   0B1B 12s00r00           2558 	lcall	_uip_tcp_app_exec
                    0B1E   2559 	C$uip.c$803$6$14 ==.
                           2560 ;	..\uip\uip.c:803: goto apprexmit;
   0B1E 02s21r52           2561 	ljmp	00327$
                    0B21   2562 	C$uip.c$805$6$14 ==.
                           2563 ;	..\uip\uip.c:805: case UIP_FIN_WAIT_1:
   0B21                    2564 00120$:
                    0B21   2565 	C$uip.c$806$6$14 ==.
                           2566 ;	..\uip\uip.c:806: case UIP_CLOSING:
   0B21                    2567 00121$:
                    0B21   2568 	C$uip.c$807$6$14 ==.
                           2569 ;	..\uip\uip.c:807: case UIP_LAST_ACK:
   0B21                    2570 00122$:
                    0B21   2571 	C$uip.c$809$6$14 ==.
                           2572 ;	..\uip\uip.c:809: goto tcp_send_finack;
   0B21 02s1Er3B           2573 	ljmp	00301$
                    0B24   2574 	C$uip.c$811$5$12 ==.
                           2575 ;	..\uip\uip.c:811: }
   0B24                    2576 00123$:
   0B24 02s27r06           2577 	ljmp	00379$
   0B27                    2578 00129$:
                    0B27   2579 	C$uip.c$813$3$10 ==.
                           2580 ;	..\uip\uip.c:813: } else if ((uip_connr->tcpstateflags & UIP_TS_MASK) == UIP_ESTABLISHED) {
   0B27 53 00 0F           2581 	anl	ar0,#0x0F
   0B2A B8 03 02           2582 	cjne	r0,#0x03,00549$
   0B2D 80 03              2583 	sjmp	00550$
   0B2F                    2584 00549$:
   0B2F 02s27r06           2585 	ljmp	00379$
   0B32                    2586 00550$:
                    0B32   2587 	C$uip.c$816$4$15 ==.
                           2588 ;	..\uip\uip.c:816: uip_flags = UIP_POLL;
   0B32 90s01rA8           2589 	mov	dptr,#_uip_flags
   0B35 74 08              2590 	mov	a,#0x08
   0B37 F0                 2591 	movx	@dptr,a
                    0B38   2592 	C$uip.c$817$4$15 ==.
                           2593 ;	..\uip\uip.c:817: UIP_APPCALL();
   0B38 12s00r00           2594 	lcall	_uip_tcp_app_exec
                    0B3B   2595 	C$uip.c$818$4$15 ==.
                           2596 ;	..\uip\uip.c:818: goto appsend;
   0B3B 02s1FrC1           2597 	ljmp	00313$
                    0B3E   2598 	C$uip.c$821$1$1 ==.
                           2599 ;	..\uip\uip.c:821: goto drop;
   0B3E                    2600 00141$:
                    0B3E   2601 	C$uip.c$853$1$1 ==.
                           2602 ;	..\uip\uip.c:853: if (BUF->vhl != 0x45)  { /* IP version and header length. */
   0B3E 90s00r1A           2603 	mov	dptr,#(_uip_buf + 0x000e)
   0B41 E0                 2604 	movx	a,@dptr
   0B42 FA                 2605 	mov	r2,a
   0B43 BA 45 02           2606 	cjne	r2,#0x45,00551$
   0B46 80 03              2607 	sjmp	00552$
   0B48                    2608 00551$:
   0B48 02s27r06           2609 	ljmp	00379$
   0B4B                    2610 00552$:
                    0B4B   2611 	C$uip.c$868$1$1 ==.
                           2612 ;	..\uip\uip.c:868: if ((BUF->len[0] << 8) + BUF->len[1] <= uip_len) {
   0B4B 7Ar1C              2613 	mov	r2,#(_uip_buf + 0x0010)
   0B4D 7Bs00              2614 	mov	r3,#((_uip_buf + 0x0010) >> 8)
   0B4F 7C 00              2615 	mov	r4,#0x00
   0B51 8A 82              2616 	mov	dpl,r2
   0B53 8B 83              2617 	mov	dph,r3
   0B55 8C F0              2618 	mov	b,r4
   0B57 12s00r00           2619 	lcall	__gptrget
   0B5A FB                 2620 	mov	r3,a
   0B5B 7A 00              2621 	mov	r2,#0x00
   0B5D 90s00r1D           2622 	mov	dptr,#(_uip_buf + 0x0011)
   0B60 75 F0 00           2623 	mov	b,#0x00
   0B63 12s00r00           2624 	lcall	__gptrget
   0B66 7D 00              2625 	mov	r5,#0x00
   0B68 2A                 2626 	add	a,r2
   0B69 FA                 2627 	mov	r2,a
   0B6A ED                 2628 	mov	a,r5
   0B6B 3B                 2629 	addc	a,r3
   0B6C FB                 2630 	mov	r3,a
   0B6D 90s01rA4           2631 	mov	dptr,#_uip_len
   0B70 E0                 2632 	movx	a,@dptr
   0B71 FC                 2633 	mov	r4,a
   0B72 A3                 2634 	inc	dptr
   0B73 E0                 2635 	movx	a,@dptr
   0B74 FD                 2636 	mov	r5,a
   0B75 C3                 2637 	clr	c
   0B76 EC                 2638 	mov	a,r4
   0B77 9A                 2639 	subb	a,r2
   0B78 ED                 2640 	mov	a,r5
   0B79 9B                 2641 	subb	a,r3
   0B7A 50 03              2642 	jnc	00553$
   0B7C 02s27r06           2643 	ljmp	00379$
   0B7F                    2644 00553$:
                    0B7F   2645 	C$uip.c$869$2$17 ==.
                           2646 ;	..\uip\uip.c:869: uip_len = (BUF->len[0] << 8) + BUF->len[1];
   0B7F 7Ar1C              2647 	mov	r2,#(_uip_buf + 0x0010)
   0B81 7Bs00              2648 	mov	r3,#((_uip_buf + 0x0010) >> 8)
   0B83 7C 00              2649 	mov	r4,#0x00
   0B85 8A 82              2650 	mov	dpl,r2
   0B87 8B 83              2651 	mov	dph,r3
   0B89 8C F0              2652 	mov	b,r4
   0B8B 12s00r00           2653 	lcall	__gptrget
   0B8E FB                 2654 	mov	r3,a
   0B8F 7A 00              2655 	mov	r2,#0x00
   0B91 90s00r1D           2656 	mov	dptr,#(_uip_buf + 0x0011)
   0B94 75 F0 00           2657 	mov	b,#0x00
   0B97 12s00r00           2658 	lcall	__gptrget
   0B9A FC                 2659 	mov	r4,a
   0B9B 7D 00              2660 	mov	r5,#0x00
   0B9D 90s01rA4           2661 	mov	dptr,#_uip_len
   0BA0 EC                 2662 	mov	a,r4
   0BA1 2A                 2663 	add	a,r2
   0BA2 F0                 2664 	movx	@dptr,a
   0BA3 ED                 2665 	mov	a,r5
   0BA4 3B                 2666 	addc	a,r3
   0BA5 A3                 2667 	inc	dptr
   0BA6 F0                 2668 	movx	@dptr,a
                    0BA7   2669 	C$uip.c$888$1$1 ==.
                           2670 ;	..\uip\uip.c:888: if ((BUF->ipoffset[0] & 0x3f) != 0 ||
   0BA7 7Ar20              2671 	mov	r2,#(_uip_buf + 0x0014)
   0BA9 7Bs00              2672 	mov	r3,#((_uip_buf + 0x0014) >> 8)
   0BAB 7C 00              2673 	mov	r4,#0x00
   0BAD 8A 82              2674 	mov	dpl,r2
   0BAF 8B 83              2675 	mov	dph,r3
   0BB1 8C F0              2676 	mov	b,r4
   0BB3 12s00r00           2677 	lcall	__gptrget
   0BB6 FA                 2678 	mov	r2,a
   0BB7 54 3F              2679 	anl	a,#0x3F
   0BB9 60 03              2680 	jz	00555$
   0BBB 02s27r06           2681 	ljmp	00379$
   0BBE                    2682 00555$:
                    0BBE   2683 	C$uip.c$889$1$1 ==.
                           2684 ;	..\uip\uip.c:889: BUF->ipoffset[1] != 0) {
   0BBE 90s00r21           2685 	mov	dptr,#(_uip_buf + 0x0015)
   0BC1 75 F0 00           2686 	mov	b,#0x00
   0BC4 12s00r00           2687 	lcall	__gptrget
   0BC7 60 03              2688 	jz	00556$
   0BC9 02s27r06           2689 	ljmp	00379$
   0BCC                    2690 00556$:
                    0BCC   2691 	C$uip.c$904$1$1 ==.
                           2692 ;	..\uip\uip.c:904: if (uip_ipaddr_cmp(uip_hostaddr, all_zeroes_addr)) {
   0BCC 90s00r00           2693 	mov	dptr,#_uip_hostaddr
   0BCF E0                 2694 	movx	a,@dptr
   0BD0 FA                 2695 	mov	r2,a
   0BD1 A3                 2696 	inc	dptr
   0BD2 E0                 2697 	movx	a,@dptr
   0BD3 FB                 2698 	mov	r3,a
   0BD4 90s00r04           2699 	mov	dptr,#_all_zeroes_addr
   0BD7 E4                 2700 	clr	a
   0BD8 93                 2701 	movc	a,@a+dptr
   0BD9 FC                 2702 	mov	r4,a
   0BDA A3                 2703 	inc	dptr
   0BDB E4                 2704 	clr	a
   0BDC 93                 2705 	movc	a,@a+dptr
   0BDD FD                 2706 	mov	r5,a
   0BDE EA                 2707 	mov	a,r2
   0BDF B5 04 2C           2708 	cjne	a,ar4,00154$
   0BE2 EB                 2709 	mov	a,r3
   0BE3 B5 05 28           2710 	cjne	a,ar5,00154$
   0BE6 90s00r02           2711 	mov	dptr,#(_uip_hostaddr + 0x0002)
   0BE9 75 F0 00           2712 	mov	b,#0x00
   0BEC 12s00r00           2713 	lcall	__gptrget
   0BEF FA                 2714 	mov	r2,a
   0BF0 A3                 2715 	inc	dptr
   0BF1 12s00r00           2716 	lcall	__gptrget
   0BF4 FB                 2717 	mov	r3,a
   0BF5 90s00r06           2718 	mov	dptr,#(_all_zeroes_addr + 0x0002)
   0BF8 75 F0 80           2719 	mov	b,#0x80
   0BFB 12s00r00           2720 	lcall	__gptrget
   0BFE FC                 2721 	mov	r4,a
   0BFF A3                 2722 	inc	dptr
   0C00 12s00r00           2723 	lcall	__gptrget
   0C03 FD                 2724 	mov	r5,a
   0C04 EA                 2725 	mov	a,r2
   0C05 B5 04 06           2726 	cjne	a,ar4,00559$
   0C08 EB                 2727 	mov	a,r3
   0C09 B5 05 02           2728 	cjne	a,ar5,00559$
   0C0C 80 4F              2729 	sjmp	00155$
   0C0E                    2730 00559$:
   0C0E                    2731 00154$:
                    0C0E   2732 	C$uip.c$933$2$21 ==.
                           2733 ;	..\uip\uip.c:933: if (!uip_ipaddr_cmp(BUF->destipaddr, uip_hostaddr)) {
   0C0E 90s00r2A           2734 	mov	dptr,#(_uip_buf + 0x001e)
   0C11 75 F0 00           2735 	mov	b,#0x00
   0C14 12s00r00           2736 	lcall	__gptrget
   0C17 FA                 2737 	mov	r2,a
   0C18 A3                 2738 	inc	dptr
   0C19 12s00r00           2739 	lcall	__gptrget
   0C1C FB                 2740 	mov	r3,a
   0C1D 90s00r00           2741 	mov	dptr,#_uip_hostaddr
   0C20 E0                 2742 	movx	a,@dptr
   0C21 FC                 2743 	mov	r4,a
   0C22 A3                 2744 	inc	dptr
   0C23 E0                 2745 	movx	a,@dptr
   0C24 FD                 2746 	mov	r5,a
   0C25 EA                 2747 	mov	a,r2
   0C26 B5 04 06           2748 	cjne	a,ar4,00560$
   0C29 EB                 2749 	mov	a,r3
   0C2A B5 05 02           2750 	cjne	a,ar5,00560$
   0C2D 80 03              2751 	sjmp	00561$
   0C2F                    2752 00560$:
   0C2F 02s27r06           2753 	ljmp	00379$
   0C32                    2754 00561$:
   0C32 90s00r2C           2755 	mov	dptr,#(_uip_buf + 0x0020)
   0C35 75 F0 00           2756 	mov	b,#0x00
   0C38 12s00r00           2757 	lcall	__gptrget
   0C3B FA                 2758 	mov	r2,a
   0C3C A3                 2759 	inc	dptr
   0C3D 12s00r00           2760 	lcall	__gptrget
   0C40 FB                 2761 	mov	r3,a
   0C41 90s00r02           2762 	mov	dptr,#(_uip_hostaddr + 0x0002)
   0C44 75 F0 00           2763 	mov	b,#0x00
   0C47 12s00r00           2764 	lcall	__gptrget
   0C4A FC                 2765 	mov	r4,a
   0C4B A3                 2766 	inc	dptr
   0C4C 12s00r00           2767 	lcall	__gptrget
   0C4F FD                 2768 	mov	r5,a
   0C50 EA                 2769 	mov	a,r2
   0C51 B5 04 06           2770 	cjne	a,ar4,00562$
   0C54 EB                 2771 	mov	a,r3
   0C55 B5 05 02           2772 	cjne	a,ar5,00562$
   0C58 80 03              2773 	sjmp	00563$
   0C5A                    2774 00562$:
   0C5A 02s27r06           2775 	ljmp	00379$
   0C5D                    2776 00563$:
                    0C5D   2777 	C$uip.c$935$1$1 ==.
                           2778 ;	..\uip\uip.c:935: goto drop;
   0C5D                    2779 00155$:
                    0C5D   2780 	C$uip.c$952$1$1 ==.
                           2781 ;	..\uip\uip.c:952: if (uip_ipchksum() != 0xffff) { /* Compute and check the IP header
   0C5D 78r70              2782 	mov	r0,#_uip_ipchksum
   0C5F 79s02              2783 	mov	r1,#(_uip_ipchksum >> 8)
   0C61 7As00              2784 	mov	r2,#(_uip_ipchksum >> 16)
   0C63 12s00r00           2785 	lcall	__sdcc_banked_call
   0C66 AA 82              2786 	mov	r2,dpl
   0C68 AB 83              2787 	mov	r3,dph
   0C6A BA FF 05           2788 	cjne	r2,#0xFF,00564$
   0C6D BB FF 02           2789 	cjne	r3,#0xFF,00564$
   0C70 80 03              2790 	sjmp	00565$
   0C72                    2791 00564$:
   0C72 02s27r06           2792 	ljmp	00379$
   0C75                    2793 00565$:
                    0C75   2794 	C$uip.c$961$1$1 ==.
                           2795 ;	..\uip\uip.c:961: if (BUF->proto == UIP_PROTO_TCP) { /* Check for TCP packet. If so,
   0C75 90s00r23           2796 	mov	dptr,#(_uip_buf + 0x0017)
   0C78 75 F0 00           2797 	mov	b,#0x00
   0C7B 12s00r00           2798 	lcall	__gptrget
   0C7E FA                 2799 	mov	r2,a
   0C7F BA 06 03           2800 	cjne	r2,#0x06,00566$
   0C82 02s0Dr8A           2801 	ljmp	00174$
   0C85                    2802 00566$:
                    0C85   2803 	C$uip.c$975$1$1 ==.
                           2804 ;	..\uip\uip.c:975: if (BUF->proto != UIP_PROTO_ICMP) { /* We only allow ICMP packets from
   0C85 90s00r23           2805 	mov	dptr,#(_uip_buf + 0x0017)
   0C88 75 F0 00           2806 	mov	b,#0x00
   0C8B 12s00r00           2807 	lcall	__gptrget
   0C8E FA                 2808 	mov	r2,a
   0C8F BA 01 02           2809 	cjne	r2,#0x01,00567$
   0C92 80 03              2810 	sjmp	00568$
   0C94                    2811 00567$:
   0C94 02s27r06           2812 	ljmp	00379$
   0C97                    2813 00568$:
                    0C97   2814 	C$uip.c$991$1$1 ==.
                           2815 ;	..\uip\uip.c:991: if (ICMPBUF->type != ICMP_ECHO) {
   0C97 90s00r2E           2816 	mov	dptr,#(_uip_buf + 0x0022)
   0C9A 75 F0 00           2817 	mov	b,#0x00
   0C9D 12s00r00           2818 	lcall	__gptrget
   0CA0 FA                 2819 	mov	r2,a
   0CA1 BA 08 02           2820 	cjne	r2,#0x08,00569$
   0CA4 80 03              2821 	sjmp	00570$
   0CA6                    2822 00569$:
   0CA6 02s27r06           2823 	ljmp	00379$
   0CA9                    2824 00570$:
                    0CA9   2825 	C$uip.c$1008$1$1 ==.
                           2826 ;	..\uip\uip.c:1008: ICMPBUF->type = ICMP_ECHO_REPLY;
   0CA9 90s00r2E           2827 	mov	dptr,#(_uip_buf + 0x0022)
   0CAC E4                 2828 	clr	a
   0CAD F5 F0              2829 	mov	b,a
   0CAF 12s00r00           2830 	lcall	__gptrput
                    0CB2   2831 	C$uip.c$1010$1$1 ==.
                           2832 ;	..\uip\uip.c:1010: if (ICMPBUF->icmpchksum >= HTONS(0xffff - (ICMP_ECHO << 8))) {
   0CB2 90s00r30           2833 	mov	dptr,#(_uip_buf + 0x0024)
   0CB5 75 F0 00           2834 	mov	b,#0x00
   0CB8 12s00r00           2835 	lcall	__gptrget
   0CBB FA                 2836 	mov	r2,a
   0CBC A3                 2837 	inc	dptr
   0CBD 12s00r00           2838 	lcall	__gptrget
   0CC0 FB                 2839 	mov	r3,a
   0CC1 C3                 2840 	clr	c
   0CC2 EA                 2841 	mov	a,r2
   0CC3 94 F7              2842 	subb	a,#0xF7
   0CC5 EB                 2843 	mov	a,r3
   0CC6 94 FF              2844 	subb	a,#0xFF
   0CC8 40 27              2845 	jc	00166$
                    0CCA   2846 	C$uip.c$1011$2$27 ==.
                           2847 ;	..\uip\uip.c:1011: ICMPBUF->icmpchksum += HTONS(ICMP_ECHO << 8) + 1;
   0CCA 90s00r30           2848 	mov	dptr,#(_uip_buf + 0x0024)
   0CCD 75 F0 00           2849 	mov	b,#0x00
   0CD0 12s00r00           2850 	lcall	__gptrget
   0CD3 FA                 2851 	mov	r2,a
   0CD4 A3                 2852 	inc	dptr
   0CD5 12s00r00           2853 	lcall	__gptrget
   0CD8 FB                 2854 	mov	r3,a
   0CD9 74 09              2855 	mov	a,#0x09
   0CDB 2A                 2856 	add	a,r2
   0CDC FA                 2857 	mov	r2,a
   0CDD E4                 2858 	clr	a
   0CDE 3B                 2859 	addc	a,r3
   0CDF FB                 2860 	mov	r3,a
   0CE0 90s00r30           2861 	mov	dptr,#(_uip_buf + 0x0024)
   0CE3 75 F0 00           2862 	mov	b,#0x00
   0CE6 EA                 2863 	mov	a,r2
   0CE7 12s00r00           2864 	lcall	__gptrput
   0CEA A3                 2865 	inc	dptr
   0CEB EB                 2866 	mov	a,r3
   0CEC 12s00r00           2867 	lcall	__gptrput
   0CEF 80 25              2868 	sjmp	00168$
   0CF1                    2869 00166$:
                    0CF1   2870 	C$uip.c$1013$2$28 ==.
                           2871 ;	..\uip\uip.c:1013: ICMPBUF->icmpchksum += HTONS(ICMP_ECHO << 8);
   0CF1 90s00r30           2872 	mov	dptr,#(_uip_buf + 0x0024)
   0CF4 75 F0 00           2873 	mov	b,#0x00
   0CF7 12s00r00           2874 	lcall	__gptrget
   0CFA FA                 2875 	mov	r2,a
   0CFB A3                 2876 	inc	dptr
   0CFC 12s00r00           2877 	lcall	__gptrget
   0CFF FB                 2878 	mov	r3,a
   0D00 74 08              2879 	mov	a,#0x08
   0D02 2A                 2880 	add	a,r2
   0D03 FA                 2881 	mov	r2,a
   0D04 E4                 2882 	clr	a
   0D05 3B                 2883 	addc	a,r3
   0D06 FB                 2884 	mov	r3,a
   0D07 90s00r30           2885 	mov	dptr,#(_uip_buf + 0x0024)
   0D0A 75 F0 00           2886 	mov	b,#0x00
   0D0D EA                 2887 	mov	a,r2
   0D0E 12s00r00           2888 	lcall	__gptrput
   0D11 A3                 2889 	inc	dptr
   0D12 EB                 2890 	mov	a,r3
   0D13 12s00r00           2891 	lcall	__gptrput
                    0D16   2892 	C$uip.c$1017$1$1 ==.
                           2893 ;	..\uip\uip.c:1017: uip_ipaddr_copy(BUF->destipaddr, BUF->srcipaddr);
   0D16                    2894 00168$:
   0D16 90s00r26           2895 	mov	dptr,#(_uip_buf + 0x001a)
   0D19 75 F0 00           2896 	mov	b,#0x00
   0D1C 12s00r00           2897 	lcall	__gptrget
   0D1F FA                 2898 	mov	r2,a
   0D20 A3                 2899 	inc	dptr
   0D21 12s00r00           2900 	lcall	__gptrget
   0D24 FB                 2901 	mov	r3,a
   0D25 90s00r2A           2902 	mov	dptr,#(_uip_buf + 0x001e)
   0D28 75 F0 00           2903 	mov	b,#0x00
   0D2B EA                 2904 	mov	a,r2
   0D2C 12s00r00           2905 	lcall	__gptrput
   0D2F A3                 2906 	inc	dptr
   0D30 EB                 2907 	mov	a,r3
   0D31 12s00r00           2908 	lcall	__gptrput
   0D34 90s00r28           2909 	mov	dptr,#(_uip_buf + 0x001c)
   0D37 75 F0 00           2910 	mov	b,#0x00
   0D3A 12s00r00           2911 	lcall	__gptrget
   0D3D FA                 2912 	mov	r2,a
   0D3E A3                 2913 	inc	dptr
   0D3F 12s00r00           2914 	lcall	__gptrget
   0D42 FB                 2915 	mov	r3,a
   0D43 90s00r2C           2916 	mov	dptr,#(_uip_buf + 0x0020)
   0D46 75 F0 00           2917 	mov	b,#0x00
   0D49 EA                 2918 	mov	a,r2
   0D4A 12s00r00           2919 	lcall	__gptrput
   0D4D A3                 2920 	inc	dptr
   0D4E EB                 2921 	mov	a,r3
   0D4F 12s00r00           2922 	lcall	__gptrput
                    0D52   2923 	C$uip.c$1018$2$30 ==.
                           2924 ;	..\uip\uip.c:1018: uip_ipaddr_copy(BUF->srcipaddr, uip_hostaddr);
   0D52 90s00r00           2925 	mov	dptr,#_uip_hostaddr
   0D55 E0                 2926 	movx	a,@dptr
   0D56 FA                 2927 	mov	r2,a
   0D57 A3                 2928 	inc	dptr
   0D58 E0                 2929 	movx	a,@dptr
   0D59 FB                 2930 	mov	r3,a
   0D5A 90s00r26           2931 	mov	dptr,#(_uip_buf + 0x001a)
   0D5D 75 F0 00           2932 	mov	b,#0x00
   0D60 EA                 2933 	mov	a,r2
   0D61 12s00r00           2934 	lcall	__gptrput
   0D64 A3                 2935 	inc	dptr
   0D65 EB                 2936 	mov	a,r3
   0D66 12s00r00           2937 	lcall	__gptrput
   0D69 90s00r02           2938 	mov	dptr,#(_uip_hostaddr + 0x0002)
   0D6C 75 F0 00           2939 	mov	b,#0x00
   0D6F 12s00r00           2940 	lcall	__gptrget
   0D72 FA                 2941 	mov	r2,a
   0D73 A3                 2942 	inc	dptr
   0D74 12s00r00           2943 	lcall	__gptrget
   0D77 FB                 2944 	mov	r3,a
   0D78 90s00r28           2945 	mov	dptr,#(_uip_buf + 0x001c)
   0D7B 75 F0 00           2946 	mov	b,#0x00
   0D7E EA                 2947 	mov	a,r2
   0D7F 12s00r00           2948 	lcall	__gptrput
   0D82 A3                 2949 	inc	dptr
   0D83 EB                 2950 	mov	a,r3
   0D84 12s00r00           2951 	lcall	__gptrput
                    0D87   2952 	C$uip.c$1021$1$1 ==.
                           2953 ;	..\uip\uip.c:1021: goto send;
   0D87 02s26rFF           2954 	ljmp	00378$
                    0D8A   2955 	C$uip.c$1185$1$1 ==.
                           2956 ;	..\uip\uip.c:1185: tcp_input:
   0D8A                    2957 00174$:
                    0D8A   2958 	C$uip.c$1190$1$1 ==.
                           2959 ;	..\uip\uip.c:1190: if (uip_tcpchksum() != 0xffff) {   /* Compute and check the TCP
   0D8A 78r6E              2960 	mov	r0,#_uip_tcpchksum
   0D8C 79s03              2961 	mov	r1,#(_uip_tcpchksum >> 8)
   0D8E 7As00              2962 	mov	r2,#(_uip_tcpchksum >> 16)
   0D90 12s00r00           2963 	lcall	__sdcc_banked_call
   0D93 AA 82              2964 	mov	r2,dpl
   0D95 AB 83              2965 	mov	r3,dph
   0D97 BA FF 05           2966 	cjne	r2,#0xFF,00572$
   0D9A BB FF 02           2967 	cjne	r3,#0xFF,00572$
   0D9D 80 03              2968 	sjmp	00573$
   0D9F                    2969 00572$:
   0D9F 02s27r06           2970 	ljmp	00379$
   0DA2                    2971 00573$:
                    0DA2   2972 	C$uip.c$1201$1$1 ==.
                           2973 ;	..\uip\uip.c:1201: for (uip_connr = &uip_conns[0]; uip_connr <= &uip_conns[UIP_CONNS - 1];
   0DA2 90s0Dr83           2974 	mov	dptr,#_uip_process_uip_connr_1_1
   0DA5 74rAC              2975 	mov	a,#_uip_conns
   0DA7 F0                 2976 	movx	@dptr,a
   0DA8 A3                 2977 	inc	dptr
   0DA9 74s01              2978 	mov	a,#(_uip_conns >> 8)
   0DAB F0                 2979 	movx	@dptr,a
   0DAC A3                 2980 	inc	dptr
   0DAD E4                 2981 	clr	a
   0DAE F0                 2982 	movx	@dptr,a
   0DAF 7ArAC              2983 	mov	r2,#_uip_conns
   0DB1 7Bs01              2984 	mov	r3,#(_uip_conns >> 8)
   0DB3 7C 00              2985 	mov	r4,#0x00
   0DB5                    2986 00380$:
   0DB5 8A 05              2987 	mov	ar5,r2
   0DB7 8B 06              2988 	mov	ar6,r3
   0DB9 8C 07              2989 	mov	ar7,r4
   0DBB C3                 2990 	clr	c
   0DBC 74r14              2991 	mov	a,#(_uip_conns + 0x0a68)
   0DBE 9D                 2992 	subb	a,r5
   0DBF 74s0C              2993 	mov	a,#((_uip_conns + 0x0a68) >> 8)
   0DC1 9E                 2994 	subb	a,r6
   0DC2 74 80              2995 	mov	a,#(0x00 ^ 0x80)
   0DC4 8F F0              2996 	mov	b,r7
   0DC6 63 F0 80           2997 	xrl	b,#0x80
   0DC9 95 F0              2998 	subb	a,b
   0DCB 50 03              2999 	jnc	00574$
   0DCD 02s0ErF5           3000 	ljmp	00383$
   0DD0                    3001 00574$:
                    0DD0   3002 	C$uip.c$1203$2$32 ==.
                           3003 ;	..\uip\uip.c:1203: if (uip_connr->tcpstateflags != UIP_CLOSED &&
   0DD0 74 19              3004 	mov	a,#0x19
   0DD2 2A                 3005 	add	a,r2
   0DD3 FD                 3006 	mov	r5,a
   0DD4 E4                 3007 	clr	a
   0DD5 3B                 3008 	addc	a,r3
   0DD6 FE                 3009 	mov	r6,a
   0DD7 8C 07              3010 	mov	ar7,r4
   0DD9 8D 82              3011 	mov	dpl,r5
   0DDB 8E 83              3012 	mov	dph,r6
   0DDD 8F F0              3013 	mov	b,r7
   0DDF 12s00r00           3014 	lcall	__gptrget
   0DE2 FD                 3015 	mov	r5,a
   0DE3 70 03              3016 	jnz	00575$
   0DE5 02s0ErDF           3017 	ljmp	00382$
   0DE8                    3018 00575$:
                    0DE8   3019 	C$uip.c$1204$1$1 ==.
                           3020 ;	..\uip\uip.c:1204: BUF->destport == uip_connr->lport &&
   0DE8 C0 05              3021 	push	ar5
   0DEA 90s00r30           3022 	mov	dptr,#(_uip_buf + 0x0024)
   0DED 75 F0 00           3023 	mov	b,#0x00
   0DF0 12s00r00           3024 	lcall	__gptrget
   0DF3 FE                 3025 	mov	r6,a
   0DF4 A3                 3026 	inc	dptr
   0DF5 12s00r00           3027 	lcall	__gptrget
   0DF8 FF                 3028 	mov	r7,a
   0DF9 74 04              3029 	mov	a,#0x04
   0DFB 2A                 3030 	add	a,r2
   0DFC F8                 3031 	mov	r0,a
   0DFD E4                 3032 	clr	a
   0DFE 3B                 3033 	addc	a,r3
   0DFF F9                 3034 	mov	r1,a
   0E00 8C 05              3035 	mov	ar5,r4
   0E02 88 82              3036 	mov	dpl,r0
   0E04 89 83              3037 	mov	dph,r1
   0E06 8D F0              3038 	mov	b,r5
   0E08 12s00r00           3039 	lcall	__gptrget
   0E0B F8                 3040 	mov	r0,a
   0E0C A3                 3041 	inc	dptr
   0E0D 12s00r00           3042 	lcall	__gptrget
   0E10 F9                 3043 	mov	r1,a
   0E11 EE                 3044 	mov	a,r6
   0E12 B5 00 08           3045 	cjne	a,ar0,00576$
   0E15 EF                 3046 	mov	a,r7
   0E16 B5 01 04           3047 	cjne	a,ar1,00576$
   0E19 74 01              3048 	mov	a,#0x01
   0E1B 80 01              3049 	sjmp	00577$
   0E1D                    3050 00576$:
   0E1D E4                 3051 	clr	a
   0E1E                    3052 00577$:
   0E1E D0 05              3053 	pop	ar5
   0E20 70 03              3054 	jnz	00578$
   0E22 02s0ErDF           3055 	ljmp	00382$
   0E25                    3056 00578$:
                    0E25   3057 	C$uip.c$1205$1$1 ==.
                           3058 ;	..\uip\uip.c:1205: BUF->srcport == uip_connr->rport &&
   0E25 C0 05              3059 	push	ar5
   0E27 90s00r2E           3060 	mov	dptr,#(_uip_buf + 0x0022)
   0E2A 75 F0 00           3061 	mov	b,#0x00
   0E2D 12s00r00           3062 	lcall	__gptrget
   0E30 FE                 3063 	mov	r6,a
   0E31 A3                 3064 	inc	dptr
   0E32 12s00r00           3065 	lcall	__gptrget
   0E35 FF                 3066 	mov	r7,a
   0E36 74 06              3067 	mov	a,#0x06
   0E38 2A                 3068 	add	a,r2
   0E39 F8                 3069 	mov	r0,a
   0E3A E4                 3070 	clr	a
   0E3B 3B                 3071 	addc	a,r3
   0E3C F9                 3072 	mov	r1,a
   0E3D 8C 05              3073 	mov	ar5,r4
   0E3F 88 82              3074 	mov	dpl,r0
   0E41 89 83              3075 	mov	dph,r1
   0E43 8D F0              3076 	mov	b,r5
   0E45 12s00r00           3077 	lcall	__gptrget
   0E48 F8                 3078 	mov	r0,a
   0E49 A3                 3079 	inc	dptr
   0E4A 12s00r00           3080 	lcall	__gptrget
   0E4D F9                 3081 	mov	r1,a
   0E4E EE                 3082 	mov	a,r6
   0E4F B5 00 08           3083 	cjne	a,ar0,00579$
   0E52 EF                 3084 	mov	a,r7
   0E53 B5 01 04           3085 	cjne	a,ar1,00579$
   0E56 74 01              3086 	mov	a,#0x01
   0E58 80 01              3087 	sjmp	00580$
   0E5A                    3088 00579$:
   0E5A E4                 3089 	clr	a
   0E5B                    3090 00580$:
   0E5B D0 05              3091 	pop	ar5
   0E5D 70 03              3092 	jnz	00581$
   0E5F 02s0ErDF           3093 	ljmp	00382$
   0E62                    3094 00581$:
                    0E62   3095 	C$uip.c$1206$2$32 ==.
                           3096 ;	..\uip\uip.c:1206: uip_ipaddr_cmp(BUF->srcipaddr, uip_connr->ripaddr)) {
   0E62 90s00r26           3097 	mov	dptr,#(_uip_buf + 0x001a)
   0E65 75 F0 00           3098 	mov	b,#0x00
   0E68 12s00r00           3099 	lcall	__gptrget
   0E6B FE                 3100 	mov	r6,a
   0E6C A3                 3101 	inc	dptr
   0E6D 12s00r00           3102 	lcall	__gptrget
   0E70 FF                 3103 	mov	r7,a
   0E71 8A 82              3104 	mov	dpl,r2
   0E73 8B 83              3105 	mov	dph,r3
   0E75 8C F0              3106 	mov	b,r4
   0E77 12s00r00           3107 	lcall	__gptrget
   0E7A F8                 3108 	mov	r0,a
   0E7B A3                 3109 	inc	dptr
   0E7C 12s00r00           3110 	lcall	__gptrget
   0E7F F9                 3111 	mov	r1,a
   0E80 EE                 3112 	mov	a,r6
   0E81 B5 00 5B           3113 	cjne	a,ar0,00382$
   0E84 EF                 3114 	mov	a,r7
   0E85 B5 01 57           3115 	cjne	a,ar1,00382$
   0E88 C0 05              3116 	push	ar5
   0E8A 90s00r28           3117 	mov	dptr,#(_uip_buf + 0x001c)
   0E8D 75 F0 00           3118 	mov	b,#0x00
   0E90 12s00r00           3119 	lcall	__gptrget
   0E93 FE                 3120 	mov	r6,a
   0E94 A3                 3121 	inc	dptr
   0E95 12s00r00           3122 	lcall	__gptrget
   0E98 FF                 3123 	mov	r7,a
   0E99 74 02              3124 	mov	a,#0x02
   0E9B 2A                 3125 	add	a,r2
   0E9C F8                 3126 	mov	r0,a
   0E9D E4                 3127 	clr	a
   0E9E 3B                 3128 	addc	a,r3
   0E9F F9                 3129 	mov	r1,a
   0EA0 8C 05              3130 	mov	ar5,r4
   0EA2 88 82              3131 	mov	dpl,r0
   0EA4 89 83              3132 	mov	dph,r1
   0EA6 8D F0              3133 	mov	b,r5
   0EA8 12s00r00           3134 	lcall	__gptrget
   0EAB F8                 3135 	mov	r0,a
   0EAC A3                 3136 	inc	dptr
   0EAD 12s00r00           3137 	lcall	__gptrget
   0EB0 F9                 3138 	mov	r1,a
   0EB1 EE                 3139 	mov	a,r6
   0EB2 B5 00 08           3140 	cjne	a,ar0,00584$
   0EB5 EF                 3141 	mov	a,r7
   0EB6 B5 01 04           3142 	cjne	a,ar1,00584$
   0EB9 74 01              3143 	mov	a,#0x01
   0EBB 80 01              3144 	sjmp	00585$
   0EBD                    3145 00584$:
   0EBD E4                 3146 	clr	a
   0EBE                    3147 00585$:
   0EBE D0 05              3148 	pop	ar5
   0EC0 60 1D              3149 	jz	00382$
                    0EC2   3150 	C$uip.c$1207$3$33 ==.
                           3151 ;	..\uip\uip.c:1207: if ((uip_connr->tcpstateflags != UIP_SYN_RCVD) &&
   0EC2 BD 01 03           3152 	cjne	r5,#0x01,00587$
   0EC5 02s15rF2           3153 	ljmp	00241$
   0EC8                    3154 00587$:
                    0EC8   3155 	C$uip.c$1208$3$33 ==.
                           3156 ;	..\uip\uip.c:1208: (BUF->flags & TCP_CTL) == TCP_SYN) {
   0EC8 90s00r3B           3157 	mov	dptr,#(_uip_buf + 0x002f)
   0ECB 75 F0 00           3158 	mov	b,#0x00
   0ECE 12s00r00           3159 	lcall	__gptrget
   0ED1 FD                 3160 	mov	r5,a
   0ED2 53 05 3F           3161 	anl	ar5,#0x3F
   0ED5 BD 02 02           3162 	cjne	r5,#0x02,00588$
   0ED8 80 03              3163 	sjmp	00589$
   0EDA                    3164 00588$:
   0EDA 02s15rF2           3165 	ljmp	00241$
   0EDD                    3166 00589$:
                    0EDD   3167 	C$uip.c$1209$4$34 ==.
                           3168 ;	..\uip\uip.c:1209: goto reset;
                    0EDD   3169 	C$uip.c$1211$1$32 ==.
                           3170 ;	..\uip\uip.c:1211: goto found;
   0EDD 80 6F              3171 	sjmp	00190$
   0EDF                    3172 00382$:
                    0EDF   3173 	C$uip.c$1202$1$1 ==.
                           3174 ;	..\uip\uip.c:1202: ++uip_connr) {
   0EDF 74 28              3175 	mov	a,#0x28
   0EE1 2A                 3176 	add	a,r2
   0EE2 FA                 3177 	mov	r2,a
   0EE3 74 01              3178 	mov	a,#0x01
   0EE5 3B                 3179 	addc	a,r3
   0EE6 FB                 3180 	mov	r3,a
   0EE7 90s0Dr83           3181 	mov	dptr,#_uip_process_uip_connr_1_1
   0EEA EA                 3182 	mov	a,r2
   0EEB F0                 3183 	movx	@dptr,a
   0EEC A3                 3184 	inc	dptr
   0EED EB                 3185 	mov	a,r3
   0EEE F0                 3186 	movx	@dptr,a
   0EEF A3                 3187 	inc	dptr
   0EF0 EC                 3188 	mov	a,r4
   0EF1 F0                 3189 	movx	@dptr,a
   0EF2 02s0DrB5           3190 	ljmp	00380$
   0EF5                    3191 00383$:
                    0EF5   3192 	C$uip.c$1219$1$1 ==.
                           3193 ;	..\uip\uip.c:1219: if ((BUF->flags & TCP_CTL) != TCP_SYN) {
   0EF5 90s00r3B           3194 	mov	dptr,#(_uip_buf + 0x002f)
   0EF8 75 F0 00           3195 	mov	b,#0x00
   0EFB 12s00r00           3196 	lcall	__gptrget
   0EFE FA                 3197 	mov	r2,a
   0EFF 53 02 3F           3198 	anl	ar2,#0x3F
   0F02 BA 02 49           3199 	cjne	r2,#0x02,00190$
                    0F05   3200 	C$uip.c$1223$1$1 ==.
                           3201 ;	..\uip\uip.c:1223: tmp16 = BUF->destport;
   0F05 90s00r30           3202 	mov	dptr,#(_uip_buf + 0x0024)
   0F08 75 F0 00           3203 	mov	b,#0x00
   0F0B 12s00r00           3204 	lcall	__gptrget
   0F0E FA                 3205 	mov	r2,a
   0F0F A3                 3206 	inc	dptr
   0F10 12s00r00           3207 	lcall	__gptrget
   0F13 FB                 3208 	mov	r3,a
   0F14 90s0Dr60           3209 	mov	dptr,#_tmp16
   0F17 EA                 3210 	mov	a,r2
   0F18 F0                 3211 	movx	@dptr,a
   0F19 A3                 3212 	inc	dptr
   0F1A EB                 3213 	mov	a,r3
   0F1B F0                 3214 	movx	@dptr,a
                    0F1C   3215 	C$uip.c$1225$1$1 ==.
                           3216 ;	..\uip\uip.c:1225: for (c = 0; c < UIP_LISTENPORTS; ++c) {
   0F1C 90s0Dr5E           3217 	mov	dptr,#_c
   0F1F E4                 3218 	clr	a
   0F20 F0                 3219 	movx	@dptr,a
   0F21                    3220 00384$:
   0F21 90s0Dr5E           3221 	mov	dptr,#_c
   0F24 E0                 3222 	movx	a,@dptr
   0F25 FC                 3223 	mov	r4,a
   0F26 BC 0A 00           3224 	cjne	r4,#0x0A,00592$
   0F29                    3225 00592$:
   0F29 50 23              3226 	jnc	00190$
                    0F2B   3227 	C$uip.c$1226$2$36 ==.
                           3228 ;	..\uip\uip.c:1226: if (tmp16 == uip_listenports[c])
   0F2B EC                 3229 	mov	a,r4
   0F2C 2C                 3230 	add	a,r4
   0F2D 24r3C              3231 	add	a,#_uip_listenports
   0F2F F5 82              3232 	mov	dpl,a
   0F31 E4                 3233 	clr	a
   0F32 34s0D              3234 	addc	a,#(_uip_listenports >> 8)
   0F34 F5 83              3235 	mov	dph,a
   0F36 E0                 3236 	movx	a,@dptr
   0F37 FD                 3237 	mov	r5,a
   0F38 A3                 3238 	inc	dptr
   0F39 E0                 3239 	movx	a,@dptr
   0F3A FE                 3240 	mov	r6,a
   0F3B EA                 3241 	mov	a,r2
   0F3C B5 05 07           3242 	cjne	a,ar5,00594$
   0F3F EB                 3243 	mov	a,r3
   0F40 B5 06 03           3244 	cjne	a,ar6,00594$
   0F43 02s11r4D           3245 	ljmp	00205$
   0F46                    3246 00594$:
                    0F46   3247 	C$uip.c$1225$1$1 ==.
                           3248 ;	..\uip\uip.c:1225: for (c = 0; c < UIP_LISTENPORTS; ++c) {
   0F46 90s0Dr5E           3249 	mov	dptr,#_c
   0F49 EC                 3250 	mov	a,r4
   0F4A 04                 3251 	inc	a
   0F4B F0                 3252 	movx	@dptr,a
                    0F4C   3253 	C$uip.c$1232$1$1 ==.
                           3254 ;	..\uip\uip.c:1232: reset:
   0F4C 80 D3              3255 	sjmp	00384$
   0F4E                    3256 00190$:
                    0F4E   3257 	C$uip.c$1235$1$1 ==.
                           3258 ;	..\uip\uip.c:1235: if (BUF->flags & TCP_RST) {
   0F4E 90s00r3B           3259 	mov	dptr,#(_uip_buf + 0x002f)
   0F51 75 F0 00           3260 	mov	b,#0x00
   0F54 12s00r00           3261 	lcall	__gptrget
   0F57 FA                 3262 	mov	r2,a
   0F58 30 E2 03           3263 	jnb	acc.2,00595$
   0F5B 02s27r06           3264 	ljmp	00379$
   0F5E                    3265 00595$:
                    0F5E   3266 	C$uip.c$1241$1$1 ==.
                           3267 ;	..\uip\uip.c:1241: BUF->flags = TCP_RST | TCP_ACK;
   0F5E 90s00r3B           3268 	mov	dptr,#(_uip_buf + 0x002f)
   0F61 75 F0 00           3269 	mov	b,#0x00
   0F64 74 14              3270 	mov	a,#0x14
   0F66 12s00r00           3271 	lcall	__gptrput
                    0F69   3272 	C$uip.c$1242$1$1 ==.
                           3273 ;	..\uip\uip.c:1242: uip_len = UIP_IPTCPH_LEN;
   0F69 90s01rA4           3274 	mov	dptr,#_uip_len
   0F6C 74 28              3275 	mov	a,#0x28
   0F6E F0                 3276 	movx	@dptr,a
   0F6F E4                 3277 	clr	a
   0F70 A3                 3278 	inc	dptr
   0F71 F0                 3279 	movx	@dptr,a
                    0F72   3280 	C$uip.c$1243$1$1 ==.
                           3281 ;	..\uip\uip.c:1243: BUF->tcpoffset = 5 << 4;
   0F72 90s00r3A           3282 	mov	dptr,#(_uip_buf + 0x002e)
   0F75 75 F0 00           3283 	mov	b,#0x00
   0F78 74 50              3284 	mov	a,#0x50
   0F7A 12s00r00           3285 	lcall	__gptrput
                    0F7D   3286 	C$uip.c$1246$1$1 ==.
                           3287 ;	..\uip\uip.c:1246: c = BUF->seqno[3];
   0F7D 90s00r35           3288 	mov	dptr,#(_uip_buf + 0x0029)
   0F80 75 F0 00           3289 	mov	b,#0x00
   0F83 12s00r00           3290 	lcall	__gptrget
   0F86 FA                 3291 	mov	r2,a
                    0F87   3292 	C$uip.c$1247$1$1 ==.
                           3293 ;	..\uip\uip.c:1247: BUF->seqno[3] = BUF->ackno[3];
   0F87 90s00r39           3294 	mov	dptr,#(_uip_buf + 0x002d)
   0F8A 75 F0 00           3295 	mov	b,#0x00
   0F8D 12s00r00           3296 	lcall	__gptrget
   0F90 FB                 3297 	mov	r3,a
   0F91 90s00r35           3298 	mov	dptr,#(_uip_buf + 0x0029)
   0F94 75 F0 00           3299 	mov	b,#0x00
   0F97 EB                 3300 	mov	a,r3
   0F98 12s00r00           3301 	lcall	__gptrput
                    0F9B   3302 	C$uip.c$1248$1$1 ==.
                           3303 ;	..\uip\uip.c:1248: BUF->ackno[3] = c;
   0F9B 90s00r39           3304 	mov	dptr,#(_uip_buf + 0x002d)
   0F9E 75 F0 00           3305 	mov	b,#0x00
   0FA1 EA                 3306 	mov	a,r2
   0FA2 12s00r00           3307 	lcall	__gptrput
                    0FA5   3308 	C$uip.c$1250$1$1 ==.
                           3309 ;	..\uip\uip.c:1250: c = BUF->seqno[2];
   0FA5 90s00r34           3310 	mov	dptr,#(_uip_buf + 0x0028)
   0FA8 75 F0 00           3311 	mov	b,#0x00
   0FAB 12s00r00           3312 	lcall	__gptrget
   0FAE FA                 3313 	mov	r2,a
                    0FAF   3314 	C$uip.c$1251$1$1 ==.
                           3315 ;	..\uip\uip.c:1251: BUF->seqno[2] = BUF->ackno[2];
   0FAF 90s00r38           3316 	mov	dptr,#(_uip_buf + 0x002c)
   0FB2 75 F0 00           3317 	mov	b,#0x00
   0FB5 12s00r00           3318 	lcall	__gptrget
   0FB8 FB                 3319 	mov	r3,a
   0FB9 90s00r34           3320 	mov	dptr,#(_uip_buf + 0x0028)
   0FBC 75 F0 00           3321 	mov	b,#0x00
   0FBF EB                 3322 	mov	a,r3
   0FC0 12s00r00           3323 	lcall	__gptrput
                    0FC3   3324 	C$uip.c$1252$1$1 ==.
                           3325 ;	..\uip\uip.c:1252: BUF->ackno[2] = c;
   0FC3 90s00r38           3326 	mov	dptr,#(_uip_buf + 0x002c)
   0FC6 75 F0 00           3327 	mov	b,#0x00
   0FC9 EA                 3328 	mov	a,r2
   0FCA 12s00r00           3329 	lcall	__gptrput
                    0FCD   3330 	C$uip.c$1254$1$1 ==.
                           3331 ;	..\uip\uip.c:1254: c = BUF->seqno[1];
   0FCD 90s00r33           3332 	mov	dptr,#(_uip_buf + 0x0027)
   0FD0 75 F0 00           3333 	mov	b,#0x00
   0FD3 12s00r00           3334 	lcall	__gptrget
   0FD6 FA                 3335 	mov	r2,a
                    0FD7   3336 	C$uip.c$1255$1$1 ==.
                           3337 ;	..\uip\uip.c:1255: BUF->seqno[1] = BUF->ackno[1];
   0FD7 90s00r37           3338 	mov	dptr,#(_uip_buf + 0x002b)
   0FDA 75 F0 00           3339 	mov	b,#0x00
   0FDD 12s00r00           3340 	lcall	__gptrget
   0FE0 FB                 3341 	mov	r3,a
   0FE1 90s00r33           3342 	mov	dptr,#(_uip_buf + 0x0027)
   0FE4 75 F0 00           3343 	mov	b,#0x00
   0FE7 EB                 3344 	mov	a,r3
   0FE8 12s00r00           3345 	lcall	__gptrput
                    0FEB   3346 	C$uip.c$1256$1$1 ==.
                           3347 ;	..\uip\uip.c:1256: BUF->ackno[1] = c;
   0FEB 90s00r37           3348 	mov	dptr,#(_uip_buf + 0x002b)
   0FEE 75 F0 00           3349 	mov	b,#0x00
   0FF1 EA                 3350 	mov	a,r2
   0FF2 12s00r00           3351 	lcall	__gptrput
                    0FF5   3352 	C$uip.c$1258$1$1 ==.
                           3353 ;	..\uip\uip.c:1258: c = BUF->seqno[0];
   0FF5 7Ar32              3354 	mov	r2,#(_uip_buf + 0x0026)
   0FF7 7Bs00              3355 	mov	r3,#((_uip_buf + 0x0026) >> 8)
   0FF9 7C 00              3356 	mov	r4,#0x00
   0FFB 8A 82              3357 	mov	dpl,r2
   0FFD 8B 83              3358 	mov	dph,r3
   0FFF 8C F0              3359 	mov	b,r4
   1001 12s00r00           3360 	lcall	__gptrget
   1004 FA                 3361 	mov	r2,a
   1005 90s0Dr5E           3362 	mov	dptr,#_c
   1008 F0                 3363 	movx	@dptr,a
                    1009   3364 	C$uip.c$1259$1$1 ==.
                           3365 ;	..\uip\uip.c:1259: BUF->seqno[0] = BUF->ackno[0];
   1009 7Br32              3366 	mov	r3,#(_uip_buf + 0x0026)
   100B 7Cs00              3367 	mov	r4,#((_uip_buf + 0x0026) >> 8)
   100D 7D 00              3368 	mov	r5,#0x00
   100F 7Er36              3369 	mov	r6,#(_uip_buf + 0x002a)
   1011 7Fs00              3370 	mov	r7,#((_uip_buf + 0x002a) >> 8)
   1013 78 00              3371 	mov	r0,#0x00
   1015 8E 82              3372 	mov	dpl,r6
   1017 8F 83              3373 	mov	dph,r7
   1019 88 F0              3374 	mov	b,r0
   101B 12s00r00           3375 	lcall	__gptrget
   101E FE                 3376 	mov	r6,a
   101F 8B 82              3377 	mov	dpl,r3
   1021 8C 83              3378 	mov	dph,r4
   1023 8D F0              3379 	mov	b,r5
   1025 12s00r00           3380 	lcall	__gptrput
                    1028   3381 	C$uip.c$1260$1$1 ==.
                           3382 ;	..\uip\uip.c:1260: BUF->ackno[0] = c;
   1028 7Br36              3383 	mov	r3,#(_uip_buf + 0x002a)
   102A 7Cs00              3384 	mov	r4,#((_uip_buf + 0x002a) >> 8)
   102C 7D 00              3385 	mov	r5,#0x00
   102E 8B 82              3386 	mov	dpl,r3
   1030 8C 83              3387 	mov	dph,r4
   1032 8D F0              3388 	mov	b,r5
   1034 EA                 3389 	mov	a,r2
   1035 12s00r00           3390 	lcall	__gptrput
                    1038   3391 	C$uip.c$1265$1$1 ==.
                           3392 ;	..\uip\uip.c:1265: if (++BUF->ackno[3] == 0) {
   1038 90s00r39           3393 	mov	dptr,#(_uip_buf + 0x002d)
   103B 75 F0 00           3394 	mov	b,#0x00
   103E 12s00r00           3395 	lcall	__gptrget
   1041 FA                 3396 	mov	r2,a
   1042 0A                 3397 	inc	r2
   1043 90s00r39           3398 	mov	dptr,#(_uip_buf + 0x002d)
   1046 75 F0 00           3399 	mov	b,#0x00
   1049 EA                 3400 	mov	a,r2
   104A 12s00r00           3401 	lcall	__gptrput
                    104D   3402 	C$uip.c$1266$2$38 ==.
                           3403 ;	..\uip\uip.c:1266: if (++BUF->ackno[2] == 0) {
   104D 70 46              3404 	jnz	00198$
   104F 90s00r38           3405 	mov	dptr,#(_uip_buf + 0x002c)
   1052 F5 F0              3406 	mov	b,a
   1054 12s00r00           3407 	lcall	__gptrget
   1057 FA                 3408 	mov	r2,a
   1058 0A                 3409 	inc	r2
   1059 90s00r38           3410 	mov	dptr,#(_uip_buf + 0x002c)
   105C 75 F0 00           3411 	mov	b,#0x00
   105F EA                 3412 	mov	a,r2
   1060 12s00r00           3413 	lcall	__gptrput
                    1063   3414 	C$uip.c$1267$3$39 ==.
                           3415 ;	..\uip\uip.c:1267: if (++BUF->ackno[1] == 0) {
   1063 70 30              3416 	jnz	00198$
   1065 90s00r37           3417 	mov	dptr,#(_uip_buf + 0x002b)
   1068 F5 F0              3418 	mov	b,a
   106A 12s00r00           3419 	lcall	__gptrget
   106D FA                 3420 	mov	r2,a
   106E 0A                 3421 	inc	r2
   106F 90s00r37           3422 	mov	dptr,#(_uip_buf + 0x002b)
   1072 75 F0 00           3423 	mov	b,#0x00
   1075 EA                 3424 	mov	a,r2
   1076 12s00r00           3425 	lcall	__gptrput
                    1079   3426 	C$uip.c$1268$4$40 ==.
                           3427 ;	..\uip\uip.c:1268: ++BUF->ackno[0];
   1079 70 1A              3428 	jnz	00198$
   107B 7Ar36              3429 	mov	r2,#(_uip_buf + 0x002a)
   107D 7Bs00              3430 	mov	r3,#((_uip_buf + 0x002a) >> 8)
   107F FC                 3431 	mov	r4,a
   1080 8A 82              3432 	mov	dpl,r2
   1082 8B 83              3433 	mov	dph,r3
   1084 8C F0              3434 	mov	b,r4
   1086 12s00r00           3435 	lcall	__gptrget
   1089 FD                 3436 	mov	r5,a
   108A 0D                 3437 	inc	r5
   108B 8A 82              3438 	mov	dpl,r2
   108D 8B 83              3439 	mov	dph,r3
   108F 8C F0              3440 	mov	b,r4
   1091 ED                 3441 	mov	a,r5
   1092 12s00r00           3442 	lcall	__gptrput
   1095                    3443 00198$:
                    1095   3444 	C$uip.c$1274$1$1 ==.
                           3445 ;	..\uip\uip.c:1274: tmp16 = BUF->srcport;
   1095 90s00r2E           3446 	mov	dptr,#(_uip_buf + 0x0022)
   1098 75 F0 00           3447 	mov	b,#0x00
   109B 12s00r00           3448 	lcall	__gptrget
   109E FA                 3449 	mov	r2,a
   109F A3                 3450 	inc	dptr
   10A0 12s00r00           3451 	lcall	__gptrget
   10A3 FB                 3452 	mov	r3,a
   10A4 90s0Dr60           3453 	mov	dptr,#_tmp16
   10A7 EA                 3454 	mov	a,r2
   10A8 F0                 3455 	movx	@dptr,a
   10A9 A3                 3456 	inc	dptr
   10AA EB                 3457 	mov	a,r3
   10AB F0                 3458 	movx	@dptr,a
                    10AC   3459 	C$uip.c$1275$1$1 ==.
                           3460 ;	..\uip\uip.c:1275: BUF->srcport = BUF->destport;
   10AC 90s00r30           3461 	mov	dptr,#(_uip_buf + 0x0024)
   10AF 75 F0 00           3462 	mov	b,#0x00
   10B2 12s00r00           3463 	lcall	__gptrget
   10B5 FC                 3464 	mov	r4,a
   10B6 A3                 3465 	inc	dptr
   10B7 12s00r00           3466 	lcall	__gptrget
   10BA FD                 3467 	mov	r5,a
   10BB 90s00r2E           3468 	mov	dptr,#(_uip_buf + 0x0022)
   10BE 75 F0 00           3469 	mov	b,#0x00
   10C1 EC                 3470 	mov	a,r4
   10C2 12s00r00           3471 	lcall	__gptrput
   10C5 A3                 3472 	inc	dptr
   10C6 ED                 3473 	mov	a,r5
   10C7 12s00r00           3474 	lcall	__gptrput
                    10CA   3475 	C$uip.c$1276$1$1 ==.
                           3476 ;	..\uip\uip.c:1276: BUF->destport = tmp16;
   10CA 90s00r30           3477 	mov	dptr,#(_uip_buf + 0x0024)
   10CD 75 F0 00           3478 	mov	b,#0x00
   10D0 EA                 3479 	mov	a,r2
   10D1 12s00r00           3480 	lcall	__gptrput
   10D4 A3                 3481 	inc	dptr
   10D5 EB                 3482 	mov	a,r3
   10D6 12s00r00           3483 	lcall	__gptrput
                    10D9   3484 	C$uip.c$1279$2$41 ==.
                           3485 ;	..\uip\uip.c:1279: uip_ipaddr_copy(BUF->destipaddr, BUF->srcipaddr);
   10D9 90s00r26           3486 	mov	dptr,#(_uip_buf + 0x001a)
   10DC 75 F0 00           3487 	mov	b,#0x00
   10DF 12s00r00           3488 	lcall	__gptrget
   10E2 FA                 3489 	mov	r2,a
   10E3 A3                 3490 	inc	dptr
   10E4 12s00r00           3491 	lcall	__gptrget
   10E7 FB                 3492 	mov	r3,a
   10E8 90s00r2A           3493 	mov	dptr,#(_uip_buf + 0x001e)
   10EB 75 F0 00           3494 	mov	b,#0x00
   10EE EA                 3495 	mov	a,r2
   10EF 12s00r00           3496 	lcall	__gptrput
   10F2 A3                 3497 	inc	dptr
   10F3 EB                 3498 	mov	a,r3
   10F4 12s00r00           3499 	lcall	__gptrput
   10F7 90s00r28           3500 	mov	dptr,#(_uip_buf + 0x001c)
   10FA 75 F0 00           3501 	mov	b,#0x00
   10FD 12s00r00           3502 	lcall	__gptrget
   1100 FA                 3503 	mov	r2,a
   1101 A3                 3504 	inc	dptr
   1102 12s00r00           3505 	lcall	__gptrget
   1105 FB                 3506 	mov	r3,a
   1106 90s00r2C           3507 	mov	dptr,#(_uip_buf + 0x0020)
   1109 75 F0 00           3508 	mov	b,#0x00
   110C EA                 3509 	mov	a,r2
   110D 12s00r00           3510 	lcall	__gptrput
   1110 A3                 3511 	inc	dptr
   1111 EB                 3512 	mov	a,r3
   1112 12s00r00           3513 	lcall	__gptrput
                    1115   3514 	C$uip.c$1280$2$42 ==.
                           3515 ;	..\uip\uip.c:1280: uip_ipaddr_copy(BUF->srcipaddr, uip_hostaddr);
   1115 90s00r00           3516 	mov	dptr,#_uip_hostaddr
   1118 E0                 3517 	movx	a,@dptr
   1119 FA                 3518 	mov	r2,a
   111A A3                 3519 	inc	dptr
   111B E0                 3520 	movx	a,@dptr
   111C FB                 3521 	mov	r3,a
   111D 90s00r26           3522 	mov	dptr,#(_uip_buf + 0x001a)
   1120 75 F0 00           3523 	mov	b,#0x00
   1123 EA                 3524 	mov	a,r2
   1124 12s00r00           3525 	lcall	__gptrput
   1127 A3                 3526 	inc	dptr
   1128 EB                 3527 	mov	a,r3
   1129 12s00r00           3528 	lcall	__gptrput
   112C 90s00r02           3529 	mov	dptr,#(_uip_hostaddr + 0x0002)
   112F 75 F0 00           3530 	mov	b,#0x00
   1132 12s00r00           3531 	lcall	__gptrget
   1135 FA                 3532 	mov	r2,a
   1136 A3                 3533 	inc	dptr
   1137 12s00r00           3534 	lcall	__gptrget
   113A FB                 3535 	mov	r3,a
   113B 90s00r28           3536 	mov	dptr,#(_uip_buf + 0x001c)
   113E 75 F0 00           3537 	mov	b,#0x00
   1141 EA                 3538 	mov	a,r2
   1142 12s00r00           3539 	lcall	__gptrput
   1145 A3                 3540 	inc	dptr
   1146 EB                 3541 	mov	a,r3
   1147 12s00r00           3542 	lcall	__gptrput
                    114A   3543 	C$uip.c$1283$1$1 ==.
                           3544 ;	..\uip\uip.c:1283: goto tcp_send_noconn;
   114A 02s25rFE           3545 	ljmp	00376$
                    114D   3546 	C$uip.c$1288$1$1 ==.
                           3547 ;	..\uip\uip.c:1288: found_listen:
   114D                    3548 00205$:
                    114D   3549 	C$uip.c$1295$1$1 ==.
                           3550 ;	..\uip\uip.c:1295: uip_connr = 0;
   114D 90s0Dr83           3551 	mov	dptr,#_uip_process_uip_connr_1_1
                    1150   3552 	C$uip.c$1296$1$1 ==.
                           3553 ;	..\uip\uip.c:1296: for (c = 0; c < UIP_CONNS; ++c) {
   1150 E4                 3554 	clr	a
   1151 F0                 3555 	movx	@dptr,a
   1152 A3                 3556 	inc	dptr
   1153 F0                 3557 	movx	@dptr,a
   1154 A3                 3558 	inc	dptr
   1155 F0                 3559 	movx	@dptr,a
   1156 90s0Dr5E           3560 	mov	dptr,#_c
   1159 F0                 3561 	movx	@dptr,a
   115A                    3562 00213$:
   115A 90s0Dr5E           3563 	mov	dptr,#_c
   115D E0                 3564 	movx	a,@dptr
   115E FA                 3565 	mov	r2,a
   115F BA 0A 00           3566 	cjne	r2,#0x0A,00599$
   1162                    3567 00599$:
   1162 40 03              3568 	jc	00600$
   1164 02s12r04           3569 	ljmp	00216$
   1167                    3570 00600$:
                    1167   3571 	C$uip.c$1297$2$43 ==.
                           3572 ;	..\uip\uip.c:1297: if (uip_conns[c].tcpstateflags == UIP_CLOSED) {
   1167 90s00r00           3573 	mov	dptr,#__mulint_PARM_2
   116A EA                 3574 	mov	a,r2
   116B F0                 3575 	movx	@dptr,a
   116C A3                 3576 	inc	dptr
   116D E4                 3577 	clr	a
   116E F0                 3578 	movx	@dptr,a
   116F 90 01 28           3579 	mov	dptr,#0x0128
   1172 12s00r00           3580 	lcall	__mulint
   1175 AA 82              3581 	mov	r2,dpl
   1177 AB 83              3582 	mov	r3,dph
   1179 EA                 3583 	mov	a,r2
   117A 24rAC              3584 	add	a,#_uip_conns
   117C FA                 3585 	mov	r2,a
   117D EB                 3586 	mov	a,r3
   117E 34s01              3587 	addc	a,#(_uip_conns >> 8)
   1180 FB                 3588 	mov	r3,a
   1181 74 19              3589 	mov	a,#0x19
   1183 2A                 3590 	add	a,r2
   1184 F5 82              3591 	mov	dpl,a
   1186 E4                 3592 	clr	a
   1187 3B                 3593 	addc	a,r3
   1188 F5 83              3594 	mov	dph,a
   118A E0                 3595 	movx	a,@dptr
   118B FC                 3596 	mov	r4,a
   118C 70 11              3597 	jnz	00207$
                    118E   3598 	C$uip.c$1298$3$44 ==.
                           3599 ;	..\uip\uip.c:1298: uip_connr = &uip_conns[c];
   118E 8A 05              3600 	mov	ar5,r2
   1190 8B 06              3601 	mov	ar6,r3
   1192 90s0Dr83           3602 	mov	dptr,#_uip_process_uip_connr_1_1
   1195 ED                 3603 	mov	a,r5
   1196 F0                 3604 	movx	@dptr,a
   1197 A3                 3605 	inc	dptr
   1198 EE                 3606 	mov	a,r6
   1199 F0                 3607 	movx	@dptr,a
   119A A3                 3608 	inc	dptr
   119B E4                 3609 	clr	a
   119C F0                 3610 	movx	@dptr,a
                    119D   3611 	C$uip.c$1299$3$44 ==.
                           3612 ;	..\uip\uip.c:1299: break;
   119D 80 65              3613 	sjmp	00216$
   119F                    3614 00207$:
                    119F   3615 	C$uip.c$1301$2$43 ==.
                           3616 ;	..\uip\uip.c:1301: if (uip_conns[c].tcpstateflags == UIP_TIME_WAIT) {
   119F BC 07 58           3617 	cjne	r4,#0x07,00215$
                    11A2   3618 	C$uip.c$1302$3$45 ==.
                           3619 ;	..\uip\uip.c:1302: if (uip_connr == 0 ||
   11A2 90s0Dr83           3620 	mov	dptr,#_uip_process_uip_connr_1_1
   11A5 E0                 3621 	movx	a,@dptr
   11A6 FC                 3622 	mov	r4,a
   11A7 A3                 3623 	inc	dptr
   11A8 E0                 3624 	movx	a,@dptr
   11A9 FD                 3625 	mov	r5,a
   11AA A3                 3626 	inc	dptr
   11AB E0                 3627 	movx	a,@dptr
   11AC FE                 3628 	mov	r6,a
   11AD EC                 3629 	mov	a,r4
   11AE 4D                 3630 	orl	a,r5
   11AF 4E                 3631 	orl	a,r6
   11B0 60 20              3632 	jz	00208$
                    11B2   3633 	C$uip.c$1303$3$45 ==.
                           3634 ;	..\uip\uip.c:1303: uip_conns[c].timer > uip_connr->timer) {
   11B2 74 1A              3635 	mov	a,#0x1A
   11B4 2A                 3636 	add	a,r2
   11B5 F5 82              3637 	mov	dpl,a
   11B7 E4                 3638 	clr	a
   11B8 3B                 3639 	addc	a,r3
   11B9 F5 83              3640 	mov	dph,a
   11BB E0                 3641 	movx	a,@dptr
   11BC FA                 3642 	mov	r2,a
   11BD 74 1A              3643 	mov	a,#0x1A
   11BF 2C                 3644 	add	a,r4
   11C0 FC                 3645 	mov	r4,a
   11C1 E4                 3646 	clr	a
   11C2 3D                 3647 	addc	a,r5
   11C3 FD                 3648 	mov	r5,a
   11C4 8C 82              3649 	mov	dpl,r4
   11C6 8D 83              3650 	mov	dph,r5
   11C8 8E F0              3651 	mov	b,r6
   11CA 12s00r00           3652 	lcall	__gptrget
   11CD FC                 3653 	mov	r4,a
   11CE C3                 3654 	clr	c
   11CF 9A                 3655 	subb	a,r2
   11D0 50 28              3656 	jnc	00215$
   11D2                    3657 00208$:
                    11D2   3658 	C$uip.c$1304$4$46 ==.
                           3659 ;	..\uip\uip.c:1304: uip_connr = &uip_conns[c];
   11D2 90s0Dr5E           3660 	mov	dptr,#_c
   11D5 E0                 3661 	movx	a,@dptr
   11D6 90s00r00           3662 	mov	dptr,#__mulint_PARM_2
   11D9 F0                 3663 	movx	@dptr,a
   11DA A3                 3664 	inc	dptr
   11DB E4                 3665 	clr	a
   11DC F0                 3666 	movx	@dptr,a
   11DD 90 01 28           3667 	mov	dptr,#0x0128
   11E0 12s00r00           3668 	lcall	__mulint
   11E3 AA 82              3669 	mov	r2,dpl
   11E5 AB 83              3670 	mov	r3,dph
   11E7 EA                 3671 	mov	a,r2
   11E8 24rAC              3672 	add	a,#_uip_conns
   11EA FA                 3673 	mov	r2,a
   11EB EB                 3674 	mov	a,r3
   11EC 34s01              3675 	addc	a,#(_uip_conns >> 8)
   11EE FB                 3676 	mov	r3,a
   11EF 90s0Dr83           3677 	mov	dptr,#_uip_process_uip_connr_1_1
   11F2 EA                 3678 	mov	a,r2
   11F3 F0                 3679 	movx	@dptr,a
   11F4 A3                 3680 	inc	dptr
   11F5 EB                 3681 	mov	a,r3
   11F6 F0                 3682 	movx	@dptr,a
   11F7 A3                 3683 	inc	dptr
   11F8 E4                 3684 	clr	a
   11F9 F0                 3685 	movx	@dptr,a
   11FA                    3686 00215$:
                    11FA   3687 	C$uip.c$1296$1$1 ==.
                           3688 ;	..\uip\uip.c:1296: for (c = 0; c < UIP_CONNS; ++c) {
   11FA 90s0Dr5E           3689 	mov	dptr,#_c
   11FD E0                 3690 	movx	a,@dptr
   11FE 24 01              3691 	add	a,#0x01
   1200 F0                 3692 	movx	@dptr,a
   1201 02s11r5A           3693 	ljmp	00213$
   1204                    3694 00216$:
                    1204   3695 	C$uip.c$1309$1$1 ==.
                           3696 ;	..\uip\uip.c:1309: if (uip_connr == 0) {
   1204 90s0Dr83           3697 	mov	dptr,#_uip_process_uip_connr_1_1
   1207 E0                 3698 	movx	a,@dptr
   1208 FA                 3699 	mov	r2,a
   1209 A3                 3700 	inc	dptr
   120A E0                 3701 	movx	a,@dptr
   120B FB                 3702 	mov	r3,a
   120C A3                 3703 	inc	dptr
   120D E0                 3704 	movx	a,@dptr
   120E FC                 3705 	mov	r4,a
   120F EA                 3706 	mov	a,r2
   1210 4B                 3707 	orl	a,r3
   1211 4C                 3708 	orl	a,r4
   1212 70 03              3709 	jnz	00606$
   1214 02s27r06           3710 	ljmp	00379$
   1217                    3711 00606$:
                    1217   3712 	C$uip.c$1317$1$1 ==.
                           3713 ;	..\uip\uip.c:1317: uip_conn = uip_connr;
   1217 90s01rA9           3714 	mov	dptr,#_uip_conn
   121A EA                 3715 	mov	a,r2
   121B F0                 3716 	movx	@dptr,a
   121C A3                 3717 	inc	dptr
   121D EB                 3718 	mov	a,r3
   121E F0                 3719 	movx	@dptr,a
   121F A3                 3720 	inc	dptr
   1220 EC                 3721 	mov	a,r4
   1221 F0                 3722 	movx	@dptr,a
                    1222   3723 	C$uip.c$1320$1$1 ==.
                           3724 ;	..\uip\uip.c:1320: uip_connr->rto = uip_connr->timer = UIP_RTO;
   1222 74 18              3725 	mov	a,#0x18
   1224 2A                 3726 	add	a,r2
   1225 F5*06              3727 	mov	_uip_process_sloc0_1_0,a
   1227 E4                 3728 	clr	a
   1228 3B                 3729 	addc	a,r3
   1229 F5*07              3730 	mov	(_uip_process_sloc0_1_0 + 1),a
   122B 8C*08              3731 	mov	(_uip_process_sloc0_1_0 + 2),r4
   122D 74 1A              3732 	mov	a,#0x1A
   122F 2A                 3733 	add	a,r2
   1230 F8                 3734 	mov	r0,a
   1231 E4                 3735 	clr	a
   1232 3B                 3736 	addc	a,r3
   1233 F9                 3737 	mov	r1,a
   1234 8C 05              3738 	mov	ar5,r4
   1236 88 82              3739 	mov	dpl,r0
   1238 89 83              3740 	mov	dph,r1
   123A 8D F0              3741 	mov	b,r5
   123C 74 03              3742 	mov	a,#0x03
   123E 12s00r00           3743 	lcall	__gptrput
   1241 85*06 82           3744 	mov	dpl,_uip_process_sloc0_1_0
   1244 85*07 83           3745 	mov	dph,(_uip_process_sloc0_1_0 + 1)
   1247 85*08 F0           3746 	mov	b,(_uip_process_sloc0_1_0 + 2)
   124A 74 03              3747 	mov	a,#0x03
   124C 12s00r00           3748 	lcall	__gptrput
                    124F   3749 	C$uip.c$1321$1$1 ==.
                           3750 ;	..\uip\uip.c:1321: uip_connr->sa = 0;
   124F 74 16              3751 	mov	a,#0x16
   1251 2A                 3752 	add	a,r2
   1252 FD                 3753 	mov	r5,a
   1253 E4                 3754 	clr	a
   1254 3B                 3755 	addc	a,r3
   1255 FE                 3756 	mov	r6,a
   1256 8C 07              3757 	mov	ar7,r4
   1258 8D 82              3758 	mov	dpl,r5
   125A 8E 83              3759 	mov	dph,r6
   125C 8F F0              3760 	mov	b,r7
   125E E4                 3761 	clr	a
   125F 12s00r00           3762 	lcall	__gptrput
                    1262   3763 	C$uip.c$1322$1$1 ==.
                           3764 ;	..\uip\uip.c:1322: uip_connr->sv = 4;
   1262 74 17              3765 	mov	a,#0x17
   1264 2A                 3766 	add	a,r2
   1265 FD                 3767 	mov	r5,a
   1266 E4                 3768 	clr	a
   1267 3B                 3769 	addc	a,r3
   1268 FE                 3770 	mov	r6,a
   1269 8C 07              3771 	mov	ar7,r4
   126B 8D 82              3772 	mov	dpl,r5
   126D 8E 83              3773 	mov	dph,r6
   126F 8F F0              3774 	mov	b,r7
   1271 74 04              3775 	mov	a,#0x04
   1273 12s00r00           3776 	lcall	__gptrput
                    1276   3777 	C$uip.c$1323$1$1 ==.
                           3778 ;	..\uip\uip.c:1323: uip_connr->nrtx = 0;
   1276 74 1B              3779 	mov	a,#0x1B
   1278 2A                 3780 	add	a,r2
   1279 FD                 3781 	mov	r5,a
   127A E4                 3782 	clr	a
   127B 3B                 3783 	addc	a,r3
   127C FE                 3784 	mov	r6,a
   127D 8C 07              3785 	mov	ar7,r4
   127F 8D 82              3786 	mov	dpl,r5
   1281 8E 83              3787 	mov	dph,r6
   1283 8F F0              3788 	mov	b,r7
   1285 E4                 3789 	clr	a
   1286 12s00r00           3790 	lcall	__gptrput
                    1289   3791 	C$uip.c$1324$1$1 ==.
                           3792 ;	..\uip\uip.c:1324: uip_connr->lport = BUF->destport;
   1289 74 04              3793 	mov	a,#0x04
   128B 2A                 3794 	add	a,r2
   128C FD                 3795 	mov	r5,a
   128D E4                 3796 	clr	a
   128E 3B                 3797 	addc	a,r3
   128F FE                 3798 	mov	r6,a
   1290 8C 07              3799 	mov	ar7,r4
   1292 90s00r30           3800 	mov	dptr,#(_uip_buf + 0x0024)
   1295 75 F0 00           3801 	mov	b,#0x00
   1298 12s00r00           3802 	lcall	__gptrget
   129B F8                 3803 	mov	r0,a
   129C A3                 3804 	inc	dptr
   129D 12s00r00           3805 	lcall	__gptrget
   12A0 F9                 3806 	mov	r1,a
   12A1 8D 82              3807 	mov	dpl,r5
   12A3 8E 83              3808 	mov	dph,r6
   12A5 8F F0              3809 	mov	b,r7
   12A7 E8                 3810 	mov	a,r0
   12A8 12s00r00           3811 	lcall	__gptrput
   12AB A3                 3812 	inc	dptr
   12AC E9                 3813 	mov	a,r1
   12AD 12s00r00           3814 	lcall	__gptrput
                    12B0   3815 	C$uip.c$1325$1$1 ==.
                           3816 ;	..\uip\uip.c:1325: uip_connr->rport = BUF->srcport;
   12B0 74 06              3817 	mov	a,#0x06
   12B2 2A                 3818 	add	a,r2
   12B3 FD                 3819 	mov	r5,a
   12B4 E4                 3820 	clr	a
   12B5 3B                 3821 	addc	a,r3
   12B6 FE                 3822 	mov	r6,a
   12B7 8C 07              3823 	mov	ar7,r4
   12B9 90s00r2E           3824 	mov	dptr,#(_uip_buf + 0x0022)
   12BC 75 F0 00           3825 	mov	b,#0x00
   12BF 12s00r00           3826 	lcall	__gptrget
   12C2 F8                 3827 	mov	r0,a
   12C3 A3                 3828 	inc	dptr
   12C4 12s00r00           3829 	lcall	__gptrget
   12C7 F9                 3830 	mov	r1,a
   12C8 8D 82              3831 	mov	dpl,r5
   12CA 8E 83              3832 	mov	dph,r6
   12CC 8F F0              3833 	mov	b,r7
   12CE E8                 3834 	mov	a,r0
   12CF 12s00r00           3835 	lcall	__gptrput
   12D2 A3                 3836 	inc	dptr
   12D3 E9                 3837 	mov	a,r1
   12D4 12s00r00           3838 	lcall	__gptrput
                    12D7   3839 	C$uip.c$1326$2$48 ==.
                           3840 ;	..\uip\uip.c:1326: uip_ipaddr_copy(uip_connr->ripaddr, BUF->srcipaddr);
   12D7 90s00r26           3841 	mov	dptr,#(_uip_buf + 0x001a)
   12DA 75 F0 00           3842 	mov	b,#0x00
   12DD 12s00r00           3843 	lcall	__gptrget
   12E0 FD                 3844 	mov	r5,a
   12E1 A3                 3845 	inc	dptr
   12E2 12s00r00           3846 	lcall	__gptrget
   12E5 FE                 3847 	mov	r6,a
   12E6 8A 82              3848 	mov	dpl,r2
   12E8 8B 83              3849 	mov	dph,r3
   12EA 8C F0              3850 	mov	b,r4
   12EC ED                 3851 	mov	a,r5
   12ED 12s00r00           3852 	lcall	__gptrput
   12F0 A3                 3853 	inc	dptr
   12F1 EE                 3854 	mov	a,r6
   12F2 12s00r00           3855 	lcall	__gptrput
   12F5 74 02              3856 	mov	a,#0x02
   12F7 2A                 3857 	add	a,r2
   12F8 FD                 3858 	mov	r5,a
   12F9 E4                 3859 	clr	a
   12FA 3B                 3860 	addc	a,r3
   12FB FE                 3861 	mov	r6,a
   12FC 8C 07              3862 	mov	ar7,r4
   12FE 90s00r28           3863 	mov	dptr,#(_uip_buf + 0x001c)
   1301 75 F0 00           3864 	mov	b,#0x00
   1304 12s00r00           3865 	lcall	__gptrget
   1307 F8                 3866 	mov	r0,a
   1308 A3                 3867 	inc	dptr
   1309 12s00r00           3868 	lcall	__gptrget
   130C F9                 3869 	mov	r1,a
   130D 8D 82              3870 	mov	dpl,r5
   130F 8E 83              3871 	mov	dph,r6
   1311 8F F0              3872 	mov	b,r7
   1313 E8                 3873 	mov	a,r0
   1314 12s00r00           3874 	lcall	__gptrput
   1317 A3                 3875 	inc	dptr
   1318 E9                 3876 	mov	a,r1
   1319 12s00r00           3877 	lcall	__gptrput
                    131C   3878 	C$uip.c$1327$1$1 ==.
                           3879 ;	..\uip\uip.c:1327: uip_connr->tcpstateflags = UIP_SYN_RCVD;
   131C 74 19              3880 	mov	a,#0x19
   131E 2A                 3881 	add	a,r2
   131F FD                 3882 	mov	r5,a
   1320 E4                 3883 	clr	a
   1321 3B                 3884 	addc	a,r3
   1322 FE                 3885 	mov	r6,a
   1323 8C 07              3886 	mov	ar7,r4
   1325 8D 82              3887 	mov	dpl,r5
   1327 8E 83              3888 	mov	dph,r6
   1329 8F F0              3889 	mov	b,r7
   132B 74 01              3890 	mov	a,#0x01
   132D 12s00r00           3891 	lcall	__gptrput
                    1330   3892 	C$uip.c$1329$1$1 ==.
                           3893 ;	..\uip\uip.c:1329: uip_connr->snd_nxt[0] = iss[0];
   1330 74 0C              3894 	mov	a,#0x0C
   1332 2A                 3895 	add	a,r2
   1333 FD                 3896 	mov	r5,a
   1334 E4                 3897 	clr	a
   1335 3B                 3898 	addc	a,r3
   1336 FE                 3899 	mov	r6,a
   1337 8C 07              3900 	mov	ar7,r4
   1339 90s0Dr54           3901 	mov	dptr,#_iss
   133C E0                 3902 	movx	a,@dptr
   133D 8D 82              3903 	mov	dpl,r5
   133F 8E 83              3904 	mov	dph,r6
   1341 8F F0              3905 	mov	b,r7
   1343 12s00r00           3906 	lcall	__gptrput
                    1346   3907 	C$uip.c$1330$1$1 ==.
                           3908 ;	..\uip\uip.c:1330: uip_connr->snd_nxt[1] = iss[1];
   1346 74 0C              3909 	mov	a,#0x0C
   1348 2A                 3910 	add	a,r2
   1349 F5*06              3911 	mov	_uip_process_sloc0_1_0,a
   134B E4                 3912 	clr	a
   134C 3B                 3913 	addc	a,r3
   134D F5*07              3914 	mov	(_uip_process_sloc0_1_0 + 1),a
   134F 8C*08              3915 	mov	(_uip_process_sloc0_1_0 + 2),r4
   1351 74 01              3916 	mov	a,#0x01
   1353 25*06              3917 	add	a,_uip_process_sloc0_1_0
   1355 F8                 3918 	mov	r0,a
   1356 E4                 3919 	clr	a
   1357 35*07              3920 	addc	a,(_uip_process_sloc0_1_0 + 1)
   1359 F9                 3921 	mov	r1,a
   135A AD*08              3922 	mov	r5,(_uip_process_sloc0_1_0 + 2)
   135C 90s0Dr55           3923 	mov	dptr,#(_iss + 0x0001)
   135F E0                 3924 	movx	a,@dptr
   1360 88 82              3925 	mov	dpl,r0
   1362 89 83              3926 	mov	dph,r1
   1364 8D F0              3927 	mov	b,r5
   1366 12s00r00           3928 	lcall	__gptrput
                    1369   3929 	C$uip.c$1331$1$1 ==.
                           3930 ;	..\uip\uip.c:1331: uip_connr->snd_nxt[2] = iss[2];
   1369 74 02              3931 	mov	a,#0x02
   136B 25*06              3932 	add	a,_uip_process_sloc0_1_0
   136D FD                 3933 	mov	r5,a
   136E E4                 3934 	clr	a
   136F 35*07              3935 	addc	a,(_uip_process_sloc0_1_0 + 1)
   1371 FE                 3936 	mov	r6,a
   1372 AF*08              3937 	mov	r7,(_uip_process_sloc0_1_0 + 2)
   1374 90s0Dr56           3938 	mov	dptr,#(_iss + 0x0002)
   1377 E0                 3939 	movx	a,@dptr
   1378 8D 82              3940 	mov	dpl,r5
   137A 8E 83              3941 	mov	dph,r6
   137C 8F F0              3942 	mov	b,r7
   137E 12s00r00           3943 	lcall	__gptrput
                    1381   3944 	C$uip.c$1332$1$1 ==.
                           3945 ;	..\uip\uip.c:1332: uip_connr->snd_nxt[3] = iss[3];
   1381 74 03              3946 	mov	a,#0x03
   1383 25*06              3947 	add	a,_uip_process_sloc0_1_0
   1385 FD                 3948 	mov	r5,a
   1386 E4                 3949 	clr	a
   1387 35*07              3950 	addc	a,(_uip_process_sloc0_1_0 + 1)
   1389 FE                 3951 	mov	r6,a
   138A AF*08              3952 	mov	r7,(_uip_process_sloc0_1_0 + 2)
   138C 90s0Dr57           3953 	mov	dptr,#(_iss + 0x0003)
   138F E0                 3954 	movx	a,@dptr
   1390 8D 82              3955 	mov	dpl,r5
   1392 8E 83              3956 	mov	dph,r6
   1394 8F F0              3957 	mov	b,r7
   1396 12s00r00           3958 	lcall	__gptrput
                    1399   3959 	C$uip.c$1333$1$1 ==.
                           3960 ;	..\uip\uip.c:1333: uip_connr->len = 1;
   1399 74 10              3961 	mov	a,#0x10
   139B 2A                 3962 	add	a,r2
   139C FD                 3963 	mov	r5,a
   139D E4                 3964 	clr	a
   139E 3B                 3965 	addc	a,r3
   139F FE                 3966 	mov	r6,a
   13A0 8C 07              3967 	mov	ar7,r4
   13A2 8D 82              3968 	mov	dpl,r5
   13A4 8E 83              3969 	mov	dph,r6
   13A6 8F F0              3970 	mov	b,r7
   13A8 74 01              3971 	mov	a,#0x01
   13AA 12s00r00           3972 	lcall	__gptrput
   13AD A3                 3973 	inc	dptr
   13AE E4                 3974 	clr	a
   13AF 12s00r00           3975 	lcall	__gptrput
                    13B2   3976 	C$uip.c$1336$1$1 ==.
                           3977 ;	..\uip\uip.c:1336: uip_connr->rcv_nxt[3] = BUF->seqno[3];
   13B2 74 08              3978 	mov	a,#0x08
   13B4 2A                 3979 	add	a,r2
   13B5 FA                 3980 	mov	r2,a
   13B6 E4                 3981 	clr	a
   13B7 3B                 3982 	addc	a,r3
   13B8 FB                 3983 	mov	r3,a
   13B9 74 03              3984 	mov	a,#0x03
   13BB 2A                 3985 	add	a,r2
   13BC FD                 3986 	mov	r5,a
   13BD E4                 3987 	clr	a
   13BE 3B                 3988 	addc	a,r3
   13BF FE                 3989 	mov	r6,a
   13C0 8C 07              3990 	mov	ar7,r4
   13C2 90s00r35           3991 	mov	dptr,#(_uip_buf + 0x0029)
   13C5 75 F0 00           3992 	mov	b,#0x00
   13C8 12s00r00           3993 	lcall	__gptrget
   13CB 8D 82              3994 	mov	dpl,r5
   13CD 8E 83              3995 	mov	dph,r6
   13CF 8F F0              3996 	mov	b,r7
   13D1 12s00r00           3997 	lcall	__gptrput
                    13D4   3998 	C$uip.c$1337$1$1 ==.
                           3999 ;	..\uip\uip.c:1337: uip_connr->rcv_nxt[2] = BUF->seqno[2];
   13D4 74 02              4000 	mov	a,#0x02
   13D6 2A                 4001 	add	a,r2
   13D7 FD                 4002 	mov	r5,a
   13D8 E4                 4003 	clr	a
   13D9 3B                 4004 	addc	a,r3
   13DA FE                 4005 	mov	r6,a
   13DB 8C 07              4006 	mov	ar7,r4
   13DD 90s00r34           4007 	mov	dptr,#(_uip_buf + 0x0028)
   13E0 75 F0 00           4008 	mov	b,#0x00
   13E3 12s00r00           4009 	lcall	__gptrget
   13E6 8D 82              4010 	mov	dpl,r5
   13E8 8E 83              4011 	mov	dph,r6
   13EA 8F F0              4012 	mov	b,r7
   13EC 12s00r00           4013 	lcall	__gptrput
                    13EF   4014 	C$uip.c$1338$1$1 ==.
                           4015 ;	..\uip\uip.c:1338: uip_connr->rcv_nxt[1] = BUF->seqno[1];
   13EF 74 01              4016 	mov	a,#0x01
   13F1 2A                 4017 	add	a,r2
   13F2 FD                 4018 	mov	r5,a
   13F3 E4                 4019 	clr	a
   13F4 3B                 4020 	addc	a,r3
   13F5 FE                 4021 	mov	r6,a
   13F6 8C 07              4022 	mov	ar7,r4
   13F8 90s00r33           4023 	mov	dptr,#(_uip_buf + 0x0027)
   13FB 75 F0 00           4024 	mov	b,#0x00
   13FE 12s00r00           4025 	lcall	__gptrget
   1401 8D 82              4026 	mov	dpl,r5
   1403 8E 83              4027 	mov	dph,r6
   1405 8F F0              4028 	mov	b,r7
   1407 12s00r00           4029 	lcall	__gptrput
                    140A   4030 	C$uip.c$1339$1$1 ==.
                           4031 ;	..\uip\uip.c:1339: uip_connr->rcv_nxt[0] = BUF->seqno[0];
   140A 7Dr32              4032 	mov	r5,#(_uip_buf + 0x0026)
   140C 7Es00              4033 	mov	r6,#((_uip_buf + 0x0026) >> 8)
   140E 7F 00              4034 	mov	r7,#0x00
   1410 8D 82              4035 	mov	dpl,r5
   1412 8E 83              4036 	mov	dph,r6
   1414 8F F0              4037 	mov	b,r7
   1416 12s00r00           4038 	lcall	__gptrget
   1419 8A 82              4039 	mov	dpl,r2
   141B 8B 83              4040 	mov	dph,r3
   141D 8C F0              4041 	mov	b,r4
   141F 12s00r00           4042 	lcall	__gptrput
                    1422   4043 	C$uip.c$1340$1$1 ==.
                           4044 ;	..\uip\uip.c:1340: uip_add_rcv_nxt(1);
   1422 90 00 01           4045 	mov	dptr,#0x0001
   1425 12s08r2D           4046 	lcall	_uip_add_rcv_nxt
                    1428   4047 	C$uip.c$1343$1$1 ==.
                           4048 ;	..\uip\uip.c:1343: if ((BUF->tcpoffset & 0xf0) > 0x50) {
   1428 90s00r3A           4049 	mov	dptr,#(_uip_buf + 0x002e)
   142B 75 F0 00           4050 	mov	b,#0x00
   142E 12s00r00           4051 	lcall	__gptrget
   1431 54 F0              4052 	anl	a,#0xF0
   1433 FA                 4053 	mov	r2,a
   1434 24 AF              4054 	add	a,#0xff - 0x50
   1436 40 03              4055 	jc	00607$
   1438 02s15r87           4056 	ljmp	00239$
   143B                    4057 00607$:
                    143B   4058 	C$uip.c$1344$2$49 ==.
                           4059 ;	..\uip\uip.c:1344: for (c = 0; c < ((BUF->tcpoffset >> 4) - 5) << 2 ;) {
   143B 90s0Dr5E           4060 	mov	dptr,#_c
   143E E4                 4061 	clr	a
   143F F0                 4062 	movx	@dptr,a
   1440                    4063 00234$:
   1440 90s00r3A           4064 	mov	dptr,#(_uip_buf + 0x002e)
   1443 75 F0 00           4065 	mov	b,#0x00
   1446 12s00r00           4066 	lcall	__gptrget
   1449 C4                 4067 	swap	a
   144A 54 0F              4068 	anl	a,#0x0f
   144C 7B 00              4069 	mov	r3,#0x00
   144E 24 FB              4070 	add	a,#0xfb
   1450 FA                 4071 	mov	r2,a
   1451 EB                 4072 	mov	a,r3
   1452 34 FF              4073 	addc	a,#0xff
   1454 CA                 4074 	xch	a,r2
   1455 25 E0              4075 	add	a,acc
   1457 CA                 4076 	xch	a,r2
   1458 33                 4077 	rlc	a
   1459 CA                 4078 	xch	a,r2
   145A 25 E0              4079 	add	a,acc
   145C CA                 4080 	xch	a,r2
   145D 33                 4081 	rlc	a
   145E FB                 4082 	mov	r3,a
   145F 90s0Dr5E           4083 	mov	dptr,#_c
   1462 E0                 4084 	movx	a,@dptr
   1463 FC                 4085 	mov	r4,a
   1464 FD                 4086 	mov	r5,a
   1465 7E 00              4087 	mov	r6,#0x00
   1467 C3                 4088 	clr	c
   1468 ED                 4089 	mov	a,r5
   1469 9A                 4090 	subb	a,r2
   146A EE                 4091 	mov	a,r6
   146B 64 80              4092 	xrl	a,#0x80
   146D 8B F0              4093 	mov	b,r3
   146F 63 F0 80           4094 	xrl	b,#0x80
   1472 95 F0              4095 	subb	a,b
   1474 40 03              4096 	jc	00608$
   1476 02s15r87           4097 	ljmp	00239$
   1479                    4098 00608$:
                    1479   4099 	C$uip.c$1345$3$50 ==.
                           4100 ;	..\uip\uip.c:1345: opt = uip_buf[UIP_TCPIP_HLEN + UIP_LLH_LEN + c];
   1479 74 36              4101 	mov	a,#0x36
   147B 2D                 4102 	add	a,r5
   147C FA                 4103 	mov	r2,a
   147D E4                 4104 	clr	a
   147E 3E                 4105 	addc	a,r6
   147F FB                 4106 	mov	r3,a
   1480 EA                 4107 	mov	a,r2
   1481 24r0C              4108 	add	a,#_uip_buf
   1483 F5 82              4109 	mov	dpl,a
   1485 EB                 4110 	mov	a,r3
   1486 34s00              4111 	addc	a,#(_uip_buf >> 8)
   1488 F5 83              4112 	mov	dph,a
   148A E0                 4113 	movx	a,@dptr
   148B FA                 4114 	mov	r2,a
   148C 90s0Dr5F           4115 	mov	dptr,#_opt
   148F F0                 4116 	movx	@dptr,a
                    1490   4117 	C$uip.c$1346$3$50 ==.
                           4118 ;	..\uip\uip.c:1346: if (opt == TCP_OPT_END) {
   1490 EA                 4119 	mov	a,r2
   1491 70 03              4120 	jnz	00609$
   1493 02s15r87           4121 	ljmp	00239$
   1496                    4122 00609$:
                    1496   4123 	C$uip.c$1349$3$50 ==.
                           4124 ;	..\uip\uip.c:1349: } else if (opt == TCP_OPT_NOOP) {
   1496 BA 01 08           4125 	cjne	r2,#0x01,00229$
                    1499   4126 	C$uip.c$1350$4$52 ==.
                           4127 ;	..\uip\uip.c:1350: ++c;
   1499 90s0Dr5E           4128 	mov	dptr,#_c
   149C EC                 4129 	mov	a,r4
   149D 04                 4130 	inc	a
   149E F0                 4131 	movx	@dptr,a
   149F 80 9F              4132 	sjmp	00234$
   14A1                    4133 00229$:
                    14A1   4134 	C$uip.c$1352$3$50 ==.
                           4135 ;	..\uip\uip.c:1352: } else if (opt == TCP_OPT_MSS &&
   14A1 BA 02 02           4136 	cjne	r2,#0x02,00612$
   14A4 80 03              4137 	sjmp	00613$
   14A6                    4138 00612$:
   14A6 02s15r4E           4139 	ljmp	00225$
   14A9                    4140 00613$:
                    14A9   4141 	C$uip.c$1353$3$50 ==.
                           4142 ;	..\uip\uip.c:1353: uip_buf[UIP_TCPIP_HLEN + UIP_LLH_LEN + 1 + c] == TCP_OPT_MSS_LEN) {
   14A9 74 37              4143 	mov	a,#0x37
   14AB 2D                 4144 	add	a,r5
   14AC FA                 4145 	mov	r2,a
   14AD E4                 4146 	clr	a
   14AE 3E                 4147 	addc	a,r6
   14AF FB                 4148 	mov	r3,a
   14B0 EA                 4149 	mov	a,r2
   14B1 24r0C              4150 	add	a,#_uip_buf
   14B3 F5 82              4151 	mov	dpl,a
   14B5 EB                 4152 	mov	a,r3
   14B6 34s00              4153 	addc	a,#(_uip_buf >> 8)
   14B8 F5 83              4154 	mov	dph,a
   14BA E0                 4155 	movx	a,@dptr
   14BB FA                 4156 	mov	r2,a
   14BC BA 04 02           4157 	cjne	r2,#0x04,00614$
   14BF 80 03              4158 	sjmp	00615$
   14C1                    4159 00614$:
   14C1 02s15r4E           4160 	ljmp	00225$
   14C4                    4161 00615$:
                    14C4   4162 	C$uip.c$1355$4$53 ==.
                           4163 ;	..\uip\uip.c:1355: tmp16 = ((u16_t)uip_buf[UIP_TCPIP_HLEN + UIP_LLH_LEN + 2 + c] << 8) |
   14C4 74 38              4164 	mov	a,#0x38
   14C6 2D                 4165 	add	a,r5
   14C7 FA                 4166 	mov	r2,a
   14C8 E4                 4167 	clr	a
   14C9 3E                 4168 	addc	a,r6
   14CA FB                 4169 	mov	r3,a
   14CB EA                 4170 	mov	a,r2
   14CC 24r0C              4171 	add	a,#_uip_buf
   14CE F5 82              4172 	mov	dpl,a
   14D0 EB                 4173 	mov	a,r3
   14D1 34s00              4174 	addc	a,#(_uip_buf >> 8)
   14D3 F5 83              4175 	mov	dph,a
   14D5 E0                 4176 	movx	a,@dptr
   14D6 FB                 4177 	mov	r3,a
   14D7 7A 00              4178 	mov	r2,#0x00
                    14D9   4179 	C$uip.c$1356$4$53 ==.
                           4180 ;	..\uip\uip.c:1356: (u16_t)uip_buf[UIP_IPTCPH_LEN + UIP_LLH_LEN + 3 + c];
   14D9 74 39              4181 	mov	a,#0x39
   14DB 2D                 4182 	add	a,r5
   14DC FD                 4183 	mov	r5,a
   14DD E4                 4184 	clr	a
   14DE 3E                 4185 	addc	a,r6
   14DF FE                 4186 	mov	r6,a
   14E0 ED                 4187 	mov	a,r5
   14E1 24r0C              4188 	add	a,#_uip_buf
   14E3 F5 82              4189 	mov	dpl,a
   14E5 EE                 4190 	mov	a,r6
   14E6 34s00              4191 	addc	a,#(_uip_buf >> 8)
   14E8 F5 83              4192 	mov	dph,a
   14EA E0                 4193 	movx	a,@dptr
   14EB 7D 00              4194 	mov	r5,#0x00
   14ED 42 02              4195 	orl	ar2,a
   14EF ED                 4196 	mov	a,r5
   14F0 42 03              4197 	orl	ar3,a
   14F2 90s0Dr60           4198 	mov	dptr,#_tmp16
   14F5 EA                 4199 	mov	a,r2
   14F6 F0                 4200 	movx	@dptr,a
   14F7 A3                 4201 	inc	dptr
   14F8 EB                 4202 	mov	a,r3
   14F9 F0                 4203 	movx	@dptr,a
                    14FA   4204 	C$uip.c$1357$4$53 ==.
                           4205 ;	..\uip\uip.c:1357: uip_connr->initialmss = uip_connr->mss =
   14FA 90s0Dr83           4206 	mov	dptr,#_uip_process_uip_connr_1_1
   14FD E0                 4207 	movx	a,@dptr
   14FE FC                 4208 	mov	r4,a
   14FF A3                 4209 	inc	dptr
   1500 E0                 4210 	movx	a,@dptr
   1501 FD                 4211 	mov	r5,a
   1502 A3                 4212 	inc	dptr
   1503 E0                 4213 	movx	a,@dptr
   1504 FE                 4214 	mov	r6,a
   1505 74 14              4215 	mov	a,#0x14
   1507 2C                 4216 	add	a,r4
   1508 FF                 4217 	mov	r7,a
   1509 E4                 4218 	clr	a
   150A 3D                 4219 	addc	a,r5
   150B F8                 4220 	mov	r0,a
   150C 8E 01              4221 	mov	ar1,r6
   150E 74 12              4222 	mov	a,#0x12
   1510 2C                 4223 	add	a,r4
   1511 FC                 4224 	mov	r4,a
   1512 E4                 4225 	clr	a
   1513 3D                 4226 	addc	a,r5
   1514 FD                 4227 	mov	r5,a
                    1515   4228 	C$uip.c$1358$4$53 ==.
                           4229 ;	..\uip\uip.c:1358: tmp16 > UIP_TCP_MSS? UIP_TCP_MSS: tmp16;
   1515 C3                 4230 	clr	c
   1516 74 5A              4231 	mov	a,#0x5A
   1518 9A                 4232 	subb	a,r2
   1519 74 01              4233 	mov	a,#0x01
   151B 9B                 4234 	subb	a,r3
   151C 50 08              4235 	jnc	00392$
   151E 75*06 5A           4236 	mov	_uip_process_sloc0_1_0,#0x5A
   1521 75*07 01           4237 	mov	(_uip_process_sloc0_1_0 + 1),#0x01
   1524 80 04              4238 	sjmp	00393$
   1526                    4239 00392$:
   1526 8A*06              4240 	mov	_uip_process_sloc0_1_0,r2
   1528 8B*07              4241 	mov	(_uip_process_sloc0_1_0 + 1),r3
   152A                    4242 00393$:
   152A 8C 82              4243 	mov	dpl,r4
   152C 8D 83              4244 	mov	dph,r5
   152E 8E F0              4245 	mov	b,r6
   1530 E5*06              4246 	mov	a,_uip_process_sloc0_1_0
   1532 12s00r00           4247 	lcall	__gptrput
   1535 A3                 4248 	inc	dptr
   1536 E5*07              4249 	mov	a,(_uip_process_sloc0_1_0 + 1)
   1538 12s00r00           4250 	lcall	__gptrput
   153B 8F 82              4251 	mov	dpl,r7
   153D 88 83              4252 	mov	dph,r0
   153F 89 F0              4253 	mov	b,r1
   1541 E5*06              4254 	mov	a,_uip_process_sloc0_1_0
   1543 12s00r00           4255 	lcall	__gptrput
   1546 A3                 4256 	inc	dptr
   1547 E5*07              4257 	mov	a,(_uip_process_sloc0_1_0 + 1)
   1549 12s00r00           4258 	lcall	__gptrput
                    154C   4259 	C$uip.c$1361$4$53 ==.
                           4260 ;	..\uip\uip.c:1361: break;
   154C 80 39              4261 	sjmp	00239$
   154E                    4262 00225$:
                    154E   4263 	C$uip.c$1365$4$54 ==.
                           4264 ;	..\uip\uip.c:1365: if (uip_buf[UIP_TCPIP_HLEN + UIP_LLH_LEN + 1 + c] == 0) {
   154E 90s0Dr5E           4265 	mov	dptr,#_c
   1551 E0                 4266 	movx	a,@dptr
   1552 FA                 4267 	mov	r2,a
   1553 FB                 4268 	mov	r3,a
   1554 7C 00              4269 	mov	r4,#0x00
   1556 74 37              4270 	mov	a,#0x37
   1558 2B                 4271 	add	a,r3
   1559 FD                 4272 	mov	r5,a
   155A E4                 4273 	clr	a
   155B 3C                 4274 	addc	a,r4
   155C FE                 4275 	mov	r6,a
   155D ED                 4276 	mov	a,r5
   155E 24r0C              4277 	add	a,#_uip_buf
   1560 FD                 4278 	mov	r5,a
   1561 EE                 4279 	mov	a,r6
   1562 34s00              4280 	addc	a,#(_uip_buf >> 8)
   1564 FE                 4281 	mov	r6,a
   1565 8D 82              4282 	mov	dpl,r5
   1567 8E 83              4283 	mov	dph,r6
   1569 E0                 4284 	movx	a,@dptr
   156A 60 1B              4285 	jz	00239$
                    156C   4286 	C$uip.c$1370$4$54 ==.
                           4287 ;	..\uip\uip.c:1370: c += uip_buf[UIP_TCPIP_HLEN + UIP_LLH_LEN + 1 + c];
   156C 74 37              4288 	mov	a,#0x37
   156E 2B                 4289 	add	a,r3
   156F FB                 4290 	mov	r3,a
   1570 E4                 4291 	clr	a
   1571 3C                 4292 	addc	a,r4
   1572 FC                 4293 	mov	r4,a
   1573 EB                 4294 	mov	a,r3
   1574 24r0C              4295 	add	a,#_uip_buf
   1576 F5 82              4296 	mov	dpl,a
   1578 EC                 4297 	mov	a,r4
   1579 34s00              4298 	addc	a,#(_uip_buf >> 8)
   157B F5 83              4299 	mov	dph,a
   157D E0                 4300 	movx	a,@dptr
   157E FB                 4301 	mov	r3,a
   157F 90s0Dr5E           4302 	mov	dptr,#_c
   1582 2A                 4303 	add	a,r2
   1583 F0                 4304 	movx	@dptr,a
   1584 02s14r40           4305 	ljmp	00234$
                    1587   4306 	C$uip.c$1377$1$1 ==.
                           4307 ;	..\uip\uip.c:1377: tcp_send_synack:
   1587                    4308 00239$:
                    1587   4309 	C$uip.c$1378$1$1 ==.
                           4310 ;	..\uip\uip.c:1378: BUF->flags = TCP_ACK;
   1587 90s00r3B           4311 	mov	dptr,#(_uip_buf + 0x002f)
   158A 75 F0 00           4312 	mov	b,#0x00
   158D 74 10              4313 	mov	a,#0x10
   158F 12s00r00           4314 	lcall	__gptrput
                    1592   4315 	C$uip.c$1380$1$1 ==.
                           4316 ;	..\uip\uip.c:1380: tcp_send_syn:
   1592                    4317 00240$:
                    1592   4318 	C$uip.c$1381$1$1 ==.
                           4319 ;	..\uip\uip.c:1381: BUF->flags |= TCP_SYN;
   1592 90s00r3B           4320 	mov	dptr,#(_uip_buf + 0x002f)
   1595 75 F0 00           4321 	mov	b,#0x00
   1598 12s00r00           4322 	lcall	__gptrget
   159B FA                 4323 	mov	r2,a
   159C 43 02 02           4324 	orl	ar2,#0x02
   159F 90s00r3B           4325 	mov	dptr,#(_uip_buf + 0x002f)
   15A2 75 F0 00           4326 	mov	b,#0x00
   15A5 EA                 4327 	mov	a,r2
   15A6 12s00r00           4328 	lcall	__gptrput
                    15A9   4329 	C$uip.c$1389$1$1 ==.
                           4330 ;	..\uip\uip.c:1389: BUF->optdata[0] = TCP_OPT_MSS;
   15A9 7Ar42              4331 	mov	r2,#(_uip_buf + 0x0036)
   15AB 7Bs00              4332 	mov	r3,#((_uip_buf + 0x0036) >> 8)
   15AD 7C 00              4333 	mov	r4,#0x00
   15AF 8A 82              4334 	mov	dpl,r2
   15B1 8B 83              4335 	mov	dph,r3
   15B3 8C F0              4336 	mov	b,r4
   15B5 74 02              4337 	mov	a,#0x02
   15B7 12s00r00           4338 	lcall	__gptrput
                    15BA   4339 	C$uip.c$1390$1$1 ==.
                           4340 ;	..\uip\uip.c:1390: BUF->optdata[1] = TCP_OPT_MSS_LEN;
   15BA 90s00r43           4341 	mov	dptr,#(_uip_buf + 0x0037)
   15BD 75 F0 00           4342 	mov	b,#0x00
   15C0 74 04              4343 	mov	a,#0x04
   15C2 12s00r00           4344 	lcall	__gptrput
                    15C5   4345 	C$uip.c$1391$1$1 ==.
                           4346 ;	..\uip\uip.c:1391: BUF->optdata[2] = (UIP_TCP_MSS) / 256;
   15C5 90s00r44           4347 	mov	dptr,#(_uip_buf + 0x0038)
   15C8 75 F0 00           4348 	mov	b,#0x00
   15CB 74 01              4349 	mov	a,#0x01
   15CD 12s00r00           4350 	lcall	__gptrput
                    15D0   4351 	C$uip.c$1392$1$1 ==.
                           4352 ;	..\uip\uip.c:1392: BUF->optdata[3] = (UIP_TCP_MSS) & 255;
   15D0 90s00r45           4353 	mov	dptr,#(_uip_buf + 0x0039)
   15D3 75 F0 00           4354 	mov	b,#0x00
   15D6 74 5A              4355 	mov	a,#0x5A
   15D8 12s00r00           4356 	lcall	__gptrput
                    15DB   4357 	C$uip.c$1393$1$1 ==.
                           4358 ;	..\uip\uip.c:1393: uip_len = UIP_IPTCPH_LEN + TCP_OPT_MSS_LEN;
   15DB 90s01rA4           4359 	mov	dptr,#_uip_len
   15DE 74 2C              4360 	mov	a,#0x2C
   15E0 F0                 4361 	movx	@dptr,a
   15E1 E4                 4362 	clr	a
   15E2 A3                 4363 	inc	dptr
   15E3 F0                 4364 	movx	@dptr,a
                    15E4   4365 	C$uip.c$1394$1$1 ==.
                           4366 ;	..\uip\uip.c:1394: BUF->tcpoffset = ((UIP_TCPH_LEN + TCP_OPT_MSS_LEN) / 4) << 4;
   15E4 90s00r3A           4367 	mov	dptr,#(_uip_buf + 0x002e)
   15E7 75 F0 00           4368 	mov	b,#0x00
   15EA 74 60              4369 	mov	a,#0x60
   15EC 12s00r00           4370 	lcall	__gptrput
                    15EF   4371 	C$uip.c$1395$1$1 ==.
                           4372 ;	..\uip\uip.c:1395: goto tcp_send;
   15EF 02s23rC3           4373 	ljmp	00366$
                    15F2   4374 	C$uip.c$1398$1$1 ==.
                           4375 ;	..\uip\uip.c:1398: found:
   15F2                    4376 00241$:
                    15F2   4377 	C$uip.c$1399$1$1 ==.
                           4378 ;	..\uip\uip.c:1399: uip_conn = uip_connr;
   15F2 90s0Dr83           4379 	mov	dptr,#_uip_process_uip_connr_1_1
   15F5 E0                 4380 	movx	a,@dptr
   15F6 FA                 4381 	mov	r2,a
   15F7 A3                 4382 	inc	dptr
   15F8 E0                 4383 	movx	a,@dptr
   15F9 FB                 4384 	mov	r3,a
   15FA A3                 4385 	inc	dptr
   15FB E0                 4386 	movx	a,@dptr
   15FC FC                 4387 	mov	r4,a
   15FD 90s01rA9           4388 	mov	dptr,#_uip_conn
   1600 EA                 4389 	mov	a,r2
   1601 F0                 4390 	movx	@dptr,a
   1602 A3                 4391 	inc	dptr
   1603 EB                 4392 	mov	a,r3
   1604 F0                 4393 	movx	@dptr,a
   1605 A3                 4394 	inc	dptr
   1606 EC                 4395 	mov	a,r4
   1607 F0                 4396 	movx	@dptr,a
                    1608   4397 	C$uip.c$1400$1$1 ==.
                           4398 ;	..\uip\uip.c:1400: uip_flags = 0;
   1608 90s01rA8           4399 	mov	dptr,#_uip_flags
   160B E4                 4400 	clr	a
   160C F0                 4401 	movx	@dptr,a
                    160D   4402 	C$uip.c$1405$1$1 ==.
                           4403 ;	..\uip\uip.c:1405: if (BUF->flags & TCP_RST) {
   160D 90s00r3B           4404 	mov	dptr,#(_uip_buf + 0x002f)
   1610 75 F0 00           4405 	mov	b,#0x00
   1613 12s00r00           4406 	lcall	__gptrget
   1616 FD                 4407 	mov	r5,a
   1617 30 E2 1F           4408 	jnb	acc.2,00243$
                    161A   4409 	C$uip.c$1406$2$56 ==.
                           4410 ;	..\uip\uip.c:1406: uip_connr->tcpstateflags = UIP_CLOSED;
   161A 74 19              4411 	mov	a,#0x19
   161C 2A                 4412 	add	a,r2
   161D FD                 4413 	mov	r5,a
   161E E4                 4414 	clr	a
   161F 3B                 4415 	addc	a,r3
   1620 FE                 4416 	mov	r6,a
   1621 8C 07              4417 	mov	ar7,r4
   1623 8D 82              4418 	mov	dpl,r5
   1625 8E 83              4419 	mov	dph,r6
   1627 8F F0              4420 	mov	b,r7
   1629 E4                 4421 	clr	a
   162A 12s00r00           4422 	lcall	__gptrput
                    162D   4423 	C$uip.c$1408$2$56 ==.
                           4424 ;	..\uip\uip.c:1408: uip_flags = UIP_ABORT;
   162D 90s01rA8           4425 	mov	dptr,#_uip_flags
   1630 74 20              4426 	mov	a,#0x20
   1632 F0                 4427 	movx	@dptr,a
                    1633   4428 	C$uip.c$1409$2$56 ==.
                           4429 ;	..\uip\uip.c:1409: UIP_APPCALL();
   1633 12s00r00           4430 	lcall	_uip_tcp_app_exec
                    1636   4431 	C$uip.c$1410$2$56 ==.
                           4432 ;	..\uip\uip.c:1410: goto drop;
   1636 02s27r06           4433 	ljmp	00379$
   1639                    4434 00243$:
                    1639   4435 	C$uip.c$1414$1$1 ==.
                           4436 ;	..\uip\uip.c:1414: c = (BUF->tcpoffset >> 4) << 2;
   1639 90s00r3A           4437 	mov	dptr,#(_uip_buf + 0x002e)
   163C 75 F0 00           4438 	mov	b,#0x00
   163F 12s00r00           4439 	lcall	__gptrget
   1642 C4                 4440 	swap	a
   1643 54 0F              4441 	anl	a,#0x0f
   1645 25 E0              4442 	add	a,acc
   1647 25 E0              4443 	add	a,acc
   1649 FD                 4444 	mov	r5,a
   164A 90s0Dr5E           4445 	mov	dptr,#_c
   164D F0                 4446 	movx	@dptr,a
                    164E   4447 	C$uip.c$1418$1$1 ==.
                           4448 ;	..\uip\uip.c:1418: uip_len = uip_len - c - UIP_IPH_LEN;
   164E 7E 00              4449 	mov	r6,#0x00
   1650 90s01rA4           4450 	mov	dptr,#_uip_len
   1653 E0                 4451 	movx	a,@dptr
   1654 FF                 4452 	mov	r7,a
   1655 A3                 4453 	inc	dptr
   1656 E0                 4454 	movx	a,@dptr
   1657 F8                 4455 	mov	r0,a
   1658 EF                 4456 	mov	a,r7
   1659 C3                 4457 	clr	c
   165A 9D                 4458 	subb	a,r5
   165B FD                 4459 	mov	r5,a
   165C E8                 4460 	mov	a,r0
   165D 9E                 4461 	subb	a,r6
   165E FE                 4462 	mov	r6,a
   165F ED                 4463 	mov	a,r5
   1660 24 EC              4464 	add	a,#0xec
   1662 FD                 4465 	mov	r5,a
   1663 EE                 4466 	mov	a,r6
   1664 34 FF              4467 	addc	a,#0xff
   1666 FE                 4468 	mov	r6,a
   1667 90s01rA4           4469 	mov	dptr,#_uip_len
   166A ED                 4470 	mov	a,r5
   166B F0                 4471 	movx	@dptr,a
   166C A3                 4472 	inc	dptr
   166D EE                 4473 	mov	a,r6
   166E F0                 4474 	movx	@dptr,a
                    166F   4475 	C$uip.c$1423$1$1 ==.
                           4476 ;	..\uip\uip.c:1423: if (!((((uip_connr->tcpstateflags & UIP_TS_MASK) == UIP_SYN_SENT) &&
   166F 74 19              4477 	mov	a,#0x19
   1671 2A                 4478 	add	a,r2
   1672 FA                 4479 	mov	r2,a
   1673 E4                 4480 	clr	a
   1674 3B                 4481 	addc	a,r3
   1675 FB                 4482 	mov	r3,a
   1676 8A 82              4483 	mov	dpl,r2
   1678 8B 83              4484 	mov	dph,r3
   167A 8C F0              4485 	mov	b,r4
   167C 12s00r00           4486 	lcall	__gptrget
   167F FA                 4487 	mov	r2,a
   1680 53 02 0F           4488 	anl	ar2,#0x0F
   1683 BA 02 13           4489 	cjne	r2,#0x02,00255$
                    1686   4490 	C$uip.c$1424$1$1 ==.
                           4491 ;	..\uip\uip.c:1424: ((BUF->flags & TCP_CTL) == (TCP_SYN | TCP_ACK))) ||
   1686 90s00r3B           4492 	mov	dptr,#(_uip_buf + 0x002f)
   1689 75 F0 00           4493 	mov	b,#0x00
   168C 12s00r00           4494 	lcall	__gptrget
   168F FA                 4495 	mov	r2,a
   1690 53 02 3F           4496 	anl	ar2,#0x3F
   1693 BA 12 03           4497 	cjne	r2,#0x12,00621$
   1696 02s17rA9           4498 	ljmp	00252$
   1699                    4499 00621$:
   1699                    4500 00255$:
                    1699   4501 	C$uip.c$1425$1$1 ==.
                           4502 ;	..\uip\uip.c:1425: (((uip_connr->tcpstateflags & UIP_TS_MASK) == UIP_SYN_RCVD) &&
   1699 90s0Dr83           4503 	mov	dptr,#_uip_process_uip_connr_1_1
   169C E0                 4504 	movx	a,@dptr
   169D FA                 4505 	mov	r2,a
   169E A3                 4506 	inc	dptr
   169F E0                 4507 	movx	a,@dptr
   16A0 FB                 4508 	mov	r3,a
   16A1 A3                 4509 	inc	dptr
   16A2 E0                 4510 	movx	a,@dptr
   16A3 FC                 4511 	mov	r4,a
   16A4 74 19              4512 	mov	a,#0x19
   16A6 2A                 4513 	add	a,r2
   16A7 FA                 4514 	mov	r2,a
   16A8 E4                 4515 	clr	a
   16A9 3B                 4516 	addc	a,r3
   16AA FB                 4517 	mov	r3,a
   16AB 8A 82              4518 	mov	dpl,r2
   16AD 8B 83              4519 	mov	dph,r3
   16AF 8C F0              4520 	mov	b,r4
   16B1 12s00r00           4521 	lcall	__gptrget
   16B4 FA                 4522 	mov	r2,a
   16B5 53 02 0F           4523 	anl	ar2,#0x0F
   16B8 BA 01 13           4524 	cjne	r2,#0x01,00251$
                    16BB   4525 	C$uip.c$1426$1$1 ==.
                           4526 ;	..\uip\uip.c:1426: ((BUF->flags & TCP_CTL) == TCP_SYN)))) {
   16BB 90s00r3B           4527 	mov	dptr,#(_uip_buf + 0x002f)
   16BE 75 F0 00           4528 	mov	b,#0x00
   16C1 12s00r00           4529 	lcall	__gptrget
   16C4 FA                 4530 	mov	r2,a
   16C5 53 02 3F           4531 	anl	ar2,#0x3F
   16C8 BA 02 03           4532 	cjne	r2,#0x02,00624$
   16CB 02s17rA9           4533 	ljmp	00252$
   16CE                    4534 00624$:
   16CE                    4535 00251$:
                    16CE   4536 	C$uip.c$1427$2$57 ==.
                           4537 ;	..\uip\uip.c:1427: if ((uip_len > 0 || ((BUF->flags & (TCP_SYN | TCP_FIN)) != 0)) &&
   16CE 90s01rA4           4538 	mov	dptr,#_uip_len
   16D1 E0                 4539 	movx	a,@dptr
   16D2 FA                 4540 	mov	r2,a
   16D3 A3                 4541 	inc	dptr
   16D4 E0                 4542 	movx	a,@dptr
   16D5 FB                 4543 	mov	r3,a
   16D6 4A                 4544 	orl	a,r2
   16D7 70 10              4545 	jnz	00250$
   16D9 90s00r3B           4546 	mov	dptr,#(_uip_buf + 0x002f)
   16DC F5 F0              4547 	mov	b,a
   16DE 12s00r00           4548 	lcall	__gptrget
   16E1 FA                 4549 	mov	r2,a
   16E2 54 03              4550 	anl	a,#0x03
   16E4 70 03              4551 	jnz	00626$
   16E6 02s17rA9           4552 	ljmp	00252$
   16E9                    4553 00626$:
   16E9                    4554 00250$:
                    16E9   4555 	C$uip.c$1428$2$57 ==.
                           4556 ;	..\uip\uip.c:1428: (BUF->seqno[0] != uip_connr->rcv_nxt[0] ||
   16E9 75*06r32           4557 	mov	_uip_process_sloc0_1_0,#(_uip_buf + 0x0026)
   16EC 75*07s00           4558 	mov	(_uip_process_sloc0_1_0 + 1),#((_uip_buf + 0x0026) >> 8)
   16EF 75*08 00           4559 	mov	(_uip_process_sloc0_1_0 + 2),#0x00
   16F2 90s0Dr83           4560 	mov	dptr,#_uip_process_uip_connr_1_1
   16F5 E0                 4561 	movx	a,@dptr
   16F6 FD                 4562 	mov	r5,a
   16F7 A3                 4563 	inc	dptr
   16F8 E0                 4564 	movx	a,@dptr
   16F9 FE                 4565 	mov	r6,a
   16FA A3                 4566 	inc	dptr
   16FB E0                 4567 	movx	a,@dptr
   16FC FF                 4568 	mov	r7,a
   16FD 74 08              4569 	mov	a,#0x08
   16FF 2D                 4570 	add	a,r5
   1700 F8                 4571 	mov	r0,a
   1701 E4                 4572 	clr	a
   1702 3E                 4573 	addc	a,r6
   1703 F9                 4574 	mov	r1,a
   1704 8F 02              4575 	mov	ar2,r7
   1706 85*06 82           4576 	mov	dpl,_uip_process_sloc0_1_0
   1709 85*07 83           4577 	mov	dph,(_uip_process_sloc0_1_0 + 1)
   170C 85*08 F0           4578 	mov	b,(_uip_process_sloc0_1_0 + 2)
   170F 12s00r00           4579 	lcall	__gptrget
   1712 FB                 4580 	mov	r3,a
   1713 88 82              4581 	mov	dpl,r0
   1715 89 83              4582 	mov	dph,r1
   1717 8A F0              4583 	mov	b,r2
   1719 12s00r00           4584 	lcall	__gptrget
   171C F8                 4585 	mov	r0,a
   171D EB                 4586 	mov	a,r3
   171E B5 00 02           4587 	cjne	a,ar0,00627$
   1721 80 03              4588 	sjmp	00628$
   1723                    4589 00627$:
   1723 02s23rA4           4590 	ljmp	00363$
   1726                    4591 00628$:
                    1726   4592 	C$uip.c$1429$2$57 ==.
                           4593 ;	..\uip\uip.c:1429: BUF->seqno[1] != uip_connr->rcv_nxt[1] ||
   1726 74 08              4594 	mov	a,#0x08
   1728 2D                 4595 	add	a,r5
   1729 FA                 4596 	mov	r2,a
   172A E4                 4597 	clr	a
   172B 3E                 4598 	addc	a,r6
   172C FB                 4599 	mov	r3,a
   172D 8F 04              4600 	mov	ar4,r7
   172F 0A                 4601 	inc	r2
   1730 BA 00 01           4602 	cjne	r2,#0x00,00629$
   1733 0B                 4603 	inc	r3
   1734                    4604 00629$:
   1734 90s00r33           4605 	mov	dptr,#(_uip_buf + 0x0027)
   1737 75 F0 00           4606 	mov	b,#0x00
   173A 12s00r00           4607 	lcall	__gptrget
   173D F8                 4608 	mov	r0,a
   173E 8A 82              4609 	mov	dpl,r2
   1740 8B 83              4610 	mov	dph,r3
   1742 8C F0              4611 	mov	b,r4
   1744 12s00r00           4612 	lcall	__gptrget
   1747 FA                 4613 	mov	r2,a
   1748 E8                 4614 	mov	a,r0
   1749 B5 02 02           4615 	cjne	a,ar2,00630$
   174C 80 03              4616 	sjmp	00631$
   174E                    4617 00630$:
   174E 02s23rA4           4618 	ljmp	00363$
   1751                    4619 00631$:
                    1751   4620 	C$uip.c$1430$2$57 ==.
                           4621 ;	..\uip\uip.c:1430: BUF->seqno[2] != uip_connr->rcv_nxt[2] ||
   1751 74 08              4622 	mov	a,#0x08
   1753 2D                 4623 	add	a,r5
   1754 FA                 4624 	mov	r2,a
   1755 E4                 4625 	clr	a
   1756 3E                 4626 	addc	a,r6
   1757 FB                 4627 	mov	r3,a
   1758 8F 04              4628 	mov	ar4,r7
   175A 74 02              4629 	mov	a,#0x02
   175C 2A                 4630 	add	a,r2
   175D FA                 4631 	mov	r2,a
   175E E4                 4632 	clr	a
   175F 3B                 4633 	addc	a,r3
   1760 FB                 4634 	mov	r3,a
   1761 90s00r34           4635 	mov	dptr,#(_uip_buf + 0x0028)
   1764 75 F0 00           4636 	mov	b,#0x00
   1767 12s00r00           4637 	lcall	__gptrget
   176A F8                 4638 	mov	r0,a
   176B 8A 82              4639 	mov	dpl,r2
   176D 8B 83              4640 	mov	dph,r3
   176F 8C F0              4641 	mov	b,r4
   1771 12s00r00           4642 	lcall	__gptrget
   1774 FA                 4643 	mov	r2,a
   1775 E8                 4644 	mov	a,r0
   1776 B5 02 02           4645 	cjne	a,ar2,00632$
   1779 80 03              4646 	sjmp	00633$
   177B                    4647 00632$:
   177B 02s23rA4           4648 	ljmp	00363$
   177E                    4649 00633$:
                    177E   4650 	C$uip.c$1431$2$57 ==.
                           4651 ;	..\uip\uip.c:1431: BUF->seqno[3] != uip_connr->rcv_nxt[3])) {
   177E 74 08              4652 	mov	a,#0x08
   1780 2D                 4653 	add	a,r5
   1781 FD                 4654 	mov	r5,a
   1782 E4                 4655 	clr	a
   1783 3E                 4656 	addc	a,r6
   1784 FE                 4657 	mov	r6,a
   1785 74 03              4658 	mov	a,#0x03
   1787 2D                 4659 	add	a,r5
   1788 FD                 4660 	mov	r5,a
   1789 E4                 4661 	clr	a
   178A 3E                 4662 	addc	a,r6
   178B FE                 4663 	mov	r6,a
   178C 90s00r35           4664 	mov	dptr,#(_uip_buf + 0x0029)
   178F 75 F0 00           4665 	mov	b,#0x00
   1792 12s00r00           4666 	lcall	__gptrget
   1795 FA                 4667 	mov	r2,a
   1796 8D 82              4668 	mov	dpl,r5
   1798 8E 83              4669 	mov	dph,r6
   179A 8F F0              4670 	mov	b,r7
   179C 12s00r00           4671 	lcall	__gptrget
   179F FD                 4672 	mov	r5,a
   17A0 EA                 4673 	mov	a,r2
   17A1 B5 05 02           4674 	cjne	a,ar5,00634$
   17A4 80 03              4675 	sjmp	00635$
   17A6                    4676 00634$:
   17A6 02s23rA4           4677 	ljmp	00363$
   17A9                    4678 00635$:
                    17A9   4679 	C$uip.c$1432$1$1 ==.
                           4680 ;	..\uip\uip.c:1432: goto tcp_send_ack;
   17A9                    4681 00252$:
                    17A9   4682 	C$uip.c$1440$1$1 ==.
                           4683 ;	..\uip\uip.c:1440: if ((BUF->flags & TCP_ACK) && uip_outstanding(uip_connr)) {
   17A9 90s00r3B           4684 	mov	dptr,#(_uip_buf + 0x002f)
   17AC 75 F0 00           4685 	mov	b,#0x00
   17AF 12s00r00           4686 	lcall	__gptrget
   17B2 FA                 4687 	mov	r2,a
   17B3 20 E4 03           4688 	jb	acc.4,00636$
   17B6 02s1Ar0F           4689 	ljmp	00266$
   17B9                    4690 00636$:
   17B9 90s0Dr83           4691 	mov	dptr,#_uip_process_uip_connr_1_1
   17BC E0                 4692 	movx	a,@dptr
   17BD FA                 4693 	mov	r2,a
   17BE A3                 4694 	inc	dptr
   17BF E0                 4695 	movx	a,@dptr
   17C0 FB                 4696 	mov	r3,a
   17C1 A3                 4697 	inc	dptr
   17C2 E0                 4698 	movx	a,@dptr
   17C3 FC                 4699 	mov	r4,a
   17C4 74 10              4700 	mov	a,#0x10
   17C6 2A                 4701 	add	a,r2
   17C7 FD                 4702 	mov	r5,a
   17C8 E4                 4703 	clr	a
   17C9 3B                 4704 	addc	a,r3
   17CA FE                 4705 	mov	r6,a
   17CB 8C 07              4706 	mov	ar7,r4
   17CD 8D 82              4707 	mov	dpl,r5
   17CF 8E 83              4708 	mov	dph,r6
   17D1 8F F0              4709 	mov	b,r7
   17D3 12s00r00           4710 	lcall	__gptrget
   17D6 FD                 4711 	mov	r5,a
   17D7 A3                 4712 	inc	dptr
   17D8 12s00r00           4713 	lcall	__gptrget
   17DB FE                 4714 	mov	r6,a
   17DC 4D                 4715 	orl	a,r5
   17DD 70 03              4716 	jnz	00637$
   17DF 02s1Ar0F           4717 	ljmp	00266$
   17E2                    4718 00637$:
                    17E2   4719 	C$uip.c$1441$2$59 ==.
                           4720 ;	..\uip\uip.c:1441: uip_add32(uip_connr->snd_nxt, uip_connr->len);
   17E2 74 0C              4721 	mov	a,#0x0C
   17E4 2A                 4722 	add	a,r2
   17E5 FF                 4723 	mov	r7,a
   17E6 E4                 4724 	clr	a
   17E7 3B                 4725 	addc	a,r3
   17E8 F8                 4726 	mov	r0,a
   17E9 8C 01              4727 	mov	ar1,r4
   17EB C0 02              4728 	push	ar2
   17ED C0 03              4729 	push	ar3
   17EF C0 04              4730 	push	ar4
   17F1 C0 05              4731 	push	ar5
   17F3 C0 06              4732 	push	ar6
   17F5 8F 82              4733 	mov	dpl,r7
   17F7 88 83              4734 	mov	dph,r0
   17F9 89 F0              4735 	mov	b,r1
   17FB 12s00r1E           4736 	lcall	_uip_add32
   17FE 15 81              4737 	dec	sp
   1800 15 81              4738 	dec	sp
   1802 D0 04              4739 	pop	ar4
   1804 D0 03              4740 	pop	ar3
   1806 D0 02              4741 	pop	ar2
                    1808   4742 	C$uip.c$1443$2$59 ==.
                           4743 ;	..\uip\uip.c:1443: if (BUF->ackno[0] == uip_acc32[0] &&
   1808 7Dr36              4744 	mov	r5,#(_uip_buf + 0x002a)
   180A 7Es00              4745 	mov	r6,#((_uip_buf + 0x002a) >> 8)
   180C 7F 00              4746 	mov	r7,#0x00
   180E 90s0Dr5A           4747 	mov	dptr,#_uip_acc32
   1811 E0                 4748 	movx	a,@dptr
   1812 F8                 4749 	mov	r0,a
   1813 8D 82              4750 	mov	dpl,r5
   1815 8E 83              4751 	mov	dph,r6
   1817 8F F0              4752 	mov	b,r7
   1819 12s00r00           4753 	lcall	__gptrget
   181C FD                 4754 	mov	r5,a
   181D B5 00 02           4755 	cjne	a,ar0,00638$
   1820 80 03              4756 	sjmp	00639$
   1822                    4757 00638$:
   1822 02s1Ar0F           4758 	ljmp	00266$
   1825                    4759 00639$:
                    1825   4760 	C$uip.c$1444$2$59 ==.
                           4761 ;	..\uip\uip.c:1444: BUF->ackno[1] == uip_acc32[1] &&
   1825 90s0Dr5B           4762 	mov	dptr,#(_uip_acc32 + 0x0001)
   1828 E0                 4763 	movx	a,@dptr
   1829 F5*0A              4764 	mov	_uip_process_sloc2_1_0,a
   182B 90s00r37           4765 	mov	dptr,#(_uip_buf + 0x002b)
   182E 75 F0 00           4766 	mov	b,#0x00
   1831 12s00r00           4767 	lcall	__gptrget
   1834 FE                 4768 	mov	r6,a
   1835 B5*0A 02           4769 	cjne	a,_uip_process_sloc2_1_0,00640$
   1838 80 03              4770 	sjmp	00641$
   183A                    4771 00640$:
   183A 02s1Ar0F           4772 	ljmp	00266$
   183D                    4773 00641$:
                    183D   4774 	C$uip.c$1445$2$59 ==.
                           4775 ;	..\uip\uip.c:1445: BUF->ackno[2] == uip_acc32[2] &&
   183D 90s0Dr5C           4776 	mov	dptr,#(_uip_acc32 + 0x0002)
   1840 E0                 4777 	movx	a,@dptr
   1841 F5*09              4778 	mov	_uip_process_sloc1_1_0,a
   1843 90s00r38           4779 	mov	dptr,#(_uip_buf + 0x002c)
   1846 75 F0 00           4780 	mov	b,#0x00
   1849 12s00r00           4781 	lcall	__gptrget
   184C FF                 4782 	mov	r7,a
   184D B5*09 02           4783 	cjne	a,_uip_process_sloc1_1_0,00642$
   1850 80 03              4784 	sjmp	00643$
   1852                    4785 00642$:
   1852 02s1Ar0F           4786 	ljmp	00266$
   1855                    4787 00643$:
                    1855   4788 	C$uip.c$1446$2$59 ==.
                           4789 ;	..\uip\uip.c:1446: BUF->ackno[3] == uip_acc32[3]) {
   1855 90s0Dr5D           4790 	mov	dptr,#(_uip_acc32 + 0x0003)
   1858 E0                 4791 	movx	a,@dptr
   1859 F5*06              4792 	mov	_uip_process_sloc0_1_0,a
   185B 90s00r39           4793 	mov	dptr,#(_uip_buf + 0x002d)
   185E 75 F0 00           4794 	mov	b,#0x00
   1861 12s00r00           4795 	lcall	__gptrget
   1864 F9                 4796 	mov	r1,a
   1865 B5*06 02           4797 	cjne	a,_uip_process_sloc0_1_0,00644$
   1868 80 03              4798 	sjmp	00645$
   186A                    4799 00644$:
   186A 02s1Ar0F           4800 	ljmp	00266$
   186D                    4801 00645$:
                    186D   4802 	C$uip.c$1448$3$60 ==.
                           4803 ;	..\uip\uip.c:1448: uip_connr->snd_nxt[0] = uip_acc32[0];
   186D 74 0C              4804 	mov	a,#0x0C
   186F 2A                 4805 	add	a,r2
   1870 F9                 4806 	mov	r1,a
   1871 E4                 4807 	clr	a
   1872 3B                 4808 	addc	a,r3
   1873 FF                 4809 	mov	r7,a
   1874 8C 06              4810 	mov	ar6,r4
   1876 89 82              4811 	mov	dpl,r1
   1878 8F 83              4812 	mov	dph,r7
   187A 8E F0              4813 	mov	b,r6
   187C E8                 4814 	mov	a,r0
   187D 12s00r00           4815 	lcall	__gptrput
                    1880   4816 	C$uip.c$1449$3$60 ==.
                           4817 ;	..\uip\uip.c:1449: uip_connr->snd_nxt[1] = uip_acc32[1];
   1880 74 0C              4818 	mov	a,#0x0C
   1882 2A                 4819 	add	a,r2
   1883 F5*0B              4820 	mov	_uip_process_sloc3_1_0,a
   1885 E4                 4821 	clr	a
   1886 3B                 4822 	addc	a,r3
   1887 F5*0C              4823 	mov	(_uip_process_sloc3_1_0 + 1),a
   1889 8C*0D              4824 	mov	(_uip_process_sloc3_1_0 + 2),r4
   188B 74 01              4825 	mov	a,#0x01
   188D 25*0B              4826 	add	a,_uip_process_sloc3_1_0
   188F F9                 4827 	mov	r1,a
   1890 E4                 4828 	clr	a
   1891 35*0C              4829 	addc	a,(_uip_process_sloc3_1_0 + 1)
   1893 FD                 4830 	mov	r5,a
   1894 AE*0D              4831 	mov	r6,(_uip_process_sloc3_1_0 + 2)
   1896 89 82              4832 	mov	dpl,r1
   1898 8D 83              4833 	mov	dph,r5
   189A 8E F0              4834 	mov	b,r6
   189C E5*0A              4835 	mov	a,_uip_process_sloc2_1_0
   189E 12s00r00           4836 	lcall	__gptrput
                    18A1   4837 	C$uip.c$1450$3$60 ==.
                           4838 ;	..\uip\uip.c:1450: uip_connr->snd_nxt[2] = uip_acc32[2];
   18A1 74 02              4839 	mov	a,#0x02
   18A3 25*0B              4840 	add	a,_uip_process_sloc3_1_0
   18A5 FD                 4841 	mov	r5,a
   18A6 E4                 4842 	clr	a
   18A7 35*0C              4843 	addc	a,(_uip_process_sloc3_1_0 + 1)
   18A9 FE                 4844 	mov	r6,a
   18AA AF*0D              4845 	mov	r7,(_uip_process_sloc3_1_0 + 2)
   18AC 8D 82              4846 	mov	dpl,r5
   18AE 8E 83              4847 	mov	dph,r6
   18B0 8F F0              4848 	mov	b,r7
   18B2 E5*09              4849 	mov	a,_uip_process_sloc1_1_0
   18B4 12s00r00           4850 	lcall	__gptrput
                    18B7   4851 	C$uip.c$1451$3$60 ==.
                           4852 ;	..\uip\uip.c:1451: uip_connr->snd_nxt[3] = uip_acc32[3];
   18B7 74 03              4853 	mov	a,#0x03
   18B9 25*0B              4854 	add	a,_uip_process_sloc3_1_0
   18BB FD                 4855 	mov	r5,a
   18BC E4                 4856 	clr	a
   18BD 35*0C              4857 	addc	a,(_uip_process_sloc3_1_0 + 1)
   18BF FE                 4858 	mov	r6,a
   18C0 AF*0D              4859 	mov	r7,(_uip_process_sloc3_1_0 + 2)
   18C2 8D 82              4860 	mov	dpl,r5
   18C4 8E 83              4861 	mov	dph,r6
   18C6 8F F0              4862 	mov	b,r7
   18C8 E5*06              4863 	mov	a,_uip_process_sloc0_1_0
   18CA 12s00r00           4864 	lcall	__gptrput
                    18CD   4865 	C$uip.c$1455$3$60 ==.
                           4866 ;	..\uip\uip.c:1455: if (uip_connr->nrtx == 0) {
   18CD 74 1B              4867 	mov	a,#0x1B
   18CF 2A                 4868 	add	a,r2
   18D0 FD                 4869 	mov	r5,a
   18D1 E4                 4870 	clr	a
   18D2 3B                 4871 	addc	a,r3
   18D3 FE                 4872 	mov	r6,a
   18D4 8C 07              4873 	mov	ar7,r4
   18D6 8D 82              4874 	mov	dpl,r5
   18D8 8E 83              4875 	mov	dph,r6
   18DA 8F F0              4876 	mov	b,r7
   18DC 12s00r00           4877 	lcall	__gptrget
   18DF 60 03              4878 	jz	00646$
   18E1 02s19rBE           4879 	ljmp	00259$
   18E4                    4880 00646$:
                    18E4   4881 	C$uip.c$1457$4$61 ==.
                           4882 ;	..\uip\uip.c:1457: m = uip_connr->rto - uip_connr->timer;
   18E4 74 18              4883 	mov	a,#0x18
   18E6 2A                 4884 	add	a,r2
   18E7 FD                 4885 	mov	r5,a
   18E8 E4                 4886 	clr	a
   18E9 3B                 4887 	addc	a,r3
   18EA FE                 4888 	mov	r6,a
   18EB 8C 07              4889 	mov	ar7,r4
   18ED 8D 82              4890 	mov	dpl,r5
   18EF 8E 83              4891 	mov	dph,r6
   18F1 8F F0              4892 	mov	b,r7
   18F3 12s00r00           4893 	lcall	__gptrget
   18F6 FD                 4894 	mov	r5,a
   18F7 74 1A              4895 	mov	a,#0x1A
   18F9 2A                 4896 	add	a,r2
   18FA FE                 4897 	mov	r6,a
   18FB E4                 4898 	clr	a
   18FC 3B                 4899 	addc	a,r3
   18FD FF                 4900 	mov	r7,a
   18FE 8C 00              4901 	mov	ar0,r4
   1900 8E 82              4902 	mov	dpl,r6
   1902 8F 83              4903 	mov	dph,r7
   1904 88 F0              4904 	mov	b,r0
   1906 12s00r00           4905 	lcall	__gptrget
   1909 FE                 4906 	mov	r6,a
   190A ED                 4907 	mov	a,r5
   190B C3                 4908 	clr	c
   190C 9E                 4909 	subb	a,r6
   190D FD                 4910 	mov	r5,a
                    190E   4911 	C$uip.c$1459$4$61 ==.
                           4912 ;	..\uip\uip.c:1459: m = m - (uip_connr->sa >> 3);
   190E 74 16              4913 	mov	a,#0x16
   1910 2A                 4914 	add	a,r2
   1911 FA                 4915 	mov	r2,a
   1912 E4                 4916 	clr	a
   1913 3B                 4917 	addc	a,r3
   1914 FB                 4918 	mov	r3,a
   1915 8A 82              4919 	mov	dpl,r2
   1917 8B 83              4920 	mov	dph,r3
   1919 8C F0              4921 	mov	b,r4
   191B 12s00r00           4922 	lcall	__gptrget
   191E FE                 4923 	mov	r6,a
   191F C4                 4924 	swap	a
   1920 23                 4925 	rl	a
   1921 54 1F              4926 	anl	a,#0x1f
   1923 FF                 4927 	mov	r7,a
   1924 ED                 4928 	mov	a,r5
   1925 C3                 4929 	clr	c
   1926 9F                 4930 	subb	a,r7
   1927 FD                 4931 	mov	r5,a
   1928 90s0Dr86           4932 	mov	dptr,#_uip_process_m_4_61
   192B F0                 4933 	movx	@dptr,a
                    192C   4934 	C$uip.c$1460$4$61 ==.
                           4935 ;	..\uip\uip.c:1460: uip_connr->sa += m;
   192C ED                 4936 	mov	a,r5
   192D 2E                 4937 	add	a,r6
   192E FE                 4938 	mov	r6,a
   192F 8A 82              4939 	mov	dpl,r2
   1931 8B 83              4940 	mov	dph,r3
   1933 8C F0              4941 	mov	b,r4
   1935 12s00r00           4942 	lcall	__gptrput
                    1938   4943 	C$uip.c$1461$4$61 ==.
                           4944 ;	..\uip\uip.c:1461: if (m < 0) {
   1938 ED                 4945 	mov	a,r5
   1939 30 E7 07           4946 	jnb	acc.7,00257$
                    193C   4947 	C$uip.c$1462$5$62 ==.
                           4948 ;	..\uip\uip.c:1462: m = -m;
   193C 90s0Dr86           4949 	mov	dptr,#_uip_process_m_4_61
   193F C3                 4950 	clr	c
   1940 E4                 4951 	clr	a
   1941 9D                 4952 	subb	a,r5
   1942 F0                 4953 	movx	@dptr,a
   1943                    4954 00257$:
                    1943   4955 	C$uip.c$1464$4$61 ==.
                           4956 ;	..\uip\uip.c:1464: m = m - (uip_connr->sv >> 2);
   1943 90s0Dr83           4957 	mov	dptr,#_uip_process_uip_connr_1_1
   1946 E0                 4958 	movx	a,@dptr
   1947 FA                 4959 	mov	r2,a
   1948 A3                 4960 	inc	dptr
   1949 E0                 4961 	movx	a,@dptr
   194A FB                 4962 	mov	r3,a
   194B A3                 4963 	inc	dptr
   194C E0                 4964 	movx	a,@dptr
   194D FC                 4965 	mov	r4,a
   194E 74 17              4966 	mov	a,#0x17
   1950 2A                 4967 	add	a,r2
   1951 F5*06              4968 	mov	_uip_process_sloc0_1_0,a
   1953 E4                 4969 	clr	a
   1954 3B                 4970 	addc	a,r3
   1955 F5*07              4971 	mov	(_uip_process_sloc0_1_0 + 1),a
   1957 8C*08              4972 	mov	(_uip_process_sloc0_1_0 + 2),r4
   1959 85*06 82           4973 	mov	dpl,_uip_process_sloc0_1_0
   195C 85*07 83           4974 	mov	dph,(_uip_process_sloc0_1_0 + 1)
   195F 85*08 F0           4975 	mov	b,(_uip_process_sloc0_1_0 + 2)
   1962 12s00r00           4976 	lcall	__gptrget
   1965 F8                 4977 	mov	r0,a
   1966 03                 4978 	rr	a
   1967 03                 4979 	rr	a
   1968 54 3F              4980 	anl	a,#0x3f
   196A F5*0B              4981 	mov	_uip_process_sloc3_1_0,a
   196C 90s0Dr86           4982 	mov	dptr,#_uip_process_m_4_61
   196F E0                 4983 	movx	a,@dptr
   1970 90s0Dr86           4984 	mov	dptr,#_uip_process_m_4_61
   1973 C3                 4985 	clr	c
   1974 95*0B              4986 	subb	a,_uip_process_sloc3_1_0
   1976 F0                 4987 	movx	@dptr,a
                    1977   4988 	C$uip.c$1465$4$61 ==.
                           4989 ;	..\uip\uip.c:1465: uip_connr->sv += m;
   1977 90s0Dr86           4990 	mov	dptr,#_uip_process_m_4_61
   197A E0                 4991 	movx	a,@dptr
   197B 28                 4992 	add	a,r0
   197C 85*06 82           4993 	mov	dpl,_uip_process_sloc0_1_0
   197F 85*07 83           4994 	mov	dph,(_uip_process_sloc0_1_0 + 1)
   1982 85*08 F0           4995 	mov	b,(_uip_process_sloc0_1_0 + 2)
   1985 12s00r00           4996 	lcall	__gptrput
                    1988   4997 	C$uip.c$1466$4$61 ==.
                           4998 ;	..\uip\uip.c:1466: uip_connr->rto = (uip_connr->sa >> 3) + uip_connr->sv;
   1988 74 18              4999 	mov	a,#0x18
   198A 2A                 5000 	add	a,r2
   198B F8                 5001 	mov	r0,a
   198C E4                 5002 	clr	a
   198D 3B                 5003 	addc	a,r3
   198E F9                 5004 	mov	r1,a
   198F 8C 05              5005 	mov	ar5,r4
   1991 74 16              5006 	mov	a,#0x16
   1993 2A                 5007 	add	a,r2
   1994 FA                 5008 	mov	r2,a
   1995 E4                 5009 	clr	a
   1996 3B                 5010 	addc	a,r3
   1997 FB                 5011 	mov	r3,a
   1998 8A 82              5012 	mov	dpl,r2
   199A 8B 83              5013 	mov	dph,r3
   199C 8C F0              5014 	mov	b,r4
   199E 12s00r00           5015 	lcall	__gptrget
   19A1 C4                 5016 	swap	a
   19A2 23                 5017 	rl	a
   19A3 54 1F              5018 	anl	a,#0x1f
   19A5 FA                 5019 	mov	r2,a
   19A6 85*06 82           5020 	mov	dpl,_uip_process_sloc0_1_0
   19A9 85*07 83           5021 	mov	dph,(_uip_process_sloc0_1_0 + 1)
   19AC 85*08 F0           5022 	mov	b,(_uip_process_sloc0_1_0 + 2)
   19AF 12s00r00           5023 	lcall	__gptrget
   19B2 FB                 5024 	mov	r3,a
   19B3 2A                 5025 	add	a,r2
   19B4 FA                 5026 	mov	r2,a
   19B5 88 82              5027 	mov	dpl,r0
   19B7 89 83              5028 	mov	dph,r1
   19B9 8D F0              5029 	mov	b,r5
   19BB 12s00r00           5030 	lcall	__gptrput
   19BE                    5031 00259$:
                    19BE   5032 	C$uip.c$1470$3$60 ==.
                           5033 ;	..\uip\uip.c:1470: uip_flags = UIP_ACKDATA;
   19BE 90s01rA8           5034 	mov	dptr,#_uip_flags
   19C1 74 01              5035 	mov	a,#0x01
   19C3 F0                 5036 	movx	@dptr,a
                    19C4   5037 	C$uip.c$1472$3$60 ==.
                           5038 ;	..\uip\uip.c:1472: uip_connr->timer = uip_connr->rto;
   19C4 90s0Dr83           5039 	mov	dptr,#_uip_process_uip_connr_1_1
   19C7 E0                 5040 	movx	a,@dptr
   19C8 FA                 5041 	mov	r2,a
   19C9 A3                 5042 	inc	dptr
   19CA E0                 5043 	movx	a,@dptr
   19CB FB                 5044 	mov	r3,a
   19CC A3                 5045 	inc	dptr
   19CD E0                 5046 	movx	a,@dptr
   19CE FC                 5047 	mov	r4,a
   19CF 74 1A              5048 	mov	a,#0x1A
   19D1 2A                 5049 	add	a,r2
   19D2 F5*0B              5050 	mov	_uip_process_sloc3_1_0,a
   19D4 E4                 5051 	clr	a
   19D5 3B                 5052 	addc	a,r3
   19D6 F5*0C              5053 	mov	(_uip_process_sloc3_1_0 + 1),a
   19D8 8C*0D              5054 	mov	(_uip_process_sloc3_1_0 + 2),r4
   19DA 74 18              5055 	mov	a,#0x18
   19DC 2A                 5056 	add	a,r2
   19DD F8                 5057 	mov	r0,a
   19DE E4                 5058 	clr	a
   19DF 3B                 5059 	addc	a,r3
   19E0 F9                 5060 	mov	r1,a
   19E1 8C 05              5061 	mov	ar5,r4
   19E3 88 82              5062 	mov	dpl,r0
   19E5 89 83              5063 	mov	dph,r1
   19E7 8D F0              5064 	mov	b,r5
   19E9 12s00r00           5065 	lcall	__gptrget
   19EC F8                 5066 	mov	r0,a
   19ED 85*0B 82           5067 	mov	dpl,_uip_process_sloc3_1_0
   19F0 85*0C 83           5068 	mov	dph,(_uip_process_sloc3_1_0 + 1)
   19F3 85*0D F0           5069 	mov	b,(_uip_process_sloc3_1_0 + 2)
   19F6 12s00r00           5070 	lcall	__gptrput
                    19F9   5071 	C$uip.c$1475$3$60 ==.
                           5072 ;	..\uip\uip.c:1475: uip_connr->len = 0;
   19F9 74 10              5073 	mov	a,#0x10
   19FB 2A                 5074 	add	a,r2
   19FC FA                 5075 	mov	r2,a
   19FD E4                 5076 	clr	a
   19FE 3B                 5077 	addc	a,r3
   19FF FB                 5078 	mov	r3,a
   1A00 8A 82              5079 	mov	dpl,r2
   1A02 8B 83              5080 	mov	dph,r3
   1A04 8C F0              5081 	mov	b,r4
   1A06 E4                 5082 	clr	a
   1A07 12s00r00           5083 	lcall	__gptrput
   1A0A A3                 5084 	inc	dptr
   1A0B E4                 5085 	clr	a
   1A0C 12s00r00           5086 	lcall	__gptrput
   1A0F                    5087 00266$:
                    1A0F   5088 	C$uip.c$1481$1$1 ==.
                           5089 ;	..\uip\uip.c:1481: switch (uip_connr->tcpstateflags & UIP_TS_MASK) {
   1A0F 90s0Dr83           5090 	mov	dptr,#_uip_process_uip_connr_1_1
   1A12 E0                 5091 	movx	a,@dptr
   1A13 F5*0B              5092 	mov	_uip_process_sloc3_1_0,a
   1A15 A3                 5093 	inc	dptr
   1A16 E0                 5094 	movx	a,@dptr
   1A17 F5*0C              5095 	mov	(_uip_process_sloc3_1_0 + 1),a
   1A19 A3                 5096 	inc	dptr
   1A1A E0                 5097 	movx	a,@dptr
   1A1B F5*0D              5098 	mov	(_uip_process_sloc3_1_0 + 2),a
   1A1D 74 19              5099 	mov	a,#0x19
   1A1F 25*0B              5100 	add	a,_uip_process_sloc3_1_0
   1A21 FD                 5101 	mov	r5,a
   1A22 E4                 5102 	clr	a
   1A23 35*0C              5103 	addc	a,(_uip_process_sloc3_1_0 + 1)
   1A25 FE                 5104 	mov	r6,a
   1A26 AF*0D              5105 	mov	r7,(_uip_process_sloc3_1_0 + 2)
   1A28 8D 82              5106 	mov	dpl,r5
   1A2A 8E 83              5107 	mov	dph,r6
   1A2C 8F F0              5108 	mov	b,r7
   1A2E 12s00r00           5109 	lcall	__gptrget
   1A31 F8                 5110 	mov	r0,a
   1A32 74 0F              5111 	mov	a,#0x0F
   1A34 58                 5112 	anl	a,r0
   1A35 F9                 5113 	mov  r1,a
   1A36 24 F7              5114 	add	a,#0xff - 0x08
   1A38 50 03              5115 	jnc	00648$
   1A3A 02s27r06           5116 	ljmp	00379$
   1A3D                    5117 00648$:
   1A3D E9                 5118 	mov	a,r1
   1A3E 29                 5119 	add	a,r1
   1A3F 29                 5120 	add	a,r1
   1A40 90s1Ar44           5121 	mov	dptr,#00649$
   1A43 73                 5122 	jmp	@a+dptr
   1A44                    5123 00649$:
   1A44 02s23rA1           5124 	ljmp	00362$
   1A47 02s1Ar5F           5125 	ljmp	00268$
   1A4A 02s1ArCF           5126 	ljmp	00275$
   1A4D 02s1Dr7F           5127 	ljmp	00296$
   1A50 02s21rF3           5128 	ljmp	00338$
   1A53 02s22rFB           5129 	ljmp	00351$
   1A56 02s23r76           5130 	ljmp	00359$
   1A59 02s23r74           5131 	ljmp	00358$
   1A5C 02s21rD2           5132 	ljmp	00335$
                    1A5F   5133 	C$uip.c$1486$2$63 ==.
                           5134 ;	..\uip\uip.c:1486: case UIP_SYN_RCVD:
   1A5F                    5135 00268$:
                    1A5F   5136 	C$uip.c$1491$2$63 ==.
                           5137 ;	..\uip\uip.c:1491: if (uip_flags & UIP_ACKDATA) {
   1A5F 90s01rA8           5138 	mov	dptr,#_uip_flags
   1A62 E0                 5139 	movx	a,@dptr
   1A63 F9                 5140 	mov	r1,a
   1A64 30 E0 50           5141 	jnb	acc.0,00272$
                    1A67   5142 	C$uip.c$1492$3$64 ==.
                           5143 ;	..\uip\uip.c:1492: uip_connr->tcpstateflags = UIP_ESTABLISHED;
   1A67 8D 82              5144 	mov	dpl,r5
   1A69 8E 83              5145 	mov	dph,r6
   1A6B 8F F0              5146 	mov	b,r7
   1A6D 74 03              5147 	mov	a,#0x03
   1A6F 12s00r00           5148 	lcall	__gptrput
                    1A72   5149 	C$uip.c$1493$3$64 ==.
                           5150 ;	..\uip\uip.c:1493: uip_flags = UIP_CONNECTED;
   1A72 90s01rA8           5151 	mov	dptr,#_uip_flags
   1A75 74 40              5152 	mov	a,#0x40
   1A77 F0                 5153 	movx	@dptr,a
                    1A78   5154 	C$uip.c$1494$3$64 ==.
                           5155 ;	..\uip\uip.c:1494: uip_connr->len = 0;
   1A78 74 10              5156 	mov	a,#0x10
   1A7A 25*0B              5157 	add	a,_uip_process_sloc3_1_0
   1A7C F9                 5158 	mov	r1,a
   1A7D E4                 5159 	clr	a
   1A7E 35*0C              5160 	addc	a,(_uip_process_sloc3_1_0 + 1)
   1A80 FA                 5161 	mov	r2,a
   1A81 AB*0D              5162 	mov	r3,(_uip_process_sloc3_1_0 + 2)
   1A83 89 82              5163 	mov	dpl,r1
   1A85 8A 83              5164 	mov	dph,r2
   1A87 8B F0              5165 	mov	b,r3
   1A89 E4                 5166 	clr	a
   1A8A 12s00r00           5167 	lcall	__gptrput
   1A8D A3                 5168 	inc	dptr
   1A8E E4                 5169 	clr	a
   1A8F 12s00r00           5170 	lcall	__gptrput
                    1A92   5171 	C$uip.c$1495$3$64 ==.
                           5172 ;	..\uip\uip.c:1495: if (uip_len > 0) {
   1A92 90s01rA4           5173 	mov	dptr,#_uip_len
   1A95 E0                 5174 	movx	a,@dptr
   1A96 FA                 5175 	mov	r2,a
   1A97 A3                 5176 	inc	dptr
   1A98 E0                 5177 	movx	a,@dptr
   1A99 FB                 5178 	mov	r3,a
   1A9A 4A                 5179 	orl	a,r2
   1A9B 60 0D              5180 	jz	00270$
                    1A9D   5181 	C$uip.c$1496$4$65 ==.
                           5182 ;	..\uip\uip.c:1496: uip_flags |= UIP_NEWDATA;
   1A9D 90s01rA8           5183 	mov	dptr,#_uip_flags
   1AA0 74 42              5184 	mov	a,#0x42
   1AA2 F0                 5185 	movx	@dptr,a
                    1AA3   5186 	C$uip.c$1497$4$65 ==.
                           5187 ;	..\uip\uip.c:1497: uip_add_rcv_nxt(uip_len);
   1AA3 8A 82              5188 	mov	dpl,r2
   1AA5 8B 83              5189 	mov	dph,r3
   1AA7 12s08r2D           5190 	lcall	_uip_add_rcv_nxt
   1AAA                    5191 00270$:
                    1AAA   5192 	C$uip.c$1499$3$64 ==.
                           5193 ;	..\uip\uip.c:1499: uip_slen = 0;
   1AAA 90s01rA6           5194 	mov	dptr,#_uip_slen
   1AAD E4                 5195 	clr	a
   1AAE F0                 5196 	movx	@dptr,a
   1AAF A3                 5197 	inc	dptr
   1AB0 F0                 5198 	movx	@dptr,a
                    1AB1   5199 	C$uip.c$1500$3$64 ==.
                           5200 ;	..\uip\uip.c:1500: UIP_APPCALL();
   1AB1 12s00r00           5201 	lcall	_uip_tcp_app_exec
                    1AB4   5202 	C$uip.c$1501$3$64 ==.
                           5203 ;	..\uip\uip.c:1501: goto appsend;
   1AB4 02s1FrC1           5204 	ljmp	00313$
   1AB7                    5205 00272$:
                    1AB7   5206 	C$uip.c$1504$2$63 ==.
                           5207 ;	..\uip\uip.c:1504: if ((BUF->flags & TCP_CTL) == TCP_SYN) {
   1AB7 90s00r3B           5208 	mov	dptr,#(_uip_buf + 0x002f)
   1ABA 75 F0 00           5209 	mov	b,#0x00
   1ABD 12s00r00           5210 	lcall	__gptrget
   1AC0 FA                 5211 	mov	r2,a
   1AC1 53 02 3F           5212 	anl	ar2,#0x3F
   1AC4 BA 02 02           5213 	cjne	r2,#0x02,00652$
   1AC7 80 03              5214 	sjmp	00653$
   1AC9                    5215 00652$:
   1AC9 02s27r06           5216 	ljmp	00379$
   1ACC                    5217 00653$:
                    1ACC   5218 	C$uip.c$1505$3$66 ==.
                           5219 ;	..\uip\uip.c:1505: goto tcp_send_synack;
   1ACC 02s15r87           5220 	ljmp	00239$
                    1ACF   5221 	C$uip.c$1509$2$63 ==.
                           5222 ;	..\uip\uip.c:1509: case UIP_SYN_SENT:
   1ACF                    5223 00275$:
                    1ACF   5224 	C$uip.c$1514$2$63 ==.
                           5225 ;	..\uip\uip.c:1514: if ((uip_flags & UIP_ACKDATA) &&
   1ACF 90s01rA8           5226 	mov	dptr,#_uip_flags
   1AD2 E0                 5227 	movx	a,@dptr
   1AD3 FA                 5228 	mov	r2,a
   1AD4 20 E0 03           5229 	jb	acc.0,00654$
   1AD7 02s1Dr57           5230 	ljmp	00294$
   1ADA                    5231 00654$:
                    1ADA   5232 	C$uip.c$1515$2$63 ==.
                           5233 ;	..\uip\uip.c:1515: (BUF->flags & TCP_CTL) == (TCP_SYN | TCP_ACK)) {
   1ADA 90s00r3B           5234 	mov	dptr,#(_uip_buf + 0x002f)
   1ADD 75 F0 00           5235 	mov	b,#0x00
   1AE0 12s00r00           5236 	lcall	__gptrget
   1AE3 FA                 5237 	mov	r2,a
   1AE4 53 02 3F           5238 	anl	ar2,#0x3F
   1AE7 BA 12 02           5239 	cjne	r2,#0x12,00655$
   1AEA 80 03              5240 	sjmp	00656$
   1AEC                    5241 00655$:
   1AEC 02s1Dr57           5242 	ljmp	00294$
   1AEF                    5243 00656$:
                    1AEF   5244 	C$uip.c$1518$3$67 ==.
                           5245 ;	..\uip\uip.c:1518: if ((BUF->tcpoffset & 0xf0) > 0x50) {
   1AEF 90s00r3A           5246 	mov	dptr,#(_uip_buf + 0x002e)
   1AF2 75 F0 00           5247 	mov	b,#0x00
   1AF5 12s00r00           5248 	lcall	__gptrget
   1AF8 54 F0              5249 	anl	a,#0xF0
   1AFA FA                 5250 	mov	r2,a
   1AFB 24 AF              5251 	add	a,#0xff - 0x50
   1AFD 40 03              5252 	jc	00657$
   1AFF 02s1Cr6B           5253 	ljmp	00292$
   1B02                    5254 00657$:
                    1B02   5255 	C$uip.c$1519$4$68 ==.
                           5256 ;	..\uip\uip.c:1519: for (c = 0; c < ((BUF->tcpoffset >> 4) - 5) << 2 ;) {
   1B02 90s0Dr5E           5257 	mov	dptr,#_c
   1B05 E4                 5258 	clr	a
   1B06 F0                 5259 	movx	@dptr,a
   1B07                    5260 00288$:
   1B07 90s00r3A           5261 	mov	dptr,#(_uip_buf + 0x002e)
   1B0A 75 F0 00           5262 	mov	b,#0x00
   1B0D 12s00r00           5263 	lcall	__gptrget
   1B10 C4                 5264 	swap	a
   1B11 54 0F              5265 	anl	a,#0x0f
   1B13 7B 00              5266 	mov	r3,#0x00
   1B15 24 FB              5267 	add	a,#0xfb
   1B17 FA                 5268 	mov	r2,a
   1B18 EB                 5269 	mov	a,r3
   1B19 34 FF              5270 	addc	a,#0xff
   1B1B CA                 5271 	xch	a,r2
   1B1C 25 E0              5272 	add	a,acc
   1B1E CA                 5273 	xch	a,r2
   1B1F 33                 5274 	rlc	a
   1B20 CA                 5275 	xch	a,r2
   1B21 25 E0              5276 	add	a,acc
   1B23 CA                 5277 	xch	a,r2
   1B24 33                 5278 	rlc	a
   1B25 FB                 5279 	mov	r3,a
   1B26 90s0Dr5E           5280 	mov	dptr,#_c
   1B29 E0                 5281 	movx	a,@dptr
   1B2A FC                 5282 	mov	r4,a
   1B2B 8C*06              5283 	mov	_uip_process_sloc0_1_0,r4
   1B2D 75*07 00           5284 	mov	(_uip_process_sloc0_1_0 + 1),#0x00
   1B30 C3                 5285 	clr	c
   1B31 E5*06              5286 	mov	a,_uip_process_sloc0_1_0
   1B33 9A                 5287 	subb	a,r2
   1B34 E5*07              5288 	mov	a,(_uip_process_sloc0_1_0 + 1)
   1B36 64 80              5289 	xrl	a,#0x80
   1B38 8B F0              5290 	mov	b,r3
   1B3A 63 F0 80           5291 	xrl	b,#0x80
   1B3D 95 F0              5292 	subb	a,b
   1B3F 40 03              5293 	jc	00658$
   1B41 02s1Cr6B           5294 	ljmp	00292$
   1B44                    5295 00658$:
                    1B44   5296 	C$uip.c$1520$5$69 ==.
                           5297 ;	..\uip\uip.c:1520: opt = uip_buf[UIP_IPTCPH_LEN + UIP_LLH_LEN + c];
   1B44 74 36              5298 	mov	a,#0x36
   1B46 25*06              5299 	add	a,_uip_process_sloc0_1_0
   1B48 FA                 5300 	mov	r2,a
   1B49 E4                 5301 	clr	a
   1B4A 35*07              5302 	addc	a,(_uip_process_sloc0_1_0 + 1)
   1B4C FB                 5303 	mov	r3,a
   1B4D EA                 5304 	mov	a,r2
   1B4E 24r0C              5305 	add	a,#_uip_buf
   1B50 F5 82              5306 	mov	dpl,a
   1B52 EB                 5307 	mov	a,r3
   1B53 34s00              5308 	addc	a,#(_uip_buf >> 8)
   1B55 F5 83              5309 	mov	dph,a
   1B57 E0                 5310 	movx	a,@dptr
   1B58 FA                 5311 	mov	r2,a
   1B59 90s0Dr5F           5312 	mov	dptr,#_opt
   1B5C F0                 5313 	movx	@dptr,a
                    1B5D   5314 	C$uip.c$1521$5$69 ==.
                           5315 ;	..\uip\uip.c:1521: if (opt == TCP_OPT_END) {
   1B5D EA                 5316 	mov	a,r2
   1B5E 70 03              5317 	jnz	00659$
   1B60 02s1Cr6B           5318 	ljmp	00292$
   1B63                    5319 00659$:
                    1B63   5320 	C$uip.c$1524$5$69 ==.
                           5321 ;	..\uip\uip.c:1524: } else if (opt == TCP_OPT_NOOP) {
   1B63 BA 01 08           5322 	cjne	r2,#0x01,00283$
                    1B66   5323 	C$uip.c$1525$6$71 ==.
                           5324 ;	..\uip\uip.c:1525: ++c;
   1B66 90s0Dr5E           5325 	mov	dptr,#_c
   1B69 EC                 5326 	mov	a,r4
   1B6A 04                 5327 	inc	a
   1B6B F0                 5328 	movx	@dptr,a
   1B6C 80 99              5329 	sjmp	00288$
   1B6E                    5330 00283$:
                    1B6E   5331 	C$uip.c$1527$5$69 ==.
                           5332 ;	..\uip\uip.c:1527: } else if (opt == TCP_OPT_MSS &&
   1B6E BA 02 02           5333 	cjne	r2,#0x02,00662$
   1B71 80 03              5334 	sjmp	00663$
   1B73                    5335 00662$:
   1B73 02s1Cr2F           5336 	ljmp	00279$
   1B76                    5337 00663$:
                    1B76   5338 	C$uip.c$1528$5$69 ==.
                           5339 ;	..\uip\uip.c:1528: uip_buf[UIP_TCPIP_HLEN + UIP_LLH_LEN + 1 + c] == TCP_OPT_MSS_LEN) {
   1B76 74 37              5340 	mov	a,#0x37
   1B78 25*06              5341 	add	a,_uip_process_sloc0_1_0
   1B7A FA                 5342 	mov	r2,a
   1B7B E4                 5343 	clr	a
   1B7C 35*07              5344 	addc	a,(_uip_process_sloc0_1_0 + 1)
   1B7E FB                 5345 	mov	r3,a
   1B7F EA                 5346 	mov	a,r2
   1B80 24r0C              5347 	add	a,#_uip_buf
   1B82 F5 82              5348 	mov	dpl,a
   1B84 EB                 5349 	mov	a,r3
   1B85 34s00              5350 	addc	a,#(_uip_buf >> 8)
   1B87 F5 83              5351 	mov	dph,a
   1B89 E0                 5352 	movx	a,@dptr
   1B8A FA                 5353 	mov	r2,a
   1B8B BA 04 02           5354 	cjne	r2,#0x04,00664$
   1B8E 80 03              5355 	sjmp	00665$
   1B90                    5356 00664$:
   1B90 02s1Cr2F           5357 	ljmp	00279$
   1B93                    5358 00665$:
                    1B93   5359 	C$uip.c$1530$6$72 ==.
                           5360 ;	..\uip\uip.c:1530: tmp16 = (uip_buf[UIP_TCPIP_HLEN + UIP_LLH_LEN + 2 + c] << 8) |
   1B93 74 38              5361 	mov	a,#0x38
   1B95 25*06              5362 	add	a,_uip_process_sloc0_1_0
   1B97 FA                 5363 	mov	r2,a
   1B98 E4                 5364 	clr	a
   1B99 35*07              5365 	addc	a,(_uip_process_sloc0_1_0 + 1)
   1B9B FB                 5366 	mov	r3,a
   1B9C EA                 5367 	mov	a,r2
   1B9D 24r0C              5368 	add	a,#_uip_buf
   1B9F F5 82              5369 	mov	dpl,a
   1BA1 EB                 5370 	mov	a,r3
   1BA2 34s00              5371 	addc	a,#(_uip_buf >> 8)
   1BA4 F5 83              5372 	mov	dph,a
   1BA6 E0                 5373 	movx	a,@dptr
   1BA7 FB                 5374 	mov	r3,a
   1BA8 7A 00              5375 	mov	r2,#0x00
                    1BAA   5376 	C$uip.c$1531$6$72 ==.
                           5377 ;	..\uip\uip.c:1531: uip_buf[UIP_TCPIP_HLEN + UIP_LLH_LEN + 3 + c];
   1BAA 74 39              5378 	mov	a,#0x39
   1BAC 25*06              5379 	add	a,_uip_process_sloc0_1_0
   1BAE FC                 5380 	mov	r4,a
   1BAF E4                 5381 	clr	a
   1BB0 35*07              5382 	addc	a,(_uip_process_sloc0_1_0 + 1)
   1BB2 F9                 5383 	mov	r1,a
   1BB3 EC                 5384 	mov	a,r4
   1BB4 24r0C              5385 	add	a,#_uip_buf
   1BB6 F5 82              5386 	mov	dpl,a
   1BB8 E9                 5387 	mov	a,r1
   1BB9 34s00              5388 	addc	a,#(_uip_buf >> 8)
   1BBB F5 83              5389 	mov	dph,a
   1BBD E0                 5390 	movx	a,@dptr
   1BBE 79 00              5391 	mov	r1,#0x00
   1BC0 4A                 5392 	orl	a,r2
   1BC1 F5*06              5393 	mov	_uip_process_sloc0_1_0,a
   1BC3 E9                 5394 	mov	a,r1
   1BC4 4B                 5395 	orl	a,r3
   1BC5 F5*07              5396 	mov	(_uip_process_sloc0_1_0 + 1),a
   1BC7 90s0Dr60           5397 	mov	dptr,#_tmp16
   1BCA E5*06              5398 	mov	a,_uip_process_sloc0_1_0
   1BCC F0                 5399 	movx	@dptr,a
   1BCD A3                 5400 	inc	dptr
   1BCE E5*07              5401 	mov	a,(_uip_process_sloc0_1_0 + 1)
   1BD0 F0                 5402 	movx	@dptr,a
                    1BD1   5403 	C$uip.c$1532$6$72 ==.
                           5404 ;	..\uip\uip.c:1532: uip_connr->initialmss =
   1BD1 90s0Dr83           5405 	mov	dptr,#_uip_process_uip_connr_1_1
   1BD4 E0                 5406 	movx	a,@dptr
   1BD5 FC                 5407 	mov	r4,a
   1BD6 A3                 5408 	inc	dptr
   1BD7 E0                 5409 	movx	a,@dptr
   1BD8 F9                 5410 	mov	r1,a
   1BD9 A3                 5411 	inc	dptr
   1BDA E0                 5412 	movx	a,@dptr
   1BDB FA                 5413 	mov	r2,a
   1BDC 74 14              5414 	mov	a,#0x14
   1BDE 2C                 5415 	add	a,r4
   1BDF F5*0E              5416 	mov	_uip_process_sloc4_1_0,a
   1BE1 E4                 5417 	clr	a
   1BE2 39                 5418 	addc	a,r1
   1BE3 F5*0F              5419 	mov	(_uip_process_sloc4_1_0 + 1),a
   1BE5 8A*10              5420 	mov	(_uip_process_sloc4_1_0 + 2),r2
                    1BE7   5421 	C$uip.c$1533$6$72 ==.
                           5422 ;	..\uip\uip.c:1533: uip_connr->mss = tmp16 > UIP_TCP_MSS? UIP_TCP_MSS: tmp16;
   1BE7 74 12              5423 	mov	a,#0x12
   1BE9 2C                 5424 	add	a,r4
   1BEA F5*11              5425 	mov	_uip_process_sloc5_1_0,a
   1BEC E4                 5426 	clr	a
   1BED 39                 5427 	addc	a,r1
   1BEE F5*12              5428 	mov	(_uip_process_sloc5_1_0 + 1),a
   1BF0 8A*13              5429 	mov	(_uip_process_sloc5_1_0 + 2),r2
   1BF2 A9*06              5430 	mov	r1,_uip_process_sloc0_1_0
   1BF4 AA*07              5431 	mov	r2,(_uip_process_sloc0_1_0 + 1)
   1BF6 C3                 5432 	clr	c
   1BF7 74 5A              5433 	mov	a,#0x5A
   1BF9 99                 5434 	subb	a,r1
   1BFA 74 01              5435 	mov	a,#0x01
   1BFC 9A                 5436 	subb	a,r2
   1BFD 50 06              5437 	jnc	00394$
   1BFF 7A 5A              5438 	mov	r2,#0x5A
   1C01 7B 01              5439 	mov	r3,#0x01
   1C03 80 04              5440 	sjmp	00395$
   1C05                    5441 00394$:
   1C05 AA*06              5442 	mov	r2,_uip_process_sloc0_1_0
   1C07 AB*07              5443 	mov	r3,(_uip_process_sloc0_1_0 + 1)
   1C09                    5444 00395$:
   1C09 85*11 82           5445 	mov	dpl,_uip_process_sloc5_1_0
   1C0C 85*12 83           5446 	mov	dph,(_uip_process_sloc5_1_0 + 1)
   1C0F 85*13 F0           5447 	mov	b,(_uip_process_sloc5_1_0 + 2)
   1C12 EA                 5448 	mov	a,r2
   1C13 12s00r00           5449 	lcall	__gptrput
   1C16 A3                 5450 	inc	dptr
   1C17 EB                 5451 	mov	a,r3
   1C18 12s00r00           5452 	lcall	__gptrput
   1C1B 85*0E 82           5453 	mov	dpl,_uip_process_sloc4_1_0
   1C1E 85*0F 83           5454 	mov	dph,(_uip_process_sloc4_1_0 + 1)
   1C21 85*10 F0           5455 	mov	b,(_uip_process_sloc4_1_0 + 2)
   1C24 EA                 5456 	mov	a,r2
   1C25 12s00r00           5457 	lcall	__gptrput
   1C28 A3                 5458 	inc	dptr
   1C29 EB                 5459 	mov	a,r3
   1C2A 12s00r00           5460 	lcall	__gptrput
                    1C2D   5461 	C$uip.c$1536$6$72 ==.
                           5462 ;	..\uip\uip.c:1536: break;
   1C2D 80 3C              5463 	sjmp	00292$
   1C2F                    5464 00279$:
                    1C2F   5465 	C$uip.c$1540$6$73 ==.
                           5466 ;	..\uip\uip.c:1540: if (uip_buf[UIP_TCPIP_HLEN + UIP_LLH_LEN + 1 + c] == 0) {
   1C2F 90s0Dr5E           5467 	mov	dptr,#_c
   1C32 E0                 5468 	movx	a,@dptr
   1C33 F5*11              5469 	mov	_uip_process_sloc5_1_0,a
   1C35 AB*11              5470 	mov	r3,_uip_process_sloc5_1_0
   1C37 7C 00              5471 	mov	r4,#0x00
   1C39 74 37              5472 	mov	a,#0x37
   1C3B 2B                 5473 	add	a,r3
   1C3C F9                 5474 	mov	r1,a
   1C3D E4                 5475 	clr	a
   1C3E 3C                 5476 	addc	a,r4
   1C3F FA                 5477 	mov	r2,a
   1C40 E9                 5478 	mov	a,r1
   1C41 24r0C              5479 	add	a,#_uip_buf
   1C43 F9                 5480 	mov	r1,a
   1C44 EA                 5481 	mov	a,r2
   1C45 34s00              5482 	addc	a,#(_uip_buf >> 8)
   1C47 FA                 5483 	mov	r2,a
   1C48 89 82              5484 	mov	dpl,r1
   1C4A 8A 83              5485 	mov	dph,r2
   1C4C E0                 5486 	movx	a,@dptr
   1C4D 60 1C              5487 	jz	00292$
                    1C4F   5488 	C$uip.c$1545$6$73 ==.
                           5489 ;	..\uip\uip.c:1545: c += uip_buf[UIP_TCPIP_HLEN + UIP_LLH_LEN + 1 + c];
   1C4F 74 37              5490 	mov	a,#0x37
   1C51 2B                 5491 	add	a,r3
   1C52 FB                 5492 	mov	r3,a
   1C53 E4                 5493 	clr	a
   1C54 3C                 5494 	addc	a,r4
   1C55 FC                 5495 	mov	r4,a
   1C56 EB                 5496 	mov	a,r3
   1C57 24r0C              5497 	add	a,#_uip_buf
   1C59 F5 82              5498 	mov	dpl,a
   1C5B EC                 5499 	mov	a,r4
   1C5C 34s00              5500 	addc	a,#(_uip_buf >> 8)
   1C5E F5 83              5501 	mov	dph,a
   1C60 E0                 5502 	movx	a,@dptr
   1C61 FA                 5503 	mov	r2,a
   1C62 90s0Dr5E           5504 	mov	dptr,#_c
   1C65 25*11              5505 	add	a,_uip_process_sloc5_1_0
   1C67 F0                 5506 	movx	@dptr,a
   1C68 02s1Br07           5507 	ljmp	00288$
   1C6B                    5508 00292$:
                    1C6B   5509 	C$uip.c$1549$3$67 ==.
                           5510 ;	..\uip\uip.c:1549: uip_connr->tcpstateflags = UIP_ESTABLISHED;
   1C6B 90s0Dr83           5511 	mov	dptr,#_uip_process_uip_connr_1_1
   1C6E E0                 5512 	movx	a,@dptr
   1C6F F5*11              5513 	mov	_uip_process_sloc5_1_0,a
   1C71 A3                 5514 	inc	dptr
   1C72 E0                 5515 	movx	a,@dptr
   1C73 F5*12              5516 	mov	(_uip_process_sloc5_1_0 + 1),a
   1C75 A3                 5517 	inc	dptr
   1C76 E0                 5518 	movx	a,@dptr
   1C77 F5*13              5519 	mov	(_uip_process_sloc5_1_0 + 2),a
   1C79 74 19              5520 	mov	a,#0x19
   1C7B 25*11              5521 	add	a,_uip_process_sloc5_1_0
   1C7D F9                 5522 	mov	r1,a
   1C7E E4                 5523 	clr	a
   1C7F 35*12              5524 	addc	a,(_uip_process_sloc5_1_0 + 1)
   1C81 FA                 5525 	mov	r2,a
   1C82 AB*13              5526 	mov	r3,(_uip_process_sloc5_1_0 + 2)
   1C84 89 82              5527 	mov	dpl,r1
   1C86 8A 83              5528 	mov	dph,r2
   1C88 8B F0              5529 	mov	b,r3
   1C8A 74 03              5530 	mov	a,#0x03
   1C8C 12s00r00           5531 	lcall	__gptrput
                    1C8F   5532 	C$uip.c$1550$3$67 ==.
                           5533 ;	..\uip\uip.c:1550: uip_connr->rcv_nxt[0] = BUF->seqno[0];
   1C8F 74 08              5534 	mov	a,#0x08
   1C91 25*11              5535 	add	a,_uip_process_sloc5_1_0
   1C93 F5*0E              5536 	mov	_uip_process_sloc4_1_0,a
   1C95 E4                 5537 	clr	a
   1C96 35*12              5538 	addc	a,(_uip_process_sloc5_1_0 + 1)
   1C98 F5*0F              5539 	mov	(_uip_process_sloc4_1_0 + 1),a
   1C9A 85*13*10           5540 	mov	(_uip_process_sloc4_1_0 + 2),(_uip_process_sloc5_1_0 + 2)
   1C9D 79r32              5541 	mov	r1,#(_uip_buf + 0x0026)
   1C9F 7As00              5542 	mov	r2,#((_uip_buf + 0x0026) >> 8)
   1CA1 7B 00              5543 	mov	r3,#0x00
   1CA3 89 82              5544 	mov	dpl,r1
   1CA5 8A 83              5545 	mov	dph,r2
   1CA7 8B F0              5546 	mov	b,r3
   1CA9 12s00r00           5547 	lcall	__gptrget
   1CAC 85*0E 82           5548 	mov	dpl,_uip_process_sloc4_1_0
   1CAF 85*0F 83           5549 	mov	dph,(_uip_process_sloc4_1_0 + 1)
   1CB2 85*10 F0           5550 	mov	b,(_uip_process_sloc4_1_0 + 2)
   1CB5 12s00r00           5551 	lcall	__gptrput
                    1CB8   5552 	C$uip.c$1551$3$67 ==.
                           5553 ;	..\uip\uip.c:1551: uip_connr->rcv_nxt[1] = BUF->seqno[1];
   1CB8 74 08              5554 	mov	a,#0x08
   1CBA 25*11              5555 	add	a,_uip_process_sloc5_1_0
   1CBC F5*0E              5556 	mov	_uip_process_sloc4_1_0,a
   1CBE E4                 5557 	clr	a
   1CBF 35*12              5558 	addc	a,(_uip_process_sloc5_1_0 + 1)
   1CC1 F5*0F              5559 	mov	(_uip_process_sloc4_1_0 + 1),a
   1CC3 85*13*10           5560 	mov	(_uip_process_sloc4_1_0 + 2),(_uip_process_sloc5_1_0 + 2)
   1CC6 74 01              5561 	mov	a,#0x01
   1CC8 25*0E              5562 	add	a,_uip_process_sloc4_1_0
   1CCA F9                 5563 	mov	r1,a
   1CCB E4                 5564 	clr	a
   1CCC 35*0F              5565 	addc	a,(_uip_process_sloc4_1_0 + 1)
   1CCE FA                 5566 	mov	r2,a
   1CCF AB*10              5567 	mov	r3,(_uip_process_sloc4_1_0 + 2)
   1CD1 90s00r33           5568 	mov	dptr,#(_uip_buf + 0x0027)
   1CD4 75 F0 00           5569 	mov	b,#0x00
   1CD7 12s00r00           5570 	lcall	__gptrget
   1CDA 89 82              5571 	mov	dpl,r1
   1CDC 8A 83              5572 	mov	dph,r2
   1CDE 8B F0              5573 	mov	b,r3
   1CE0 12s00r00           5574 	lcall	__gptrput
                    1CE3   5575 	C$uip.c$1552$3$67 ==.
                           5576 ;	..\uip\uip.c:1552: uip_connr->rcv_nxt[2] = BUF->seqno[2];
   1CE3 74 02              5577 	mov	a,#0x02
   1CE5 25*0E              5578 	add	a,_uip_process_sloc4_1_0
   1CE7 FA                 5579 	mov	r2,a
   1CE8 E4                 5580 	clr	a
   1CE9 35*0F              5581 	addc	a,(_uip_process_sloc4_1_0 + 1)
   1CEB FB                 5582 	mov	r3,a
   1CEC AC*10              5583 	mov	r4,(_uip_process_sloc4_1_0 + 2)
   1CEE 90s00r34           5584 	mov	dptr,#(_uip_buf + 0x0028)
   1CF1 75 F0 00           5585 	mov	b,#0x00
   1CF4 12s00r00           5586 	lcall	__gptrget
   1CF7 8A 82              5587 	mov	dpl,r2
   1CF9 8B 83              5588 	mov	dph,r3
   1CFB 8C F0              5589 	mov	b,r4
   1CFD 12s00r00           5590 	lcall	__gptrput
                    1D00   5591 	C$uip.c$1553$3$67 ==.
                           5592 ;	..\uip\uip.c:1553: uip_connr->rcv_nxt[3] = BUF->seqno[3];
   1D00 74 03              5593 	mov	a,#0x03
   1D02 25*0E              5594 	add	a,_uip_process_sloc4_1_0
   1D04 FA                 5595 	mov	r2,a
   1D05 E4                 5596 	clr	a
   1D06 35*0F              5597 	addc	a,(_uip_process_sloc4_1_0 + 1)
   1D08 FB                 5598 	mov	r3,a
   1D09 AC*10              5599 	mov	r4,(_uip_process_sloc4_1_0 + 2)
   1D0B 90s00r35           5600 	mov	dptr,#(_uip_buf + 0x0029)
   1D0E 75 F0 00           5601 	mov	b,#0x00
   1D11 12s00r00           5602 	lcall	__gptrget
   1D14 8A 82              5603 	mov	dpl,r2
   1D16 8B 83              5604 	mov	dph,r3
   1D18 8C F0              5605 	mov	b,r4
   1D1A 12s00r00           5606 	lcall	__gptrput
                    1D1D   5607 	C$uip.c$1554$3$67 ==.
                           5608 ;	..\uip\uip.c:1554: uip_add_rcv_nxt(1);
   1D1D 90 00 01           5609 	mov	dptr,#0x0001
   1D20 12s08r2D           5610 	lcall	_uip_add_rcv_nxt
                    1D23   5611 	C$uip.c$1555$3$67 ==.
                           5612 ;	..\uip\uip.c:1555: uip_flags = UIP_CONNECTED | UIP_NEWDATA;
   1D23 90s01rA8           5613 	mov	dptr,#_uip_flags
   1D26 74 42              5614 	mov	a,#0x42
   1D28 F0                 5615 	movx	@dptr,a
                    1D29   5616 	C$uip.c$1556$3$67 ==.
                           5617 ;	..\uip\uip.c:1556: uip_connr->len = 0;
   1D29 74 10              5618 	mov	a,#0x10
   1D2B 25*11              5619 	add	a,_uip_process_sloc5_1_0
   1D2D FA                 5620 	mov	r2,a
   1D2E E4                 5621 	clr	a
   1D2F 35*12              5622 	addc	a,(_uip_process_sloc5_1_0 + 1)
   1D31 FB                 5623 	mov	r3,a
   1D32 AC*13              5624 	mov	r4,(_uip_process_sloc5_1_0 + 2)
   1D34 8A 82              5625 	mov	dpl,r2
   1D36 8B 83              5626 	mov	dph,r3
   1D38 8C F0              5627 	mov	b,r4
   1D3A E4                 5628 	clr	a
   1D3B 12s00r00           5629 	lcall	__gptrput
   1D3E A3                 5630 	inc	dptr
   1D3F E4                 5631 	clr	a
   1D40 12s00r00           5632 	lcall	__gptrput
                    1D43   5633 	C$uip.c$1557$3$67 ==.
                           5634 ;	..\uip\uip.c:1557: uip_len = 0;
   1D43 90s01rA4           5635 	mov	dptr,#_uip_len
   1D46 E4                 5636 	clr	a
   1D47 F0                 5637 	movx	@dptr,a
   1D48 A3                 5638 	inc	dptr
   1D49 F0                 5639 	movx	@dptr,a
                    1D4A   5640 	C$uip.c$1558$3$67 ==.
                           5641 ;	..\uip\uip.c:1558: uip_slen = 0;
   1D4A 90s01rA6           5642 	mov	dptr,#_uip_slen
   1D4D E4                 5643 	clr	a
   1D4E F0                 5644 	movx	@dptr,a
   1D4F A3                 5645 	inc	dptr
   1D50 F0                 5646 	movx	@dptr,a
                    1D51   5647 	C$uip.c$1559$3$67 ==.
                           5648 ;	..\uip\uip.c:1559: UIP_APPCALL();
   1D51 12s00r00           5649 	lcall	_uip_tcp_app_exec
                    1D54   5650 	C$uip.c$1560$3$67 ==.
                           5651 ;	..\uip\uip.c:1560: goto appsend;
   1D54 02s1FrC1           5652 	ljmp	00313$
   1D57                    5653 00294$:
                    1D57   5654 	C$uip.c$1563$2$63 ==.
                           5655 ;	..\uip\uip.c:1563: uip_flags = UIP_ABORT;
   1D57 90s01rA8           5656 	mov	dptr,#_uip_flags
   1D5A 74 20              5657 	mov	a,#0x20
   1D5C F0                 5658 	movx	@dptr,a
                    1D5D   5659 	C$uip.c$1564$2$63 ==.
                           5660 ;	..\uip\uip.c:1564: UIP_APPCALL();
   1D5D 12s00r00           5661 	lcall	_uip_tcp_app_exec
                    1D60   5662 	C$uip.c$1566$2$63 ==.
                           5663 ;	..\uip\uip.c:1566: uip_conn->tcpstateflags = UIP_CLOSED;
   1D60 90s01rA9           5664 	mov	dptr,#_uip_conn
   1D63 E0                 5665 	movx	a,@dptr
   1D64 FA                 5666 	mov	r2,a
   1D65 A3                 5667 	inc	dptr
   1D66 E0                 5668 	movx	a,@dptr
   1D67 FB                 5669 	mov	r3,a
   1D68 A3                 5670 	inc	dptr
   1D69 E0                 5671 	movx	a,@dptr
   1D6A FC                 5672 	mov	r4,a
   1D6B 74 19              5673 	mov	a,#0x19
   1D6D 2A                 5674 	add	a,r2
   1D6E FA                 5675 	mov	r2,a
   1D6F E4                 5676 	clr	a
   1D70 3B                 5677 	addc	a,r3
   1D71 FB                 5678 	mov	r3,a
   1D72 8A 82              5679 	mov	dpl,r2
   1D74 8B 83              5680 	mov	dph,r3
   1D76 8C F0              5681 	mov	b,r4
   1D78 E4                 5682 	clr	a
   1D79 12s00r00           5683 	lcall	__gptrput
                    1D7C   5684 	C$uip.c$1567$2$63 ==.
                           5685 ;	..\uip\uip.c:1567: goto reset;
   1D7C 02s0Fr4E           5686 	ljmp	00190$
                    1D7F   5687 	C$uip.c$1570$2$63 ==.
                           5688 ;	..\uip\uip.c:1570: case UIP_ESTABLISHED:
   1D7F                    5689 00296$:
                    1D7F   5690 	C$uip.c$1582$2$63 ==.
                           5691 ;	..\uip\uip.c:1582: if (BUF->flags & TCP_FIN && !(uip_connr->tcpstateflags & UIP_STOPPED)) {
   1D7F 90s00r3B           5692 	mov	dptr,#(_uip_buf + 0x002f)
   1D82 75 F0 00           5693 	mov	b,#0x00
   1D85 12s00r00           5694 	lcall	__gptrget
   1D88 FA                 5695 	mov	r2,a
   1D89 20 E0 03           5696 	jb	acc.0,00668$
   1D8C 02s1Er49           5697 	ljmp	00303$
   1D8F                    5698 00668$:
   1D8F E8                 5699 	mov	a,r0
   1D90 30 E4 03           5700 	jnb	acc.4,00669$
   1D93 02s1Er49           5701 	ljmp	00303$
   1D96                    5702 00669$:
                    1D96   5703 	C$uip.c$1583$3$75 ==.
                           5704 ;	..\uip\uip.c:1583: if (uip_outstanding(uip_connr)) {
   1D96 74 10              5705 	mov	a,#0x10
   1D98 25*0B              5706 	add	a,_uip_process_sloc3_1_0
   1D9A FA                 5707 	mov	r2,a
   1D9B E4                 5708 	clr	a
   1D9C 35*0C              5709 	addc	a,(_uip_process_sloc3_1_0 + 1)
   1D9E FB                 5710 	mov	r3,a
   1D9F AC*0D              5711 	mov	r4,(_uip_process_sloc3_1_0 + 2)
   1DA1 8A 82              5712 	mov	dpl,r2
   1DA3 8B 83              5713 	mov	dph,r3
   1DA5 8C F0              5714 	mov	b,r4
   1DA7 12s00r00           5715 	lcall	__gptrget
   1DAA FA                 5716 	mov	r2,a
   1DAB A3                 5717 	inc	dptr
   1DAC 12s00r00           5718 	lcall	__gptrget
   1DAF FB                 5719 	mov	r3,a
   1DB0 4A                 5720 	orl	a,r2
   1DB1 60 03              5721 	jz	00670$
   1DB3 02s27r06           5722 	ljmp	00379$
   1DB6                    5723 00670$:
                    1DB6   5724 	C$uip.c$1586$3$75 ==.
                           5725 ;	..\uip\uip.c:1586: uip_add_rcv_nxt(1 + uip_len);
   1DB6 90s01rA4           5726 	mov	dptr,#_uip_len
   1DB9 E0                 5727 	movx	a,@dptr
   1DBA FA                 5728 	mov	r2,a
   1DBB A3                 5729 	inc	dptr
   1DBC E0                 5730 	movx	a,@dptr
   1DBD FB                 5731 	mov	r3,a
   1DBE 0A                 5732 	inc	r2
   1DBF BA 00 01           5733 	cjne	r2,#0x00,00671$
   1DC2 0B                 5734 	inc	r3
   1DC3                    5735 00671$:
   1DC3 8A 82              5736 	mov	dpl,r2
   1DC5 8B 83              5737 	mov	dph,r3
   1DC7 12s08r2D           5738 	lcall	_uip_add_rcv_nxt
                    1DCA   5739 	C$uip.c$1587$3$75 ==.
                           5740 ;	..\uip\uip.c:1587: uip_flags |= UIP_CLOSE;
   1DCA 90s01rA8           5741 	mov	dptr,#_uip_flags
   1DCD E0                 5742 	movx	a,@dptr
   1DCE 44 10              5743 	orl	a,#0x10
   1DD0 F0                 5744 	movx	@dptr,a
                    1DD1   5745 	C$uip.c$1588$3$75 ==.
                           5746 ;	..\uip\uip.c:1588: if (uip_len > 0) {
   1DD1 90s01rA4           5747 	mov	dptr,#_uip_len
   1DD4 E0                 5748 	movx	a,@dptr
   1DD5 FA                 5749 	mov	r2,a
   1DD6 A3                 5750 	inc	dptr
   1DD7 E0                 5751 	movx	a,@dptr
   1DD8 FB                 5752 	mov	r3,a
   1DD9 4A                 5753 	orl	a,r2
   1DDA 60 08              5754 	jz	00300$
                    1DDC   5755 	C$uip.c$1589$4$77 ==.
                           5756 ;	..\uip\uip.c:1589: uip_flags |= UIP_NEWDATA;
   1DDC 90s01rA8           5757 	mov	dptr,#_uip_flags
   1DDF E0                 5758 	movx	a,@dptr
   1DE0 FA                 5759 	mov	r2,a
   1DE1 44 02              5760 	orl	a,#0x02
   1DE3 F0                 5761 	movx	@dptr,a
   1DE4                    5762 00300$:
                    1DE4   5763 	C$uip.c$1591$3$75 ==.
                           5764 ;	..\uip\uip.c:1591: UIP_APPCALL();
   1DE4 12s00r00           5765 	lcall	_uip_tcp_app_exec
                    1DE7   5766 	C$uip.c$1592$3$75 ==.
                           5767 ;	..\uip\uip.c:1592: uip_connr->len = 1;
   1DE7 90s0Dr83           5768 	mov	dptr,#_uip_process_uip_connr_1_1
   1DEA E0                 5769 	movx	a,@dptr
   1DEB F5*11              5770 	mov	_uip_process_sloc5_1_0,a
   1DED A3                 5771 	inc	dptr
   1DEE E0                 5772 	movx	a,@dptr
   1DEF F5*12              5773 	mov	(_uip_process_sloc5_1_0 + 1),a
   1DF1 A3                 5774 	inc	dptr
   1DF2 E0                 5775 	movx	a,@dptr
   1DF3 F5*13              5776 	mov	(_uip_process_sloc5_1_0 + 2),a
   1DF5 74 10              5777 	mov	a,#0x10
   1DF7 25*11              5778 	add	a,_uip_process_sloc5_1_0
   1DF9 F8                 5779 	mov	r0,a
   1DFA E4                 5780 	clr	a
   1DFB 35*12              5781 	addc	a,(_uip_process_sloc5_1_0 + 1)
   1DFD F9                 5782 	mov	r1,a
   1DFE AA*13              5783 	mov	r2,(_uip_process_sloc5_1_0 + 2)
   1E00 88 82              5784 	mov	dpl,r0
   1E02 89 83              5785 	mov	dph,r1
   1E04 8A F0              5786 	mov	b,r2
   1E06 74 01              5787 	mov	a,#0x01
   1E08 12s00r00           5788 	lcall	__gptrput
   1E0B A3                 5789 	inc	dptr
   1E0C E4                 5790 	clr	a
   1E0D 12s00r00           5791 	lcall	__gptrput
                    1E10   5792 	C$uip.c$1593$3$75 ==.
                           5793 ;	..\uip\uip.c:1593: uip_connr->tcpstateflags = UIP_LAST_ACK;
   1E10 74 19              5794 	mov	a,#0x19
   1E12 25*11              5795 	add	a,_uip_process_sloc5_1_0
   1E14 FA                 5796 	mov	r2,a
   1E15 E4                 5797 	clr	a
   1E16 35*12              5798 	addc	a,(_uip_process_sloc5_1_0 + 1)
   1E18 FB                 5799 	mov	r3,a
   1E19 AC*13              5800 	mov	r4,(_uip_process_sloc5_1_0 + 2)
   1E1B 8A 82              5801 	mov	dpl,r2
   1E1D 8B 83              5802 	mov	dph,r3
   1E1F 8C F0              5803 	mov	b,r4
   1E21 74 08              5804 	mov	a,#0x08
   1E23 12s00r00           5805 	lcall	__gptrput
                    1E26   5806 	C$uip.c$1594$3$75 ==.
                           5807 ;	..\uip\uip.c:1594: uip_connr->nrtx = 0;
   1E26 74 1B              5808 	mov	a,#0x1B
   1E28 25*11              5809 	add	a,_uip_process_sloc5_1_0
   1E2A FA                 5810 	mov	r2,a
   1E2B E4                 5811 	clr	a
   1E2C 35*12              5812 	addc	a,(_uip_process_sloc5_1_0 + 1)
   1E2E FB                 5813 	mov	r3,a
   1E2F AC*13              5814 	mov	r4,(_uip_process_sloc5_1_0 + 2)
   1E31 8A 82              5815 	mov	dpl,r2
   1E33 8B 83              5816 	mov	dph,r3
   1E35 8C F0              5817 	mov	b,r4
   1E37 E4                 5818 	clr	a
   1E38 12s00r00           5819 	lcall	__gptrput
                    1E3B   5820 	C$uip.c$1595$3$75 ==.
                           5821 ;	..\uip\uip.c:1595: tcp_send_finack:
   1E3B                    5822 00301$:
                    1E3B   5823 	C$uip.c$1596$3$75 ==.
                           5824 ;	..\uip\uip.c:1596: BUF->flags = TCP_FIN | TCP_ACK;
   1E3B 90s00r3B           5825 	mov	dptr,#(_uip_buf + 0x002f)
   1E3E 75 F0 00           5826 	mov	b,#0x00
   1E41 74 11              5827 	mov	a,#0x11
   1E43 12s00r00           5828 	lcall	__gptrput
                    1E46   5829 	C$uip.c$1597$3$75 ==.
                           5830 ;	..\uip\uip.c:1597: goto tcp_send_nodata;
   1E46 02s23rAF           5831 	ljmp	00364$
   1E49                    5832 00303$:
                    1E49   5833 	C$uip.c$1602$2$63 ==.
                           5834 ;	..\uip\uip.c:1602: if ((BUF->flags & TCP_URG) != 0) {
   1E49 90s00r3B           5835 	mov	dptr,#(_uip_buf + 0x002f)
   1E4C 75 F0 00           5836 	mov	b,#0x00
   1E4F 12s00r00           5837 	lcall	__gptrget
   1E52 FA                 5838 	mov	r2,a
   1E53 30 E5 75           5839 	jnb	acc.5,00306$
                    1E56   5840 	C$uip.c$1616$3$78 ==.
                           5841 ;	..\uip\uip.c:1616: uip_appdata = ((char *)uip_appdata) + ((BUF->urgp[0] << 8) | BUF->urgp[1]);
   1E56 90s01r9E           5842 	mov	dptr,#_uip_appdata
   1E59 E0                 5843 	movx	a,@dptr
   1E5A F5*11              5844 	mov	_uip_process_sloc5_1_0,a
   1E5C A3                 5845 	inc	dptr
   1E5D E0                 5846 	movx	a,@dptr
   1E5E F5*12              5847 	mov	(_uip_process_sloc5_1_0 + 1),a
   1E60 A3                 5848 	inc	dptr
   1E61 E0                 5849 	movx	a,@dptr
   1E62 F5*13              5850 	mov	(_uip_process_sloc5_1_0 + 2),a
   1E64 78r40              5851 	mov	r0,#(_uip_buf + 0x0034)
   1E66 79s00              5852 	mov	r1,#((_uip_buf + 0x0034) >> 8)
   1E68 7A 00              5853 	mov	r2,#0x00
   1E6A 88 82              5854 	mov	dpl,r0
   1E6C 89 83              5855 	mov	dph,r1
   1E6E 8A F0              5856 	mov	b,r2
   1E70 12s00r00           5857 	lcall	__gptrget
   1E73 FA                 5858 	mov	r2,a
   1E74 78 00              5859 	mov	r0,#0x00
   1E76 90s00r41           5860 	mov	dptr,#(_uip_buf + 0x0035)
   1E79 75 F0 00           5861 	mov	b,#0x00
   1E7C 12s00r00           5862 	lcall	__gptrget
   1E7F 7C 00              5863 	mov	r4,#0x00
   1E81 42 00              5864 	orl	ar0,a
   1E83 EC                 5865 	mov	a,r4
   1E84 42 02              5866 	orl	ar2,a
   1E86 90s01r9E           5867 	mov	dptr,#_uip_appdata
   1E89 E8                 5868 	mov	a,r0
   1E8A 25*11              5869 	add	a,_uip_process_sloc5_1_0
   1E8C F0                 5870 	movx	@dptr,a
   1E8D EA                 5871 	mov	a,r2
   1E8E 35*12              5872 	addc	a,(_uip_process_sloc5_1_0 + 1)
   1E90 A3                 5873 	inc	dptr
   1E91 F0                 5874 	movx	@dptr,a
   1E92 A3                 5875 	inc	dptr
   1E93 E5*13              5876 	mov	a,(_uip_process_sloc5_1_0 + 2)
   1E95 F0                 5877 	movx	@dptr,a
                    1E96   5878 	C$uip.c$1617$3$78 ==.
                           5879 ;	..\uip\uip.c:1617: uip_len -= (BUF->urgp[0] << 8) | BUF->urgp[1];
   1E96 7Ar40              5880 	mov	r2,#(_uip_buf + 0x0034)
   1E98 7Bs00              5881 	mov	r3,#((_uip_buf + 0x0034) >> 8)
   1E9A 7C 00              5882 	mov	r4,#0x00
   1E9C 8A 82              5883 	mov	dpl,r2
   1E9E 8B 83              5884 	mov	dph,r3
   1EA0 8C F0              5885 	mov	b,r4
   1EA2 12s00r00           5886 	lcall	__gptrget
   1EA5 FB                 5887 	mov	r3,a
   1EA6 7A 00              5888 	mov	r2,#0x00
   1EA8 90s00r41           5889 	mov	dptr,#(_uip_buf + 0x0035)
   1EAB 75 F0 00           5890 	mov	b,#0x00
   1EAE 12s00r00           5891 	lcall	__gptrget
   1EB1 78 00              5892 	mov	r0,#0x00
   1EB3 42 02              5893 	orl	ar2,a
   1EB5 E8                 5894 	mov	a,r0
   1EB6 42 03              5895 	orl	ar3,a
   1EB8 90s01rA4           5896 	mov	dptr,#_uip_len
   1EBB E0                 5897 	movx	a,@dptr
   1EBC FC                 5898 	mov	r4,a
   1EBD A3                 5899 	inc	dptr
   1EBE E0                 5900 	movx	a,@dptr
   1EBF F8                 5901 	mov	r0,a
   1EC0 90s01rA4           5902 	mov	dptr,#_uip_len
   1EC3 EC                 5903 	mov	a,r4
   1EC4 C3                 5904 	clr	c
   1EC5 9A                 5905 	subb	a,r2
   1EC6 F0                 5906 	movx	@dptr,a
   1EC7 E8                 5907 	mov	a,r0
   1EC8 9B                 5908 	subb	a,r3
   1EC9 A3                 5909 	inc	dptr
   1ECA F0                 5910 	movx	@dptr,a
   1ECB                    5911 00306$:
                    1ECB   5912 	C$uip.c$1626$2$63 ==.
                           5913 ;	..\uip\uip.c:1626: if (uip_len > 0 && !(uip_connr->tcpstateflags & UIP_STOPPED)) {
   1ECB 90s01rA4           5914 	mov	dptr,#_uip_len
   1ECE E0                 5915 	movx	a,@dptr
   1ECF FA                 5916 	mov	r2,a
   1ED0 A3                 5917 	inc	dptr
   1ED1 E0                 5918 	movx	a,@dptr
   1ED2 FB                 5919 	mov	r3,a
   1ED3 4A                 5920 	orl	a,r2
   1ED4 60 2D              5921 	jz	00308$
   1ED6 90s0Dr83           5922 	mov	dptr,#_uip_process_uip_connr_1_1
   1ED9 E0                 5923 	movx	a,@dptr
   1EDA FC                 5924 	mov	r4,a
   1EDB A3                 5925 	inc	dptr
   1EDC E0                 5926 	movx	a,@dptr
   1EDD F8                 5927 	mov	r0,a
   1EDE A3                 5928 	inc	dptr
   1EDF E0                 5929 	movx	a,@dptr
   1EE0 F9                 5930 	mov	r1,a
   1EE1 74 19              5931 	mov	a,#0x19
   1EE3 2C                 5932 	add	a,r4
   1EE4 FC                 5933 	mov	r4,a
   1EE5 E4                 5934 	clr	a
   1EE6 38                 5935 	addc	a,r0
   1EE7 F8                 5936 	mov	r0,a
   1EE8 8C 82              5937 	mov	dpl,r4
   1EEA 88 83              5938 	mov	dph,r0
   1EEC 89 F0              5939 	mov	b,r1
   1EEE 12s00r00           5940 	lcall	__gptrget
   1EF1 FC                 5941 	mov	r4,a
   1EF2 20 E4 0E           5942 	jb	acc.4,00308$
                    1EF5   5943 	C$uip.c$1627$3$79 ==.
                           5944 ;	..\uip\uip.c:1627: uip_flags |= UIP_NEWDATA;
   1EF5 90s01rA8           5945 	mov	dptr,#_uip_flags
   1EF8 E0                 5946 	movx	a,@dptr
   1EF9 44 02              5947 	orl	a,#0x02
   1EFB F0                 5948 	movx	@dptr,a
                    1EFC   5949 	C$uip.c$1628$3$79 ==.
                           5950 ;	..\uip\uip.c:1628: uip_add_rcv_nxt(uip_len);
   1EFC 8A 82              5951 	mov	dpl,r2
   1EFE 8B 83              5952 	mov	dph,r3
   1F00 12s08r2D           5953 	lcall	_uip_add_rcv_nxt
   1F03                    5954 00308$:
                    1F03   5955 	C$uip.c$1643$2$63 ==.
                           5956 ;	..\uip\uip.c:1643: tmp16 = ((u16_t)BUF->wnd[0] << 8) + (u16_t)BUF->wnd[1];
   1F03 7Ar3C              5957 	mov	r2,#(_uip_buf + 0x0030)
   1F05 7Bs00              5958 	mov	r3,#((_uip_buf + 0x0030) >> 8)
   1F07 7C 00              5959 	mov	r4,#0x00
   1F09 8A 82              5960 	mov	dpl,r2
   1F0B 8B 83              5961 	mov	dph,r3
   1F0D 8C F0              5962 	mov	b,r4
   1F0F 12s00r00           5963 	lcall	__gptrget
   1F12 FB                 5964 	mov	r3,a
   1F13 7A 00              5965 	mov	r2,#0x00
   1F15 90s00r3D           5966 	mov	dptr,#(_uip_buf + 0x0031)
   1F18 75 F0 00           5967 	mov	b,#0x00
   1F1B 12s00r00           5968 	lcall	__gptrget
   1F1E 78 00              5969 	mov	r0,#0x00
   1F20 2A                 5970 	add	a,r2
   1F21 FA                 5971 	mov	r2,a
   1F22 E8                 5972 	mov	a,r0
   1F23 3B                 5973 	addc	a,r3
   1F24 FB                 5974 	mov	r3,a
   1F25 90s0Dr60           5975 	mov	dptr,#_tmp16
   1F28 EA                 5976 	mov	a,r2
   1F29 F0                 5977 	movx	@dptr,a
   1F2A A3                 5978 	inc	dptr
   1F2B EB                 5979 	mov	a,r3
   1F2C F0                 5980 	movx	@dptr,a
                    1F2D   5981 	C$uip.c$1644$2$63 ==.
                           5982 ;	..\uip\uip.c:1644: if (tmp16 > uip_connr->initialmss ||
   1F2D 90s0Dr83           5983 	mov	dptr,#_uip_process_uip_connr_1_1
   1F30 E0                 5984 	movx	a,@dptr
   1F31 FC                 5985 	mov	r4,a
   1F32 A3                 5986 	inc	dptr
   1F33 E0                 5987 	movx	a,@dptr
   1F34 F8                 5988 	mov	r0,a
   1F35 A3                 5989 	inc	dptr
   1F36 E0                 5990 	movx	a,@dptr
   1F37 F9                 5991 	mov	r1,a
   1F38 74 14              5992 	mov	a,#0x14
   1F3A 2C                 5993 	add	a,r4
   1F3B FC                 5994 	mov	r4,a
   1F3C E4                 5995 	clr	a
   1F3D 38                 5996 	addc	a,r0
   1F3E F8                 5997 	mov	r0,a
   1F3F 8C 82              5998 	mov	dpl,r4
   1F41 88 83              5999 	mov	dph,r0
   1F43 89 F0              6000 	mov	b,r1
   1F45 12s00r00           6001 	lcall	__gptrget
   1F48 FC                 6002 	mov	r4,a
   1F49 A3                 6003 	inc	dptr
   1F4A 12s00r00           6004 	lcall	__gptrget
   1F4D F8                 6005 	mov	r0,a
   1F4E C3                 6006 	clr	c
   1F4F EC                 6007 	mov	a,r4
   1F50 9A                 6008 	subb	a,r2
   1F51 E8                 6009 	mov	a,r0
   1F52 9B                 6010 	subb	a,r3
   1F53 40 04              6011 	jc	00310$
                    1F55   6012 	C$uip.c$1645$2$63 ==.
                           6013 ;	..\uip\uip.c:1645: tmp16 == 0) {
   1F55 EA                 6014 	mov	a,r2
   1F56 4B                 6015 	orl	a,r3
   1F57 70 29              6016 	jnz	00311$
   1F59                    6017 00310$:
                    1F59   6018 	C$uip.c$1646$3$80 ==.
                           6019 ;	..\uip\uip.c:1646: tmp16 = uip_connr->initialmss;
   1F59 90s0Dr83           6020 	mov	dptr,#_uip_process_uip_connr_1_1
   1F5C E0                 6021 	movx	a,@dptr
   1F5D FA                 6022 	mov	r2,a
   1F5E A3                 6023 	inc	dptr
   1F5F E0                 6024 	movx	a,@dptr
   1F60 FB                 6025 	mov	r3,a
   1F61 A3                 6026 	inc	dptr
   1F62 E0                 6027 	movx	a,@dptr
   1F63 FC                 6028 	mov	r4,a
   1F64 74 14              6029 	mov	a,#0x14
   1F66 2A                 6030 	add	a,r2
   1F67 FA                 6031 	mov	r2,a
   1F68 E4                 6032 	clr	a
   1F69 3B                 6033 	addc	a,r3
   1F6A FB                 6034 	mov	r3,a
   1F6B 8A 82              6035 	mov	dpl,r2
   1F6D 8B 83              6036 	mov	dph,r3
   1F6F 8C F0              6037 	mov	b,r4
   1F71 12s00r00           6038 	lcall	__gptrget
   1F74 FA                 6039 	mov	r2,a
   1F75 A3                 6040 	inc	dptr
   1F76 12s00r00           6041 	lcall	__gptrget
   1F79 FB                 6042 	mov	r3,a
   1F7A 90s0Dr60           6043 	mov	dptr,#_tmp16
   1F7D EA                 6044 	mov	a,r2
   1F7E F0                 6045 	movx	@dptr,a
   1F7F A3                 6046 	inc	dptr
   1F80 EB                 6047 	mov	a,r3
   1F81 F0                 6048 	movx	@dptr,a
   1F82                    6049 00311$:
                    1F82   6050 	C$uip.c$1648$2$63 ==.
                           6051 ;	..\uip\uip.c:1648: uip_connr->mss = tmp16;
   1F82 90s0Dr83           6052 	mov	dptr,#_uip_process_uip_connr_1_1
   1F85 E0                 6053 	movx	a,@dptr
   1F86 FA                 6054 	mov	r2,a
   1F87 A3                 6055 	inc	dptr
   1F88 E0                 6056 	movx	a,@dptr
   1F89 FB                 6057 	mov	r3,a
   1F8A A3                 6058 	inc	dptr
   1F8B E0                 6059 	movx	a,@dptr
   1F8C FC                 6060 	mov	r4,a
   1F8D 74 12              6061 	mov	a,#0x12
   1F8F 2A                 6062 	add	a,r2
   1F90 FA                 6063 	mov	r2,a
   1F91 E4                 6064 	clr	a
   1F92 3B                 6065 	addc	a,r3
   1F93 FB                 6066 	mov	r3,a
   1F94 90s0Dr60           6067 	mov	dptr,#_tmp16
   1F97 E0                 6068 	movx	a,@dptr
   1F98 F8                 6069 	mov	r0,a
   1F99 A3                 6070 	inc	dptr
   1F9A E0                 6071 	movx	a,@dptr
   1F9B F9                 6072 	mov	r1,a
   1F9C 8A 82              6073 	mov	dpl,r2
   1F9E 8B 83              6074 	mov	dph,r3
   1FA0 8C F0              6075 	mov	b,r4
   1FA2 E8                 6076 	mov	a,r0
   1FA3 12s00r00           6077 	lcall	__gptrput
   1FA6 A3                 6078 	inc	dptr
   1FA7 E9                 6079 	mov	a,r1
   1FA8 12s00r00           6080 	lcall	__gptrput
                    1FAB   6081 	C$uip.c$1666$2$63 ==.
                           6082 ;	..\uip\uip.c:1666: if (uip_flags & (UIP_NEWDATA | UIP_ACKDATA)) {
   1FAB 90s01rA8           6083 	mov	dptr,#_uip_flags
   1FAE E0                 6084 	movx	a,@dptr
   1FAF FA                 6085 	mov	r2,a
   1FB0 54 03              6086 	anl	a,#0x03
   1FB2 70 03              6087 	jnz	00678$
   1FB4 02s27r06           6088 	ljmp	00379$
   1FB7                    6089 00678$:
                    1FB7   6090 	C$uip.c$1667$3$81 ==.
                           6091 ;	..\uip\uip.c:1667: uip_slen = 0;
   1FB7 90s01rA6           6092 	mov	dptr,#_uip_slen
   1FBA E4                 6093 	clr	a
   1FBB F0                 6094 	movx	@dptr,a
   1FBC A3                 6095 	inc	dptr
   1FBD F0                 6096 	movx	@dptr,a
                    1FBE   6097 	C$uip.c$1668$3$81 ==.
                           6098 ;	..\uip\uip.c:1668: UIP_APPCALL();
   1FBE 12s00r00           6099 	lcall	_uip_tcp_app_exec
                    1FC1   6100 	C$uip.c$1670$3$81 ==.
                           6101 ;	..\uip\uip.c:1670: appsend:
   1FC1                    6102 00313$:
                    1FC1   6103 	C$uip.c$1672$3$81 ==.
                           6104 ;	..\uip\uip.c:1672: if (uip_flags & UIP_ABORT) {
   1FC1 90s01rA8           6105 	mov	dptr,#_uip_flags
   1FC4 E0                 6106 	movx	a,@dptr
   1FC5 FA                 6107 	mov	r2,a
   1FC6 30 E5 31           6108 	jnb	acc.5,00315$
                    1FC9   6109 	C$uip.c$1673$4$82 ==.
                           6110 ;	..\uip\uip.c:1673: uip_slen = 0;
   1FC9 90s01rA6           6111 	mov	dptr,#_uip_slen
   1FCC E4                 6112 	clr	a
   1FCD F0                 6113 	movx	@dptr,a
   1FCE A3                 6114 	inc	dptr
   1FCF F0                 6115 	movx	@dptr,a
                    1FD0   6116 	C$uip.c$1674$4$82 ==.
                           6117 ;	..\uip\uip.c:1674: uip_connr->tcpstateflags = UIP_CLOSED;
   1FD0 90s0Dr83           6118 	mov	dptr,#_uip_process_uip_connr_1_1
   1FD3 E0                 6119 	movx	a,@dptr
   1FD4 FB                 6120 	mov	r3,a
   1FD5 A3                 6121 	inc	dptr
   1FD6 E0                 6122 	movx	a,@dptr
   1FD7 FC                 6123 	mov	r4,a
   1FD8 A3                 6124 	inc	dptr
   1FD9 E0                 6125 	movx	a,@dptr
   1FDA F8                 6126 	mov	r0,a
   1FDB 74 19              6127 	mov	a,#0x19
   1FDD 2B                 6128 	add	a,r3
   1FDE FB                 6129 	mov	r3,a
   1FDF E4                 6130 	clr	a
   1FE0 3C                 6131 	addc	a,r4
   1FE1 FC                 6132 	mov	r4,a
   1FE2 8B 82              6133 	mov	dpl,r3
   1FE4 8C 83              6134 	mov	dph,r4
   1FE6 88 F0              6135 	mov	b,r0
   1FE8 E4                 6136 	clr	a
   1FE9 12s00r00           6137 	lcall	__gptrput
                    1FEC   6138 	C$uip.c$1675$4$82 ==.
                           6139 ;	..\uip\uip.c:1675: BUF->flags = TCP_RST | TCP_ACK;
   1FEC 90s00r3B           6140 	mov	dptr,#(_uip_buf + 0x002f)
   1FEF 75 F0 00           6141 	mov	b,#0x00
   1FF2 74 14              6142 	mov	a,#0x14
   1FF4 12s00r00           6143 	lcall	__gptrput
                    1FF7   6144 	C$uip.c$1676$4$82 ==.
                           6145 ;	..\uip\uip.c:1676: goto tcp_send_nodata;
   1FF7 02s23rAF           6146 	ljmp	00364$
   1FFA                    6147 00315$:
                    1FFA   6148 	C$uip.c$1679$3$81 ==.
                           6149 ;	..\uip\uip.c:1679: if (uip_flags & UIP_CLOSE) {
   1FFA EA                 6150 	mov	a,r2
   1FFB 30 E4 69           6151 	jnb	acc.4,00317$
                    1FFE   6152 	C$uip.c$1680$4$83 ==.
                           6153 ;	..\uip\uip.c:1680: uip_slen = 0;
   1FFE 90s01rA6           6154 	mov	dptr,#_uip_slen
   2001 E4                 6155 	clr	a
   2002 F0                 6156 	movx	@dptr,a
   2003 A3                 6157 	inc	dptr
   2004 F0                 6158 	movx	@dptr,a
                    2005   6159 	C$uip.c$1681$4$83 ==.
                           6160 ;	..\uip\uip.c:1681: uip_connr->len = 1;
   2005 90s0Dr83           6161 	mov	dptr,#_uip_process_uip_connr_1_1
   2008 E0                 6162 	movx	a,@dptr
   2009 F5*11              6163 	mov	_uip_process_sloc5_1_0,a
   200B A3                 6164 	inc	dptr
   200C E0                 6165 	movx	a,@dptr
   200D F5*12              6166 	mov	(_uip_process_sloc5_1_0 + 1),a
   200F A3                 6167 	inc	dptr
   2010 E0                 6168 	movx	a,@dptr
   2011 F5*13              6169 	mov	(_uip_process_sloc5_1_0 + 2),a
   2013 74 10              6170 	mov	a,#0x10
   2015 25*11              6171 	add	a,_uip_process_sloc5_1_0
   2017 F9                 6172 	mov	r1,a
   2018 E4                 6173 	clr	a
   2019 35*12              6174 	addc	a,(_uip_process_sloc5_1_0 + 1)
   201B FB                 6175 	mov	r3,a
   201C AC*13              6176 	mov	r4,(_uip_process_sloc5_1_0 + 2)
   201E 89 82              6177 	mov	dpl,r1
   2020 8B 83              6178 	mov	dph,r3
   2022 8C F0              6179 	mov	b,r4
   2024 74 01              6180 	mov	a,#0x01
   2026 12s00r00           6181 	lcall	__gptrput
   2029 A3                 6182 	inc	dptr
   202A E4                 6183 	clr	a
   202B 12s00r00           6184 	lcall	__gptrput
                    202E   6185 	C$uip.c$1682$4$83 ==.
                           6186 ;	..\uip\uip.c:1682: uip_connr->tcpstateflags = UIP_FIN_WAIT_1;
   202E 74 19              6187 	mov	a,#0x19
   2030 25*11              6188 	add	a,_uip_process_sloc5_1_0
   2032 FB                 6189 	mov	r3,a
   2033 E4                 6190 	clr	a
   2034 35*12              6191 	addc	a,(_uip_process_sloc5_1_0 + 1)
   2036 FC                 6192 	mov	r4,a
   2037 A8*13              6193 	mov	r0,(_uip_process_sloc5_1_0 + 2)
   2039 8B 82              6194 	mov	dpl,r3
   203B 8C 83              6195 	mov	dph,r4
   203D 88 F0              6196 	mov	b,r0
   203F 74 04              6197 	mov	a,#0x04
   2041 12s00r00           6198 	lcall	__gptrput
                    2044   6199 	C$uip.c$1683$4$83 ==.
                           6200 ;	..\uip\uip.c:1683: uip_connr->nrtx = 0;
   2044 74 1B              6201 	mov	a,#0x1B
   2046 25*11              6202 	add	a,_uip_process_sloc5_1_0
   2048 FB                 6203 	mov	r3,a
   2049 E4                 6204 	clr	a
   204A 35*12              6205 	addc	a,(_uip_process_sloc5_1_0 + 1)
   204C FC                 6206 	mov	r4,a
   204D A8*13              6207 	mov	r0,(_uip_process_sloc5_1_0 + 2)
   204F 8B 82              6208 	mov	dpl,r3
   2051 8C 83              6209 	mov	dph,r4
   2053 88 F0              6210 	mov	b,r0
   2055 E4                 6211 	clr	a
   2056 12s00r00           6212 	lcall	__gptrput
                    2059   6213 	C$uip.c$1684$4$83 ==.
                           6214 ;	..\uip\uip.c:1684: BUF->flags = TCP_FIN | TCP_ACK;
   2059 90s00r3B           6215 	mov	dptr,#(_uip_buf + 0x002f)
   205C 75 F0 00           6216 	mov	b,#0x00
   205F 74 11              6217 	mov	a,#0x11
   2061 12s00r00           6218 	lcall	__gptrput
                    2064   6219 	C$uip.c$1685$4$83 ==.
                           6220 ;	..\uip\uip.c:1685: goto tcp_send_nodata;
   2064 02s23rAF           6221 	ljmp	00364$
   2067                    6222 00317$:
                    2067   6223 	C$uip.c$1689$3$81 ==.
                           6224 ;	..\uip\uip.c:1689: if (uip_slen > 0) {
   2067 90s01rA6           6225 	mov	dptr,#_uip_slen
   206A E0                 6226 	movx	a,@dptr
   206B FB                 6227 	mov	r3,a
   206C A3                 6228 	inc	dptr
   206D E0                 6229 	movx	a,@dptr
   206E FC                 6230 	mov	r4,a
   206F 4B                 6231 	orl	a,r3
   2070 70 03              6232 	jnz	00681$
   2072 02s21r36           6233 	ljmp	00326$
   2075                    6234 00681$:
                    2075   6235 	C$uip.c$1693$4$84 ==.
                           6236 ;	..\uip\uip.c:1693: if ((uip_flags & UIP_ACKDATA) != 0) {
   2075 EA                 6237 	mov	a,r2
   2076 30 E0 21           6238 	jnb	acc.0,00319$
                    2079   6239 	C$uip.c$1694$5$85 ==.
                           6240 ;	..\uip\uip.c:1694: uip_connr->len = 0;
   2079 90s0Dr83           6241 	mov	dptr,#_uip_process_uip_connr_1_1
   207C E0                 6242 	movx	a,@dptr
   207D FA                 6243 	mov	r2,a
   207E A3                 6244 	inc	dptr
   207F E0                 6245 	movx	a,@dptr
   2080 FB                 6246 	mov	r3,a
   2081 A3                 6247 	inc	dptr
   2082 E0                 6248 	movx	a,@dptr
   2083 FC                 6249 	mov	r4,a
   2084 74 10              6250 	mov	a,#0x10
   2086 2A                 6251 	add	a,r2
   2087 FA                 6252 	mov	r2,a
   2088 E4                 6253 	clr	a
   2089 3B                 6254 	addc	a,r3
   208A FB                 6255 	mov	r3,a
   208B 8A 82              6256 	mov	dpl,r2
   208D 8B 83              6257 	mov	dph,r3
   208F 8C F0              6258 	mov	b,r4
   2091 E4                 6259 	clr	a
   2092 12s00r00           6260 	lcall	__gptrput
   2095 A3                 6261 	inc	dptr
   2096 E4                 6262 	clr	a
   2097 12s00r00           6263 	lcall	__gptrput
   209A                    6264 00319$:
                    209A   6265 	C$uip.c$1700$4$84 ==.
                           6266 ;	..\uip\uip.c:1700: if (uip_connr->len == 0) {
   209A 90s0Dr83           6267 	mov	dptr,#_uip_process_uip_connr_1_1
   209D E0                 6268 	movx	a,@dptr
   209E F5*11              6269 	mov	_uip_process_sloc5_1_0,a
   20A0 A3                 6270 	inc	dptr
   20A1 E0                 6271 	movx	a,@dptr
   20A2 F5*12              6272 	mov	(_uip_process_sloc5_1_0 + 1),a
   20A4 A3                 6273 	inc	dptr
   20A5 E0                 6274 	movx	a,@dptr
   20A6 F5*13              6275 	mov	(_uip_process_sloc5_1_0 + 2),a
   20A8 74 10              6276 	mov	a,#0x10
   20AA 25*11              6277 	add	a,_uip_process_sloc5_1_0
   20AC F8                 6278 	mov	r0,a
   20AD E4                 6279 	clr	a
   20AE 35*12              6280 	addc	a,(_uip_process_sloc5_1_0 + 1)
   20B0 F9                 6281 	mov	r1,a
   20B1 AA*13              6282 	mov	r2,(_uip_process_sloc5_1_0 + 2)
   20B3 88 82              6283 	mov	dpl,r0
   20B5 89 83              6284 	mov	dph,r1
   20B7 8A F0              6285 	mov	b,r2
   20B9 12s00r00           6286 	lcall	__gptrget
   20BC FA                 6287 	mov	r2,a
   20BD A3                 6288 	inc	dptr
   20BE 12s00r00           6289 	lcall	__gptrget
   20C1 FB                 6290 	mov	r3,a
   20C2 4A                 6291 	orl	a,r2
   20C3 70 69              6292 	jnz	00323$
                    20C5   6293 	C$uip.c$1705$5$86 ==.
                           6294 ;	..\uip\uip.c:1705: if (uip_slen > uip_connr->mss) {
   20C5 74 12              6295 	mov	a,#0x12
   20C7 25*11              6296 	add	a,_uip_process_sloc5_1_0
   20C9 FC                 6297 	mov	r4,a
   20CA E4                 6298 	clr	a
   20CB 35*12              6299 	addc	a,(_uip_process_sloc5_1_0 + 1)
   20CD F8                 6300 	mov	r0,a
   20CE A9*13              6301 	mov	r1,(_uip_process_sloc5_1_0 + 2)
   20D0 8C 82              6302 	mov	dpl,r4
   20D2 88 83              6303 	mov	dph,r0
   20D4 89 F0              6304 	mov	b,r1
   20D6 12s00r00           6305 	lcall	__gptrget
   20D9 F5*11              6306 	mov	_uip_process_sloc5_1_0,a
   20DB A3                 6307 	inc	dptr
   20DC 12s00r00           6308 	lcall	__gptrget
   20DF F5*12              6309 	mov	(_uip_process_sloc5_1_0 + 1),a
   20E1 90s01rA6           6310 	mov	dptr,#_uip_slen
   20E4 E0                 6311 	movx	a,@dptr
   20E5 F9                 6312 	mov	r1,a
   20E6 A3                 6313 	inc	dptr
   20E7 E0                 6314 	movx	a,@dptr
   20E8 FC                 6315 	mov	r4,a
   20E9 C3                 6316 	clr	c
   20EA E5*11              6317 	mov	a,_uip_process_sloc5_1_0
   20EC 99                 6318 	subb	a,r1
   20ED E5*12              6319 	mov	a,(_uip_process_sloc5_1_0 + 1)
   20EF 9C                 6320 	subb	a,r4
   20F0 50 0A              6321 	jnc	00321$
                    20F2   6322 	C$uip.c$1706$6$87 ==.
                           6323 ;	..\uip\uip.c:1706: uip_slen = uip_connr->mss;
   20F2 90s01rA6           6324 	mov	dptr,#_uip_slen
   20F5 E5*11              6325 	mov	a,_uip_process_sloc5_1_0
   20F7 F0                 6326 	movx	@dptr,a
   20F8 A3                 6327 	inc	dptr
   20F9 E5*12              6328 	mov	a,(_uip_process_sloc5_1_0 + 1)
   20FB F0                 6329 	movx	@dptr,a
   20FC                    6330 00321$:
                    20FC   6331 	C$uip.c$1711$5$86 ==.
                           6332 ;	..\uip\uip.c:1711: uip_connr->len = uip_slen;
   20FC 90s0Dr83           6333 	mov	dptr,#_uip_process_uip_connr_1_1
   20FF E0                 6334 	movx	a,@dptr
   2100 FC                 6335 	mov	r4,a
   2101 A3                 6336 	inc	dptr
   2102 E0                 6337 	movx	a,@dptr
   2103 F8                 6338 	mov	r0,a
   2104 A3                 6339 	inc	dptr
   2105 E0                 6340 	movx	a,@dptr
   2106 F9                 6341 	mov	r1,a
   2107 74 10              6342 	mov	a,#0x10
   2109 2C                 6343 	add	a,r4
   210A F5*11              6344 	mov	_uip_process_sloc5_1_0,a
   210C E4                 6345 	clr	a
   210D 38                 6346 	addc	a,r0
   210E F5*12              6347 	mov	(_uip_process_sloc5_1_0 + 1),a
   2110 89*13              6348 	mov	(_uip_process_sloc5_1_0 + 2),r1
   2112 90s01rA6           6349 	mov	dptr,#_uip_slen
   2115 E0                 6350 	movx	a,@dptr
   2116 FC                 6351 	mov	r4,a
   2117 A3                 6352 	inc	dptr
   2118 E0                 6353 	movx	a,@dptr
   2119 F8                 6354 	mov	r0,a
   211A 85*11 82           6355 	mov	dpl,_uip_process_sloc5_1_0
   211D 85*12 83           6356 	mov	dph,(_uip_process_sloc5_1_0 + 1)
   2120 85*13 F0           6357 	mov	b,(_uip_process_sloc5_1_0 + 2)
   2123 EC                 6358 	mov	a,r4
   2124 12s00r00           6359 	lcall	__gptrput
   2127 A3                 6360 	inc	dptr
   2128 E8                 6361 	mov	a,r0
   2129 12s00r00           6362 	lcall	__gptrput
   212C 80 08              6363 	sjmp	00326$
   212E                    6364 00323$:
                    212E   6365 	C$uip.c$1717$5$88 ==.
                           6366 ;	..\uip\uip.c:1717: uip_slen = uip_connr->len;
   212E 90s01rA6           6367 	mov	dptr,#_uip_slen
   2131 EA                 6368 	mov	a,r2
   2132 F0                 6369 	movx	@dptr,a
   2133 A3                 6370 	inc	dptr
   2134 EB                 6371 	mov	a,r3
   2135 F0                 6372 	movx	@dptr,a
   2136                    6373 00326$:
                    2136   6374 	C$uip.c$1720$3$81 ==.
                           6375 ;	..\uip\uip.c:1720: uip_connr->nrtx = 0;
   2136 90s0Dr83           6376 	mov	dptr,#_uip_process_uip_connr_1_1
   2139 E0                 6377 	movx	a,@dptr
   213A FA                 6378 	mov	r2,a
   213B A3                 6379 	inc	dptr
   213C E0                 6380 	movx	a,@dptr
   213D FB                 6381 	mov	r3,a
   213E A3                 6382 	inc	dptr
   213F E0                 6383 	movx	a,@dptr
   2140 FC                 6384 	mov	r4,a
   2141 74 1B              6385 	mov	a,#0x1B
   2143 2A                 6386 	add	a,r2
   2144 FA                 6387 	mov	r2,a
   2145 E4                 6388 	clr	a
   2146 3B                 6389 	addc	a,r3
   2147 FB                 6390 	mov	r3,a
   2148 8A 82              6391 	mov	dpl,r2
   214A 8B 83              6392 	mov	dph,r3
   214C 8C F0              6393 	mov	b,r4
   214E E4                 6394 	clr	a
   214F 12s00r00           6395 	lcall	__gptrput
                    2152   6396 	C$uip.c$1721$3$81 ==.
                           6397 ;	..\uip\uip.c:1721: apprexmit:
   2152                    6398 00327$:
                    2152   6399 	C$uip.c$1722$3$81 ==.
                           6400 ;	..\uip\uip.c:1722: uip_appdata = uip_sappdata;
   2152 90s01rA1           6401 	mov	dptr,#_uip_sappdata
   2155 E0                 6402 	movx	a,@dptr
   2156 FA                 6403 	mov	r2,a
   2157 A3                 6404 	inc	dptr
   2158 E0                 6405 	movx	a,@dptr
   2159 FB                 6406 	mov	r3,a
   215A A3                 6407 	inc	dptr
   215B E0                 6408 	movx	a,@dptr
   215C FC                 6409 	mov	r4,a
   215D 90s01r9E           6410 	mov	dptr,#_uip_appdata
   2160 EA                 6411 	mov	a,r2
   2161 F0                 6412 	movx	@dptr,a
   2162 A3                 6413 	inc	dptr
   2163 EB                 6414 	mov	a,r3
   2164 F0                 6415 	movx	@dptr,a
   2165 A3                 6416 	inc	dptr
   2166 EC                 6417 	mov	a,r4
   2167 F0                 6418 	movx	@dptr,a
                    2168   6419 	C$uip.c$1726$3$81 ==.
                           6420 ;	..\uip\uip.c:1726: if (uip_slen > 0 && uip_connr->len > 0) {
   2168 90s01rA6           6421 	mov	dptr,#_uip_slen
   216B E0                 6422 	movx	a,@dptr
   216C FA                 6423 	mov	r2,a
   216D A3                 6424 	inc	dptr
   216E E0                 6425 	movx	a,@dptr
   216F FB                 6426 	mov	r3,a
   2170 4A                 6427 	orl	a,r2
   2171 60 3D              6428 	jz	00329$
   2173 90s0Dr83           6429 	mov	dptr,#_uip_process_uip_connr_1_1
   2176 E0                 6430 	movx	a,@dptr
   2177 FA                 6431 	mov	r2,a
   2178 A3                 6432 	inc	dptr
   2179 E0                 6433 	movx	a,@dptr
   217A FB                 6434 	mov	r3,a
   217B A3                 6435 	inc	dptr
   217C E0                 6436 	movx	a,@dptr
   217D FC                 6437 	mov	r4,a
   217E 74 10              6438 	mov	a,#0x10
   2180 2A                 6439 	add	a,r2
   2181 FA                 6440 	mov	r2,a
   2182 E4                 6441 	clr	a
   2183 3B                 6442 	addc	a,r3
   2184 FB                 6443 	mov	r3,a
   2185 8A 82              6444 	mov	dpl,r2
   2187 8B 83              6445 	mov	dph,r3
   2189 8C F0              6446 	mov	b,r4
   218B 12s00r00           6447 	lcall	__gptrget
   218E FA                 6448 	mov	r2,a
   218F A3                 6449 	inc	dptr
   2190 12s00r00           6450 	lcall	__gptrget
   2193 FB                 6451 	mov	r3,a
   2194 4A                 6452 	orl	a,r2
   2195 60 19              6453 	jz	00329$
                    2197   6454 	C$uip.c$1728$4$89 ==.
                           6455 ;	..\uip\uip.c:1728: uip_len = uip_connr->len + UIP_TCPIP_HLEN;
   2197 90s01rA4           6456 	mov	dptr,#_uip_len
   219A 74 28              6457 	mov	a,#0x28
   219C 2A                 6458 	add	a,r2
   219D F0                 6459 	movx	@dptr,a
   219E E4                 6460 	clr	a
   219F 3B                 6461 	addc	a,r3
   21A0 A3                 6462 	inc	dptr
   21A1 F0                 6463 	movx	@dptr,a
                    21A2   6464 	C$uip.c$1730$4$89 ==.
                           6465 ;	..\uip\uip.c:1730: BUF->flags = TCP_ACK | TCP_PSH;
   21A2 90s00r3B           6466 	mov	dptr,#(_uip_buf + 0x002f)
   21A5 75 F0 00           6467 	mov	b,#0x00
   21A8 74 18              6468 	mov	a,#0x18
   21AA 12s00r00           6469 	lcall	__gptrput
                    21AD   6470 	C$uip.c$1732$4$89 ==.
                           6471 ;	..\uip\uip.c:1732: goto tcp_send_noopts;
   21AD 02s23rB8           6472 	ljmp	00365$
   21B0                    6473 00329$:
                    21B0   6474 	C$uip.c$1736$3$81 ==.
                           6475 ;	..\uip\uip.c:1736: if (uip_flags & UIP_NEWDATA) {
   21B0 90s01rA8           6476 	mov	dptr,#_uip_flags
   21B3 E0                 6477 	movx	a,@dptr
   21B4 FA                 6478 	mov	r2,a
   21B5 20 E1 03           6479 	jb	acc.1,00687$
   21B8 02s27r06           6480 	ljmp	00379$
   21BB                    6481 00687$:
                    21BB   6482 	C$uip.c$1737$4$90 ==.
                           6483 ;	..\uip\uip.c:1737: uip_len = UIP_TCPIP_HLEN;
   21BB 90s01rA4           6484 	mov	dptr,#_uip_len
   21BE 74 28              6485 	mov	a,#0x28
   21C0 F0                 6486 	movx	@dptr,a
   21C1 E4                 6487 	clr	a
   21C2 A3                 6488 	inc	dptr
   21C3 F0                 6489 	movx	@dptr,a
                    21C4   6490 	C$uip.c$1738$4$90 ==.
                           6491 ;	..\uip\uip.c:1738: BUF->flags = TCP_ACK;
   21C4 90s00r3B           6492 	mov	dptr,#(_uip_buf + 0x002f)
   21C7 75 F0 00           6493 	mov	b,#0x00
   21CA 74 10              6494 	mov	a,#0x10
   21CC 12s00r00           6495 	lcall	__gptrput
                    21CF   6496 	C$uip.c$1739$4$90 ==.
                           6497 ;	..\uip\uip.c:1739: goto tcp_send_noopts;
   21CF 02s23rB8           6498 	ljmp	00365$
                    21D2   6499 	C$uip.c$1743$2$63 ==.
                           6500 ;	..\uip\uip.c:1743: case UIP_LAST_ACK:
   21D2                    6501 00335$:
                    21D2   6502 	C$uip.c$1746$2$63 ==.
                           6503 ;	..\uip\uip.c:1746: if (uip_flags & UIP_ACKDATA) {
   21D2 90s01rA8           6504 	mov	dptr,#_uip_flags
   21D5 E0                 6505 	movx	a,@dptr
   21D6 FA                 6506 	mov	r2,a
   21D7 20 E0 03           6507 	jb	acc.0,00688$
   21DA 02s27r06           6508 	ljmp	00379$
   21DD                    6509 00688$:
                    21DD   6510 	C$uip.c$1747$3$91 ==.
                           6511 ;	..\uip\uip.c:1747: uip_connr->tcpstateflags = UIP_CLOSED;
   21DD 8D 82              6512 	mov	dpl,r5
   21DF 8E 83              6513 	mov	dph,r6
   21E1 8F F0              6514 	mov	b,r7
   21E3 E4                 6515 	clr	a
   21E4 12s00r00           6516 	lcall	__gptrput
                    21E7   6517 	C$uip.c$1748$3$91 ==.
                           6518 ;	..\uip\uip.c:1748: uip_flags = UIP_CLOSE;
   21E7 90s01rA8           6519 	mov	dptr,#_uip_flags
   21EA 74 10              6520 	mov	a,#0x10
   21EC F0                 6521 	movx	@dptr,a
                    21ED   6522 	C$uip.c$1749$3$91 ==.
                           6523 ;	..\uip\uip.c:1749: UIP_APPCALL();
   21ED 12s00r00           6524 	lcall	_uip_tcp_app_exec
                    21F0   6525 	C$uip.c$1751$2$63 ==.
                           6526 ;	..\uip\uip.c:1751: break;
   21F0 02s27r06           6527 	ljmp	00379$
                    21F3   6528 	C$uip.c$1753$2$63 ==.
                           6529 ;	..\uip\uip.c:1753: case UIP_FIN_WAIT_1:
   21F3                    6530 00338$:
                    21F3   6531 	C$uip.c$1757$2$63 ==.
                           6532 ;	..\uip\uip.c:1757: if (uip_len > 0) {
   21F3 90s01rA4           6533 	mov	dptr,#_uip_len
   21F6 E0                 6534 	movx	a,@dptr
   21F7 FA                 6535 	mov	r2,a
   21F8 A3                 6536 	inc	dptr
   21F9 E0                 6537 	movx	a,@dptr
   21FA FB                 6538 	mov	r3,a
   21FB 4A                 6539 	orl	a,r2
   21FC 60 07              6540 	jz	00340$
                    21FE   6541 	C$uip.c$1758$3$92 ==.
                           6542 ;	..\uip\uip.c:1758: uip_add_rcv_nxt(uip_len);
   21FE 8A 82              6543 	mov	dpl,r2
   2200 8B 83              6544 	mov	dph,r3
   2202 12s08r2D           6545 	lcall	_uip_add_rcv_nxt
   2205                    6546 00340$:
                    2205   6547 	C$uip.c$1760$2$63 ==.
                           6548 ;	..\uip\uip.c:1760: if (BUF->flags & TCP_FIN) {
   2205 90s00r3B           6549 	mov	dptr,#(_uip_buf + 0x002f)
   2208 75 F0 00           6550 	mov	b,#0x00
   220B 12s00r00           6551 	lcall	__gptrget
   220E FA                 6552 	mov	r2,a
   220F 20 E0 03           6553 	jb	acc.0,00690$
   2212 02s22rA1           6554 	ljmp	00347$
   2215                    6555 00690$:
                    2215   6556 	C$uip.c$1761$3$93 ==.
                           6557 ;	..\uip\uip.c:1761: if (uip_flags & UIP_ACKDATA) {
   2215 90s01rA8           6558 	mov	dptr,#_uip_flags
   2218 E0                 6559 	movx	a,@dptr
   2219 FA                 6560 	mov	r2,a
   221A 30 E0 55           6561 	jnb	acc.0,00342$
                    221D   6562 	C$uip.c$1762$4$94 ==.
                           6563 ;	..\uip\uip.c:1762: uip_connr->tcpstateflags = UIP_TIME_WAIT;
   221D 90s0Dr83           6564 	mov	dptr,#_uip_process_uip_connr_1_1
   2220 E0                 6565 	movx	a,@dptr
   2221 F5*11              6566 	mov	_uip_process_sloc5_1_0,a
   2223 A3                 6567 	inc	dptr
   2224 E0                 6568 	movx	a,@dptr
   2225 F5*12              6569 	mov	(_uip_process_sloc5_1_0 + 1),a
   2227 A3                 6570 	inc	dptr
   2228 E0                 6571 	movx	a,@dptr
   2229 F5*13              6572 	mov	(_uip_process_sloc5_1_0 + 2),a
   222B 74 19              6573 	mov	a,#0x19
   222D 25*11              6574 	add	a,_uip_process_sloc5_1_0
   222F F8                 6575 	mov	r0,a
   2230 E4                 6576 	clr	a
   2231 35*12              6577 	addc	a,(_uip_process_sloc5_1_0 + 1)
   2233 F9                 6578 	mov	r1,a
   2234 AA*13              6579 	mov	r2,(_uip_process_sloc5_1_0 + 2)
   2236 88 82              6580 	mov	dpl,r0
   2238 89 83              6581 	mov	dph,r1
   223A 8A F0              6582 	mov	b,r2
   223C 74 07              6583 	mov	a,#0x07
   223E 12s00r00           6584 	lcall	__gptrput
                    2241   6585 	C$uip.c$1763$4$94 ==.
                           6586 ;	..\uip\uip.c:1763: uip_connr->timer = 0;
   2241 74 1A              6587 	mov	a,#0x1A
   2243 25*11              6588 	add	a,_uip_process_sloc5_1_0
   2245 FA                 6589 	mov	r2,a
   2246 E4                 6590 	clr	a
   2247 35*12              6591 	addc	a,(_uip_process_sloc5_1_0 + 1)
   2249 FB                 6592 	mov	r3,a
   224A AC*13              6593 	mov	r4,(_uip_process_sloc5_1_0 + 2)
   224C 8A 82              6594 	mov	dpl,r2
   224E 8B 83              6595 	mov	dph,r3
   2250 8C F0              6596 	mov	b,r4
   2252 E4                 6597 	clr	a
   2253 12s00r00           6598 	lcall	__gptrput
                    2256   6599 	C$uip.c$1764$4$94 ==.
                           6600 ;	..\uip\uip.c:1764: uip_connr->len = 0;
   2256 74 10              6601 	mov	a,#0x10
   2258 25*11              6602 	add	a,_uip_process_sloc5_1_0
   225A FA                 6603 	mov	r2,a
   225B E4                 6604 	clr	a
   225C 35*12              6605 	addc	a,(_uip_process_sloc5_1_0 + 1)
   225E FB                 6606 	mov	r3,a
   225F AC*13              6607 	mov	r4,(_uip_process_sloc5_1_0 + 2)
   2261 8A 82              6608 	mov	dpl,r2
   2263 8B 83              6609 	mov	dph,r3
   2265 8C F0              6610 	mov	b,r4
   2267 E4                 6611 	clr	a
   2268 12s00r00           6612 	lcall	__gptrput
   226B A3                 6613 	inc	dptr
   226C E4                 6614 	clr	a
   226D 12s00r00           6615 	lcall	__gptrput
   2270 80 1D              6616 	sjmp	00343$
   2272                    6617 00342$:
                    2272   6618 	C$uip.c$1766$4$95 ==.
                           6619 ;	..\uip\uip.c:1766: uip_connr->tcpstateflags = UIP_CLOSING;
   2272 90s0Dr83           6620 	mov	dptr,#_uip_process_uip_connr_1_1
   2275 E0                 6621 	movx	a,@dptr
   2276 FA                 6622 	mov	r2,a
   2277 A3                 6623 	inc	dptr
   2278 E0                 6624 	movx	a,@dptr
   2279 FB                 6625 	mov	r3,a
   227A A3                 6626 	inc	dptr
   227B E0                 6627 	movx	a,@dptr
   227C FC                 6628 	mov	r4,a
   227D 74 19              6629 	mov	a,#0x19
   227F 2A                 6630 	add	a,r2
   2280 FA                 6631 	mov	r2,a
   2281 E4                 6632 	clr	a
   2282 3B                 6633 	addc	a,r3
   2283 FB                 6634 	mov	r3,a
   2284 8A 82              6635 	mov	dpl,r2
   2286 8B 83              6636 	mov	dph,r3
   2288 8C F0              6637 	mov	b,r4
   228A 74 06              6638 	mov	a,#0x06
   228C 12s00r00           6639 	lcall	__gptrput
   228F                    6640 00343$:
                    228F   6641 	C$uip.c$1768$3$93 ==.
                           6642 ;	..\uip\uip.c:1768: uip_add_rcv_nxt(1);
   228F 90 00 01           6643 	mov	dptr,#0x0001
   2292 12s08r2D           6644 	lcall	_uip_add_rcv_nxt
                    2295   6645 	C$uip.c$1769$3$93 ==.
                           6646 ;	..\uip\uip.c:1769: uip_flags = UIP_CLOSE;
   2295 90s01rA8           6647 	mov	dptr,#_uip_flags
   2298 74 10              6648 	mov	a,#0x10
   229A F0                 6649 	movx	@dptr,a
                    229B   6650 	C$uip.c$1770$3$93 ==.
                           6651 ;	..\uip\uip.c:1770: UIP_APPCALL();
   229B 12s00r00           6652 	lcall	_uip_tcp_app_exec
                    229E   6653 	C$uip.c$1771$3$93 ==.
                           6654 ;	..\uip\uip.c:1771: goto tcp_send_ack;
   229E 02s23rA4           6655 	ljmp	00363$
   22A1                    6656 00347$:
                    22A1   6657 	C$uip.c$1772$2$63 ==.
                           6658 ;	..\uip\uip.c:1772: } else if (uip_flags & UIP_ACKDATA) {
   22A1 90s01rA8           6659 	mov	dptr,#_uip_flags
   22A4 E0                 6660 	movx	a,@dptr
   22A5 FA                 6661 	mov	r2,a
   22A6 30 E0 41           6662 	jnb	acc.0,00348$
                    22A9   6663 	C$uip.c$1773$3$96 ==.
                           6664 ;	..\uip\uip.c:1773: uip_connr->tcpstateflags = UIP_FIN_WAIT_2;
   22A9 90s0Dr83           6665 	mov	dptr,#_uip_process_uip_connr_1_1
   22AC E0                 6666 	movx	a,@dptr
   22AD F5*11              6667 	mov	_uip_process_sloc5_1_0,a
   22AF A3                 6668 	inc	dptr
   22B0 E0                 6669 	movx	a,@dptr
   22B1 F5*12              6670 	mov	(_uip_process_sloc5_1_0 + 1),a
   22B3 A3                 6671 	inc	dptr
   22B4 E0                 6672 	movx	a,@dptr
   22B5 F5*13              6673 	mov	(_uip_process_sloc5_1_0 + 2),a
   22B7 74 19              6674 	mov	a,#0x19
   22B9 25*11              6675 	add	a,_uip_process_sloc5_1_0
   22BB F8                 6676 	mov	r0,a
   22BC E4                 6677 	clr	a
   22BD 35*12              6678 	addc	a,(_uip_process_sloc5_1_0 + 1)
   22BF F9                 6679 	mov	r1,a
   22C0 AA*13              6680 	mov	r2,(_uip_process_sloc5_1_0 + 2)
   22C2 88 82              6681 	mov	dpl,r0
   22C4 89 83              6682 	mov	dph,r1
   22C6 8A F0              6683 	mov	b,r2
   22C8 74 05              6684 	mov	a,#0x05
   22CA 12s00r00           6685 	lcall	__gptrput
                    22CD   6686 	C$uip.c$1774$3$96 ==.
                           6687 ;	..\uip\uip.c:1774: uip_connr->len = 0;
   22CD 74 10              6688 	mov	a,#0x10
   22CF 25*11              6689 	add	a,_uip_process_sloc5_1_0
   22D1 FA                 6690 	mov	r2,a
   22D2 E4                 6691 	clr	a
   22D3 35*12              6692 	addc	a,(_uip_process_sloc5_1_0 + 1)
   22D5 FB                 6693 	mov	r3,a
   22D6 AC*13              6694 	mov	r4,(_uip_process_sloc5_1_0 + 2)
   22D8 8A 82              6695 	mov	dpl,r2
   22DA 8B 83              6696 	mov	dph,r3
   22DC 8C F0              6697 	mov	b,r4
   22DE E4                 6698 	clr	a
   22DF 12s00r00           6699 	lcall	__gptrput
   22E2 A3                 6700 	inc	dptr
   22E3 E4                 6701 	clr	a
   22E4 12s00r00           6702 	lcall	__gptrput
                    22E7   6703 	C$uip.c$1775$3$96 ==.
                           6704 ;	..\uip\uip.c:1775: goto drop;
   22E7 02s27r06           6705 	ljmp	00379$
   22EA                    6706 00348$:
                    22EA   6707 	C$uip.c$1777$2$63 ==.
                           6708 ;	..\uip\uip.c:1777: if (uip_len > 0) {
   22EA 90s01rA4           6709 	mov	dptr,#_uip_len
   22ED E0                 6710 	movx	a,@dptr
   22EE FA                 6711 	mov	r2,a
   22EF A3                 6712 	inc	dptr
   22F0 E0                 6713 	movx	a,@dptr
   22F1 FB                 6714 	mov	r3,a
   22F2 4A                 6715 	orl	a,r2
   22F3 70 03              6716 	jnz	00693$
   22F5 02s27r06           6717 	ljmp	00379$
   22F8                    6718 00693$:
                    22F8   6719 	C$uip.c$1778$3$97 ==.
                           6720 ;	..\uip\uip.c:1778: goto tcp_send_ack;
   22F8 02s23rA4           6721 	ljmp	00363$
                    22FB   6722 	C$uip.c$1782$2$63 ==.
                           6723 ;	..\uip\uip.c:1782: case UIP_FIN_WAIT_2:
   22FB                    6724 00351$:
                    22FB   6725 	C$uip.c$1783$2$63 ==.
                           6726 ;	..\uip\uip.c:1783: if (uip_len > 0) {
   22FB 90s01rA4           6727 	mov	dptr,#_uip_len
   22FE E0                 6728 	movx	a,@dptr
   22FF FA                 6729 	mov	r2,a
   2300 A3                 6730 	inc	dptr
   2301 E0                 6731 	movx	a,@dptr
   2302 FB                 6732 	mov	r3,a
   2303 4A                 6733 	orl	a,r2
   2304 60 07              6734 	jz	00353$
                    2306   6735 	C$uip.c$1784$3$98 ==.
                           6736 ;	..\uip\uip.c:1784: uip_add_rcv_nxt(uip_len);
   2306 8A 82              6737 	mov	dpl,r2
   2308 8B 83              6738 	mov	dph,r3
   230A 12s08r2D           6739 	lcall	_uip_add_rcv_nxt
   230D                    6740 00353$:
                    230D   6741 	C$uip.c$1786$2$63 ==.
                           6742 ;	..\uip\uip.c:1786: if (BUF->flags & TCP_FIN) {
   230D 90s00r3B           6743 	mov	dptr,#(_uip_buf + 0x002f)
   2310 75 F0 00           6744 	mov	b,#0x00
   2313 12s00r00           6745 	lcall	__gptrget
   2316 FA                 6746 	mov	r2,a
   2317 30 E0 4A           6747 	jnb	acc.0,00355$
                    231A   6748 	C$uip.c$1787$3$99 ==.
                           6749 ;	..\uip\uip.c:1787: uip_connr->tcpstateflags = UIP_TIME_WAIT;
   231A 90s0Dr83           6750 	mov	dptr,#_uip_process_uip_connr_1_1
   231D E0                 6751 	movx	a,@dptr
   231E F5*11              6752 	mov	_uip_process_sloc5_1_0,a
   2320 A3                 6753 	inc	dptr
   2321 E0                 6754 	movx	a,@dptr
   2322 F5*12              6755 	mov	(_uip_process_sloc5_1_0 + 1),a
   2324 A3                 6756 	inc	dptr
   2325 E0                 6757 	movx	a,@dptr
   2326 F5*13              6758 	mov	(_uip_process_sloc5_1_0 + 2),a
   2328 74 19              6759 	mov	a,#0x19
   232A 25*11              6760 	add	a,_uip_process_sloc5_1_0
   232C F8                 6761 	mov	r0,a
   232D E4                 6762 	clr	a
   232E 35*12              6763 	addc	a,(_uip_process_sloc5_1_0 + 1)
   2330 F9                 6764 	mov	r1,a
   2331 AA*13              6765 	mov	r2,(_uip_process_sloc5_1_0 + 2)
   2333 88 82              6766 	mov	dpl,r0
   2335 89 83              6767 	mov	dph,r1
   2337 8A F0              6768 	mov	b,r2
   2339 74 07              6769 	mov	a,#0x07
   233B 12s00r00           6770 	lcall	__gptrput
                    233E   6771 	C$uip.c$1788$3$99 ==.
                           6772 ;	..\uip\uip.c:1788: uip_connr->timer = 0;
   233E 74 1A              6773 	mov	a,#0x1A
   2340 25*11              6774 	add	a,_uip_process_sloc5_1_0
   2342 FA                 6775 	mov	r2,a
   2343 E4                 6776 	clr	a
   2344 35*12              6777 	addc	a,(_uip_process_sloc5_1_0 + 1)
   2346 FB                 6778 	mov	r3,a
   2347 AC*13              6779 	mov	r4,(_uip_process_sloc5_1_0 + 2)
   2349 8A 82              6780 	mov	dpl,r2
   234B 8B 83              6781 	mov	dph,r3
   234D 8C F0              6782 	mov	b,r4
   234F E4                 6783 	clr	a
   2350 12s00r00           6784 	lcall	__gptrput
                    2353   6785 	C$uip.c$1789$3$99 ==.
                           6786 ;	..\uip\uip.c:1789: uip_add_rcv_nxt(1);
   2353 90 00 01           6787 	mov	dptr,#0x0001
   2356 12s08r2D           6788 	lcall	_uip_add_rcv_nxt
                    2359   6789 	C$uip.c$1790$3$99 ==.
                           6790 ;	..\uip\uip.c:1790: uip_flags = UIP_CLOSE;
   2359 90s01rA8           6791 	mov	dptr,#_uip_flags
   235C 74 10              6792 	mov	a,#0x10
   235E F0                 6793 	movx	@dptr,a
                    235F   6794 	C$uip.c$1791$3$99 ==.
                           6795 ;	..\uip\uip.c:1791: UIP_APPCALL();
   235F 12s00r00           6796 	lcall	_uip_tcp_app_exec
                    2362   6797 	C$uip.c$1792$3$99 ==.
                           6798 ;	..\uip\uip.c:1792: goto tcp_send_ack;
   2362 80 40              6799 	sjmp	00363$
   2364                    6800 00355$:
                    2364   6801 	C$uip.c$1794$2$63 ==.
                           6802 ;	..\uip\uip.c:1794: if (uip_len > 0) {
   2364 90s01rA4           6803 	mov	dptr,#_uip_len
   2367 E0                 6804 	movx	a,@dptr
   2368 FA                 6805 	mov	r2,a
   2369 A3                 6806 	inc	dptr
   236A E0                 6807 	movx	a,@dptr
   236B FB                 6808 	mov	r3,a
   236C 4A                 6809 	orl	a,r2
   236D 70 03              6810 	jnz	00696$
   236F 02s27r06           6811 	ljmp	00379$
   2372                    6812 00696$:
                    2372   6813 	C$uip.c$1795$3$100 ==.
                           6814 ;	..\uip\uip.c:1795: goto tcp_send_ack;
                    2372   6815 	C$uip.c$1799$2$63 ==.
                           6816 ;	..\uip\uip.c:1799: case UIP_TIME_WAIT:
   2372 80 30              6817 	sjmp	00363$
   2374                    6818 00358$:
                    2374   6819 	C$uip.c$1800$2$63 ==.
                           6820 ;	..\uip\uip.c:1800: goto tcp_send_ack;
                    2374   6821 	C$uip.c$1802$2$63 ==.
                           6822 ;	..\uip\uip.c:1802: case UIP_CLOSING:
   2374 80 2E              6823 	sjmp	00363$
   2376                    6824 00359$:
                    2376   6825 	C$uip.c$1803$2$63 ==.
                           6826 ;	..\uip\uip.c:1803: if (uip_flags & UIP_ACKDATA) {
   2376 90s01rA8           6827 	mov	dptr,#_uip_flags
   2379 E0                 6828 	movx	a,@dptr
   237A FA                 6829 	mov	r2,a
   237B 20 E0 03           6830 	jb	acc.0,00697$
   237E 02s27r06           6831 	ljmp	00379$
   2381                    6832 00697$:
                    2381   6833 	C$uip.c$1804$3$101 ==.
                           6834 ;	..\uip\uip.c:1804: uip_connr->tcpstateflags = UIP_TIME_WAIT;
   2381 8D 82              6835 	mov	dpl,r5
   2383 8E 83              6836 	mov	dph,r6
   2385 8F F0              6837 	mov	b,r7
   2387 74 07              6838 	mov	a,#0x07
   2389 12s00r00           6839 	lcall	__gptrput
                    238C   6840 	C$uip.c$1805$3$101 ==.
                           6841 ;	..\uip\uip.c:1805: uip_connr->timer = 0;
   238C 74 1A              6842 	mov	a,#0x1A
   238E 25*0B              6843 	add	a,_uip_process_sloc3_1_0
   2390 FA                 6844 	mov	r2,a
   2391 E4                 6845 	clr	a
   2392 35*0C              6846 	addc	a,(_uip_process_sloc3_1_0 + 1)
   2394 FB                 6847 	mov	r3,a
   2395 AC*0D              6848 	mov	r4,(_uip_process_sloc3_1_0 + 2)
   2397 8A 82              6849 	mov	dpl,r2
   2399 8B 83              6850 	mov	dph,r3
   239B 8C F0              6851 	mov	b,r4
   239D E4                 6852 	clr	a
   239E 12s00r00           6853 	lcall	__gptrput
                    23A1   6854 	C$uip.c$1807$1$1 ==.
                           6855 ;	..\uip\uip.c:1807: }
   23A1                    6856 00362$:
                    23A1   6857 	C$uip.c$1808$1$1 ==.
                           6858 ;	..\uip\uip.c:1808: goto drop;
   23A1 02s27r06           6859 	ljmp	00379$
                    23A4   6860 	C$uip.c$1813$1$1 ==.
                           6861 ;	..\uip\uip.c:1813: tcp_send_ack:
   23A4                    6862 00363$:
                    23A4   6863 	C$uip.c$1814$1$1 ==.
                           6864 ;	..\uip\uip.c:1814: BUF->flags = TCP_ACK;
   23A4 90s00r3B           6865 	mov	dptr,#(_uip_buf + 0x002f)
   23A7 75 F0 00           6866 	mov	b,#0x00
   23AA 74 10              6867 	mov	a,#0x10
   23AC 12s00r00           6868 	lcall	__gptrput
                    23AF   6869 	C$uip.c$1815$1$1 ==.
                           6870 ;	..\uip\uip.c:1815: tcp_send_nodata:
   23AF                    6871 00364$:
                    23AF   6872 	C$uip.c$1816$1$1 ==.
                           6873 ;	..\uip\uip.c:1816: uip_len = UIP_IPTCPH_LEN;
   23AF 90s01rA4           6874 	mov	dptr,#_uip_len
   23B2 74 28              6875 	mov	a,#0x28
   23B4 F0                 6876 	movx	@dptr,a
   23B5 E4                 6877 	clr	a
   23B6 A3                 6878 	inc	dptr
   23B7 F0                 6879 	movx	@dptr,a
                    23B8   6880 	C$uip.c$1817$1$1 ==.
                           6881 ;	..\uip\uip.c:1817: tcp_send_noopts:
   23B8                    6882 00365$:
                    23B8   6883 	C$uip.c$1818$1$1 ==.
                           6884 ;	..\uip\uip.c:1818: BUF->tcpoffset = (UIP_TCPH_LEN / 4) << 4;
   23B8 90s00r3A           6885 	mov	dptr,#(_uip_buf + 0x002e)
   23BB 75 F0 00           6886 	mov	b,#0x00
   23BE 74 50              6887 	mov	a,#0x50
   23C0 12s00r00           6888 	lcall	__gptrput
                    23C3   6889 	C$uip.c$1819$1$1 ==.
                           6890 ;	..\uip\uip.c:1819: tcp_send:
   23C3                    6891 00366$:
                    23C3   6892 	C$uip.c$1824$1$1 ==.
                           6893 ;	..\uip\uip.c:1824: BUF->ackno[0] = uip_connr->rcv_nxt[0];
   23C3 75*11r36           6894 	mov	_uip_process_sloc5_1_0,#(_uip_buf + 0x002a)
   23C6 75*12s00           6895 	mov	(_uip_process_sloc5_1_0 + 1),#((_uip_buf + 0x002a) >> 8)
   23C9 75*13 00           6896 	mov	(_uip_process_sloc5_1_0 + 2),#0x00
   23CC 90s0Dr83           6897 	mov	dptr,#_uip_process_uip_connr_1_1
   23CF E0                 6898 	movx	a,@dptr
   23D0 FD                 6899 	mov	r5,a
   23D1 A3                 6900 	inc	dptr
   23D2 E0                 6901 	movx	a,@dptr
   23D3 FE                 6902 	mov	r6,a
   23D4 A3                 6903 	inc	dptr
   23D5 E0                 6904 	movx	a,@dptr
   23D6 FF                 6905 	mov	r7,a
   23D7 74 08              6906 	mov	a,#0x08
   23D9 2D                 6907 	add	a,r5
   23DA F5*0E              6908 	mov	_uip_process_sloc4_1_0,a
   23DC E4                 6909 	clr	a
   23DD 3E                 6910 	addc	a,r6
   23DE F5*0F              6911 	mov	(_uip_process_sloc4_1_0 + 1),a
   23E0 8F*10              6912 	mov	(_uip_process_sloc4_1_0 + 2),r7
   23E2 85*0E 82           6913 	mov	dpl,_uip_process_sloc4_1_0
   23E5 85*0F 83           6914 	mov	dph,(_uip_process_sloc4_1_0 + 1)
   23E8 85*10 F0           6915 	mov	b,(_uip_process_sloc4_1_0 + 2)
   23EB 12s00r00           6916 	lcall	__gptrget
   23EE 85*11 82           6917 	mov	dpl,_uip_process_sloc5_1_0
   23F1 85*12 83           6918 	mov	dph,(_uip_process_sloc5_1_0 + 1)
   23F4 85*13 F0           6919 	mov	b,(_uip_process_sloc5_1_0 + 2)
   23F7 12s00r00           6920 	lcall	__gptrput
                    23FA   6921 	C$uip.c$1825$1$1 ==.
                           6922 ;	..\uip\uip.c:1825: BUF->ackno[1] = uip_connr->rcv_nxt[1];
   23FA 74 01              6923 	mov	a,#0x01
   23FC 25*0E              6924 	add	a,_uip_process_sloc4_1_0
   23FE FB                 6925 	mov	r3,a
   23FF E4                 6926 	clr	a
   2400 35*0F              6927 	addc	a,(_uip_process_sloc4_1_0 + 1)
   2402 FC                 6928 	mov	r4,a
   2403 AA*10              6929 	mov	r2,(_uip_process_sloc4_1_0 + 2)
   2405 8B 82              6930 	mov	dpl,r3
   2407 8C 83              6931 	mov	dph,r4
   2409 8A F0              6932 	mov	b,r2
   240B 12s00r00           6933 	lcall	__gptrget
   240E FB                 6934 	mov	r3,a
   240F 90s00r37           6935 	mov	dptr,#(_uip_buf + 0x002b)
   2412 75 F0 00           6936 	mov	b,#0x00
   2415 EB                 6937 	mov	a,r3
   2416 12s00r00           6938 	lcall	__gptrput
                    2419   6939 	C$uip.c$1826$1$1 ==.
                           6940 ;	..\uip\uip.c:1826: BUF->ackno[2] = uip_connr->rcv_nxt[2];
   2419 74 02              6941 	mov	a,#0x02
   241B 25*0E              6942 	add	a,_uip_process_sloc4_1_0
   241D FA                 6943 	mov	r2,a
   241E E4                 6944 	clr	a
   241F 35*0F              6945 	addc	a,(_uip_process_sloc4_1_0 + 1)
   2421 FB                 6946 	mov	r3,a
   2422 AC*10              6947 	mov	r4,(_uip_process_sloc4_1_0 + 2)
   2424 8A 82              6948 	mov	dpl,r2
   2426 8B 83              6949 	mov	dph,r3
   2428 8C F0              6950 	mov	b,r4
   242A 12s00r00           6951 	lcall	__gptrget
   242D FA                 6952 	mov	r2,a
   242E 90s00r38           6953 	mov	dptr,#(_uip_buf + 0x002c)
   2431 75 F0 00           6954 	mov	b,#0x00
   2434 EA                 6955 	mov	a,r2
   2435 12s00r00           6956 	lcall	__gptrput
                    2438   6957 	C$uip.c$1827$1$1 ==.
                           6958 ;	..\uip\uip.c:1827: BUF->ackno[3] = uip_connr->rcv_nxt[3];
   2438 74 03              6959 	mov	a,#0x03
   243A 25*0E              6960 	add	a,_uip_process_sloc4_1_0
   243C FA                 6961 	mov	r2,a
   243D E4                 6962 	clr	a
   243E 35*0F              6963 	addc	a,(_uip_process_sloc4_1_0 + 1)
   2440 FB                 6964 	mov	r3,a
   2441 AC*10              6965 	mov	r4,(_uip_process_sloc4_1_0 + 2)
   2443 8A 82              6966 	mov	dpl,r2
   2445 8B 83              6967 	mov	dph,r3
   2447 8C F0              6968 	mov	b,r4
   2449 12s00r00           6969 	lcall	__gptrget
   244C FA                 6970 	mov	r2,a
   244D 90s00r39           6971 	mov	dptr,#(_uip_buf + 0x002d)
   2450 75 F0 00           6972 	mov	b,#0x00
   2453 EA                 6973 	mov	a,r2
   2454 12s00r00           6974 	lcall	__gptrput
                    2457   6975 	C$uip.c$1829$1$1 ==.
                           6976 ;	..\uip\uip.c:1829: BUF->seqno[0] = uip_connr->snd_nxt[0];
   2457 75*11r32           6977 	mov	_uip_process_sloc5_1_0,#(_uip_buf + 0x0026)
   245A 75*12s00           6978 	mov	(_uip_process_sloc5_1_0 + 1),#((_uip_buf + 0x0026) >> 8)
   245D 75*13 00           6979 	mov	(_uip_process_sloc5_1_0 + 2),#0x00
   2460 74 0C              6980 	mov	a,#0x0C
   2462 2D                 6981 	add	a,r5
   2463 F5*0E              6982 	mov	_uip_process_sloc4_1_0,a
   2465 E4                 6983 	clr	a
   2466 3E                 6984 	addc	a,r6
   2467 F5*0F              6985 	mov	(_uip_process_sloc4_1_0 + 1),a
   2469 8F*10              6986 	mov	(_uip_process_sloc4_1_0 + 2),r7
   246B 85*0E 82           6987 	mov	dpl,_uip_process_sloc4_1_0
   246E 85*0F 83           6988 	mov	dph,(_uip_process_sloc4_1_0 + 1)
   2471 85*10 F0           6989 	mov	b,(_uip_process_sloc4_1_0 + 2)
   2474 12s00r00           6990 	lcall	__gptrget
   2477 85*11 82           6991 	mov	dpl,_uip_process_sloc5_1_0
   247A 85*12 83           6992 	mov	dph,(_uip_process_sloc5_1_0 + 1)
   247D 85*13 F0           6993 	mov	b,(_uip_process_sloc5_1_0 + 2)
   2480 12s00r00           6994 	lcall	__gptrput
                    2483   6995 	C$uip.c$1830$1$1 ==.
                           6996 ;	..\uip\uip.c:1830: BUF->seqno[1] = uip_connr->snd_nxt[1];
   2483 74 01              6997 	mov	a,#0x01
   2485 25*0E              6998 	add	a,_uip_process_sloc4_1_0
   2487 FB                 6999 	mov	r3,a
   2488 E4                 7000 	clr	a
   2489 35*0F              7001 	addc	a,(_uip_process_sloc4_1_0 + 1)
   248B FC                 7002 	mov	r4,a
   248C AA*10              7003 	mov	r2,(_uip_process_sloc4_1_0 + 2)
   248E 8B 82              7004 	mov	dpl,r3
   2490 8C 83              7005 	mov	dph,r4
   2492 8A F0              7006 	mov	b,r2
   2494 12s00r00           7007 	lcall	__gptrget
   2497 FB                 7008 	mov	r3,a
   2498 90s00r33           7009 	mov	dptr,#(_uip_buf + 0x0027)
   249B 75 F0 00           7010 	mov	b,#0x00
   249E EB                 7011 	mov	a,r3
   249F 12s00r00           7012 	lcall	__gptrput
                    24A2   7013 	C$uip.c$1831$1$1 ==.
                           7014 ;	..\uip\uip.c:1831: BUF->seqno[2] = uip_connr->snd_nxt[2];
   24A2 74 02              7015 	mov	a,#0x02
   24A4 25*0E              7016 	add	a,_uip_process_sloc4_1_0
   24A6 FA                 7017 	mov	r2,a
   24A7 E4                 7018 	clr	a
   24A8 35*0F              7019 	addc	a,(_uip_process_sloc4_1_0 + 1)
   24AA FB                 7020 	mov	r3,a
   24AB AC*10              7021 	mov	r4,(_uip_process_sloc4_1_0 + 2)
   24AD 8A 82              7022 	mov	dpl,r2
   24AF 8B 83              7023 	mov	dph,r3
   24B1 8C F0              7024 	mov	b,r4
   24B3 12s00r00           7025 	lcall	__gptrget
   24B6 FA                 7026 	mov	r2,a
   24B7 90s00r34           7027 	mov	dptr,#(_uip_buf + 0x0028)
   24BA 75 F0 00           7028 	mov	b,#0x00
   24BD EA                 7029 	mov	a,r2
   24BE 12s00r00           7030 	lcall	__gptrput
                    24C1   7031 	C$uip.c$1832$1$1 ==.
                           7032 ;	..\uip\uip.c:1832: BUF->seqno[3] = uip_connr->snd_nxt[3];
   24C1 74 03              7033 	mov	a,#0x03
   24C3 25*0E              7034 	add	a,_uip_process_sloc4_1_0
   24C5 FA                 7035 	mov	r2,a
   24C6 E4                 7036 	clr	a
   24C7 35*0F              7037 	addc	a,(_uip_process_sloc4_1_0 + 1)
   24C9 FB                 7038 	mov	r3,a
   24CA AC*10              7039 	mov	r4,(_uip_process_sloc4_1_0 + 2)
   24CC 8A 82              7040 	mov	dpl,r2
   24CE 8B 83              7041 	mov	dph,r3
   24D0 8C F0              7042 	mov	b,r4
   24D2 12s00r00           7043 	lcall	__gptrget
   24D5 FA                 7044 	mov	r2,a
   24D6 90s00r35           7045 	mov	dptr,#(_uip_buf + 0x0029)
   24D9 75 F0 00           7046 	mov	b,#0x00
   24DC EA                 7047 	mov	a,r2
   24DD 12s00r00           7048 	lcall	__gptrput
                    24E0   7049 	C$uip.c$1834$1$1 ==.
                           7050 ;	..\uip\uip.c:1834: BUF->proto = UIP_PROTO_TCP;
   24E0 90s00r23           7051 	mov	dptr,#(_uip_buf + 0x0017)
   24E3 75 F0 00           7052 	mov	b,#0x00
   24E6 74 06              7053 	mov	a,#0x06
   24E8 12s00r00           7054 	lcall	__gptrput
                    24EB   7055 	C$uip.c$1836$1$1 ==.
                           7056 ;	..\uip\uip.c:1836: BUF->srcport  = uip_connr->lport;
   24EB 74 04              7057 	mov	a,#0x04
   24ED 2D                 7058 	add	a,r5
   24EE FA                 7059 	mov	r2,a
   24EF E4                 7060 	clr	a
   24F0 3E                 7061 	addc	a,r6
   24F1 FB                 7062 	mov	r3,a
   24F2 8F 04              7063 	mov	ar4,r7
   24F4 8A 82              7064 	mov	dpl,r2
   24F6 8B 83              7065 	mov	dph,r3
   24F8 8C F0              7066 	mov	b,r4
   24FA 12s00r00           7067 	lcall	__gptrget
   24FD FA                 7068 	mov	r2,a
   24FE A3                 7069 	inc	dptr
   24FF 12s00r00           7070 	lcall	__gptrget
   2502 FB                 7071 	mov	r3,a
   2503 90s00r2E           7072 	mov	dptr,#(_uip_buf + 0x0022)
   2506 75 F0 00           7073 	mov	b,#0x00
   2509 EA                 7074 	mov	a,r2
   250A 12s00r00           7075 	lcall	__gptrput
   250D A3                 7076 	inc	dptr
   250E EB                 7077 	mov	a,r3
   250F 12s00r00           7078 	lcall	__gptrput
                    2512   7079 	C$uip.c$1837$1$1 ==.
                           7080 ;	..\uip\uip.c:1837: BUF->destport = uip_connr->rport;
   2512 74 06              7081 	mov	a,#0x06
   2514 2D                 7082 	add	a,r5
   2515 FA                 7083 	mov	r2,a
   2516 E4                 7084 	clr	a
   2517 3E                 7085 	addc	a,r6
   2518 FB                 7086 	mov	r3,a
   2519 8F 04              7087 	mov	ar4,r7
   251B 8A 82              7088 	mov	dpl,r2
   251D 8B 83              7089 	mov	dph,r3
   251F 8C F0              7090 	mov	b,r4
   2521 12s00r00           7091 	lcall	__gptrget
   2524 FA                 7092 	mov	r2,a
   2525 A3                 7093 	inc	dptr
   2526 12s00r00           7094 	lcall	__gptrget
   2529 FB                 7095 	mov	r3,a
   252A 90s00r30           7096 	mov	dptr,#(_uip_buf + 0x0024)
   252D 75 F0 00           7097 	mov	b,#0x00
   2530 EA                 7098 	mov	a,r2
   2531 12s00r00           7099 	lcall	__gptrput
   2534 A3                 7100 	inc	dptr
   2535 EB                 7101 	mov	a,r3
   2536 12s00r00           7102 	lcall	__gptrput
                    2539   7103 	C$uip.c$1839$2$102 ==.
                           7104 ;	..\uip\uip.c:1839: uip_ipaddr_copy(BUF->srcipaddr, uip_hostaddr);
   2539 90s00r00           7105 	mov	dptr,#_uip_hostaddr
   253C E0                 7106 	movx	a,@dptr
   253D FA                 7107 	mov	r2,a
   253E A3                 7108 	inc	dptr
   253F E0                 7109 	movx	a,@dptr
   2540 FB                 7110 	mov	r3,a
   2541 90s00r26           7111 	mov	dptr,#(_uip_buf + 0x001a)
   2544 75 F0 00           7112 	mov	b,#0x00
   2547 EA                 7113 	mov	a,r2
   2548 12s00r00           7114 	lcall	__gptrput
   254B A3                 7115 	inc	dptr
   254C EB                 7116 	mov	a,r3
   254D 12s00r00           7117 	lcall	__gptrput
   2550 90s00r02           7118 	mov	dptr,#(_uip_hostaddr + 0x0002)
   2553 75 F0 00           7119 	mov	b,#0x00
   2556 12s00r00           7120 	lcall	__gptrget
   2559 FA                 7121 	mov	r2,a
   255A A3                 7122 	inc	dptr
   255B 12s00r00           7123 	lcall	__gptrget
   255E FB                 7124 	mov	r3,a
   255F 90s00r28           7125 	mov	dptr,#(_uip_buf + 0x001c)
   2562 75 F0 00           7126 	mov	b,#0x00
   2565 EA                 7127 	mov	a,r2
   2566 12s00r00           7128 	lcall	__gptrput
   2569 A3                 7129 	inc	dptr
   256A EB                 7130 	mov	a,r3
   256B 12s00r00           7131 	lcall	__gptrput
                    256E   7132 	C$uip.c$1840$2$103 ==.
                           7133 ;	..\uip\uip.c:1840: uip_ipaddr_copy(BUF->destipaddr, uip_connr->ripaddr);
   256E 8D 82              7134 	mov	dpl,r5
   2570 8E 83              7135 	mov	dph,r6
   2572 8F F0              7136 	mov	b,r7
   2574 12s00r00           7137 	lcall	__gptrget
   2577 FA                 7138 	mov	r2,a
   2578 A3                 7139 	inc	dptr
   2579 12s00r00           7140 	lcall	__gptrget
   257C FB                 7141 	mov	r3,a
   257D 90s00r2A           7142 	mov	dptr,#(_uip_buf + 0x001e)
   2580 75 F0 00           7143 	mov	b,#0x00
   2583 EA                 7144 	mov	a,r2
   2584 12s00r00           7145 	lcall	__gptrput
   2587 A3                 7146 	inc	dptr
   2588 EB                 7147 	mov	a,r3
   2589 12s00r00           7148 	lcall	__gptrput
   258C 74 02              7149 	mov	a,#0x02
   258E 2D                 7150 	add	a,r5
   258F FA                 7151 	mov	r2,a
   2590 E4                 7152 	clr	a
   2591 3E                 7153 	addc	a,r6
   2592 FB                 7154 	mov	r3,a
   2593 8F 04              7155 	mov	ar4,r7
   2595 8A 82              7156 	mov	dpl,r2
   2597 8B 83              7157 	mov	dph,r3
   2599 8C F0              7158 	mov	b,r4
   259B 12s00r00           7159 	lcall	__gptrget
   259E FA                 7160 	mov	r2,a
   259F A3                 7161 	inc	dptr
   25A0 12s00r00           7162 	lcall	__gptrget
   25A3 FB                 7163 	mov	r3,a
   25A4 90s00r2C           7164 	mov	dptr,#(_uip_buf + 0x0020)
   25A7 75 F0 00           7165 	mov	b,#0x00
   25AA EA                 7166 	mov	a,r2
   25AB 12s00r00           7167 	lcall	__gptrput
   25AE A3                 7168 	inc	dptr
   25AF EB                 7169 	mov	a,r3
   25B0 12s00r00           7170 	lcall	__gptrput
                    25B3   7171 	C$uip.c$1842$1$1 ==.
                           7172 ;	..\uip\uip.c:1842: if (uip_connr->tcpstateflags & UIP_STOPPED) {
   25B3 74 19              7173 	mov	a,#0x19
   25B5 2D                 7174 	add	a,r5
   25B6 FD                 7175 	mov	r5,a
   25B7 E4                 7176 	clr	a
   25B8 3E                 7177 	addc	a,r6
   25B9 FE                 7178 	mov	r6,a
   25BA 8D 82              7179 	mov	dpl,r5
   25BC 8E 83              7180 	mov	dph,r6
   25BE 8F F0              7181 	mov	b,r7
   25C0 12s00r00           7182 	lcall	__gptrget
   25C3 FD                 7183 	mov	r5,a
   25C4 30 E4 1B           7184 	jnb	acc.4,00374$
                    25C7   7185 	C$uip.c$1845$2$104 ==.
                           7186 ;	..\uip\uip.c:1845: BUF->wnd[0] = BUF->wnd[1] = 0;
   25C7 7Ar3C              7187 	mov	r2,#(_uip_buf + 0x0030)
   25C9 7Bs00              7188 	mov	r3,#((_uip_buf + 0x0030) >> 8)
   25CB 7C 00              7189 	mov	r4,#0x00
   25CD 90s00r3D           7190 	mov	dptr,#(_uip_buf + 0x0031)
   25D0 E4                 7191 	clr	a
   25D1 F5 F0              7192 	mov	b,a
   25D3 12s00r00           7193 	lcall	__gptrput
   25D6 8A 82              7194 	mov	dpl,r2
   25D8 8B 83              7195 	mov	dph,r3
   25DA 8C F0              7196 	mov	b,r4
   25DC E4                 7197 	clr	a
   25DD 12s00r00           7198 	lcall	__gptrput
   25E0 80 1C              7199 	sjmp	00376$
   25E2                    7200 00374$:
                    25E2   7201 	C$uip.c$1847$2$105 ==.
                           7202 ;	..\uip\uip.c:1847: BUF->wnd[0] = ((UIP_RECEIVE_WINDOW) >> 8);
   25E2 7Ar3C              7203 	mov	r2,#(_uip_buf + 0x0030)
   25E4 7Bs00              7204 	mov	r3,#((_uip_buf + 0x0030) >> 8)
   25E6 7C 00              7205 	mov	r4,#0x00
   25E8 8A 82              7206 	mov	dpl,r2
   25EA 8B 83              7207 	mov	dph,r3
   25EC 8C F0              7208 	mov	b,r4
   25EE 74 01              7209 	mov	a,#0x01
   25F0 12s00r00           7210 	lcall	__gptrput
                    25F3   7211 	C$uip.c$1848$2$105 ==.
                           7212 ;	..\uip\uip.c:1848: BUF->wnd[1] = ((UIP_RECEIVE_WINDOW) & 0xff);
   25F3 90s00r3D           7213 	mov	dptr,#(_uip_buf + 0x0031)
   25F6 75 F0 00           7214 	mov	b,#0x00
   25F9 74 5A              7215 	mov	a,#0x5A
   25FB 12s00r00           7216 	lcall	__gptrput
                    25FE   7217 	C$uip.c$1851$1$1 ==.
                           7218 ;	..\uip\uip.c:1851: tcp_send_noconn:
   25FE                    7219 00376$:
                    25FE   7220 	C$uip.c$1852$1$1 ==.
                           7221 ;	..\uip\uip.c:1852: BUF->ttl = UIP_TTL;
   25FE 90s00r22           7222 	mov	dptr,#(_uip_buf + 0x0016)
   2601 75 F0 00           7223 	mov	b,#0x00
   2604 74 40              7224 	mov	a,#0x40
   2606 12s00r00           7225 	lcall	__gptrput
                    2609   7226 	C$uip.c$1859$1$1 ==.
                           7227 ;	..\uip\uip.c:1859: BUF->len[0] = (uip_len >> 8);
   2609 7Ar1C              7228 	mov	r2,#(_uip_buf + 0x0010)
   260B 7Bs00              7229 	mov	r3,#((_uip_buf + 0x0010) >> 8)
   260D 7C 00              7230 	mov	r4,#0x00
   260F 90s01rA4           7231 	mov	dptr,#_uip_len
   2612 E0                 7232 	movx	a,@dptr
   2613 FD                 7233 	mov	r5,a
   2614 A3                 7234 	inc	dptr
   2615 E0                 7235 	movx	a,@dptr
   2616 8A 82              7236 	mov	dpl,r2
   2618 8B 83              7237 	mov	dph,r3
   261A 8C F0              7238 	mov	b,r4
   261C 12s00r00           7239 	lcall	__gptrput
                    261F   7240 	C$uip.c$1860$1$1 ==.
                           7241 ;	..\uip\uip.c:1860: BUF->len[1] = (uip_len & 0xff);
   261F 90s00r1D           7242 	mov	dptr,#(_uip_buf + 0x0011)
   2622 75 F0 00           7243 	mov	b,#0x00
   2625 ED                 7244 	mov	a,r5
   2626 12s00r00           7245 	lcall	__gptrput
                    2629   7246 	C$uip.c$1863$1$1 ==.
                           7247 ;	..\uip\uip.c:1863: BUF->urgp[0] = BUF->urgp[1] = 0;
   2629 7Ar40              7248 	mov	r2,#(_uip_buf + 0x0034)
   262B 7Bs00              7249 	mov	r3,#((_uip_buf + 0x0034) >> 8)
   262D 7C 00              7250 	mov	r4,#0x00
   262F 90s00r41           7251 	mov	dptr,#(_uip_buf + 0x0035)
   2632 E4                 7252 	clr	a
   2633 F5 F0              7253 	mov	b,a
   2635 12s00r00           7254 	lcall	__gptrput
   2638 8A 82              7255 	mov	dpl,r2
   263A 8B 83              7256 	mov	dph,r3
   263C 8C F0              7257 	mov	b,r4
   263E E4                 7258 	clr	a
   263F 12s00r00           7259 	lcall	__gptrput
                    2642   7260 	C$uip.c$1866$1$1 ==.
                           7261 ;	..\uip\uip.c:1866: BUF->tcpchksum = 0;
   2642 90s00r3E           7262 	mov	dptr,#(_uip_buf + 0x0032)
   2645 E4                 7263 	clr	a
   2646 F5 F0              7264 	mov	b,a
   2648 12s00r00           7265 	lcall	__gptrput
   264B A3                 7266 	inc	dptr
   264C E4                 7267 	clr	a
   264D 12s00r00           7268 	lcall	__gptrput
                    2650   7269 	C$uip.c$1867$1$1 ==.
                           7270 ;	..\uip\uip.c:1867: BUF->tcpchksum = ~(uip_tcpchksum());
   2650 78r6E              7271 	mov	r0,#_uip_tcpchksum
   2652 79s03              7272 	mov	r1,#(_uip_tcpchksum >> 8)
   2654 7As00              7273 	mov	r2,#(_uip_tcpchksum >> 16)
   2656 12s00r00           7274 	lcall	__sdcc_banked_call
   2659 AA 82              7275 	mov	r2,dpl
   265B AB 83              7276 	mov	r3,dph
   265D EA                 7277 	mov	a,r2
   265E F4                 7278 	cpl	a
   265F FA                 7279 	mov	r2,a
   2660 EB                 7280 	mov	a,r3
   2661 F4                 7281 	cpl	a
   2662 FB                 7282 	mov	r3,a
   2663 90s00r3E           7283 	mov	dptr,#(_uip_buf + 0x0032)
   2666 75 F0 00           7284 	mov	b,#0x00
   2669 EA                 7285 	mov	a,r2
   266A 12s00r00           7286 	lcall	__gptrput
   266D A3                 7287 	inc	dptr
   266E EB                 7288 	mov	a,r3
   266F 12s00r00           7289 	lcall	__gptrput
                    2672   7290 	C$uip.c$1876$1$1 ==.
                           7291 ;	..\uip\uip.c:1876: BUF->vhl = 0x45;
   2672 90s00r1A           7292 	mov	dptr,#(_uip_buf + 0x000e)
   2675 74 45              7293 	mov	a,#0x45
   2677 F0                 7294 	movx	@dptr,a
                    2678   7295 	C$uip.c$1877$1$1 ==.
                           7296 ;	..\uip\uip.c:1877: BUF->tos = 0;
   2678 90s00r1B           7297 	mov	dptr,#(_uip_buf + 0x000f)
   267B E4                 7298 	clr	a
   267C F5 F0              7299 	mov	b,a
   267E 12s00r00           7300 	lcall	__gptrput
                    2681   7301 	C$uip.c$1878$1$1 ==.
                           7302 ;	..\uip\uip.c:1878: BUF->ipoffset[0] = BUF->ipoffset[1] = 0;
   2681 7Ar20              7303 	mov	r2,#(_uip_buf + 0x0014)
   2683 7Bs00              7304 	mov	r3,#((_uip_buf + 0x0014) >> 8)
   2685 7C 00              7305 	mov	r4,#0x00
   2687 90s00r21           7306 	mov	dptr,#(_uip_buf + 0x0015)
   268A E4                 7307 	clr	a
   268B F5 F0              7308 	mov	b,a
   268D 12s00r00           7309 	lcall	__gptrput
   2690 8A 82              7310 	mov	dpl,r2
   2692 8B 83              7311 	mov	dph,r3
   2694 8C F0              7312 	mov	b,r4
   2696 E4                 7313 	clr	a
   2697 12s00r00           7314 	lcall	__gptrput
                    269A   7315 	C$uip.c$1879$1$1 ==.
                           7316 ;	..\uip\uip.c:1879: ++ipid;
   269A 90s0Dr50           7317 	mov	dptr,#_ipid
   269D E0                 7318 	movx	a,@dptr
   269E 24 01              7319 	add	a,#0x01
   26A0 F0                 7320 	movx	@dptr,a
   26A1 A3                 7321 	inc	dptr
   26A2 E0                 7322 	movx	a,@dptr
   26A3 34 00              7323 	addc	a,#0x00
   26A5 F0                 7324 	movx	@dptr,a
                    26A6   7325 	C$uip.c$1880$1$1 ==.
                           7326 ;	..\uip\uip.c:1880: BUF->ipid[0] = ipid >> 8;
   26A6 7Ar1E              7327 	mov	r2,#(_uip_buf + 0x0012)
   26A8 7Bs00              7328 	mov	r3,#((_uip_buf + 0x0012) >> 8)
   26AA 7C 00              7329 	mov	r4,#0x00
   26AC 90s0Dr50           7330 	mov	dptr,#_ipid
   26AF E0                 7331 	movx	a,@dptr
   26B0 FD                 7332 	mov	r5,a
   26B1 A3                 7333 	inc	dptr
   26B2 E0                 7334 	movx	a,@dptr
   26B3 8A 82              7335 	mov	dpl,r2
   26B5 8B 83              7336 	mov	dph,r3
   26B7 8C F0              7337 	mov	b,r4
   26B9 12s00r00           7338 	lcall	__gptrput
                    26BC   7339 	C$uip.c$1881$1$1 ==.
                           7340 ;	..\uip\uip.c:1881: BUF->ipid[1] = ipid & 0xff;
   26BC 90s00r1F           7341 	mov	dptr,#(_uip_buf + 0x0013)
   26BF 75 F0 00           7342 	mov	b,#0x00
   26C2 ED                 7343 	mov	a,r5
   26C3 12s00r00           7344 	lcall	__gptrput
                    26C6   7345 	C$uip.c$1883$1$1 ==.
                           7346 ;	..\uip\uip.c:1883: BUF->ipchksum = 0;
   26C6 90s00r24           7347 	mov	dptr,#(_uip_buf + 0x0018)
   26C9 E4                 7348 	clr	a
   26CA F5 F0              7349 	mov	b,a
   26CC 12s00r00           7350 	lcall	__gptrput
   26CF A3                 7351 	inc	dptr
   26D0 E4                 7352 	clr	a
   26D1 12s00r00           7353 	lcall	__gptrput
                    26D4   7354 	C$uip.c$1884$1$1 ==.
                           7355 ;	..\uip\uip.c:1884: BUF->ipchksum = ~(uip_ipchksum());
   26D4 78r70              7356 	mov	r0,#_uip_ipchksum
   26D6 79s02              7357 	mov	r1,#(_uip_ipchksum >> 8)
   26D8 7As00              7358 	mov	r2,#(_uip_ipchksum >> 16)
   26DA 12s00r00           7359 	lcall	__sdcc_banked_call
   26DD AA 82              7360 	mov	r2,dpl
   26DF AB 83              7361 	mov	r3,dph
   26E1 EA                 7362 	mov	a,r2
   26E2 F4                 7363 	cpl	a
   26E3 FA                 7364 	mov	r2,a
   26E4 EB                 7365 	mov	a,r3
   26E5 F4                 7366 	cpl	a
   26E6 FB                 7367 	mov	r3,a
   26E7 90s00r24           7368 	mov	dptr,#(_uip_buf + 0x0018)
   26EA 75 F0 00           7369 	mov	b,#0x00
   26ED EA                 7370 	mov	a,r2
   26EE 12s00r00           7371 	lcall	__gptrput
   26F1 A3                 7372 	inc	dptr
   26F2 EB                 7373 	mov	a,r3
   26F3 12s00r00           7374 	lcall	__gptrput
                    26F6   7375 	C$uip.c$1885$1$1 ==.
                           7376 ;	..\uip\uip.c:1885: DEBUG_PRINTF("uip ip_send_nolen: chkecum 0x%04x\n", uip_ipchksum());
   26F6 78r70              7377 	mov	r0,#_uip_ipchksum
   26F8 79s02              7378 	mov	r1,#(_uip_ipchksum >> 8)
   26FA 7As00              7379 	mov	r2,#(_uip_ipchksum >> 16)
   26FC 12s00r00           7380 	lcall	__sdcc_banked_call
                    26FF   7381 	C$uip.c$1889$1$1 ==.
                           7382 ;	..\uip\uip.c:1889: send:
   26FF                    7383 00378$:
                    26FF   7384 	C$uip.c$1895$1$1 ==.
                           7385 ;	..\uip\uip.c:1895: uip_flags = 0;
   26FF 90s01rA8           7386 	mov	dptr,#_uip_flags
   2702 E4                 7387 	clr	a
   2703 F0                 7388 	movx	@dptr,a
                    2704   7389 	C$uip.c$1896$1$1 ==.
                           7390 ;	..\uip\uip.c:1896: return;
                    2704   7391 	C$uip.c$1897$1$1 ==.
                           7392 ;	..\uip\uip.c:1897: drop:
   2704 80 0C              7393 	sjmp	00388$
   2706                    7394 00379$:
                    2706   7395 	C$uip.c$1898$1$1 ==.
                           7396 ;	..\uip\uip.c:1898: uip_len = 0;
   2706 90s01rA4           7397 	mov	dptr,#_uip_len
   2709 E4                 7398 	clr	a
   270A F0                 7399 	movx	@dptr,a
   270B A3                 7400 	inc	dptr
   270C F0                 7401 	movx	@dptr,a
                    270D   7402 	C$uip.c$1899$1$1 ==.
                           7403 ;	..\uip\uip.c:1899: uip_flags = 0;
   270D 90s01rA8           7404 	mov	dptr,#_uip_flags
   2710 E4                 7405 	clr	a
   2711 F0                 7406 	movx	@dptr,a
                    2712   7407 	C$uip.c$1900$1$1 ==.
                           7408 ;	..\uip\uip.c:1900: return;
   2712                    7409 00388$:
                    2712   7410 	C$uip.c$1901$1$1 ==.
                    2712   7411 	XG$uip_process$0$0 ==.
   2712 02s00r00           7412 	ljmp	__sdcc_banked_ret
                           7413 ;------------------------------------------------------------
                           7414 ;Allocation info for local variables in function 'htons'
                           7415 ;------------------------------------------------------------
                           7416 ;val                       Allocated with name '_htons_val_1_1'
                           7417 ;------------------------------------------------------------
                    2715   7418 	G$htons$0$0 ==.
                    2715   7419 	C$uip.c$1904$1$1 ==.
                           7420 ;	..\uip\uip.c:1904: htons(u16_t val) banked
                           7421 ;	-----------------------------------------
                           7422 ;	 function htons
                           7423 ;	-----------------------------------------
   2715                    7424 _htons:
   2715 AA 83              7425 	mov	r2,dph
   2717 E5 82              7426 	mov	a,dpl
   2719 90s0Dr87           7427 	mov	dptr,#_htons_val_1_1
   271C F0                 7428 	movx	@dptr,a
   271D A3                 7429 	inc	dptr
   271E EA                 7430 	mov	a,r2
   271F F0                 7431 	movx	@dptr,a
                    2720   7432 	C$uip.c$1906$1$1 ==.
                           7433 ;	..\uip\uip.c:1906: return HTONS(val);
   2720 90s0Dr87           7434 	mov	dptr,#_htons_val_1_1
   2723 E0                 7435 	movx	a,@dptr
   2724 FA                 7436 	mov	r2,a
   2725 A3                 7437 	inc	dptr
   2726 E0                 7438 	movx	a,@dptr
   2727 FB                 7439 	mov	r3,a
   2728 EA                 7440 	mov	a,r2
   2729 8B 02              7441 	mov	ar2,r3
   272B FB                 7442 	mov	r3,a
   272C 8A 82              7443 	mov	dpl,r2
   272E 8B 83              7444 	mov	dph,r3
                    2730   7445 	C$uip.c$1907$1$1 ==.
                    2730   7446 	XG$htons$0$0 ==.
   2730 02s00r00           7447 	ljmp	__sdcc_banked_ret
                           7448 ;------------------------------------------------------------
                           7449 ;Allocation info for local variables in function 'uip_send'
                           7450 ;------------------------------------------------------------
                           7451 ;len                       Allocated with name '_uip_send_PARM_2'
                           7452 ;indata                    Allocated with name '_uip_send_indata_1_1'
                           7453 ;------------------------------------------------------------
                    2733   7454 	G$uip_send$0$0 ==.
                    2733   7455 	C$uip.c$1910$1$1 ==.
                           7456 ;	..\uip\uip.c:1910: uip_send(const void *indata, int len) banked
                           7457 ;	-----------------------------------------
                           7458 ;	 function uip_send
                           7459 ;	-----------------------------------------
   2733                    7460 _uip_send:
   2733 AA F0              7461 	mov	r2,b
   2735 AB 83              7462 	mov	r3,dph
   2737 E5 82              7463 	mov	a,dpl
   2739 90s0Dr8B           7464 	mov	dptr,#_uip_send_indata_1_1
   273C F0                 7465 	movx	@dptr,a
   273D A3                 7466 	inc	dptr
   273E EB                 7467 	mov	a,r3
   273F F0                 7468 	movx	@dptr,a
   2740 A3                 7469 	inc	dptr
   2741 EA                 7470 	mov	a,r2
   2742 F0                 7471 	movx	@dptr,a
                    2743   7472 	C$uip.c$1912$1$1 ==.
                           7473 ;	..\uip\uip.c:1912: if (len > 0) {
   2743 90s0Dr89           7474 	mov	dptr,#_uip_send_PARM_2
   2746 E0                 7475 	movx	a,@dptr
   2747 FA                 7476 	mov	r2,a
   2748 A3                 7477 	inc	dptr
   2749 E0                 7478 	movx	a,@dptr
   274A FB                 7479 	mov	r3,a
   274B C3                 7480 	clr	c
   274C E4                 7481 	clr	a
   274D 9A                 7482 	subb	a,r2
   274E 74 80              7483 	mov	a,#(0x00 ^ 0x80)
   2750 8B F0              7484 	mov	b,r3
   2752 63 F0 80           7485 	xrl	b,#0x80
   2755 95 F0              7486 	subb	a,b
   2757 50 48              7487 	jnc	00105$
                    2759   7488 	C$uip.c$1913$2$2 ==.
                           7489 ;	..\uip\uip.c:1913: uip_slen = len;
   2759 90s01rA6           7490 	mov	dptr,#_uip_slen
   275C EA                 7491 	mov	a,r2
   275D F0                 7492 	movx	@dptr,a
   275E A3                 7493 	inc	dptr
   275F EB                 7494 	mov	a,r3
   2760 F0                 7495 	movx	@dptr,a
                    2761   7496 	C$uip.c$1914$2$2 ==.
                           7497 ;	..\uip\uip.c:1914: if (indata != uip_sappdata) {
   2761 90s0Dr8B           7498 	mov	dptr,#_uip_send_indata_1_1
   2764 E0                 7499 	movx	a,@dptr
   2765 FC                 7500 	mov	r4,a
   2766 A3                 7501 	inc	dptr
   2767 E0                 7502 	movx	a,@dptr
   2768 FD                 7503 	mov	r5,a
   2769 A3                 7504 	inc	dptr
   276A E0                 7505 	movx	a,@dptr
   276B FE                 7506 	mov	r6,a
   276C 90s01rA1           7507 	mov	dptr,#_uip_sappdata
   276F E0                 7508 	movx	a,@dptr
   2770 FF                 7509 	mov	r7,a
   2771 A3                 7510 	inc	dptr
   2772 E0                 7511 	movx	a,@dptr
   2773 F8                 7512 	mov	r0,a
   2774 A3                 7513 	inc	dptr
   2775 E0                 7514 	movx	a,@dptr
   2776 F9                 7515 	mov	r1,a
   2777 EC                 7516 	mov	a,r4
   2778 B5 07 0A           7517 	cjne	a,ar7,00110$
   277B ED                 7518 	mov	a,r5
   277C B5 00 06           7519 	cjne	a,ar0,00110$
   277F EE                 7520 	mov	a,r6
   2780 B5 01 02           7521 	cjne	a,ar1,00110$
   2783 80 1C              7522 	sjmp	00105$
   2785                    7523 00110$:
                    2785   7524 	C$uip.c$1915$3$3 ==.
                           7525 ;	..\uip\uip.c:1915: memcpy(uip_sappdata, (indata), uip_slen);
   2785 90s00r00           7526 	mov	dptr,#_memcpy_PARM_2
   2788 EC                 7527 	mov	a,r4
   2789 F0                 7528 	movx	@dptr,a
   278A A3                 7529 	inc	dptr
   278B ED                 7530 	mov	a,r5
   278C F0                 7531 	movx	@dptr,a
   278D A3                 7532 	inc	dptr
   278E EE                 7533 	mov	a,r6
   278F F0                 7534 	movx	@dptr,a
   2790 90s00r00           7535 	mov	dptr,#_memcpy_PARM_3
   2793 EA                 7536 	mov	a,r2
   2794 F0                 7537 	movx	@dptr,a
   2795 A3                 7538 	inc	dptr
   2796 EB                 7539 	mov	a,r3
   2797 F0                 7540 	movx	@dptr,a
   2798 8F 82              7541 	mov	dpl,r7
   279A 88 83              7542 	mov	dph,r0
   279C 89 F0              7543 	mov	b,r1
   279E 12s00r00           7544 	lcall	_memcpy
   27A1                    7545 00105$:
                    27A1   7546 	C$uip.c$1918$1$1 ==.
                    27A1   7547 	XG$uip_send$0$0 ==.
   27A1 02s00r00           7548 	ljmp	__sdcc_banked_ret
                           7549 	.area CSEG    (CODE)
                           7550 	.area CONST   (CODE)
                    0000   7551 Fuip$all_ones_addr$0$0 == .
   0000                    7552 _all_ones_addr:
   0000 FF FF              7553 	.byte #0xFF,#0xFF
   0002 FF FF              7554 	.byte #0xFF,#0xFF
                    0004   7555 Fuip$all_zeroes_addr$0$0 == .
   0004                    7556 _all_zeroes_addr:
   0004 00 00              7557 	.byte #0x00,#0x00
   0006 00 00              7558 	.byte #0x00,#0x00
                    0008   7559 Fuip$_str_0$0$0 == .
   0008                    7560 __str_0:
   0008 75 69 70 5F 69 70  7561 	.ascii "uip_ipchksum: sum 0x%04x"
        63 68 6B 73 75 6D
        3A 20 73 75 6D 20
        30 78 25 30 34 78
   0020 0D                 7562 	.db 0x0D
   0021 0A                 7563 	.db 0x0A
   0022 00                 7564 	.db 0x00
                    0023   7565 Fuip$_str_1$0$0 == .
   0023                    7566 __str_1:
   0023 75 69 70 20 69 70  7567 	.ascii "uip ip_send_nolen: chkecum 0x%04x"
        5F 73 65 6E 64 5F
        6E 6F 6C 65 6E 3A
        20 63 68 6B 65 63
        75 6D 20 30 78 25
        30 34 78
   0044 0A                 7568 	.db 0x0A
   0045 00                 7569 	.db 0x00
                    0046   7570 Fuip$_str_2$0$0 == .
   0046                    7571 __str_2:
   0046 53 65 6E 64 69 6E  7572 	.ascii "Sending packet with length %d (%d)"
        67 20 70 61 63 6B
        65 74 20 77 69 74
        68 20 6C 65 6E 67
        74 68 20 25 64 20
        28 25 64 29
   0068 0A                 7573 	.db 0x0A
   0069 00                 7574 	.db 0x00
                           7575 	.area XINIT   (CODE)
                    0000   7576 Fuip$__xinit_uip_ethaddr$0$0 == .
   0000                    7577 __xinit__uip_ethaddr:
   0000 00                 7578 	.db #0x00
   0001 00                 7579 	.db #0x00
   0002 00                 7580 	.db #0x00
   0003 00                 7581 	.db #0x00
   0004 00                 7582 	.db #0x00
   0005 00                 7583 	.db #0x00
                           7584 	.area CABS    (ABS,CODE)
