                              1 ;--------------------------------------------------------
                              2 ; File Created by SDCC : free open source ANSI-C Compiler
                              3 ; Version 2.8.0 #5117 (Mar 23 2008) (MINGW32)
                              4 ; This file was generated Sun Jan 30 19:17:46 2011
                              5 ;--------------------------------------------------------
                              6 	.module uip_arp
                              7 	.optsdcc -mmcs51 --model-large
                              8 	
                              9 ;--------------------------------------------------------
                             10 ; Public variables in this module
                             11 ;--------------------------------------------------------
                             12 	.globl _uip_arp_init
                             13 	.globl _uip_arp_timer
                             14 	.globl _uip_arp_arpin
                             15 	.globl _uip_arp_out
                             16 ;--------------------------------------------------------
                             17 ; special function registers
                             18 ;--------------------------------------------------------
                             19 	.area RSEG    (DATA)
                             20 ;--------------------------------------------------------
                             21 ; special function bits
                             22 ;--------------------------------------------------------
                             23 	.area RSEG    (DATA)
                             24 ;--------------------------------------------------------
                             25 ; overlayable register banks
                             26 ;--------------------------------------------------------
                             27 	.area REG_BANK_0	(REL,OVR,DATA)
   0000                      28 	.ds 8
                             29 ;--------------------------------------------------------
                             30 ; internal ram data
                             31 ;--------------------------------------------------------
                             32 	.area DSEG    (DATA)
                             33 ;--------------------------------------------------------
                             34 ; overlayable items in internal ram 
                             35 ;--------------------------------------------------------
                             36 	.area OSEG    (OVR,DATA)
                             37 ;--------------------------------------------------------
                             38 ; indirectly addressable internal ram data
                             39 ;--------------------------------------------------------
                             40 	.area ISEG    (DATA)
                             41 ;--------------------------------------------------------
                             42 ; absolute internal ram data
                             43 ;--------------------------------------------------------
                             44 	.area IABS    (ABS,DATA)
                             45 	.area IABS    (ABS,DATA)
                             46 ;--------------------------------------------------------
                             47 ; bit data
                             48 ;--------------------------------------------------------
                             49 	.area BSEG    (BIT)
                             50 ;--------------------------------------------------------
                             51 ; paged external ram data
                             52 ;--------------------------------------------------------
                             53 	.area PSEG    (PAG,XDATA)
                             54 ;--------------------------------------------------------
                             55 ; external ram data
                             56 ;--------------------------------------------------------
                             57 	.area XSEG    (XDATA)
                    0000     58 Fuip_arp$arp_table$0$0==.
   0000                      59 _arp_table:
   0000                      60 	.ds 44
                    002C     61 Fuip_arp$ipaddr$0$0==.
   002C                      62 _ipaddr:
   002C                      63 	.ds 4
                    0030     64 Fuip_arp$i$0$0==.
   0030                      65 _i:
   0030                      66 	.ds 1
                    0031     67 Fuip_arp$c$0$0==.
   0031                      68 _c:
   0031                      69 	.ds 1
                    0032     70 Fuip_arp$arptime$0$0==.
   0032                      71 _arptime:
   0032                      72 	.ds 1
                    0033     73 Fuip_arp$tmpage$0$0==.
   0033                      74 _tmpage:
   0033                      75 	.ds 1
                             76 ;--------------------------------------------------------
                             77 ; absolute external ram data
                             78 ;--------------------------------------------------------
                             79 	.area XABS    (ABS,XDATA)
                             80 ;--------------------------------------------------------
                             81 ; external initialized ram data
                             82 ;--------------------------------------------------------
                             83 	.area XISEG   (XDATA)
                             84 	.area HOME    (CODE)
                             85 	.area GSINIT0 (CODE)
                             86 	.area GSINIT1 (CODE)
                             87 	.area GSINIT2 (CODE)
                             88 	.area GSINIT3 (CODE)
                             89 	.area GSINIT4 (CODE)
                             90 	.area GSINIT5 (CODE)
                             91 	.area GSINIT  (CODE)
                             92 	.area GSFINAL (CODE)
                             93 	.area CSEG    (CODE)
                             94 ;--------------------------------------------------------
                             95 ; global & static initialisations
                             96 ;--------------------------------------------------------
                             97 	.area HOME    (CODE)
                             98 	.area GSINIT  (CODE)
                             99 	.area GSFINAL (CODE)
                            100 	.area GSINIT  (CODE)
                            101 ;--------------------------------------------------------
                            102 ; Home
                            103 ;--------------------------------------------------------
                            104 	.area HOME    (CODE)
                            105 	.area HOME    (CODE)
                            106 ;--------------------------------------------------------
                            107 ; code
                            108 ;--------------------------------------------------------
                            109 	.area UIP_BANK(CODE)
                            110 ;------------------------------------------------------------
                            111 ;Allocation info for local variables in function 'uip_arp_init'
                            112 ;------------------------------------------------------------
                            113 ;------------------------------------------------------------
                    0000    114 	G$uip_arp_init$0$0 ==.
                    0000    115 	C$uip_arp.c$128$0$0 ==.
                            116 ;	..\uip\uip_arp.c:128: uip_arp_init(void) __reentrant banked
                            117 ;	-----------------------------------------
                            118 ;	 function uip_arp_init
                            119 ;	-----------------------------------------
   0000                     120 _uip_arp_init:
                    0002    121 	ar2 = 0x02
                    0003    122 	ar3 = 0x03
                    0004    123 	ar4 = 0x04
                    0005    124 	ar5 = 0x05
                    0006    125 	ar6 = 0x06
                    0007    126 	ar7 = 0x07
                    0000    127 	ar0 = 0x00
                    0001    128 	ar1 = 0x01
                    0000    129 	C$uip_arp.c$130$1$1 ==.
                            130 ;	..\uip\uip_arp.c:130: for(i = 0; i < UIP_ARPTAB_SIZE; ++i) {
   0000 90s00r30            131 	mov	dptr,#_i
   0003 E4                  132 	clr	a
   0004 F0                  133 	movx	@dptr,a
   0005                     134 00101$:
   0005 90s00r30            135 	mov	dptr,#_i
   0008 E0                  136 	movx	a,@dptr
   0009 FA                  137 	mov	r2,a
   000A BA 04 00            138 	cjne	r2,#0x04,00109$
   000D                     139 00109$:
   000D 50 2E               140 	jnc	00105$
                    000F    141 	C$uip_arp.c$131$2$2 ==.
                            142 ;	..\uip\uip_arp.c:131: memset(arp_table[i].ipaddr, 0, 4);
   000F EA                  143 	mov	a,r2
   0010 75 F0 0B            144 	mov	b,#0x0B
   0013 A4                  145 	mul	ab
   0014 24r00               146 	add	a,#_arp_table
   0016 FA                  147 	mov	r2,a
   0017 E4                  148 	clr	a
   0018 34s00               149 	addc	a,#(_arp_table >> 8)
   001A FB                  150 	mov	r3,a
   001B 7C 00               151 	mov	r4,#0x00
   001D 90s00r00            152 	mov	dptr,#_memset_PARM_2
   0020 E4                  153 	clr	a
   0021 F0                  154 	movx	@dptr,a
   0022 90s00r00            155 	mov	dptr,#_memset_PARM_3
   0025 74 04               156 	mov	a,#0x04
   0027 F0                  157 	movx	@dptr,a
   0028 E4                  158 	clr	a
   0029 A3                  159 	inc	dptr
   002A F0                  160 	movx	@dptr,a
   002B 8A 82               161 	mov	dpl,r2
   002D 8B 83               162 	mov	dph,r3
   002F 8C F0               163 	mov	b,r4
   0031 12s00r00            164 	lcall	_memset
                    0034    165 	C$uip_arp.c$130$1$1 ==.
                            166 ;	..\uip\uip_arp.c:130: for(i = 0; i < UIP_ARPTAB_SIZE; ++i) {
   0034 90s00r30            167 	mov	dptr,#_i
   0037 E0                  168 	movx	a,@dptr
   0038 24 01               169 	add	a,#0x01
   003A F0                  170 	movx	@dptr,a
   003B 80 C8               171 	sjmp	00101$
   003D                     172 00105$:
                    003D    173 	C$uip_arp.c$133$1$1 ==.
                    003D    174 	XG$uip_arp_init$0$0 ==.
   003D 02s00r00            175 	ljmp	__sdcc_banked_ret
                            176 ;------------------------------------------------------------
                            177 ;Allocation info for local variables in function 'uip_arp_timer'
                            178 ;------------------------------------------------------------
                            179 ;tabptr                    Allocated to stack - offset 1
                            180 ;------------------------------------------------------------
                    0040    181 	G$uip_arp_timer$0$0 ==.
                    0040    182 	C$uip_arp.c$145$1$1 ==.
                            183 ;	..\uip\uip_arp.c:145: uip_arp_timer(void) __reentrant banked
                            184 ;	-----------------------------------------
                            185 ;	 function uip_arp_timer
                            186 ;	-----------------------------------------
   0040                     187 _uip_arp_timer:
   0040 C0*00               188 	push	_bp
   0042 85 81*00            189 	mov	_bp,sp
   0045 05 81               190 	inc	sp
   0047 05 81               191 	inc	sp
   0049 05 81               192 	inc	sp
                    004B    193 	C$uip_arp.c$149$1$1 ==.
                            194 ;	..\uip\uip_arp.c:149: ++arptime;
   004B 90s00r32            195 	mov	dptr,#_arptime
   004E E0                  196 	movx	a,@dptr
   004F 24 01               197 	add	a,#0x01
   0051 F0                  198 	movx	@dptr,a
                    0052    199 	C$uip_arp.c$150$1$1 ==.
                            200 ;	..\uip\uip_arp.c:150: for(i = 0; i < UIP_ARPTAB_SIZE; ++i) {
   0052 90s00r30            201 	mov	dptr,#_i
   0055 E4                  202 	clr	a
   0056 F0                  203 	movx	@dptr,a
   0057                     204 00104$:
   0057 90s00r30            205 	mov	dptr,#_i
   005A E0                  206 	movx	a,@dptr
   005B FA                  207 	mov	r2,a
   005C BA 04 00            208 	cjne	r2,#0x04,00114$
   005F                     209 00114$:
   005F 40 03               210 	jc	00115$
   0061 02s01r0F            211 	ljmp	00108$
   0064                     212 00115$:
                    0064    213 	C$uip_arp.c$151$2$2 ==.
                            214 ;	..\uip\uip_arp.c:151: tabptr = &arp_table[i];
   0064 EA                  215 	mov	a,r2
   0065 75 F0 0B            216 	mov	b,#0x0B
   0068 A4                  217 	mul	ab
   0069 24r00               218 	add	a,#_arp_table
   006B FA                  219 	mov	r2,a
   006C E4                  220 	clr	a
   006D 34s00               221 	addc	a,#(_arp_table >> 8)
   006F FB                  222 	mov	r3,a
   0070 A8*00               223 	mov	r0,_bp
   0072 08                  224 	inc	r0
   0073 A6 02               225 	mov	@r0,ar2
   0075 08                  226 	inc	r0
   0076 A6 03               227 	mov	@r0,ar3
   0078 08                  228 	inc	r0
   0079 76 00               229 	mov	@r0,#0x00
                    007B    230 	C$uip_arp.c$152$2$2 ==.
                            231 ;	..\uip\uip_arp.c:152: if((tabptr->ipaddr[0] | tabptr->ipaddr[1]) != 0 &&
   007B A8*00               232 	mov	r0,_bp
   007D 08                  233 	inc	r0
   007E 74 02               234 	mov	a,#0x02
   0080 26                  235 	add	a,@r0
   0081 FD                  236 	mov	r5,a
   0082 E4                  237 	clr	a
   0083 08                  238 	inc	r0
   0084 36                  239 	addc	a,@r0
   0085 FE                  240 	mov	r6,a
   0086 08                  241 	inc	r0
   0087 86 07               242 	mov	ar7,@r0
   0089 8D 82               243 	mov	dpl,r5
   008B 8E 83               244 	mov	dph,r6
   008D 8F F0               245 	mov	b,r7
   008F 12s00r00            246 	lcall	__gptrget
   0092 FD                  247 	mov	r5,a
   0093 A3                  248 	inc	dptr
   0094 12s00r00            249 	lcall	__gptrget
   0097 FE                  250 	mov	r6,a
   0098 A8*00               251 	mov	r0,_bp
   009A 08                  252 	inc	r0
   009B 86 82               253 	mov	dpl,@r0
   009D 08                  254 	inc	r0
   009E 86 83               255 	mov	dph,@r0
   00A0 08                  256 	inc	r0
   00A1 86 F0               257 	mov	b,@r0
   00A3 12s00r00            258 	lcall	__gptrget
   00A6 FF                  259 	mov	r7,a
   00A7 A3                  260 	inc	dptr
   00A8 12s00r00            261 	lcall	__gptrget
   00AB FA                  262 	mov	r2,a
   00AC EF                  263 	mov	a,r7
   00AD 42 05               264 	orl	ar5,a
   00AF EA                  265 	mov	a,r2
   00B0 42 06               266 	orl	ar6,a
   00B2 ED                  267 	mov	a,r5
   00B3 4E                  268 	orl	a,r6
   00B4 60 4F               269 	jz	00106$
                    00B6    270 	C$uip_arp.c$153$2$2 ==.
                            271 ;	..\uip\uip_arp.c:153: arptime - tabptr->time >= UIP_ARP_MAXAGE) {
   00B6 90s00r32            272 	mov	dptr,#_arptime
   00B9 E0                  273 	movx	a,@dptr
   00BA FA                  274 	mov	r2,a
   00BB 7B 00               275 	mov	r3,#0x00
   00BD A8*00               276 	mov	r0,_bp
   00BF 08                  277 	inc	r0
   00C0 74 0A               278 	mov	a,#0x0A
   00C2 26                  279 	add	a,@r0
   00C3 FC                  280 	mov	r4,a
   00C4 E4                  281 	clr	a
   00C5 08                  282 	inc	r0
   00C6 36                  283 	addc	a,@r0
   00C7 FD                  284 	mov	r5,a
   00C8 08                  285 	inc	r0
   00C9 86 06               286 	mov	ar6,@r0
   00CB 8C 82               287 	mov	dpl,r4
   00CD 8D 83               288 	mov	dph,r5
   00CF 8E F0               289 	mov	b,r6
   00D1 12s00r00            290 	lcall	__gptrget
   00D4 FC                  291 	mov	r4,a
   00D5 7D 00               292 	mov	r5,#0x00
   00D7 EA                  293 	mov	a,r2
   00D8 C3                  294 	clr	c
   00D9 9C                  295 	subb	a,r4
   00DA FA                  296 	mov	r2,a
   00DB EB                  297 	mov	a,r3
   00DC 9D                  298 	subb	a,r5
   00DD FB                  299 	mov	r3,a
   00DE C3                  300 	clr	c
   00DF EA                  301 	mov	a,r2
   00E0 94 78               302 	subb	a,#0x78
   00E2 EB                  303 	mov	a,r3
   00E3 64 80               304 	xrl	a,#0x80
   00E5 94 80               305 	subb	a,#0x80
   00E7 40 1C               306 	jc	00106$
                    00E9    307 	C$uip_arp.c$154$3$3 ==.
                            308 ;	..\uip\uip_arp.c:154: memset(tabptr->ipaddr, 0, 4);
   00E9 90s00r00            309 	mov	dptr,#_memset_PARM_2
   00EC E4                  310 	clr	a
   00ED F0                  311 	movx	@dptr,a
   00EE 90s00r00            312 	mov	dptr,#_memset_PARM_3
   00F1 74 04               313 	mov	a,#0x04
   00F3 F0                  314 	movx	@dptr,a
   00F4 E4                  315 	clr	a
   00F5 A3                  316 	inc	dptr
   00F6 F0                  317 	movx	@dptr,a
   00F7 A8*00               318 	mov	r0,_bp
   00F9 08                  319 	inc	r0
   00FA 86 82               320 	mov	dpl,@r0
   00FC 08                  321 	inc	r0
   00FD 86 83               322 	mov	dph,@r0
   00FF 08                  323 	inc	r0
   0100 86 F0               324 	mov	b,@r0
   0102 12s00r00            325 	lcall	_memset
   0105                     326 00106$:
                    0105    327 	C$uip_arp.c$150$1$1 ==.
                            328 ;	..\uip\uip_arp.c:150: for(i = 0; i < UIP_ARPTAB_SIZE; ++i) {
   0105 90s00r30            329 	mov	dptr,#_i
   0108 E0                  330 	movx	a,@dptr
   0109 24 01               331 	add	a,#0x01
   010B F0                  332 	movx	@dptr,a
   010C 02s00r57            333 	ljmp	00104$
   010F                     334 00108$:
   010F 85*00 81            335 	mov	sp,_bp
   0112 D0*00               336 	pop	_bp
                    0114    337 	C$uip_arp.c$158$1$1 ==.
                    0114    338 	XG$uip_arp_timer$0$0 ==.
   0114 02s00r00            339 	ljmp	__sdcc_banked_ret
                            340 ;------------------------------------------------------------
                            341 ;Allocation info for local variables in function 'uip_arp_update'
                            342 ;------------------------------------------------------------
                            343 ;ethaddr                   Allocated to stack - offset -5
                            344 ;ipaddr                    Allocated to stack - offset 1
                            345 ;tabptr                    Allocated to stack - offset 4
                            346 ;sloc0                     Allocated to stack - offset 7
                            347 ;sloc1                     Allocated to stack - offset 9
                            348 ;sloc2                     Allocated to stack - offset 11
                            349 ;sloc3                     Allocated to stack - offset 13
                            350 ;------------------------------------------------------------
                    0117    351 	Fuip_arp$uip_arp_update$0$0 ==.
                    0117    352 	C$uip_arp.c$161$1$1 ==.
                            353 ;	..\uip\uip_arp.c:161: uip_arp_update(u16_t *ipaddr, struct uip_eth_addr *ethaddr) __reentrant
                            354 ;	-----------------------------------------
                            355 ;	 function uip_arp_update
                            356 ;	-----------------------------------------
   0117                     357 _uip_arp_update:
   0117 C0*00               358 	push	_bp
   0119 85 81*00            359 	mov	_bp,sp
   011C C0 82               360 	push	dpl
   011E C0 83               361 	push	dph
   0120 C0 F0               362 	push	b
   0122 E5 81               363 	mov	a,sp
   0124 24 08               364 	add	a,#0x08
   0126 F5 81               365 	mov	sp,a
                    0128    366 	C$uip_arp.c$163$1$1 ==.
                            367 ;	..\uip\uip_arp.c:163: register struct arp_entry *tabptr = NULL;
   0128 E5*00               368 	mov	a,_bp
   012A 24 04               369 	add	a,#0x04
   012C F8                  370 	mov	r0,a
   012D E4                  371 	clr	a
   012E F6                  372 	mov	@r0,a
   012F 08                  373 	inc	r0
   0130 F6                  374 	mov	@r0,a
   0131 08                  375 	inc	r0
   0132 76 00               376 	mov	@r0,#0x00
                    0134    377 	C$uip_arp.c$167$1$1 ==.
                            378 ;	..\uip\uip_arp.c:167: for(i = 0; i < UIP_ARPTAB_SIZE; ++i) {
   0134 90s00r30            379 	mov	dptr,#_i
   0137 E4                  380 	clr	a
   0138 F0                  381 	movx	@dptr,a
   0139 A8*00               382 	mov	r0,_bp
   013B 08                  383 	inc	r0
   013C 74 02               384 	mov	a,#0x02
   013E 26                  385 	add	a,@r0
   013F FD                  386 	mov	r5,a
   0140 E4                  387 	clr	a
   0141 08                  388 	inc	r0
   0142 36                  389 	addc	a,@r0
   0143 FE                  390 	mov	r6,a
   0144 08                  391 	inc	r0
   0145 86 07               392 	mov	ar7,@r0
   0147 8D 82               393 	mov	dpl,r5
   0149 8E 83               394 	mov	dph,r6
   014B 8F F0               395 	mov	b,r7
   014D E5*00               396 	mov	a,_bp
   014F 24 07               397 	add	a,#0x07
   0151 F8                  398 	mov	r0,a
   0152 12s00r00            399 	lcall	__gptrget
   0155 F6                  400 	mov	@r0,a
   0156 A3                  401 	inc	dptr
   0157 12s00r00            402 	lcall	__gptrget
   015A 08                  403 	inc	r0
   015B F6                  404 	mov	@r0,a
   015C A8*00               405 	mov	r0,_bp
   015E 08                  406 	inc	r0
   015F 86 82               407 	mov	dpl,@r0
   0161 08                  408 	inc	r0
   0162 86 83               409 	mov	dph,@r0
   0164 08                  410 	inc	r0
   0165 86 F0               411 	mov	b,@r0
   0167 12s00r00            412 	lcall	__gptrget
   016A FE                  413 	mov	r6,a
   016B A3                  414 	inc	dptr
   016C 12s00r00            415 	lcall	__gptrget
   016F FF                  416 	mov	r7,a
                    0170    417 	C$uip_arp.c$220$1$1 ==.
                            418 ;	..\uip\uip_arp.c:220: tabptr->time = arptime;
                    0170    419 	C$uip_arp.c$167$1$1 ==.
                            420 ;	..\uip\uip_arp.c:167: for(i = 0; i < UIP_ARPTAB_SIZE; ++i) {
   0170                     421 00118$:
   0170 90s00r30            422 	mov	dptr,#_i
   0173 E0                  423 	movx	a,@dptr
   0174 FA                  424 	mov	r2,a
   0175 BA 04 00            425 	cjne	r2,#0x04,00141$
   0178                     426 00141$:
   0178 40 03               427 	jc	00142$
   017A 02s02r56            428 	ljmp	00121$
   017D                     429 00142$:
                    017D    430 	C$uip_arp.c$169$2$2 ==.
                            431 ;	..\uip\uip_arp.c:169: tabptr = &arp_table[i];
   017D EA                  432 	mov	a,r2
   017E 75 F0 0B            433 	mov	b,#0x0B
   0181 A4                  434 	mul	ab
   0182 24r00               435 	add	a,#_arp_table
   0184 FA                  436 	mov	r2,a
   0185 E4                  437 	clr	a
   0186 34s00               438 	addc	a,#(_arp_table >> 8)
   0188 FB                  439 	mov	r3,a
   0189 E5*00               440 	mov	a,_bp
   018B 24 04               441 	add	a,#0x04
   018D F8                  442 	mov	r0,a
   018E A6 02               443 	mov	@r0,ar2
   0190 08                  444 	inc	r0
   0191 A6 03               445 	mov	@r0,ar3
   0193 08                  446 	inc	r0
   0194 76 00               447 	mov	@r0,#0x00
                    0196    448 	C$uip_arp.c$171$2$2 ==.
                            449 ;	..\uip\uip_arp.c:171: if(tabptr->ipaddr[0] != 0 &&
   0196 E5*00               450 	mov	a,_bp
   0198 24 04               451 	add	a,#0x04
   019A F8                  452 	mov	r0,a
   019B 86 82               453 	mov	dpl,@r0
   019D 08                  454 	inc	r0
   019E 86 83               455 	mov	dph,@r0
   01A0 08                  456 	inc	r0
   01A1 86 F0               457 	mov	b,@r0
   01A3 12s00r00            458 	lcall	__gptrget
   01A6 FA                  459 	mov	r2,a
   01A7 A3                  460 	inc	dptr
   01A8 12s00r00            461 	lcall	__gptrget
   01AB FB                  462 	mov	r3,a
   01AC 4A                  463 	orl	a,r2
   01AD 70 03               464 	jnz	00143$
   01AF 02s02r4C            465 	ljmp	00120$
   01B2                     466 00143$:
                    01B2    467 	C$uip_arp.c$172$1$1 ==.
                            468 ;	..\uip\uip_arp.c:172: tabptr->ipaddr[1] != 0) {
   01B2 C0 02               469 	push	ar2
   01B4 C0 03               470 	push	ar3
   01B6 E5*00               471 	mov	a,_bp
   01B8 24 04               472 	add	a,#0x04
   01BA F8                  473 	mov	r0,a
   01BB 74 02               474 	mov	a,#0x02
   01BD 26                  475 	add	a,@r0
   01BE FC                  476 	mov	r4,a
   01BF E4                  477 	clr	a
   01C0 08                  478 	inc	r0
   01C1 36                  479 	addc	a,@r0
   01C2 FA                  480 	mov	r2,a
   01C3 08                  481 	inc	r0
   01C4 86 03               482 	mov	ar3,@r0
   01C6 8C 82               483 	mov	dpl,r4
   01C8 8A 83               484 	mov	dph,r2
   01CA 8B F0               485 	mov	b,r3
   01CC 12s00r00            486 	lcall	__gptrget
   01CF FC                  487 	mov	r4,a
   01D0 A3                  488 	inc	dptr
   01D1 12s00r00            489 	lcall	__gptrget
   01D4 FD                  490 	mov	r5,a
   01D5 D0 03               491 	pop	ar3
   01D7 D0 02               492 	pop	ar2
   01D9 EC                  493 	mov	a,r4
   01DA 4D                  494 	orl	a,r5
   01DB 60 6F               495 	jz	00120$
                    01DD    496 	C$uip_arp.c$176$3$3 ==.
                            497 ;	..\uip\uip_arp.c:176: if(ipaddr[0] == tabptr->ipaddr[0] &&
   01DD EE                  498 	mov	a,r6
   01DE B5 02 6B            499 	cjne	a,ar2,00120$
   01E1 EF                  500 	mov	a,r7
   01E2 B5 03 67            501 	cjne	a,ar3,00120$
                    01E5    502 	C$uip_arp.c$177$3$3 ==.
                            503 ;	..\uip\uip_arp.c:177: ipaddr[1] == tabptr->ipaddr[1]) {
   01E5 E5*00               504 	mov	a,_bp
   01E7 24 07               505 	add	a,#0x07
   01E9 F8                  506 	mov	r0,a
   01EA E6                  507 	mov	a,@r0
   01EB B5 04 07            508 	cjne	a,ar4,00147$
   01EE 08                  509 	inc	r0
   01EF E6                  510 	mov	a,@r0
   01F0 B5 05 02            511 	cjne	a,ar5,00147$
   01F3 80 02               512 	sjmp	00148$
   01F5                     513 00147$:
   01F5 80 55               514 	sjmp	00120$
   01F7                     515 00148$:
                    01F7    516 	C$uip_arp.c$180$4$4 ==.
                            517 ;	..\uip\uip_arp.c:180: memcpy(tabptr->ethaddr.addr, ethaddr->addr, 6);
   01F7 E5*00               518 	mov	a,_bp
   01F9 24 04               519 	add	a,#0x04
   01FB F8                  520 	mov	r0,a
   01FC 74 04               521 	mov	a,#0x04
   01FE 26                  522 	add	a,@r0
   01FF FA                  523 	mov	r2,a
   0200 E4                  524 	clr	a
   0201 08                  525 	inc	r0
   0202 36                  526 	addc	a,@r0
   0203 FB                  527 	mov	r3,a
   0204 08                  528 	inc	r0
   0205 86 04               529 	mov	ar4,@r0
   0207 E5*00               530 	mov	a,_bp
   0209 24 FB               531 	add	a,#0xfb
   020B F8                  532 	mov	r0,a
   020C 90s00r00            533 	mov	dptr,#_memcpy_PARM_2
   020F E6                  534 	mov	a,@r0
   0210 F0                  535 	movx	@dptr,a
   0211 08                  536 	inc	r0
   0212 A3                  537 	inc	dptr
   0213 E6                  538 	mov	a,@r0
   0214 F0                  539 	movx	@dptr,a
   0215 08                  540 	inc	r0
   0216 A3                  541 	inc	dptr
   0217 E6                  542 	mov	a,@r0
   0218 F0                  543 	movx	@dptr,a
   0219 90s00r00            544 	mov	dptr,#_memcpy_PARM_3
   021C 74 06               545 	mov	a,#0x06
   021E F0                  546 	movx	@dptr,a
   021F E4                  547 	clr	a
   0220 A3                  548 	inc	dptr
   0221 F0                  549 	movx	@dptr,a
   0222 8A 82               550 	mov	dpl,r2
   0224 8B 83               551 	mov	dph,r3
   0226 8C F0               552 	mov	b,r4
   0228 12s00r00            553 	lcall	_memcpy
                    022B    554 	C$uip_arp.c$181$4$4 ==.
                            555 ;	..\uip\uip_arp.c:181: tabptr->time = arptime;
   022B E5*00               556 	mov	a,_bp
   022D 24 04               557 	add	a,#0x04
   022F F8                  558 	mov	r0,a
   0230 74 0A               559 	mov	a,#0x0A
   0232 26                  560 	add	a,@r0
   0233 FB                  561 	mov	r3,a
   0234 E4                  562 	clr	a
   0235 08                  563 	inc	r0
   0236 36                  564 	addc	a,@r0
   0237 FC                  565 	mov	r4,a
   0238 08                  566 	inc	r0
   0239 86 05               567 	mov	ar5,@r0
   023B 90s00r32            568 	mov	dptr,#_arptime
   023E E0                  569 	movx	a,@dptr
   023F FA                  570 	mov	r2,a
   0240 8B 82               571 	mov	dpl,r3
   0242 8C 83               572 	mov	dph,r4
   0244 8D F0               573 	mov	b,r5
   0246 12s00r00            574 	lcall	__gptrput
                    0249    575 	C$uip_arp.c$183$4$4 ==.
                            576 ;	..\uip\uip_arp.c:183: return;
   0249 02s03rFB            577 	ljmp	00126$
   024C                     578 00120$:
                    024C    579 	C$uip_arp.c$167$1$1 ==.
                            580 ;	..\uip\uip_arp.c:167: for(i = 0; i < UIP_ARPTAB_SIZE; ++i) {
   024C 90s00r30            581 	mov	dptr,#_i
   024F E0                  582 	movx	a,@dptr
   0250 24 01               583 	add	a,#0x01
   0252 F0                  584 	movx	@dptr,a
   0253 02s01r70            585 	ljmp	00118$
   0256                     586 00121$:
                    0256    587 	C$uip_arp.c$192$1$1 ==.
                            588 ;	..\uip\uip_arp.c:192: for(i = 0; i < UIP_ARPTAB_SIZE; ++i) {
   0256 90s00r30            589 	mov	dptr,#_i
   0259 E4                  590 	clr	a
   025A F0                  591 	movx	@dptr,a
   025B                     592 00110$:
   025B 90s00r30            593 	mov	dptr,#_i
   025E E0                  594 	movx	a,@dptr
   025F FA                  595 	mov	r2,a
   0260 BA 04 00            596 	cjne	r2,#0x04,00149$
   0263                     597 00149$:
   0263 50 5D               598 	jnc	00113$
                    0265    599 	C$uip_arp.c$193$2$5 ==.
                            600 ;	..\uip\uip_arp.c:193: tabptr = &arp_table[i];
   0265 EA                  601 	mov	a,r2
   0266 75 F0 0B            602 	mov	b,#0x0B
   0269 A4                  603 	mul	ab
   026A 24r00               604 	add	a,#_arp_table
   026C FA                  605 	mov	r2,a
   026D E4                  606 	clr	a
   026E 34s00               607 	addc	a,#(_arp_table >> 8)
   0270 FB                  608 	mov	r3,a
   0271 E5*00               609 	mov	a,_bp
   0273 24 04               610 	add	a,#0x04
   0275 F8                  611 	mov	r0,a
   0276 A6 02               612 	mov	@r0,ar2
   0278 08                  613 	inc	r0
   0279 A6 03               614 	mov	@r0,ar3
   027B 08                  615 	inc	r0
   027C 76 00               616 	mov	@r0,#0x00
                    027E    617 	C$uip_arp.c$194$2$5 ==.
                            618 ;	..\uip\uip_arp.c:194: if(tabptr->ipaddr[0] == 0 &&
   027E E5*00               619 	mov	a,_bp
   0280 24 04               620 	add	a,#0x04
   0282 F8                  621 	mov	r0,a
   0283 86 82               622 	mov	dpl,@r0
   0285 08                  623 	inc	r0
   0286 86 83               624 	mov	dph,@r0
   0288 08                  625 	inc	r0
   0289 86 F0               626 	mov	b,@r0
   028B 12s00r00            627 	lcall	__gptrget
   028E FA                  628 	mov	r2,a
   028F A3                  629 	inc	dptr
   0290 12s00r00            630 	lcall	__gptrget
   0293 FB                  631 	mov	r3,a
   0294 4A                  632 	orl	a,r2
   0295 70 22               633 	jnz	00112$
                    0297    634 	C$uip_arp.c$195$2$5 ==.
                            635 ;	..\uip\uip_arp.c:195: tabptr->ipaddr[1] == 0) {
   0297 E5*00               636 	mov	a,_bp
   0299 24 04               637 	add	a,#0x04
   029B F8                  638 	mov	r0,a
   029C 74 02               639 	mov	a,#0x02
   029E 26                  640 	add	a,@r0
   029F FA                  641 	mov	r2,a
   02A0 E4                  642 	clr	a
   02A1 08                  643 	inc	r0
   02A2 36                  644 	addc	a,@r0
   02A3 FB                  645 	mov	r3,a
   02A4 08                  646 	inc	r0
   02A5 86 04               647 	mov	ar4,@r0
   02A7 8A 82               648 	mov	dpl,r2
   02A9 8B 83               649 	mov	dph,r3
   02AB 8C F0               650 	mov	b,r4
   02AD 12s00r00            651 	lcall	__gptrget
   02B0 FA                  652 	mov	r2,a
   02B1 A3                  653 	inc	dptr
   02B2 12s00r00            654 	lcall	__gptrget
   02B5 FB                  655 	mov	r3,a
   02B6 4A                  656 	orl	a,r2
   02B7 60 09               657 	jz	00113$
                    02B9    658 	C$uip_arp.c$196$1$1 ==.
                            659 ;	..\uip\uip_arp.c:196: break;
   02B9                     660 00112$:
                    02B9    661 	C$uip_arp.c$192$1$1 ==.
                            662 ;	..\uip\uip_arp.c:192: for(i = 0; i < UIP_ARPTAB_SIZE; ++i) {
   02B9 90s00r30            663 	mov	dptr,#_i
   02BC E0                  664 	movx	a,@dptr
   02BD 24 01               665 	add	a,#0x01
   02BF F0                  666 	movx	@dptr,a
   02C0 80 99               667 	sjmp	00110$
   02C2                     668 00113$:
                    02C2    669 	C$uip_arp.c$202$1$1 ==.
                            670 ;	..\uip\uip_arp.c:202: if(i == UIP_ARPTAB_SIZE) {
   02C2 90s00r30            671 	mov	dptr,#_i
   02C5 E0                  672 	movx	a,@dptr
   02C6 FA                  673 	mov	r2,a
   02C7 BA 04 02            674 	cjne	r2,#0x04,00153$
   02CA 80 03               675 	sjmp	00154$
   02CC                     676 00153$:
   02CC 02s03r80            677 	ljmp	00117$
   02CF                     678 00154$:
                    02CF    679 	C$uip_arp.c$203$2$7 ==.
                            680 ;	..\uip\uip_arp.c:203: tmpage = 0;
   02CF 90s00r33            681 	mov	dptr,#_tmpage
                    02D2    682 	C$uip_arp.c$204$2$7 ==.
                            683 ;	..\uip\uip_arp.c:204: c = 0;
                    02D2    684 	C$uip_arp.c$205$2$7 ==.
                            685 ;	..\uip\uip_arp.c:205: for(i = 0; i < UIP_ARPTAB_SIZE; ++i) {
   02D2 E4                  686 	clr	a
   02D3 F0                  687 	movx	@dptr,a
   02D4 90s00r31            688 	mov	dptr,#_c
   02D7 F0                  689 	movx	@dptr,a
   02D8 90s00r30            690 	mov	dptr,#_i
   02DB F0                  691 	movx	@dptr,a
   02DC                     692 00122$:
   02DC 90s00r30            693 	mov	dptr,#_i
   02DF E0                  694 	movx	a,@dptr
   02E0 FA                  695 	mov	r2,a
   02E1 BA 04 00            696 	cjne	r2,#0x04,00155$
   02E4                     697 00155$:
   02E4 50 78               698 	jnc	00125$
                    02E6    699 	C$uip_arp.c$206$3$8 ==.
                            700 ;	..\uip\uip_arp.c:206: tabptr = &arp_table[i];
   02E6 EA                  701 	mov	a,r2
   02E7 75 F0 0B            702 	mov	b,#0x0B
   02EA A4                  703 	mul	ab
   02EB 24r00               704 	add	a,#_arp_table
   02ED FB                  705 	mov	r3,a
   02EE E4                  706 	clr	a
   02EF 34s00               707 	addc	a,#(_arp_table >> 8)
   02F1 FC                  708 	mov	r4,a
   02F2 E5*00               709 	mov	a,_bp
   02F4 24 04               710 	add	a,#0x04
   02F6 F8                  711 	mov	r0,a
   02F7 A6 03               712 	mov	@r0,ar3
   02F9 08                  713 	inc	r0
   02FA A6 04               714 	mov	@r0,ar4
   02FC 08                  715 	inc	r0
   02FD 76 00               716 	mov	@r0,#0x00
                    02FF    717 	C$uip_arp.c$207$3$8 ==.
                            718 ;	..\uip\uip_arp.c:207: if(arptime - tabptr->time > tmpage) {
   02FF 90s00r32            719 	mov	dptr,#_arptime
   0302 E0                  720 	movx	a,@dptr
   0303 FB                  721 	mov	r3,a
   0304 C0 02               722 	push	ar2
   0306 8B 04               723 	mov	ar4,r3
   0308 7A 00               724 	mov	r2,#0x00
   030A E5*00               725 	mov	a,_bp
   030C 24 04               726 	add	a,#0x04
   030E F8                  727 	mov	r0,a
   030F 74 0A               728 	mov	a,#0x0A
   0311 26                  729 	add	a,@r0
   0312 FD                  730 	mov	r5,a
   0313 E4                  731 	clr	a
   0314 08                  732 	inc	r0
   0315 36                  733 	addc	a,@r0
   0316 FE                  734 	mov	r6,a
   0317 08                  735 	inc	r0
   0318 86 07               736 	mov	ar7,@r0
   031A 8D 82               737 	mov	dpl,r5
   031C 8E 83               738 	mov	dph,r6
   031E 8F F0               739 	mov	b,r7
   0320 12s00r00            740 	lcall	__gptrget
   0323 FF                  741 	mov	r7,a
   0324 FD                  742 	mov	r5,a
   0325 7E 00               743 	mov	r6,#0x00
   0327 EC                  744 	mov	a,r4
   0328 C3                  745 	clr	c
   0329 9D                  746 	subb	a,r5
   032A FC                  747 	mov	r4,a
   032B EA                  748 	mov	a,r2
   032C 9E                  749 	subb	a,r6
   032D FA                  750 	mov	r2,a
   032E 90s00r33            751 	mov	dptr,#_tmpage
   0331 E0                  752 	movx	a,@dptr
   0332 FD                  753 	mov	r5,a
   0333 7E 00               754 	mov	r6,#0x00
   0335 C3                  755 	clr	c
   0336 ED                  756 	mov	a,r5
   0337 9C                  757 	subb	a,r4
   0338 EE                  758 	mov	a,r6
   0339 64 80               759 	xrl	a,#0x80
   033B 8A F0               760 	mov	b,r2
   033D 63 F0 80            761 	xrl	b,#0x80
   0340 95 F0               762 	subb	a,b
   0342 E4                  763 	clr	a
   0343 33                  764 	rlc	a
   0344 D0 02               765 	pop	ar2
   0346 60 0C               766 	jz	00124$
                    0348    767 	C$uip_arp.c$208$4$9 ==.
                            768 ;	..\uip\uip_arp.c:208: tmpage = arptime - tabptr->time;
   0348 90s00r33            769 	mov	dptr,#_tmpage
   034B EB                  770 	mov	a,r3
   034C C3                  771 	clr	c
   034D 9F                  772 	subb	a,r7
   034E F0                  773 	movx	@dptr,a
                    034F    774 	C$uip_arp.c$209$4$9 ==.
                            775 ;	..\uip\uip_arp.c:209: c = i;
   034F 90s00r31            776 	mov	dptr,#_c
   0352 EA                  777 	mov	a,r2
   0353 F0                  778 	movx	@dptr,a
   0354                     779 00124$:
                    0354    780 	C$uip_arp.c$205$2$7 ==.
                            781 ;	..\uip\uip_arp.c:205: for(i = 0; i < UIP_ARPTAB_SIZE; ++i) {
   0354 90s00r30            782 	mov	dptr,#_i
   0357 E0                  783 	movx	a,@dptr
   0358 24 01               784 	add	a,#0x01
   035A F0                  785 	movx	@dptr,a
   035B 02s02rDC            786 	ljmp	00122$
   035E                     787 00125$:
                    035E    788 	C$uip_arp.c$212$2$7 ==.
                            789 ;	..\uip\uip_arp.c:212: i = c;
   035E 90s00r31            790 	mov	dptr,#_c
   0361 E0                  791 	movx	a,@dptr
   0362 FA                  792 	mov	r2,a
   0363 90s00r30            793 	mov	dptr,#_i
   0366 F0                  794 	movx	@dptr,a
                    0367    795 	C$uip_arp.c$213$2$7 ==.
                            796 ;	..\uip\uip_arp.c:213: tabptr = &arp_table[i];
   0367 EA                  797 	mov	a,r2
   0368 75 F0 0B            798 	mov	b,#0x0B
   036B A4                  799 	mul	ab
   036C 24r00               800 	add	a,#_arp_table
   036E FA                  801 	mov	r2,a
   036F E4                  802 	clr	a
   0370 34s00               803 	addc	a,#(_arp_table >> 8)
   0372 FB                  804 	mov	r3,a
   0373 E5*00               805 	mov	a,_bp
   0375 24 04               806 	add	a,#0x04
   0377 F8                  807 	mov	r0,a
   0378 A6 02               808 	mov	@r0,ar2
   037A 08                  809 	inc	r0
   037B A6 03               810 	mov	@r0,ar3
   037D 08                  811 	inc	r0
   037E 76 00               812 	mov	@r0,#0x00
   0380                     813 00117$:
                    0380    814 	C$uip_arp.c$218$1$1 ==.
                            815 ;	..\uip\uip_arp.c:218: memcpy(tabptr->ipaddr, ipaddr, 4);
   0380 A8*00               816 	mov	r0,_bp
   0382 08                  817 	inc	r0
   0383 90s00r00            818 	mov	dptr,#_memcpy_PARM_2
   0386 E6                  819 	mov	a,@r0
   0387 F0                  820 	movx	@dptr,a
   0388 08                  821 	inc	r0
   0389 A3                  822 	inc	dptr
   038A E6                  823 	mov	a,@r0
   038B F0                  824 	movx	@dptr,a
   038C 08                  825 	inc	r0
   038D A3                  826 	inc	dptr
   038E E6                  827 	mov	a,@r0
   038F F0                  828 	movx	@dptr,a
   0390 90s00r00            829 	mov	dptr,#_memcpy_PARM_3
   0393 74 04               830 	mov	a,#0x04
   0395 F0                  831 	movx	@dptr,a
   0396 E4                  832 	clr	a
   0397 A3                  833 	inc	dptr
   0398 F0                  834 	movx	@dptr,a
   0399 E5*00               835 	mov	a,_bp
   039B 24 04               836 	add	a,#0x04
   039D F8                  837 	mov	r0,a
   039E 86 82               838 	mov	dpl,@r0
   03A0 08                  839 	inc	r0
   03A1 86 83               840 	mov	dph,@r0
   03A3 08                  841 	inc	r0
   03A4 86 F0               842 	mov	b,@r0
   03A6 12s00r00            843 	lcall	_memcpy
                    03A9    844 	C$uip_arp.c$219$1$1 ==.
                            845 ;	..\uip\uip_arp.c:219: memcpy(tabptr->ethaddr.addr, ethaddr->addr, 6);
   03A9 E5*00               846 	mov	a,_bp
   03AB 24 04               847 	add	a,#0x04
   03AD F8                  848 	mov	r0,a
   03AE 74 04               849 	mov	a,#0x04
   03B0 26                  850 	add	a,@r0
   03B1 FA                  851 	mov	r2,a
   03B2 E4                  852 	clr	a
   03B3 08                  853 	inc	r0
   03B4 36                  854 	addc	a,@r0
   03B5 FB                  855 	mov	r3,a
   03B6 08                  856 	inc	r0
   03B7 86 04               857 	mov	ar4,@r0
   03B9 E5*00               858 	mov	a,_bp
   03BB 24 FB               859 	add	a,#0xfb
   03BD F8                  860 	mov	r0,a
   03BE 90s00r00            861 	mov	dptr,#_memcpy_PARM_2
   03C1 E6                  862 	mov	a,@r0
   03C2 F0                  863 	movx	@dptr,a
   03C3 08                  864 	inc	r0
   03C4 A3                  865 	inc	dptr
   03C5 E6                  866 	mov	a,@r0
   03C6 F0                  867 	movx	@dptr,a
   03C7 08                  868 	inc	r0
   03C8 A3                  869 	inc	dptr
   03C9 E6                  870 	mov	a,@r0
   03CA F0                  871 	movx	@dptr,a
   03CB 90s00r00            872 	mov	dptr,#_memcpy_PARM_3
   03CE 74 06               873 	mov	a,#0x06
   03D0 F0                  874 	movx	@dptr,a
   03D1 E4                  875 	clr	a
   03D2 A3                  876 	inc	dptr
   03D3 F0                  877 	movx	@dptr,a
   03D4 8A 82               878 	mov	dpl,r2
   03D6 8B 83               879 	mov	dph,r3
   03D8 8C F0               880 	mov	b,r4
   03DA 12s00r00            881 	lcall	_memcpy
                    03DD    882 	C$uip_arp.c$220$1$1 ==.
                            883 ;	..\uip\uip_arp.c:220: tabptr->time = arptime;
   03DD E5*00               884 	mov	a,_bp
   03DF 24 04               885 	add	a,#0x04
   03E1 F8                  886 	mov	r0,a
   03E2 74 0A               887 	mov	a,#0x0A
   03E4 26                  888 	add	a,@r0
   03E5 FA                  889 	mov	r2,a
   03E6 E4                  890 	clr	a
   03E7 08                  891 	inc	r0
   03E8 36                  892 	addc	a,@r0
   03E9 FB                  893 	mov	r3,a
   03EA 08                  894 	inc	r0
   03EB 86 04               895 	mov	ar4,@r0
   03ED 90s00r32            896 	mov	dptr,#_arptime
   03F0 E0                  897 	movx	a,@dptr
   03F1 FD                  898 	mov	r5,a
   03F2 8A 82               899 	mov	dpl,r2
   03F4 8B 83               900 	mov	dph,r3
   03F6 8C F0               901 	mov	b,r4
   03F8 12s00r00            902 	lcall	__gptrput
   03FB                     903 00126$:
   03FB 85*00 81            904 	mov	sp,_bp
   03FE D0*00               905 	pop	_bp
                    0400    906 	C$uip_arp.c$221$1$1 ==.
                    0400    907 	XFuip_arp$uip_arp_update$0$0 ==.
   0400 22                  908 	ret
                            909 ;------------------------------------------------------------
                            910 ;Allocation info for local variables in function 'uip_arp_arpin'
                            911 ;------------------------------------------------------------
                            912 ;------------------------------------------------------------
                    0401    913 	G$uip_arp_arpin$0$0 ==.
                    0401    914 	C$uip_arp.c$281$1$1 ==.
                            915 ;	..\uip\uip_arp.c:281: uip_arp_arpin(void) __reentrant banked
                            916 ;	-----------------------------------------
                            917 ;	 function uip_arp_arpin
                            918 ;	-----------------------------------------
   0401                     919 _uip_arp_arpin:
                    0401    920 	C$uip_arp.c$284$1$1 ==.
                            921 ;	..\uip\uip_arp.c:284: if(uip_len < sizeof(struct arp_hdr)) {
   0401 90s00r00            922 	mov	dptr,#_uip_len
   0404 E0                  923 	movx	a,@dptr
   0405 FA                  924 	mov	r2,a
   0406 A3                  925 	inc	dptr
   0407 E0                  926 	movx	a,@dptr
   0408 FB                  927 	mov	r3,a
   0409 C3                  928 	clr	c
   040A EA                  929 	mov	a,r2
   040B 94 2A               930 	subb	a,#0x2A
   040D EB                  931 	mov	a,r3
   040E 94 00               932 	subb	a,#0x00
   0410 50 0A               933 	jnc	00102$
                    0412    934 	C$uip_arp.c$285$2$2 ==.
                            935 ;	..\uip\uip_arp.c:285: uip_len = 0;
   0412 90s00r00            936 	mov	dptr,#_uip_len
   0415 E4                  937 	clr	a
   0416 F0                  938 	movx	@dptr,a
   0417 A3                  939 	inc	dptr
   0418 F0                  940 	movx	@dptr,a
                    0419    941 	C$uip_arp.c$286$2$2 ==.
                            942 ;	..\uip\uip_arp.c:286: return;
   0419 02s06r37            943 	ljmp	00112$
   041C                     944 00102$:
                    041C    945 	C$uip_arp.c$288$1$1 ==.
                            946 ;	..\uip\uip_arp.c:288: uip_len = 0;
   041C 90s00r00            947 	mov	dptr,#_uip_len
   041F E4                  948 	clr	a
   0420 F0                  949 	movx	@dptr,a
   0421 A3                  950 	inc	dptr
   0422 F0                  951 	movx	@dptr,a
                    0423    952 	C$uip_arp.c$290$1$1 ==.
                            953 ;	..\uip\uip_arp.c:290: switch(BUF->opcode) {
   0423 90s00r14            954 	mov	dptr,#(_uip_buf + 0x0014)
   0426 75 F0 00            955 	mov	b,#0x00
   0429 12s00r00            956 	lcall	__gptrget
   042C FA                  957 	mov	r2,a
   042D A3                  958 	inc	dptr
   042E 12s00r00            959 	lcall	__gptrget
   0431 FB                  960 	mov	r3,a
   0432 BA 00 05            961 	cjne	r2,#0x00,00122$
   0435 BB 01 02            962 	cjne	r3,#0x01,00122$
   0438 80 0C               963 	sjmp	00103$
   043A                     964 00122$:
   043A BA 00 06            965 	cjne	r2,#0x00,00123$
   043D BB 02 03            966 	cjne	r3,#0x02,00123$
   0440 02s05rD8            967 	ljmp	00107$
   0443                     968 00123$:
   0443 02s06r37            969 	ljmp	00111$
                    0446    970 	C$uip_arp.c$291$2$3 ==.
                            971 ;	..\uip\uip_arp.c:291: case HTONS(ARP_REQUEST):
   0446                     972 00103$:
                    0446    973 	C$uip_arp.c$294$2$3 ==.
                            974 ;	..\uip\uip_arp.c:294: if(uip_ipaddr_cmp(BUF->dipaddr, uip_hostaddr)) {
   0446 90s00r26            975 	mov	dptr,#(_uip_buf + 0x0026)
   0449 75 F0 00            976 	mov	b,#0x00
   044C 12s00r00            977 	lcall	__gptrget
   044F FA                  978 	mov	r2,a
   0450 A3                  979 	inc	dptr
   0451 12s00r00            980 	lcall	__gptrget
   0454 FB                  981 	mov	r3,a
   0455 90s00r00            982 	mov	dptr,#_uip_hostaddr
   0458 E0                  983 	movx	a,@dptr
   0459 FC                  984 	mov	r4,a
   045A A3                  985 	inc	dptr
   045B E0                  986 	movx	a,@dptr
   045C FD                  987 	mov	r5,a
   045D EA                  988 	mov	a,r2
   045E B5 04 06            989 	cjne	a,ar4,00124$
   0461 EB                  990 	mov	a,r3
   0462 B5 05 02            991 	cjne	a,ar5,00124$
   0465 80 03               992 	sjmp	00125$
   0467                     993 00124$:
   0467 02s06r37            994 	ljmp	00111$
   046A                     995 00125$:
   046A 90s00r28            996 	mov	dptr,#(_uip_buf + 0x0028)
   046D 75 F0 00            997 	mov	b,#0x00
   0470 12s00r00            998 	lcall	__gptrget
   0473 FA                  999 	mov	r2,a
   0474 A3                 1000 	inc	dptr
   0475 12s00r00           1001 	lcall	__gptrget
   0478 FB                 1002 	mov	r3,a
   0479 90s00r02           1003 	mov	dptr,#(_uip_hostaddr + 0x0002)
   047C 75 F0 00           1004 	mov	b,#0x00
   047F 12s00r00           1005 	lcall	__gptrget
   0482 FC                 1006 	mov	r4,a
   0483 A3                 1007 	inc	dptr
   0484 12s00r00           1008 	lcall	__gptrget
   0487 FD                 1009 	mov	r5,a
   0488 EA                 1010 	mov	a,r2
   0489 B5 04 06           1011 	cjne	a,ar4,00126$
   048C EB                 1012 	mov	a,r3
   048D B5 05 02           1013 	cjne	a,ar5,00126$
   0490 80 03              1014 	sjmp	00127$
   0492                    1015 00126$:
   0492 02s06r37           1016 	ljmp	00111$
   0495                    1017 00127$:
                    0495   1018 	C$uip_arp.c$298$3$4 ==.
                           1019 ;	..\uip\uip_arp.c:298: uip_arp_update(BUF->sipaddr, &BUF->shwaddr);
   0495 74r16              1020 	mov	a,#(_uip_buf + 0x0016)
   0497 C0 E0              1021 	push	acc
   0499 74s00              1022 	mov	a,#((_uip_buf + 0x0016) >> 8)
   049B C0 E0              1023 	push	acc
   049D E4                 1024 	clr	a
   049E C0 E0              1025 	push	acc
   04A0 90s00r1C           1026 	mov	dptr,#(_uip_buf + 0x001c)
   04A3 75 F0 00           1027 	mov	b,#0x00
   04A6 12s01r17           1028 	lcall	_uip_arp_update
   04A9 15 81              1029 	dec	sp
   04AB 15 81              1030 	dec	sp
   04AD 15 81              1031 	dec	sp
                    04AF   1032 	C$uip_arp.c$301$3$4 ==.
                           1033 ;	..\uip\uip_arp.c:301: BUF->opcode = HTONS(2);
   04AF 90s00r14           1034 	mov	dptr,#(_uip_buf + 0x0014)
   04B2 E4                 1035 	clr	a
   04B3 F5 F0              1036 	mov	b,a
   04B5 12s00r00           1037 	lcall	__gptrput
   04B8 A3                 1038 	inc	dptr
   04B9 74 02              1039 	mov	a,#0x02
   04BB 12s00r00           1040 	lcall	__gptrput
                    04BE   1041 	C$uip_arp.c$303$3$4 ==.
                           1042 ;	..\uip\uip_arp.c:303: memcpy(BUF->dhwaddr.addr, BUF->shwaddr.addr, 6);
   04BE 90s00r00           1043 	mov	dptr,#_memcpy_PARM_2
   04C1 74 16              1044 	mov	a,#0x16
   04C3 24r00              1045 	add	a,#_uip_buf
   04C5 F0                 1046 	movx	@dptr,a
   04C6 E4                 1047 	clr	a
   04C7 34s00              1048 	addc	a,#(_uip_buf >> 8)
   04C9 A3                 1049 	inc	dptr
   04CA F0                 1050 	movx	@dptr,a
   04CB A3                 1051 	inc	dptr
   04CC E4                 1052 	clr	a
   04CD F0                 1053 	movx	@dptr,a
   04CE 90s00r00           1054 	mov	dptr,#_memcpy_PARM_3
   04D1 74 06              1055 	mov	a,#0x06
   04D3 F0                 1056 	movx	@dptr,a
   04D4 E4                 1057 	clr	a
   04D5 A3                 1058 	inc	dptr
   04D6 F0                 1059 	movx	@dptr,a
   04D7 90s00r20           1060 	mov	dptr,#(_uip_buf + 0x0020)
   04DA 75 F0 00           1061 	mov	b,#0x00
   04DD 12s00r00           1062 	lcall	_memcpy
                    04E0   1063 	C$uip_arp.c$304$3$4 ==.
                           1064 ;	..\uip\uip_arp.c:304: memcpy(BUF->shwaddr.addr, uip_ethaddr.addr, 6);
   04E0 90s00r00           1065 	mov	dptr,#_memcpy_PARM_2
   04E3 74r00              1066 	mov	a,#_uip_ethaddr
   04E5 F0                 1067 	movx	@dptr,a
   04E6 A3                 1068 	inc	dptr
   04E7 E4                 1069 	clr	a
   04E8 F0                 1070 	movx	@dptr,a
   04E9 A3                 1071 	inc	dptr
   04EA 74 40              1072 	mov	a,#0x40
   04EC F0                 1073 	movx	@dptr,a
   04ED 90s00r00           1074 	mov	dptr,#_memcpy_PARM_3
   04F0 74 06              1075 	mov	a,#0x06
   04F2 F0                 1076 	movx	@dptr,a
   04F3 E4                 1077 	clr	a
   04F4 A3                 1078 	inc	dptr
   04F5 F0                 1079 	movx	@dptr,a
   04F6 90s00r16           1080 	mov	dptr,#(_uip_buf + 0x0016)
   04F9 75 F0 00           1081 	mov	b,#0x00
   04FC 12s00r00           1082 	lcall	_memcpy
                    04FF   1083 	C$uip_arp.c$305$3$4 ==.
                           1084 ;	..\uip\uip_arp.c:305: memcpy(BUF->ethhdr.src.addr, uip_ethaddr.addr, 6);
   04FF 90s00r00           1085 	mov	dptr,#_memcpy_PARM_2
   0502 74r00              1086 	mov	a,#_uip_ethaddr
   0504 F0                 1087 	movx	@dptr,a
   0505 A3                 1088 	inc	dptr
   0506 E4                 1089 	clr	a
   0507 F0                 1090 	movx	@dptr,a
   0508 A3                 1091 	inc	dptr
   0509 74 40              1092 	mov	a,#0x40
   050B F0                 1093 	movx	@dptr,a
   050C 90s00r00           1094 	mov	dptr,#_memcpy_PARM_3
   050F 74 06              1095 	mov	a,#0x06
   0511 F0                 1096 	movx	@dptr,a
   0512 E4                 1097 	clr	a
   0513 A3                 1098 	inc	dptr
   0514 F0                 1099 	movx	@dptr,a
   0515 90s00r06           1100 	mov	dptr,#(_uip_buf + 0x0006)
   0518 75 F0 00           1101 	mov	b,#0x00
   051B 12s00r00           1102 	lcall	_memcpy
                    051E   1103 	C$uip_arp.c$306$3$4 ==.
                           1104 ;	..\uip\uip_arp.c:306: memcpy(BUF->ethhdr.dest.addr, BUF->dhwaddr.addr, 6);
   051E 90s00r00           1105 	mov	dptr,#_memcpy_PARM_2
   0521 74 20              1106 	mov	a,#0x20
   0523 24r00              1107 	add	a,#_uip_buf
   0525 F0                 1108 	movx	@dptr,a
   0526 E4                 1109 	clr	a
   0527 34s00              1110 	addc	a,#(_uip_buf >> 8)
   0529 A3                 1111 	inc	dptr
   052A F0                 1112 	movx	@dptr,a
   052B A3                 1113 	inc	dptr
   052C E4                 1114 	clr	a
   052D F0                 1115 	movx	@dptr,a
   052E 90s00r00           1116 	mov	dptr,#_memcpy_PARM_3
   0531 74 06              1117 	mov	a,#0x06
   0533 F0                 1118 	movx	@dptr,a
   0534 E4                 1119 	clr	a
   0535 A3                 1120 	inc	dptr
   0536 F0                 1121 	movx	@dptr,a
   0537 90s00r00           1122 	mov	dptr,#_uip_buf
   053A 75 F0 00           1123 	mov	b,#0x00
   053D 12s00r00           1124 	lcall	_memcpy
                    0540   1125 	C$uip_arp.c$308$3$4 ==.
                           1126 ;	..\uip\uip_arp.c:308: BUF->dipaddr[0] = BUF->sipaddr[0];
   0540 7Ar26              1127 	mov	r2,#(_uip_buf + 0x0026)
   0542 7Bs00              1128 	mov	r3,#((_uip_buf + 0x0026) >> 8)
   0544 7C 00              1129 	mov	r4,#0x00
   0546 7Dr1C              1130 	mov	r5,#(_uip_buf + 0x001c)
   0548 7Es00              1131 	mov	r6,#((_uip_buf + 0x001c) >> 8)
   054A 7F 00              1132 	mov	r7,#0x00
   054C 8D 82              1133 	mov	dpl,r5
   054E 8E 83              1134 	mov	dph,r6
   0550 8F F0              1135 	mov	b,r7
   0552 12s00r00           1136 	lcall	__gptrget
   0555 FD                 1137 	mov	r5,a
   0556 A3                 1138 	inc	dptr
   0557 12s00r00           1139 	lcall	__gptrget
   055A FE                 1140 	mov	r6,a
   055B 8A 82              1141 	mov	dpl,r2
   055D 8B 83              1142 	mov	dph,r3
   055F 8C F0              1143 	mov	b,r4
   0561 ED                 1144 	mov	a,r5
   0562 12s00r00           1145 	lcall	__gptrput
   0565 A3                 1146 	inc	dptr
   0566 EE                 1147 	mov	a,r6
   0567 12s00r00           1148 	lcall	__gptrput
                    056A   1149 	C$uip_arp.c$309$3$4 ==.
                           1150 ;	..\uip\uip_arp.c:309: BUF->dipaddr[1] = BUF->sipaddr[1];
   056A 90s00r1E           1151 	mov	dptr,#(_uip_buf + 0x001e)
   056D 75 F0 00           1152 	mov	b,#0x00
   0570 12s00r00           1153 	lcall	__gptrget
   0573 FA                 1154 	mov	r2,a
   0574 A3                 1155 	inc	dptr
   0575 12s00r00           1156 	lcall	__gptrget
   0578 FB                 1157 	mov	r3,a
   0579 90s00r28           1158 	mov	dptr,#(_uip_buf + 0x0028)
   057C 75 F0 00           1159 	mov	b,#0x00
   057F EA                 1160 	mov	a,r2
   0580 12s00r00           1161 	lcall	__gptrput
   0583 A3                 1162 	inc	dptr
   0584 EB                 1163 	mov	a,r3
   0585 12s00r00           1164 	lcall	__gptrput
                    0588   1165 	C$uip_arp.c$310$3$4 ==.
                           1166 ;	..\uip\uip_arp.c:310: BUF->sipaddr[0] = uip_hostaddr[0];
   0588 7Ar1C              1167 	mov	r2,#(_uip_buf + 0x001c)
   058A 7Bs00              1168 	mov	r3,#((_uip_buf + 0x001c) >> 8)
   058C 7C 00              1169 	mov	r4,#0x00
   058E 90s00r00           1170 	mov	dptr,#_uip_hostaddr
   0591 E0                 1171 	movx	a,@dptr
   0592 FD                 1172 	mov	r5,a
   0593 A3                 1173 	inc	dptr
   0594 E0                 1174 	movx	a,@dptr
   0595 FE                 1175 	mov	r6,a
   0596 8A 82              1176 	mov	dpl,r2
   0598 8B 83              1177 	mov	dph,r3
   059A 8C F0              1178 	mov	b,r4
   059C ED                 1179 	mov	a,r5
   059D 12s00r00           1180 	lcall	__gptrput
   05A0 A3                 1181 	inc	dptr
   05A1 EE                 1182 	mov	a,r6
   05A2 12s00r00           1183 	lcall	__gptrput
                    05A5   1184 	C$uip_arp.c$311$3$4 ==.
                           1185 ;	..\uip\uip_arp.c:311: BUF->sipaddr[1] = uip_hostaddr[1];
   05A5 90s00r02           1186 	mov	dptr,#(_uip_hostaddr + 0x0002)
   05A8 E0                 1187 	movx	a,@dptr
   05A9 FA                 1188 	mov	r2,a
   05AA A3                 1189 	inc	dptr
   05AB E0                 1190 	movx	a,@dptr
   05AC FB                 1191 	mov	r3,a
   05AD 90s00r1E           1192 	mov	dptr,#(_uip_buf + 0x001e)
   05B0 75 F0 00           1193 	mov	b,#0x00
   05B3 EA                 1194 	mov	a,r2
   05B4 12s00r00           1195 	lcall	__gptrput
   05B7 A3                 1196 	inc	dptr
   05B8 EB                 1197 	mov	a,r3
   05B9 12s00r00           1198 	lcall	__gptrput
                    05BC   1199 	C$uip_arp.c$313$3$4 ==.
                           1200 ;	..\uip\uip_arp.c:313: BUF->ethhdr.type = HTONS(UIP_ETHTYPE_ARP);
   05BC 90s00r0C           1201 	mov	dptr,#(_uip_buf + 0x000c)
   05BF 75 F0 00           1202 	mov	b,#0x00
   05C2 74 08              1203 	mov	a,#0x08
   05C4 12s00r00           1204 	lcall	__gptrput
   05C7 A3                 1205 	inc	dptr
   05C8 74 06              1206 	mov	a,#0x06
   05CA 12s00r00           1207 	lcall	__gptrput
                    05CD   1208 	C$uip_arp.c$314$3$4 ==.
                           1209 ;	..\uip\uip_arp.c:314: uip_len = sizeof(struct arp_hdr);
   05CD 90s00r00           1210 	mov	dptr,#_uip_len
   05D0 74 2A              1211 	mov	a,#0x2A
   05D2 F0                 1212 	movx	@dptr,a
   05D3 E4                 1213 	clr	a
   05D4 A3                 1214 	inc	dptr
   05D5 F0                 1215 	movx	@dptr,a
                    05D6   1216 	C$uip_arp.c$316$2$3 ==.
                           1217 ;	..\uip\uip_arp.c:316: break;
                    05D6   1218 	C$uip_arp.c$317$2$3 ==.
                           1219 ;	..\uip\uip_arp.c:317: case HTONS(ARP_REPLY):
   05D6 80 5F              1220 	sjmp	00111$
   05D8                    1221 00107$:
                    05D8   1222 	C$uip_arp.c$320$2$3 ==.
                           1223 ;	..\uip\uip_arp.c:320: if(uip_ipaddr_cmp(BUF->dipaddr, uip_hostaddr)) {
   05D8 90s00r26           1224 	mov	dptr,#(_uip_buf + 0x0026)
   05DB 75 F0 00           1225 	mov	b,#0x00
   05DE 12s00r00           1226 	lcall	__gptrget
   05E1 FA                 1227 	mov	r2,a
   05E2 A3                 1228 	inc	dptr
   05E3 12s00r00           1229 	lcall	__gptrget
   05E6 FB                 1230 	mov	r3,a
   05E7 90s00r00           1231 	mov	dptr,#_uip_hostaddr
   05EA E0                 1232 	movx	a,@dptr
   05EB FC                 1233 	mov	r4,a
   05EC A3                 1234 	inc	dptr
   05ED E0                 1235 	movx	a,@dptr
   05EE FD                 1236 	mov	r5,a
   05EF EA                 1237 	mov	a,r2
   05F0 B5 04 44           1238 	cjne	a,ar4,00111$
   05F3 EB                 1239 	mov	a,r3
   05F4 B5 05 40           1240 	cjne	a,ar5,00111$
   05F7 90s00r28           1241 	mov	dptr,#(_uip_buf + 0x0028)
   05FA 75 F0 00           1242 	mov	b,#0x00
   05FD 12s00r00           1243 	lcall	__gptrget
   0600 FA                 1244 	mov	r2,a
   0601 A3                 1245 	inc	dptr
   0602 12s00r00           1246 	lcall	__gptrget
   0605 FB                 1247 	mov	r3,a
   0606 90s00r02           1248 	mov	dptr,#(_uip_hostaddr + 0x0002)
   0609 75 F0 00           1249 	mov	b,#0x00
   060C 12s00r00           1250 	lcall	__gptrget
   060F FC                 1251 	mov	r4,a
   0610 A3                 1252 	inc	dptr
   0611 12s00r00           1253 	lcall	__gptrget
   0614 FD                 1254 	mov	r5,a
   0615 EA                 1255 	mov	a,r2
   0616 B5 04 1E           1256 	cjne	a,ar4,00111$
   0619 EB                 1257 	mov	a,r3
   061A B5 05 1A           1258 	cjne	a,ar5,00111$
                    061D   1259 	C$uip_arp.c$321$3$5 ==.
                           1260 ;	..\uip\uip_arp.c:321: uip_arp_update(BUF->sipaddr, &BUF->shwaddr);
   061D 74r16              1261 	mov	a,#(_uip_buf + 0x0016)
   061F C0 E0              1262 	push	acc
   0621 74s00              1263 	mov	a,#((_uip_buf + 0x0016) >> 8)
   0623 C0 E0              1264 	push	acc
   0625 E4                 1265 	clr	a
   0626 C0 E0              1266 	push	acc
   0628 90s00r1C           1267 	mov	dptr,#(_uip_buf + 0x001c)
   062B 75 F0 00           1268 	mov	b,#0x00
   062E 12s01r17           1269 	lcall	_uip_arp_update
   0631 15 81              1270 	dec	sp
   0633 15 81              1271 	dec	sp
   0635 15 81              1272 	dec	sp
                    0637   1273 	C$uip_arp.c$324$1$1 ==.
                           1274 ;	..\uip\uip_arp.c:324: }
   0637                    1275 00111$:
                    0637   1276 	C$uip_arp.c$326$1$1 ==.
                           1277 ;	..\uip\uip_arp.c:326: return;
   0637                    1278 00112$:
                    0637   1279 	C$uip_arp.c$327$1$1 ==.
                    0637   1280 	XG$uip_arp_arpin$0$0 ==.
   0637 02s00r00           1281 	ljmp	__sdcc_banked_ret
                           1282 ;------------------------------------------------------------
                           1283 ;Allocation info for local variables in function 'uip_arp_out'
                           1284 ;------------------------------------------------------------
                           1285 ;tabptr                    Allocated to stack - offset 1
                           1286 ;------------------------------------------------------------
                    063A   1287 	G$uip_arp_out$0$0 ==.
                    063A   1288 	C$uip_arp.c$357$1$1 ==.
                           1289 ;	..\uip\uip_arp.c:357: uip_arp_out(void) __reentrant banked
                           1290 ;	-----------------------------------------
                           1291 ;	 function uip_arp_out
                           1292 ;	-----------------------------------------
   063A                    1293 _uip_arp_out:
   063A C0*00              1294 	push	_bp
   063C 85 81*00           1295 	mov	_bp,sp
   063F 05 81              1296 	inc	sp
   0641 05 81              1297 	inc	sp
   0643 05 81              1298 	inc	sp
                    0645   1299 	C$uip_arp.c$359$1$1 ==.
                           1300 ;	..\uip\uip_arp.c:359: struct arp_entry *tabptr = NULL;
   0645 A8*00              1301 	mov	r0,_bp
   0647 08                 1302 	inc	r0
   0648 E4                 1303 	clr	a
   0649 F6                 1304 	mov	@r0,a
   064A 08                 1305 	inc	r0
   064B F6                 1306 	mov	@r0,a
   064C 08                 1307 	inc	r0
   064D 76 00              1308 	mov	@r0,#0x00
                    064F   1309 	C$uip_arp.c$369$1$1 ==.
                           1310 ;	..\uip\uip_arp.c:369: if(uip_ipaddr_cmp(IPBUF->destipaddr, broadcast_ipaddr)) {
   064F 90s00r1E           1311 	mov	dptr,#(_uip_buf + 0x001e)
   0652 75 F0 00           1312 	mov	b,#0x00
   0655 12s00r00           1313 	lcall	__gptrget
   0658 FD                 1314 	mov	r5,a
   0659 A3                 1315 	inc	dptr
   065A 12s00r00           1316 	lcall	__gptrget
   065D FE                 1317 	mov	r6,a
   065E 90s00r06           1318 	mov	dptr,#_broadcast_ipaddr
   0661 E4                 1319 	clr	a
   0662 93                 1320 	movc	a,@a+dptr
   0663 FF                 1321 	mov	r7,a
   0664 A3                 1322 	inc	dptr
   0665 E4                 1323 	clr	a
   0666 93                 1324 	movc	a,@a+dptr
   0667 FA                 1325 	mov	r2,a
   0668 ED                 1326 	mov	a,r5
   0669 B5 07 4D           1327 	cjne	a,ar7,00127$
   066C EE                 1328 	mov	a,r6
   066D B5 02 49           1329 	cjne	a,ar2,00127$
   0670 90s00r20           1330 	mov	dptr,#(_uip_buf + 0x0020)
   0673 75 F0 00           1331 	mov	b,#0x00
   0676 12s00r00           1332 	lcall	__gptrget
   0679 FA                 1333 	mov	r2,a
   067A A3                 1334 	inc	dptr
   067B 12s00r00           1335 	lcall	__gptrget
   067E FB                 1336 	mov	r3,a
   067F 90s00r08           1337 	mov	dptr,#(_broadcast_ipaddr + 0x0002)
   0682 75 F0 80           1338 	mov	b,#0x80
   0685 12s00r00           1339 	lcall	__gptrget
   0688 FC                 1340 	mov	r4,a
   0689 A3                 1341 	inc	dptr
   068A 12s00r00           1342 	lcall	__gptrget
   068D FD                 1343 	mov	r5,a
   068E EA                 1344 	mov	a,r2
   068F B5 04 27           1345 	cjne	a,ar4,00127$
   0692 EB                 1346 	mov	a,r3
   0693 B5 05 23           1347 	cjne	a,ar5,00127$
                    0696   1348 	C$uip_arp.c$370$2$2 ==.
                           1349 ;	..\uip\uip_arp.c:370: memcpy(IPBUF->ethhdr.dest.addr, broadcast_ethaddr.addr, 6);
   0696 90s00r00           1350 	mov	dptr,#_memcpy_PARM_2
   0699 74r00              1351 	mov	a,#_broadcast_ethaddr
   069B F0                 1352 	movx	@dptr,a
   069C A3                 1353 	inc	dptr
   069D 74s00              1354 	mov	a,#(_broadcast_ethaddr >> 8)
   069F F0                 1355 	movx	@dptr,a
   06A0 A3                 1356 	inc	dptr
   06A1 74 80              1357 	mov	a,#0x80
   06A3 F0                 1358 	movx	@dptr,a
   06A4 90s00r00           1359 	mov	dptr,#_memcpy_PARM_3
   06A7 74 06              1360 	mov	a,#0x06
   06A9 F0                 1361 	movx	@dptr,a
   06AA E4                 1362 	clr	a
   06AB A3                 1363 	inc	dptr
   06AC F0                 1364 	movx	@dptr,a
   06AD 90s00r00           1365 	mov	dptr,#_uip_buf
   06B0 75 F0 00           1366 	mov	b,#0x00
   06B3 12s00r00           1367 	lcall	_memcpy
   06B6 02s09rAB           1368 	ljmp	00128$
   06B9                    1369 00127$:
                    06B9   1370 	C$uip_arp.c$373$2$3 ==.
                           1371 ;	..\uip\uip_arp.c:373: if(!uip_ipaddr_maskcmp(IPBUF->destipaddr, uip_hostaddr, uip_netmask)) {
   06B9 90s00r1E           1372 	mov	dptr,#(_uip_buf + 0x001e)
   06BC 75 F0 00           1373 	mov	b,#0x00
   06BF 12s00r00           1374 	lcall	__gptrget
   06C2 FA                 1375 	mov	r2,a
   06C3 A3                 1376 	inc	dptr
   06C4 12s00r00           1377 	lcall	__gptrget
   06C7 FB                 1378 	mov	r3,a
   06C8 90s00r00           1379 	mov	dptr,#_uip_netmask
   06CB E0                 1380 	movx	a,@dptr
   06CC FC                 1381 	mov	r4,a
   06CD A3                 1382 	inc	dptr
   06CE E0                 1383 	movx	a,@dptr
   06CF FD                 1384 	mov	r5,a
   06D0 EC                 1385 	mov	a,r4
   06D1 52 02              1386 	anl	ar2,a
   06D3 ED                 1387 	mov	a,r5
   06D4 52 03              1388 	anl	ar3,a
   06D6 90s00r00           1389 	mov	dptr,#_uip_hostaddr
   06D9 E0                 1390 	movx	a,@dptr
   06DA FC                 1391 	mov	r4,a
   06DB A3                 1392 	inc	dptr
   06DC E0                 1393 	movx	a,@dptr
   06DD FD                 1394 	mov	r5,a
   06DE 90s00r00           1395 	mov	dptr,#_uip_netmask
   06E1 E0                 1396 	movx	a,@dptr
   06E2 FE                 1397 	mov	r6,a
   06E3 A3                 1398 	inc	dptr
   06E4 E0                 1399 	movx	a,@dptr
   06E5 FF                 1400 	mov	r7,a
   06E6 EE                 1401 	mov	a,r6
   06E7 52 04              1402 	anl	ar4,a
   06E9 EF                 1403 	mov	a,r7
   06EA 52 05              1404 	anl	ar5,a
   06EC EA                 1405 	mov	a,r2
   06ED B5 04 56           1406 	cjne	a,ar4,00101$
   06F0 EB                 1407 	mov	a,r3
   06F1 B5 05 52           1408 	cjne	a,ar5,00101$
   06F4 90s00r20           1409 	mov	dptr,#(_uip_buf + 0x0020)
   06F7 75 F0 00           1410 	mov	b,#0x00
   06FA 12s00r00           1411 	lcall	__gptrget
   06FD FA                 1412 	mov	r2,a
   06FE A3                 1413 	inc	dptr
   06FF 12s00r00           1414 	lcall	__gptrget
   0702 FB                 1415 	mov	r3,a
   0703 90s00r02           1416 	mov	dptr,#(_uip_netmask + 0x0002)
   0706 75 F0 00           1417 	mov	b,#0x00
   0709 12s00r00           1418 	lcall	__gptrget
   070C FC                 1419 	mov	r4,a
   070D A3                 1420 	inc	dptr
   070E 12s00r00           1421 	lcall	__gptrget
   0711 FD                 1422 	mov	r5,a
   0712 EC                 1423 	mov	a,r4
   0713 52 02              1424 	anl	ar2,a
   0715 ED                 1425 	mov	a,r5
   0716 52 03              1426 	anl	ar3,a
   0718 90s00r02           1427 	mov	dptr,#(_uip_hostaddr + 0x0002)
   071B 75 F0 00           1428 	mov	b,#0x00
   071E 12s00r00           1429 	lcall	__gptrget
   0721 FC                 1430 	mov	r4,a
   0722 A3                 1431 	inc	dptr
   0723 12s00r00           1432 	lcall	__gptrget
   0726 FD                 1433 	mov	r5,a
   0727 90s00r02           1434 	mov	dptr,#(_uip_netmask + 0x0002)
   072A 75 F0 00           1435 	mov	b,#0x00
   072D 12s00r00           1436 	lcall	__gptrget
   0730 FE                 1437 	mov	r6,a
   0731 A3                 1438 	inc	dptr
   0732 12s00r00           1439 	lcall	__gptrget
   0735 FF                 1440 	mov	r7,a
   0736 EE                 1441 	mov	a,r6
   0737 52 04              1442 	anl	ar4,a
   0739 EF                 1443 	mov	a,r7
   073A 52 05              1444 	anl	ar5,a
   073C EA                 1445 	mov	a,r2
   073D B5 04 06           1446 	cjne	a,ar4,00145$
   0740 EB                 1447 	mov	a,r3
   0741 B5 05 02           1448 	cjne	a,ar5,00145$
   0744 80 30              1449 	sjmp	00104$
   0746                    1450 00145$:
                    0746   1451 	C$uip_arp.c$377$3$4 ==.
                           1452 ;	..\uip\uip_arp.c:377: uip_ipaddr_copy(ipaddr, uip_draddr);
   0746                    1453 00101$:
   0746 90s00r00           1454 	mov	dptr,#_uip_draddr
   0749 E0                 1455 	movx	a,@dptr
   074A FA                 1456 	mov	r2,a
   074B A3                 1457 	inc	dptr
   074C E0                 1458 	movx	a,@dptr
   074D FB                 1459 	mov	r3,a
   074E 90s00r2C           1460 	mov	dptr,#_ipaddr
   0751 EA                 1461 	mov	a,r2
   0752 F0                 1462 	movx	@dptr,a
   0753 A3                 1463 	inc	dptr
   0754 EB                 1464 	mov	a,r3
   0755 F0                 1465 	movx	@dptr,a
   0756 90s00r02           1466 	mov	dptr,#(_uip_draddr + 0x0002)
   0759 75 F0 00           1467 	mov	b,#0x00
   075C 12s00r00           1468 	lcall	__gptrget
   075F FA                 1469 	mov	r2,a
   0760 A3                 1470 	inc	dptr
   0761 12s00r00           1471 	lcall	__gptrget
   0764 FB                 1472 	mov	r3,a
   0765 90s00r2E           1473 	mov	dptr,#(_ipaddr + 0x0002)
   0768 75 F0 00           1474 	mov	b,#0x00
   076B EA                 1475 	mov	a,r2
   076C 12s00r00           1476 	lcall	__gptrput
   076F A3                 1477 	inc	dptr
   0770 EB                 1478 	mov	a,r3
   0771 12s00r00           1479 	lcall	__gptrput
                    0774   1480 	C$uip_arp.c$380$3$6 ==.
                           1481 ;	..\uip\uip_arp.c:380: uip_ipaddr_copy(ipaddr, IPBUF->destipaddr);
   0774 80 35              1482 	sjmp	00109$
   0776                    1483 00104$:
   0776 90s00r1E           1484 	mov	dptr,#(_uip_buf + 0x001e)
   0779 75 F0 00           1485 	mov	b,#0x00
   077C 12s00r00           1486 	lcall	__gptrget
   077F FA                 1487 	mov	r2,a
   0780 A3                 1488 	inc	dptr
   0781 12s00r00           1489 	lcall	__gptrget
   0784 FB                 1490 	mov	r3,a
   0785 90s00r2C           1491 	mov	dptr,#_ipaddr
   0788 EA                 1492 	mov	a,r2
   0789 F0                 1493 	movx	@dptr,a
   078A A3                 1494 	inc	dptr
   078B EB                 1495 	mov	a,r3
   078C F0                 1496 	movx	@dptr,a
   078D 90s00r20           1497 	mov	dptr,#(_uip_buf + 0x0020)
   0790 75 F0 00           1498 	mov	b,#0x00
   0793 12s00r00           1499 	lcall	__gptrget
   0796 FA                 1500 	mov	r2,a
   0797 A3                 1501 	inc	dptr
   0798 12s00r00           1502 	lcall	__gptrget
   079B FB                 1503 	mov	r3,a
   079C 90s00r2E           1504 	mov	dptr,#(_ipaddr + 0x0002)
   079F 75 F0 00           1505 	mov	b,#0x00
   07A2 EA                 1506 	mov	a,r2
   07A3 12s00r00           1507 	lcall	__gptrput
   07A6 A3                 1508 	inc	dptr
   07A7 EB                 1509 	mov	a,r3
   07A8 12s00r00           1510 	lcall	__gptrput
   07AB                    1511 00109$:
                    07AB   1512 	C$uip_arp.c$383$2$3 ==.
                           1513 ;	..\uip\uip_arp.c:383: for(i = 0; i < UIP_ARPTAB_SIZE; ++i) {
   07AB 90s00r30           1514 	mov	dptr,#_i
   07AE E4                 1515 	clr	a
   07AF F0                 1516 	movx	@dptr,a
   07B0                    1517 00114$:
   07B0 90s00r30           1518 	mov	dptr,#_i
   07B3 E0                 1519 	movx	a,@dptr
   07B4 FA                 1520 	mov	r2,a
   07B5 BA 04 00           1521 	cjne	r2,#0x04,00146$
   07B8                    1522 00146$:
   07B8 50 7B              1523 	jnc	00117$
                    07BA   1524 	C$uip_arp.c$384$3$8 ==.
                           1525 ;	..\uip\uip_arp.c:384: tabptr = &arp_table[i];
   07BA EA                 1526 	mov	a,r2
   07BB 75 F0 0B           1527 	mov	b,#0x0B
   07BE A4                 1528 	mul	ab
   07BF 24r00              1529 	add	a,#_arp_table
   07C1 FA                 1530 	mov	r2,a
   07C2 E4                 1531 	clr	a
   07C3 34s00              1532 	addc	a,#(_arp_table >> 8)
   07C5 FB                 1533 	mov	r3,a
   07C6 A8*00              1534 	mov	r0,_bp
   07C8 08                 1535 	inc	r0
   07C9 A6 02              1536 	mov	@r0,ar2
   07CB 08                 1537 	inc	r0
   07CC A6 03              1538 	mov	@r0,ar3
   07CE 08                 1539 	inc	r0
   07CF 76 00              1540 	mov	@r0,#0x00
                    07D1   1541 	C$uip_arp.c$385$3$8 ==.
                           1542 ;	..\uip\uip_arp.c:385: if(uip_ipaddr_cmp(ipaddr, tabptr->ipaddr)) {
   07D1 90s00r2C           1543 	mov	dptr,#_ipaddr
   07D4 E0                 1544 	movx	a,@dptr
   07D5 FA                 1545 	mov	r2,a
   07D6 A3                 1546 	inc	dptr
   07D7 E0                 1547 	movx	a,@dptr
   07D8 FB                 1548 	mov	r3,a
   07D9 A8*00              1549 	mov	r0,_bp
   07DB 08                 1550 	inc	r0
   07DC 86 82              1551 	mov	dpl,@r0
   07DE 08                 1552 	inc	r0
   07DF 86 83              1553 	mov	dph,@r0
   07E1 08                 1554 	inc	r0
   07E2 86 F0              1555 	mov	b,@r0
   07E4 12s00r00           1556 	lcall	__gptrget
   07E7 FC                 1557 	mov	r4,a
   07E8 A3                 1558 	inc	dptr
   07E9 12s00r00           1559 	lcall	__gptrget
   07EC FD                 1560 	mov	r5,a
   07ED EA                 1561 	mov	a,r2
   07EE B5 04 3A           1562 	cjne	a,ar4,00116$
   07F1 EB                 1563 	mov	a,r3
   07F2 B5 05 36           1564 	cjne	a,ar5,00116$
   07F5 90s00r2E           1565 	mov	dptr,#(_ipaddr + 0x0002)
   07F8 75 F0 00           1566 	mov	b,#0x00
   07FB 12s00r00           1567 	lcall	__gptrget
   07FE FA                 1568 	mov	r2,a
   07FF A3                 1569 	inc	dptr
   0800 12s00r00           1570 	lcall	__gptrget
   0803 FB                 1571 	mov	r3,a
   0804 A8*00              1572 	mov	r0,_bp
   0806 08                 1573 	inc	r0
   0807 74 02              1574 	mov	a,#0x02
   0809 26                 1575 	add	a,@r0
   080A FC                 1576 	mov	r4,a
   080B E4                 1577 	clr	a
   080C 08                 1578 	inc	r0
   080D 36                 1579 	addc	a,@r0
   080E FD                 1580 	mov	r5,a
   080F 08                 1581 	inc	r0
   0810 86 06              1582 	mov	ar6,@r0
   0812 8C 82              1583 	mov	dpl,r4
   0814 8D 83              1584 	mov	dph,r5
   0816 8E F0              1585 	mov	b,r6
   0818 12s00r00           1586 	lcall	__gptrget
   081B FC                 1587 	mov	r4,a
   081C A3                 1588 	inc	dptr
   081D 12s00r00           1589 	lcall	__gptrget
   0820 FD                 1590 	mov	r5,a
   0821 EA                 1591 	mov	a,r2
   0822 B5 04 06           1592 	cjne	a,ar4,00150$
   0825 EB                 1593 	mov	a,r3
   0826 B5 05 02           1594 	cjne	a,ar5,00150$
   0829 80 0A              1595 	sjmp	00117$
   082B                    1596 00150$:
                    082B   1597 	C$uip_arp.c$386$2$3 ==.
                           1598 ;	..\uip\uip_arp.c:386: break;
   082B                    1599 00116$:
                    082B   1600 	C$uip_arp.c$383$2$3 ==.
                           1601 ;	..\uip\uip_arp.c:383: for(i = 0; i < UIP_ARPTAB_SIZE; ++i) {
   082B 90s00r30           1602 	mov	dptr,#_i
   082E E0                 1603 	movx	a,@dptr
   082F 24 01              1604 	add	a,#0x01
   0831 F0                 1605 	movx	@dptr,a
   0832 02s07rB0           1606 	ljmp	00114$
   0835                    1607 00117$:
                    0835   1608 	C$uip_arp.c$390$2$3 ==.
                           1609 ;	..\uip\uip_arp.c:390: if(i == UIP_ARPTAB_SIZE) {
   0835 90s00r30           1610 	mov	dptr,#_i
   0838 E0                 1611 	movx	a,@dptr
   0839 FA                 1612 	mov	r2,a
   083A BA 04 02           1613 	cjne	r2,#0x04,00151$
   083D 80 03              1614 	sjmp	00152$
   083F                    1615 00151$:
   083F 02s09r86           1616 	ljmp	00125$
   0842                    1617 00152$:
                    0842   1618 	C$uip_arp.c$394$3$10 ==.
                           1619 ;	..\uip\uip_arp.c:394: memset(BUF->ethhdr.dest.addr, 0xff, 6);
   0842 90s00r00           1620 	mov	dptr,#_memset_PARM_2
   0845 74 FF              1621 	mov	a,#0xFF
   0847 F0                 1622 	movx	@dptr,a
   0848 90s00r00           1623 	mov	dptr,#_memset_PARM_3
   084B 74 06              1624 	mov	a,#0x06
   084D F0                 1625 	movx	@dptr,a
   084E E4                 1626 	clr	a
   084F A3                 1627 	inc	dptr
   0850 F0                 1628 	movx	@dptr,a
   0851 90s00r00           1629 	mov	dptr,#_uip_buf
   0854 75 F0 00           1630 	mov	b,#0x00
   0857 12s00r00           1631 	lcall	_memset
                    085A   1632 	C$uip_arp.c$395$3$10 ==.
                           1633 ;	..\uip\uip_arp.c:395: memset(BUF->dhwaddr.addr, 0x00, 6);
   085A 90s00r00           1634 	mov	dptr,#_memset_PARM_2
   085D E4                 1635 	clr	a
   085E F0                 1636 	movx	@dptr,a
   085F 90s00r00           1637 	mov	dptr,#_memset_PARM_3
   0862 74 06              1638 	mov	a,#0x06
   0864 F0                 1639 	movx	@dptr,a
   0865 E4                 1640 	clr	a
   0866 A3                 1641 	inc	dptr
   0867 F0                 1642 	movx	@dptr,a
   0868 90s00r20           1643 	mov	dptr,#(_uip_buf + 0x0020)
   086B 75 F0 00           1644 	mov	b,#0x00
   086E 12s00r00           1645 	lcall	_memset
                    0871   1646 	C$uip_arp.c$396$3$10 ==.
                           1647 ;	..\uip\uip_arp.c:396: memcpy(BUF->ethhdr.src.addr, uip_ethaddr.addr, 6);
   0871 90s00r00           1648 	mov	dptr,#_memcpy_PARM_2
   0874 74r00              1649 	mov	a,#_uip_ethaddr
   0876 F0                 1650 	movx	@dptr,a
   0877 A3                 1651 	inc	dptr
   0878 E4                 1652 	clr	a
   0879 F0                 1653 	movx	@dptr,a
   087A A3                 1654 	inc	dptr
   087B 74 40              1655 	mov	a,#0x40
   087D F0                 1656 	movx	@dptr,a
   087E 90s00r00           1657 	mov	dptr,#_memcpy_PARM_3
   0881 74 06              1658 	mov	a,#0x06
   0883 F0                 1659 	movx	@dptr,a
   0884 E4                 1660 	clr	a
   0885 A3                 1661 	inc	dptr
   0886 F0                 1662 	movx	@dptr,a
   0887 90s00r06           1663 	mov	dptr,#(_uip_buf + 0x0006)
   088A 75 F0 00           1664 	mov	b,#0x00
   088D 12s00r00           1665 	lcall	_memcpy
                    0890   1666 	C$uip_arp.c$397$3$10 ==.
                           1667 ;	..\uip\uip_arp.c:397: memcpy(BUF->shwaddr.addr, uip_ethaddr.addr, 6);
   0890 90s00r00           1668 	mov	dptr,#_memcpy_PARM_2
   0893 74r00              1669 	mov	a,#_uip_ethaddr
   0895 F0                 1670 	movx	@dptr,a
   0896 A3                 1671 	inc	dptr
   0897 E4                 1672 	clr	a
   0898 F0                 1673 	movx	@dptr,a
   0899 A3                 1674 	inc	dptr
   089A 74 40              1675 	mov	a,#0x40
   089C F0                 1676 	movx	@dptr,a
   089D 90s00r00           1677 	mov	dptr,#_memcpy_PARM_3
   08A0 74 06              1678 	mov	a,#0x06
   08A2 F0                 1679 	movx	@dptr,a
   08A3 E4                 1680 	clr	a
   08A4 A3                 1681 	inc	dptr
   08A5 F0                 1682 	movx	@dptr,a
   08A6 90s00r16           1683 	mov	dptr,#(_uip_buf + 0x0016)
   08A9 75 F0 00           1684 	mov	b,#0x00
   08AC 12s00r00           1685 	lcall	_memcpy
                    08AF   1686 	C$uip_arp.c$399$4$11 ==.
                           1687 ;	..\uip\uip_arp.c:399: uip_ipaddr_copy(BUF->dipaddr, ipaddr);
   08AF 90s00r2C           1688 	mov	dptr,#_ipaddr
   08B2 E0                 1689 	movx	a,@dptr
   08B3 FA                 1690 	mov	r2,a
   08B4 A3                 1691 	inc	dptr
   08B5 E0                 1692 	movx	a,@dptr
   08B6 FB                 1693 	mov	r3,a
   08B7 90s00r26           1694 	mov	dptr,#(_uip_buf + 0x0026)
   08BA 75 F0 00           1695 	mov	b,#0x00
   08BD EA                 1696 	mov	a,r2
   08BE 12s00r00           1697 	lcall	__gptrput
   08C1 A3                 1698 	inc	dptr
   08C2 EB                 1699 	mov	a,r3
   08C3 12s00r00           1700 	lcall	__gptrput
   08C6 90s00r2E           1701 	mov	dptr,#(_ipaddr + 0x0002)
   08C9 75 F0 00           1702 	mov	b,#0x00
   08CC 12s00r00           1703 	lcall	__gptrget
   08CF FA                 1704 	mov	r2,a
   08D0 A3                 1705 	inc	dptr
   08D1 12s00r00           1706 	lcall	__gptrget
   08D4 FB                 1707 	mov	r3,a
   08D5 90s00r28           1708 	mov	dptr,#(_uip_buf + 0x0028)
   08D8 75 F0 00           1709 	mov	b,#0x00
   08DB EA                 1710 	mov	a,r2
   08DC 12s00r00           1711 	lcall	__gptrput
   08DF A3                 1712 	inc	dptr
   08E0 EB                 1713 	mov	a,r3
   08E1 12s00r00           1714 	lcall	__gptrput
                    08E4   1715 	C$uip_arp.c$400$4$12 ==.
                           1716 ;	..\uip\uip_arp.c:400: uip_ipaddr_copy(BUF->sipaddr, uip_hostaddr);
   08E4 90s00r00           1717 	mov	dptr,#_uip_hostaddr
   08E7 E0                 1718 	movx	a,@dptr
   08E8 FA                 1719 	mov	r2,a
   08E9 A3                 1720 	inc	dptr
   08EA E0                 1721 	movx	a,@dptr
   08EB FB                 1722 	mov	r3,a
   08EC 90s00r1C           1723 	mov	dptr,#(_uip_buf + 0x001c)
   08EF 75 F0 00           1724 	mov	b,#0x00
   08F2 EA                 1725 	mov	a,r2
   08F3 12s00r00           1726 	lcall	__gptrput
   08F6 A3                 1727 	inc	dptr
   08F7 EB                 1728 	mov	a,r3
   08F8 12s00r00           1729 	lcall	__gptrput
   08FB 90s00r02           1730 	mov	dptr,#(_uip_hostaddr + 0x0002)
   08FE 75 F0 00           1731 	mov	b,#0x00
   0901 12s00r00           1732 	lcall	__gptrget
   0904 FA                 1733 	mov	r2,a
   0905 A3                 1734 	inc	dptr
   0906 12s00r00           1735 	lcall	__gptrget
   0909 FB                 1736 	mov	r3,a
   090A 90s00r1E           1737 	mov	dptr,#(_uip_buf + 0x001e)
   090D 75 F0 00           1738 	mov	b,#0x00
   0910 EA                 1739 	mov	a,r2
   0911 12s00r00           1740 	lcall	__gptrput
   0914 A3                 1741 	inc	dptr
   0915 EB                 1742 	mov	a,r3
   0916 12s00r00           1743 	lcall	__gptrput
                    0919   1744 	C$uip_arp.c$401$3$10 ==.
                           1745 ;	..\uip\uip_arp.c:401: BUF->opcode = HTONS(ARP_REQUEST); /* ARP request. */
   0919 90s00r14           1746 	mov	dptr,#(_uip_buf + 0x0014)
   091C E4                 1747 	clr	a
   091D F5 F0              1748 	mov	b,a
   091F 12s00r00           1749 	lcall	__gptrput
   0922 A3                 1750 	inc	dptr
   0923 74 01              1751 	mov	a,#0x01
   0925 12s00r00           1752 	lcall	__gptrput
                    0928   1753 	C$uip_arp.c$402$3$10 ==.
                           1754 ;	..\uip\uip_arp.c:402: BUF->hwtype = HTONS(ARP_HWTYPE_ETH);
   0928 90s00r0E           1755 	mov	dptr,#(_uip_buf + 0x000e)
   092B E4                 1756 	clr	a
   092C F5 F0              1757 	mov	b,a
   092E 12s00r00           1758 	lcall	__gptrput
   0931 A3                 1759 	inc	dptr
   0932 74 01              1760 	mov	a,#0x01
   0934 12s00r00           1761 	lcall	__gptrput
                    0937   1762 	C$uip_arp.c$403$3$10 ==.
                           1763 ;	..\uip\uip_arp.c:403: BUF->protocol = HTONS(UIP_ETHTYPE_IP);
   0937 90s00r10           1764 	mov	dptr,#(_uip_buf + 0x0010)
   093A 75 F0 00           1765 	mov	b,#0x00
   093D 74 08              1766 	mov	a,#0x08
   093F 12s00r00           1767 	lcall	__gptrput
   0942 A3                 1768 	inc	dptr
   0943 E4                 1769 	clr	a
   0944 12s00r00           1770 	lcall	__gptrput
                    0947   1771 	C$uip_arp.c$404$3$10 ==.
                           1772 ;	..\uip\uip_arp.c:404: BUF->hwlen = 6;
   0947 90s00r12           1773 	mov	dptr,#(_uip_buf + 0x0012)
   094A 75 F0 00           1774 	mov	b,#0x00
   094D 74 06              1775 	mov	a,#0x06
   094F 12s00r00           1776 	lcall	__gptrput
                    0952   1777 	C$uip_arp.c$405$3$10 ==.
                           1778 ;	..\uip\uip_arp.c:405: BUF->protolen = 4;
   0952 90s00r13           1779 	mov	dptr,#(_uip_buf + 0x0013)
   0955 75 F0 00           1780 	mov	b,#0x00
   0958 74 04              1781 	mov	a,#0x04
   095A 12s00r00           1782 	lcall	__gptrput
                    095D   1783 	C$uip_arp.c$406$3$10 ==.
                           1784 ;	..\uip\uip_arp.c:406: BUF->ethhdr.type = HTONS(UIP_ETHTYPE_ARP);
   095D 90s00r0C           1785 	mov	dptr,#(_uip_buf + 0x000c)
   0960 75 F0 00           1786 	mov	b,#0x00
   0963 74 08              1787 	mov	a,#0x08
   0965 12s00r00           1788 	lcall	__gptrput
   0968 A3                 1789 	inc	dptr
   0969 74 06              1790 	mov	a,#0x06
   096B 12s00r00           1791 	lcall	__gptrput
                    096E   1792 	C$uip_arp.c$408$3$10 ==.
                           1793 ;	..\uip\uip_arp.c:408: uip_appdata = &uip_buf[UIP_TCPIP_HLEN + UIP_LLH_LEN];
   096E 90s00r00           1794 	mov	dptr,#_uip_appdata
   0971 74r36              1795 	mov	a,#(_uip_buf + 0x0036)
   0973 F0                 1796 	movx	@dptr,a
   0974 A3                 1797 	inc	dptr
   0975 74s00              1798 	mov	a,#((_uip_buf + 0x0036) >> 8)
   0977 F0                 1799 	movx	@dptr,a
   0978 A3                 1800 	inc	dptr
   0979 E4                 1801 	clr	a
   097A F0                 1802 	movx	@dptr,a
                    097B   1803 	C$uip_arp.c$410$3$10 ==.
                           1804 ;	..\uip\uip_arp.c:410: uip_len = sizeof(struct arp_hdr);
   097B 90s00r00           1805 	mov	dptr,#_uip_len
   097E 74 2A              1806 	mov	a,#0x2A
   0980 F0                 1807 	movx	@dptr,a
   0981 E4                 1808 	clr	a
   0982 A3                 1809 	inc	dptr
   0983 F0                 1810 	movx	@dptr,a
                    0984   1811 	C$uip_arp.c$411$3$10 ==.
                           1812 ;	..\uip\uip_arp.c:411: return;
   0984 80 67              1813 	sjmp	00130$
   0986                    1814 00125$:
                    0986   1815 	C$uip_arp.c$415$2$3 ==.
                           1816 ;	..\uip\uip_arp.c:415: memcpy(IPBUF->ethhdr.dest.addr, tabptr->ethaddr.addr, 6);
   0986 A8*00              1817 	mov	r0,_bp
   0988 08                 1818 	inc	r0
   0989 90s00r00           1819 	mov	dptr,#_memcpy_PARM_2
   098C 74 04              1820 	mov	a,#0x04
   098E 26                 1821 	add	a,@r0
   098F F0                 1822 	movx	@dptr,a
   0990 E4                 1823 	clr	a
   0991 08                 1824 	inc	r0
   0992 36                 1825 	addc	a,@r0
   0993 A3                 1826 	inc	dptr
   0994 F0                 1827 	movx	@dptr,a
   0995 08                 1828 	inc	r0
   0996 A3                 1829 	inc	dptr
   0997 E6                 1830 	mov	a,@r0
   0998 F0                 1831 	movx	@dptr,a
   0999 90s00r00           1832 	mov	dptr,#_memcpy_PARM_3
   099C 74 06              1833 	mov	a,#0x06
   099E F0                 1834 	movx	@dptr,a
   099F E4                 1835 	clr	a
   09A0 A3                 1836 	inc	dptr
   09A1 F0                 1837 	movx	@dptr,a
   09A2 90s00r00           1838 	mov	dptr,#_uip_buf
   09A5 75 F0 00           1839 	mov	b,#0x00
   09A8 12s00r00           1840 	lcall	_memcpy
   09AB                    1841 00128$:
                    09AB   1842 	C$uip_arp.c$417$1$1 ==.
                           1843 ;	..\uip\uip_arp.c:417: memcpy(IPBUF->ethhdr.src.addr, uip_ethaddr.addr, 6);
   09AB 90s00r00           1844 	mov	dptr,#_memcpy_PARM_2
   09AE 74r00              1845 	mov	a,#_uip_ethaddr
   09B0 F0                 1846 	movx	@dptr,a
   09B1 A3                 1847 	inc	dptr
   09B2 E4                 1848 	clr	a
   09B3 F0                 1849 	movx	@dptr,a
   09B4 A3                 1850 	inc	dptr
   09B5 74 40              1851 	mov	a,#0x40
   09B7 F0                 1852 	movx	@dptr,a
   09B8 90s00r00           1853 	mov	dptr,#_memcpy_PARM_3
   09BB 74 06              1854 	mov	a,#0x06
   09BD F0                 1855 	movx	@dptr,a
   09BE E4                 1856 	clr	a
   09BF A3                 1857 	inc	dptr
   09C0 F0                 1858 	movx	@dptr,a
   09C1 90s00r06           1859 	mov	dptr,#(_uip_buf + 0x0006)
   09C4 75 F0 00           1860 	mov	b,#0x00
   09C7 12s00r00           1861 	lcall	_memcpy
                    09CA   1862 	C$uip_arp.c$419$1$1 ==.
                           1863 ;	..\uip\uip_arp.c:419: IPBUF->ethhdr.type = HTONS(UIP_ETHTYPE_IP);
   09CA 90s00r0C           1864 	mov	dptr,#(_uip_buf + 0x000c)
   09CD 75 F0 00           1865 	mov	b,#0x00
   09D0 74 08              1866 	mov	a,#0x08
   09D2 12s00r00           1867 	lcall	__gptrput
   09D5 A3                 1868 	inc	dptr
   09D6 E4                 1869 	clr	a
   09D7 12s00r00           1870 	lcall	__gptrput
                    09DA   1871 	C$uip_arp.c$421$1$1 ==.
                           1872 ;	..\uip\uip_arp.c:421: uip_len += sizeof(struct uip_eth_hdr);
   09DA 90s00r00           1873 	mov	dptr,#_uip_len
   09DD E0                 1874 	movx	a,@dptr
   09DE FA                 1875 	mov	r2,a
   09DF A3                 1876 	inc	dptr
   09E0 E0                 1877 	movx	a,@dptr
   09E1 FB                 1878 	mov	r3,a
   09E2 90s00r00           1879 	mov	dptr,#_uip_len
   09E5 74 0E              1880 	mov	a,#0x0E
   09E7 2A                 1881 	add	a,r2
   09E8 F0                 1882 	movx	@dptr,a
   09E9 E4                 1883 	clr	a
   09EA 3B                 1884 	addc	a,r3
   09EB A3                 1885 	inc	dptr
   09EC F0                 1886 	movx	@dptr,a
   09ED                    1887 00130$:
   09ED 85*00 81           1888 	mov	sp,_bp
   09F0 D0*00              1889 	pop	_bp
                    09F2   1890 	C$uip_arp.c$422$1$1 ==.
                    09F2   1891 	XG$uip_arp_out$0$0 ==.
   09F2 02s00r00           1892 	ljmp	__sdcc_banked_ret
                           1893 	.area CSEG    (CODE)
                           1894 	.area CONST   (CODE)
                    0000   1895 Fuip_arp$broadcast_ethaddr$0$0 == .
   0000                    1896 _broadcast_ethaddr:
   0000 FF                 1897 	.db #0xFF
   0001 FF                 1898 	.db #0xFF
   0002 FF                 1899 	.db #0xFF
   0003 FF                 1900 	.db #0xFF
   0004 FF                 1901 	.db #0xFF
   0005 FF                 1902 	.db #0xFF
                    0006   1903 Fuip_arp$broadcast_ipaddr$0$0 == .
   0006                    1904 _broadcast_ipaddr:
   0006 FF FF              1905 	.byte #0xFF,#0xFF
   0008 FF FF              1906 	.byte #0xFF,#0xFF
                           1907 	.area XINIT   (CODE)
                           1908 	.area CABS    (ABS,CODE)
