
Hexadecimal

Area                               Addr   Size   Decimal Bytes (Attributes)
--------------------------------   ----   ----   ------- ----- ------------
CABS                               0000   0000 =      0. bytes (ABS,CON,CODE)

      Value  Global
   --------  --------------------------------
  0C:0000    l_CABS
  0C:0000    l_GSINIT1
  0C:0000    l_GSINIT5
  0C:0000    l_IABS
  0C:0000    l_PSEG
  0C:0000    l_REG_BANK_3
  0C:0000    l_RSEG
  0C:0000    l_XABS
  0C:0000    l__CODE
  0C:0000    s_BSEG
  0C:0000    s_CABS
  0C:0000    s_DSEG
  0C:0000    s_HOME
  0C:0000    s_IABS
  0C:0000    s_ISEG
  0C:0000    s_PSEG
  0C:0000    s_REG_BANK_0
  0C:0000    s_XABS
  0C:0000    s_XSEG
  0C:0001    l_BIT_BANK
  0C:0003    l_BSEG_BYTES
  0C:0003    l_GSFINAL
  0C:0003    l_GSINIT0
  0C:0006    l_OSEG
  0C:0008    l_REG_BANK_0
  0C:0008    l_REG_BANK_1
  0C:0008    l_REG_BANK_2
  0C:0008    s_REG_BANK_1
  0C:0009    l_GSINIT
  0C:000A    l_GSINIT2
  0C:0010    s_REG_BANK_2
  0C:0012    l_ISEG
  0C:0017    l_BSEG
  0C:0018    s_REG_BANK_3
  0C:0020    s_BSEG_BYTES
  0C:0020    s__CODE
  0C:0022    l_GSINIT3
  0C:0023    s_BIT_BANK
  0C:0026    l_XINIT
  0C:0026    l_XISEG
  0C:002A    l_GSINIT4
  0C:0070    l_SSEG
  0C:0078    s_OSEG
  0C:0080    l_DSEG
  0C:0090    s_RSEG
  0C:0090    s_SSEG
  0C:009A    l_HOME
  0C:009A    s_GSINIT0
  0C:009D    s_GSINIT1
  0C:009D    s_GSINIT2
  0C:00A7    s_GSINIT3
  0C:00C9    s_GSINIT4
  0C:00F3    s_GSINIT
  0C:00F3    s_GSINIT5
  0C:00FC    s_GSFINAL
  0C:00FF    s_CSEG
  0C:0100    l_IRAM
  0C:1236    l_XSEG
  0C:1236    s_XISEG
  0C:185F    l_APP_BANK
  0C:2A49    l_CONST
  0C:56AC    l_UIP_BANK
  0C:79E4    l_CSEG
  0C:8000    s_CONST
  0C:AA49    s_XINIT
  0C:28000    s_UIP_BANK
  0C:38000    s_APP_BANK



Hexadecimal

Area                               Addr   Size   Decimal Bytes (Attributes)
--------------------------------   ----   ----   ------- ----- ------------
.  .ABS.                           0000   0000 =      0. bytes (ABS,CON)

      Value  Global
   --------  --------------------------------
     96959493    G$MAC0ACC$0$0
     96959493    _MAC0ACC
     0080    G$P0$0$0
     0080    G$P0_0$0$0
     0080    _P0
     0080    _P0_0
     0081    G$P0_1$0$0
     0081    G$SP$0$0
     0081    _P0_1
     0081    _SP
     0082    G$DPL$0$0
     0082    G$P0_2$0$0
     0082    _DPL
     0082    _P0_2
     0083    G$DPH$0$0
     0083    G$P0_3$0$0
     0083    _DPH
     0083    _P0_3
     0084    G$P0_4$0$0
     0084    G$SFRPAGE$0$0
     0084    _P0_4
     0084    _SFRPAGE
     0085    G$P0_5$0$0
     0085    G$SFRNEXT$0$0
     0085    _P0_5
     0085    _SFRNEXT
     0086    G$P0_6$0$0
     0086    G$SFRLAST$0$0
     0086    _P0_6
     0086    _SFRLAST
     0087    G$P0_7$0$0
     0087    G$PCON$0$0
     0087    _P0_7
     0087    _PCON
     0088    G$CP0HYN0$0$0
     0088    G$CP1HYN0$0$0
     0088    G$CPT0CN$0$0
     0088    G$CPT1CN$0$0
     0088    G$FLHBUSY$0$0
     0088    G$FLSTAT$0$0
     0088    G$IT0$0$0
     0088    G$TCON$0$0
     0088    _CP0HYN0
     0088    _CP1HYN0
     0088    _CPT0CN
     0088    _CPT1CN
     0088    _FLHBUSY
     0088    _FLSTAT
     0088    _IT0
     0088    _TCON
     0089    G$CP0HYN1$0$0
     0089    G$CP1HYN1$0$0
     0089    G$CPT0MD$0$0
     0089    G$CPT1MD$0$0
     0089    G$IE0$0$0
     0089    G$PLL0CN$0$0
     0089    G$TMOD$0$0
     0089    _CP0HYN1
     0089    _CP1HYN1
     0089    _CPT0MD
     0089    _CPT1MD
     0089    _IE0
     0089    _PLL0CN
     0089    _TMOD
     008A    G$CP0HYP0$0$0
     008A    G$CP1HYP0$0$0
     008A    G$IT1$0$0
     008A    G$OSCICN$0$0
     008A    G$TL0$0$0
     008A    _CP0HYP0
     008A    _CP1HYP0
     008A    _IT1
     008A    _OSCICN
     008A    _TL0
     008B    G$CP0HYP1$0$0
     008B    G$CP1HYP1$0$0
     008B    G$IE1$0$0
     008B    G$OSCICL$0$0
     008B    G$TL1$0$0
     008B    _CP0HYP1
     008B    _CP1HYP1
     008B    _IE1
     008B    _OSCICL
     008B    _TL1
     008C    G$CP0FIF$0$0
     008C    G$CP1FIF$0$0
     008C    G$OSCXCN$0$0
     008C    G$TH0$0$0
     008C    G$TR0$0$0
     008C    _CP0FIF
     008C    _CP1FIF
     008C    _OSCXCN
     008C    _TH0
     008C    _TR0
     008D    G$CP0RIF$0$0
     008D    G$CP1RIF$0$0
     008D    G$PLL0DIV$0$0
     008D    G$TF0$0$0
     008D    G$TH1$0$0
     008D    _CP0RIF
     008D    _CP1RIF
     008D    _PLL0DIV
     008D    _TF0
     008D    _TH1
     008E    G$CKCON$0$0
     008E    G$CP0OUT$0$0
     008E    G$CP1OUT$0$0
     008E    G$PLL0MUL$0$0
     008E    G$TR1$0$0
     008E    _CKCON
     008E    _CP0OUT
     008E    _CP1OUT
     008E    _PLL0MUL
     008E    _TR1
     008F    G$CP0EN$0$0
     008F    G$CP1EN$0$0
     008F    G$PLL0FLT$0$0
     008F    G$PSCTL$0$0
     008F    G$TF1$0$0
     008F    _CP0EN
     008F    _CP1EN
     008F    _PLL0FLT
     008F    _PSCTL
     008F    _TF1
     0090    G$P1$0$0
     0090    G$P1_0$0$0
     0090    _P1
     0090    _P1_0
     0091    G$MAC0BL$0$0
     0091    G$P1_1$0$0
     0091    G$SSTA0$0$0
     0091    _MAC0BL
     0091    _P1_1
     0091    _SSTA0
     0092    G$MAC0BH$0$0
     0092    G$P1_2$0$0
     0092    _MAC0BH
     0092    _P1_2
     0093    G$MAC0ACC0$0$0
     0093    G$P1_3$0$0
     0093    _MAC0ACC0
     0093    _P1_3
     0094    G$MAC0ACC1$0$0
     0094    G$P1_4$0$0
     0094    _MAC0ACC1
     0094    _P1_4
     0095    G$MAC0ACC2$0$0
     0095    G$P1_5$0$0
     0095    _MAC0ACC2
     0095    _P1_5
     0096    G$MAC0ACC3$0$0
     0096    G$P1_6$0$0
     0096    G$SFRPGCN$0$0
     0096    _MAC0ACC3
     0096    _P1_6
     0096    _SFRPGCN
     0097    G$CLKSEL$0$0
     0097    G$MAC0OVR$0$0
     0097    G$P1_7$0$0
     0097    _CLKSEL
     0097    _MAC0OVR
     0097    _P1_7
     0098    G$RI$0$0
     0098    G$RI0$0$0
     0098    G$RI1$0$0
     0098    G$SCON$0$0
     0098    G$SCON0$0$0
     0098    G$SCON1$0$0
     0098    _RI
     0098    _RI0
     0098    _RI1
     0098    _SCON
     0098    _SCON0
     0098    _SCON1
     0099    G$SBUF$0$0
     0099    G$SBUF0$0$0
     0099    G$SBUF1$0$0
     0099    G$TI$0$0
     0099    G$TI0$0$0
     0099    G$TI1$0$0
     0099    _SBUF
     0099    _SBUF0
     0099    _SBUF1
     0099    _TI
     0099    _TI0
     0099    _TI1
     009A    G$CCH0MA$0$0
     009A    G$RB80$0$0
     009A    G$RB81$0$0
     009A    G$SPI0CFG$0$0
     009A    _CCH0MA
     009A    _RB80
     009A    _RB81
     009A    _SPI0CFG
     009B    G$SPI0DAT$0$0
     009B    G$TB80$0$0
     009B    G$TB81$0$0
     009B    _SPI0DAT
     009B    _TB80
     009B    _TB81
     009C    G$P4MDOUT$0$0
     009C    G$REN$0$0
     009C    G$REN0$0$0
     009C    G$REN1$0$0
     009C    _P4MDOUT
     009C    _REN
     009C    _REN0
     009C    _REN1
     009D    G$MCE1$0$0
     009D    G$P5MDOUT$0$0
     009D    G$SM20$0$0
     009D    G$SPI0CKR$0$0
     009D    _MCE1
     009D    _P5MDOUT
     009D    _SM20
     009D    _SPI0CKR
     009E    G$P6MDOUT$0$0
     009E    G$SM10$0$0
     009E    _P6MDOUT
     009E    _SM10
     009F    G$P7MDOUT$0$0
     009F    G$S1MODE$0$0
     009F    G$SM00$0$0
     009F    _P7MDOUT
     009F    _S1MODE
     009F    _SM00
     00A0    G$P2$0$0
     00A0    G$P2_0$0$0
     00A0    _P2
     00A0    _P2_0
     00A1    G$CCH0CN$0$0
     00A1    G$EMI0TC$0$0
     00A1    G$P2_1$0$0
     00A1    _CCH0CN
     00A1    _EMI0TC
     00A1    _P2_1
     00A2    G$CCH0TN$0$0
     00A2    G$EMI0CN$0$0
     00A2    G$P2_2$0$0
     00A2    G$_XPAGE$0$0
     00A2    _CCH0TN
     00A2    _EMI0CN
     00A2    _P2_2
     00A2    __XPAGE
     00A3    G$CCH0LC$0$0
     00A3    G$EMI0CF$0$0
     00A3    G$P2_3$0$0
     00A3    _CCH0LC
     00A3    _EMI0CF
     00A3    _P2_3
     00A4    G$P0MDOUT$0$0
     00A4    G$P2_4$0$0
     00A4    _P0MDOUT
     00A4    _P2_4
     00A5    G$P1MDOUT$0$0
     00A5    G$P2_5$0$0
     00A5    _P1MDOUT
     00A5    _P2_5
     00A6    G$P2MDOUT$0$0
     00A6    G$P2_6$0$0
     00A6    _P2MDOUT
     00A6    _P2_6
     00A7    G$P2_7$0$0
     00A7    G$P3MDOUT$0$0
     00A7    _P2_7
     00A7    _P3MDOUT
     00A8    G$EX0$0$0
     00A8    G$IE$0$0
     00A8    _EX0
     00A8    _IE
     00A9    G$ET0$0$0
     00A9    G$SADDR0$0$0
     00A9    _ET0
     00A9    _SADDR0
     00AA    G$EX1$0$0
     00AA    _EX1
     00AB    G$ET1$0$0
     00AB    _ET1
     00AC    G$ES$0$0
     00AC    G$ES0$0$0
     00AC    _ES
     00AC    _ES0
     00AD    G$ET2$0$0
     00AD    G$P1MDIN$0$0
     00AD    _ET2
     00AD    _P1MDIN
     00AF    G$EA$0$0
     00AF    _EA
     00B0    G$P3$0$0
     00B0    G$P3_0$0$0
     00B0    _P3
     00B0    _P3_0
     00B1    G$P3_1$0$0
     00B1    G$PSBANK$0$0
     00B1    _P3_1
     00B1    _PSBANK
     00B2    G$P3_2$0$0
     00B2    _P3_2
     00B3    G$P3_3$0$0
     00B3    _P3_3
     00B4    G$P3_4$0$0
     00B4    _P3_4
     00B5    G$P3_5$0$0
     00B5    _P3_5
     00B6    G$P3_6$0$0
     00B6    _P3_6
     00B7    G$FLACL$0$0
     00B7    G$FLSCL$0$0
     00B7    G$P3_7$0$0
     00B7    _FLACL
     00B7    _FLSCL
     00B7    _P3_7
     00B8    G$IP$0$0
     00B8    G$PX0$0$0
     00B8    _IP
     00B8    _PX0
     00B9    G$PT0$0$0
     00B9    G$SADEN0$0$0
     00B9    _PT0
     00B9    _SADEN0
     00BA    G$AMX0CF$0$0
     00BA    G$AMX2CF$0$0
     00BA    G$PX1$0$0
     00BA    _AMX0CF
     00BA    _AMX2CF
     00BA    _PX1
     00BB    G$AMX0SL$0$0
     00BB    G$AMX2SL$0$0
     00BB    G$PT1$0$0
     00BB    _AMX0SL
     00BB    _AMX2SL
     00BB    _PT1
     00BC    G$ADC0CF$0$0
     00BC    G$ADC2CF$0$0
     00BC    G$PS$0$0
     00BC    G$PS0$0$0
     00BC    _ADC0CF
     00BC    _ADC2CF
     00BC    _PS
     00BC    _PS0
     00BD    G$PT2$0$0
     00BD    _PT2
     00BE    G$ADC0L$0$0
     00BE    G$ADC2$0$0
     00BE    _ADC0L
     00BE    _ADC2
     00BF    G$ADC0H$0$0
     00BF    _ADC0H
     00C0    G$MAC0N$0$0
     00C0    G$MAC0STA$0$0
     00C0    G$SMB0CN$0$0
     00C0    G$SMBTOE$0$0
     00C0    _MAC0N
     00C0    _MAC0STA
     00C0    _SMB0CN
     00C0    _SMBTOE
     00C1    G$MAC0AL$0$0
     00C1    G$MAC0SO$0$0
     00C1    G$SMB0STA$0$0
     00C1    G$SMBFTE$0$0
     00C1    _MAC0AL
     00C1    _MAC0SO
     00C1    _SMB0STA
     00C1    _SMBFTE
     00C2    G$AA$0$0
     00C2    G$MAC0AH$0$0
     00C2    G$MAC0Z$0$0
     00C2    G$SMB0DAT$0$0
     00C2    _AA
     00C2    _MAC0AH
     00C2    _MAC0Z
     00C2    _SMB0DAT
     00C3    G$MAC0CF$0$0
     00C3    G$MAC0HO$0$0
     00C3    G$SI$0$0
     00C3    G$SMB0ADR$0$0
     00C3    _MAC0CF
     00C3    _MAC0HO
     00C3    _SI
     00C3    _SMB0ADR
     00C4    G$ADC0GTL$0$0
     00C4    G$ADC2GT$0$0
     00C4    G$STO$0$0
     00C4    _ADC0GTL
     00C4    _ADC2GT
     00C4    _STO
     00C5    G$ADC0GTH$0$0
     00C5    G$STA$0$0
     00C5    _ADC0GTH
     00C5    _STA
     00C6    G$ADC0LTL$0$0
     00C6    G$ADC2LT$0$0
     00C6    G$ENSMB$0$0
     00C6    _ADC0LTL
     00C6    _ADC2LT
     00C6    _ENSMB
     00C7    G$ADC0LTH$0$0
     00C7    G$BUSY$0$0
     00C7    _ADC0LTH
     00C7    _BUSY
     00C8    G$CPRL2$0$0
     00C8    G$CPRL3$0$0
     00C8    G$CPRL4$0$0
     00C8    G$P4$0$0
     00C8    G$P4_0$0$0
     00C8    G$TMR2CN$0$0
     00C8    G$TMR3CN$0$0
     00C8    G$TMR4CN$0$0
     00C8    _CPRL2
     00C8    _CPRL3
     00C8    _CPRL4
     00C8    _P4
     00C8    _P4_0
     00C8    _TMR2CN
     00C8    _TMR3CN
     00C8    _TMR4CN
     00C9    G$CT2$0$0
     00C9    G$CT3$0$0
     00C9    G$CT4$0$0
     00C9    G$P4_1$0$0
     00C9    G$TMR2CF$0$0
     00C9    G$TMR3CF$0$0
     00C9    G$TMR4CF$0$0
     00C9    _CT2
     00C9    _CT3
     00C9    _CT4
     00C9    _P4_1
     00C9    _TMR2CF
     00C9    _TMR3CF
     00C9    _TMR4CF
     00CA    G$P4_2$0$0
     00CA    G$RCAP2L$0$0
     00CA    G$RCAP3L$0$0
     00CA    G$RCAP4L$0$0
     00CA    G$TR2$0$0
     00CA    G$TR3$0$0
     00CA    G$TR4$0$0
     00CA    _P4_2
     00CA    _RCAP2L
     00CA    _RCAP3L
     00CA    _RCAP4L
     00CA    _TR2
     00CA    _TR3
     00CA    _TR4
     00CB    G$EXEN2$0$0
     00CB    G$EXEN3$0$0
     00CB    G$EXEN4$0$0
     00CB    G$P4_3$0$0
     00CB    G$RCAP2H$0$0
     00CB    G$RCAP3H$0$0
     00CB    G$RCAP4H$0$0
     00CB    _EXEN2
     00CB    _EXEN3
     00CB    _EXEN4
     00CB    _P4_3
     00CB    _RCAP2H
     00CB    _RCAP3H
     00CB    _RCAP4H
     00CC    G$P4_4$0$0
     00CC    G$TL2$0$0
     00CC    G$TMR2L$0$0
     00CC    G$TMR3L$0$0
     00CC    G$TMR4L$0$0
     00CC    _P4_4
     00CC    _TL2
     00CC    _TMR2L
     00CC    _TMR3L
     00CC    _TMR4L
     00CD    G$P4_5$0$0
     00CD    G$TH2$0$0
     00CD    G$TMR2H$0$0
     00CD    G$TMR3H$0$0
     00CD    G$TMR4H$0$0
     00CD    _P4_5
     00CD    _TH2
     00CD    _TMR2H
     00CD    _TMR3H
     00CD    _TMR4H
     00CE    G$EXF2$0$0
     00CE    G$EXF3$0$0
     00CE    G$EXF4$0$0
     00CE    G$MAC0RNDL$0$0
     00CE    G$P4_6$0$0
     00CE    _EXF2
     00CE    _EXF3
     00CE    _EXF4
     00CE    _MAC0RNDL
     00CE    _P4_6
     00CF    G$MAC0RNDH$0$0
     00CF    G$P4_7$0$0
     00CF    G$SMB0CR$0$0
     00CF    G$TF2$0$0
     00CF    G$TF3$0$0
     00CF    G$TF4$0$0
     00CF    _MAC0RNDH
     00CF    _P4_7
     00CF    _SMB0CR
     00CF    _TF2
     00CF    _TF3
     00CF    _TF4
     00D0    G$P$0$0
     00D0    G$PSW$0$0
     00D0    _P
     00D0    _PSW
     00D1    G$F1$0$0
     00D1    G$REF0CN$0$0
     00D1    _F1
     00D1    _REF0CN
     00D2    G$DAC0L$0$0
     00D2    G$DAC1L$0$0
     00D2    G$OV$0$0
     00D2    _DAC0L
     00D2    _DAC1L
     00D2    _OV
     00D3    G$DAC0H$0$0
     00D3    G$DAC1H$0$0
     00D3    G$RS0$0$0
     00D3    _DAC0H
     00D3    _DAC1H
     00D3    _RS0
     00D4    G$DAC0CN$0$0
     00D4    G$DAC1CN$0$0
     00D4    G$RS1$0$0
     00D4    _DAC0CN
     00D4    _DAC1CN
     00D4    _RS1
     00D5    G$F0$0$0
     00D5    _F0
     00D6    G$AC$0$0
     00D6    _AC
     00D7    G$CY$0$0
     00D7    _CY
     00D8    G$CCF0$0$0
     00D8    G$P5$0$0
     00D8    G$P5_0$0$0
     00D8    G$PCA0CN$0$0
     00D8    _CCF0
     00D8    _P5
     00D8    _P5_0
     00D8    _PCA0CN
     00D9    G$CCF1$0$0
     00D9    G$P5_1$0$0
     00D9    G$PCA0MD$0$0
     00D9    _CCF1
     00D9    _P5_1
     00D9    _PCA0MD
     00DA    G$CCF2$0$0
     00DA    G$P5_2$0$0
     00DA    G$PCA0CPM0$0$0
     00DA    _CCF2
     00DA    _P5_2
     00DA    _PCA0CPM0
     00DB    G$CCF3$0$0
     00DB    G$P5_3$0$0
     00DB    G$PCA0CPM1$0$0
     00DB    _CCF3
     00DB    _P5_3
     00DB    _PCA0CPM1
     00DC    G$CCF4$0$0
     00DC    G$P5_4$0$0
     00DC    G$PCA0CPM2$0$0
     00DC    _CCF4
     00DC    _P5_4
     00DC    _PCA0CPM2
     00DD    G$CCF5$0$0
     00DD    G$P5_5$0$0
     00DD    G$PCA0CPM3$0$0
     00DD    _CCF5
     00DD    _P5_5
     00DD    _PCA0CPM3
     00DE    G$CR$0$0
     00DE    G$P5_6$0$0
     00DE    G$PCA0CPM4$0$0
     00DE    _CR
     00DE    _P5_6
     00DE    _PCA0CPM4
     00DF    G$CF$0$0
     00DF    G$P5_7$0$0
     00DF    G$PCA0CPM5$0$0
     00DF    _CF
     00DF    _P5_7
     00DF    _PCA0CPM5
     00E0    G$ACC$0$0
     00E0    _ACC
     00E1    G$PCA0CPL5$0$0
     00E1    G$XBR0$0$0
     00E1    _PCA0CPL5
     00E1    _XBR0
     00E2    G$PCA0CPH5$0$0
     00E2    G$XBR1$0$0
     00E2    _PCA0CPH5
     00E2    _XBR1
     00E3    G$XBR2$0$0
     00E3    _XBR2
     00E6    G$EIE1$0$0
     00E6    _EIE1
     00E7    G$EIE2$0$0
     00E7    _EIE2
     00E8    G$AD0LJST$0$0
     00E8    G$AD2WINT$0$0
     00E8    G$ADC0CN$0$0
     00E8    G$ADC2CN$0$0
     00E8    G$P6$0$0
     00E8    G$P6_0$0$0
     00E8    _AD0LJST
     00E8    _AD2WINT
     00E8    _ADC0CN
     00E8    _ADC2CN
     00E8    _P6
     00E8    _P6_0
     00E9    G$AD0WINT$0$0
     00E9    G$AD2CM0$0$0
     00E9    G$P6_1$0$0
     00E9    G$PCA0CPL2$0$0
     00E9    _AD0WINT
     00E9    _AD2CM0
     00E9    _P6_1
     00E9    _PCA0CPL2
     00EA    G$AD0CM0$0$0
     00EA    G$AD2CM1$0$0
     00EA    G$P6_2$0$0
     00EA    G$PCA0CPH2$0$0
     00EA    _AD0CM0
     00EA    _AD2CM1
     00EA    _P6_2
     00EA    _PCA0CPH2
     00EB    G$AD0CM1$0$0
     00EB    G$AD2CM2$0$0
     00EB    G$P6_3$0$0
     00EB    G$PCA0CPL3$0$0
     00EB    _AD0CM1
     00EB    _AD2CM2
     00EB    _P6_3
     00EB    _PCA0CPL3
     00EC    G$AD0BUSY$0$0
     00EC    G$AD2BUSY$0$0
     00EC    G$P6_4$0$0
     00EC    G$PCA0CPH3$0$0
     00EC    _AD0BUSY
     00EC    _AD2BUSY
     00EC    _P6_4
     00EC    _PCA0CPH3
     00ED    G$AD0INT$0$0
     00ED    G$AD2INT$0$0
     00ED    G$P6_5$0$0
     00ED    G$PCA0CPL4$0$0
     00ED    _AD0INT
     00ED    _AD2INT
     00ED    _P6_5
     00ED    _PCA0CPL4
     00EE    G$AD0TM$0$0
     00EE    G$AD2TM$0$0
     00EE    G$P6_6$0$0
     00EE    G$PCA0CPH4$0$0
     00EE    _AD0TM
     00EE    _AD2TM
     00EE    _P6_6
     00EE    _PCA0CPH4
     00EF    G$AD0EN$0$0
     00EF    G$AD2EN$0$0
     00EF    G$P6_7$0$0
     00EF    G$RSTSRC$0$0
     00EF    _AD0EN
     00EF    _AD2EN
     00EF    _P6_7
     00EF    _RSTSRC
     00F0    G$B$0$0
     00F0    _B
     00F5    _B_5
     00F6    G$EIP1$0$0
     00F6    _B_6
     00F6    _EIP1
     00F7    G$EIP2$0$0
     00F7    _B_7
     00F7    _EIP2
     00F8    G$P7$0$0
     00F8    G$P7_0$0$0
     00F8    G$SPI0CN$0$0
     00F8    G$SPIEN$0$0
     00F8    _P7
     00F8    _P7_0
     00F8    _SPI0CN
     00F8    _SPIEN
     00F9    G$P7_1$0$0
     00F9    G$PCA0L$0$0
     00F9    G$TXBMT$0$0
     00F9    _P7_1
     00F9    _PCA0L
     00F9    _TXBMT
     00FA    G$NSSMD0$0$0
     00FA    G$P7_2$0$0
     00FA    G$PCA0H$0$0
     00FA    _NSSMD0
     00FA    _P7_2
     00FA    _PCA0H
     00FB    G$NSSMD1$0$0
     00FB    G$P7_3$0$0
     00FB    G$PCA0CPL0$0$0
     00FB    _NSSMD1
     00FB    _P7_3
     00FB    _PCA0CPL0
     00FC    G$P7_4$0$0
     00FC    G$PCA0CPH0$0$0
     00FC    G$RXOVRN$0$0
     00FC    _P7_4
     00FC    _PCA0CPH0
     00FC    _RXOVRN
     00FD    G$MODF$0$0
     00FD    G$P7_5$0$0
     00FD    G$PCA0CPL1$0$0
     00FD    _MODF
     00FD    _P7_5
     00FD    _PCA0CPL1
     00FE    G$P7_6$0$0
     00FE    G$PCA0CPH1$0$0
     00FE    G$WCOL$0$0
     00FE    _P7_6
     00FE    _PCA0CPH1
     00FE    _WCOL
     00FF    G$P7_7$0$0
     00FF    G$SPIF$0$0
     00FF    G$WDTCN$0$0
     00FF    _P7_7
     00FF    _SPIF
     00FF    _WDTCN
     8000    G$NIC_REG$0$0
     8000    _NIC_REG
     8100    G$NIC_DAT$0$0
     8100    _NIC_DAT
     8C8A    G$TMR0$0$0
     8C8A    _TMR0
     8D8B    G$TMR1$0$0
     8D8B    _TMR1
     BFBE    G$ADC0$0$0
     BFBE    _ADC0
     C2C1    G$MAC0A$0$0
     C2C1    _MAC0A
     C5C4    G$ADC0GT$0$0
     C5C4    _ADC0GT
     C7C6    G$ADC0LT$0$0
     C7C6    _ADC0LT
     CBCA    G$RCAP2$0$0
     CBCA    G$RCAP3$0$0
     CBCA    G$RCAP4$0$0
     CBCA    _RCAP2
     CBCA    _RCAP3
     CBCA    _RCAP4
     CDCC    G$TMR2$0$0
     CDCC    G$TMR3$0$0
     CDCC    G$TMR4$0$0
     CDCC    _TMR2
     CDCC    _TMR3
     CDCC    _TMR4
     CFCE    G$MAC0RND$0$0
     CFCE    _MAC0RND
     D3D2    G$DAC0$0$0
     D3D2    G$DAC1$0$0
     D3D2    _DAC0
     D3D2    _DAC1
     E2E1    G$PCA0CP5$0$0
     E2E1    _PCA0CP5
     EAE9    G$PCA0CP2$0$0
     EAE9    _PCA0CP2
     ECEB    G$PCA0CP3$0$0
     ECEB    _PCA0CP3
     EEED    G$PCA0CP4$0$0
     EEED    _PCA0CP4
     FAF9    G$PCA0$0$0
     FAF9    _PCA0
     FCFB    G$PCA0CP0$0$0
     FCFB    _PCA0CP0
     FE00    Fparameters$saved_cfg$0$0
     FEFD    G$PCA0CP1$0$0
     FEFD    _PCA0CP1







Hexadecimal

Area                               Addr   Size   Decimal Bits  (Attributes)
--------------------------------   ----   ----   ------- ----- ------------
BSEG                               0000   0017 =     23. bits  (REL,CON,BIT)

      Value  Global
   --------  --------------------------------
  0B:0000    G$SIG_low_temp$0$0
  0B:0000    _SIG_low_temp
  0B:0001    G$SIG_fan_hi_temp$0$0
  0B:0001    _SIG_fan_hi_temp
  0B:0002    G$LSIG_Testmejl$0$0
  0B:0002    _LSIG_Testmejl
  0B:0003    G$LSIG_Reset$0$0
  0B:0003    _LSIG_Reset
  0B:0004    G$callback_kicker$0$0
  0B:0004    _callback_kicker
  0B:0005    G$TX_EventPending$0$0
  0B:0005    _TX_EventPending
  0B:0006    G$ARP_EventPending$0$0
  0B:0006    _ARP_EventPending
  0B:0007    G$LED_EventPending$0$0
  0B:0007    _LED_EventPending
  0B:0008    G$uartByteAvail$0$0
  0B:0008    _uartByteAvail
  0B:0009    G$Transmitting$0$0
  0B:0009    _Transmitting
  0B:000A    G$uart_tx_buf_full$0$0
  0B:000A    _uart_tx_buf_full


Hexadecimal

Area                               Addr   Size   Decimal Bytes (Attributes)
--------------------------------   ----   ----   ------- ----- ------------
DSEG                               0000   0080 =    128. bytes (REL,CON)

      Value  Global
   --------  --------------------------------
     0018    Lparse_expr$sloc0$1$0
     001B    LDM9000_transmit$sloc0$1$0
     001E    Luip_tcp_app_exec$sloc0$1$0
     0024    Lhttpd_appcall$sloc0$1$0
     0027    Lhttpd_appcall$sloc1$1$0
     002A    Fadc$current_channel$0$0
     002B    Fadc$adc_chan$0$0
     002C    LADC_ISR$w_ptr$1$1
     002D    LADC_ISR$r_ptr$1$1
     002E    LADC_ISR$sample$1$1
     0030    LADC_ISR$i$1$1
     0031    LADC_ISR$sum$1$1
     0035    LADC_ISR$sloc0$1$0
     0037    LADC_ISR$sloc1$1$0
     003B    Lhandle_led$sloc0$1$0
     003E    Lpsock_send$sloc0$1$0
     0041    Lpsock_generator_send$sloc0$1$0
     0044    Lpsock_readto$sloc0$1$0
     0047    Lpsock_readto$sloc1$1$0
     004A    Lpsock_readbuf$sloc0$1$0
     004D    Lpsock_readbuf$sloc1$1$0
     0050    Lpsock_init$sloc0$1$0
     0053    Lpsock_init$sloc1$1$0
     0056    Luip_connect$sloc0$1$0
     0059    Luip_connect$sloc1$1$0
     005C    Luip_process$sloc0$1$0
     005F    Luip_process$sloc1$1$0
     0060    Luip_process$sloc2$1$0
     0061    Luip_process$sloc3$1$0
     0064    Luip_process$sloc4$1$0
     0067    Luip_process$sloc5$1$0
     0071    _bp

Hexadecimal

Area                               Addr   Size   Decimal Bytes (Attributes)
--------------------------------   ----   ----   ------- ----- ------------
OSEG                               0078   0006 =      6. bytes (REL,OVR)

      Value  Global
   --------  --------------------------------
     0078    Lchksum$sloc0$1$0
     0078    __divulong_sloc0_1_0
     0078    _chksum_sloc0_1_0
     0078    _memcpy_sloc0_1_0
     0078    _strncat_sloc0_1_0
     0078    _strncmp_sloc0_1_0
     0078    _strncpy_sloc0_1_0
     007B    Lchksum$sloc1$1$0
     007B    _chksum_sloc1_1_0
     007B    _memcpy_sloc1_1_0

Hexadecimal

Area                               Addr   Size   Decimal Bytes (Attributes)
--------------------------------   ----   ----   ------- ----- ------------
ISEG                               0000   0012 =     18. bytes (REL,CON)

      Value  Global
   --------  --------------------------------
     007E    Fdm9000$RX_Length$0$0
     0080    LDM9000_transmit$i$1$1
     0082    Lwrite_config_to_flash$i$1$1
     0084    Fmain$half_Sec$0$0
     0086    Fmain$ten_Secs$0$0
     0088    Fmain$lled$0$0
     0089    Fmain$LedTimer$0$0
     008B    Fmain$tmcnt$0$0
     008C    Fmain$timebase$0$0

Hexadecimal

Area                               Addr   Size   Decimal Bytes (Attributes)
--------------------------------   ----   ----   ------- ----- ------------
SSEG                               0090   0070 =    112. bytes (REL,OVR)

      Value  Global
   --------  --------------------------------
     0090    __start__stack



Hexadecimal

Area                               Addr   Size   Decimal Bytes (Attributes)
--------------------------------   ----   ----   ------- ----- ------------
XSEG                               0000   1236 =   4662. bytes (REL,CON,XDATA)

      Value  Global
   --------  --------------------------------
  0D:0000    G$adcd$0$0
  0D:0000    _adcd
  0D:0016    G$fan$0$0
  0D:0016    _fan
  0D:002C    G$heater_alarm$0$0
  0D:002C    _heater_alarm
  0D:0035    G$fan_alarm$0$0
  0D:0035    _fan_alarm
  0D:003E    G$s$0$0
  0D:003E    _s
  0D:007A    Fsmtp$localhostname$0$0
  0D:007D    Fsmtp$smtpserver$0$0
  0D:0081    Fsmtp$b64$0$0
  0D:00A1    Lsmtp_configure$server$1$1
  0D:00A1    _smtp_configure_PARM_2
  0D:00A4    Lsmtp_configure$lhostname$1$1
  0D:00A7    Lsmtp_send$cc$1$1
  0D:00A7    _smtp_send_PARM_2
  0D:00AA    Lsmtp_send$from$1$1
  0D:00AA    _smtp_send_PARM_3
  0D:00AD    Lsmtp_send$subject$1$1
  0D:00AD    _smtp_send_PARM_4
  0D:00B0    Lsmtp_send$msg$1$1
  0D:00B0    _smtp_send_PARM_5
  0D:00B3    Lsmtp_send$msglen$1$1
  0D:00B3    _smtp_send_PARM_6
  0D:00B5    Lsmtp_send$to$1$1
  0D:00B8    Lencode64$outstr$1$1
  0D:00B8    _encode64_PARM_2
  0D:00BB    Lencode64$instr$1$1
  0D:00BE    Lencode64$in$1$1
  0D:00C1    Lencode64$out$1$1
  0D:00C5    Fhttpd_fs$count$0$0
  0D:00DB    Lskip_to_equal$buf$1$1
  0D:00DE    Lskip_to_dot$buf$1$1
  0D:00E1    Lparse_ip$ip$1$1
  0D:00E1    _parse_ip_PARM_2
  0D:00E4    Lparse_ip$buf$1$1
  0D:00E7    Lparse_ip$octet$1$1
  0D:00EB    Lparse_temp$buf$1$1
  0D:00EE    Lparse_temp$ret$1$1
  0D:00F0    Lparse_temp$dp$1$1
  0D:00F1    Lparse_temp$sign$1$1
  0D:00F3    Lparse_expr$buf$1$1
  0D:00F6    Lparse_input$buf$1$1
  0D:00F9    Lparse_input$token$1$1
  0D:0139    Lcheck_authorization$base64pass$1$1
  0D:013C    Lcheck_authorization$authed$1$1
  0D:013E    Lcheck_authorization$mypass64$1$1
  0D:0190    Lcheck_authorization$mypass$2$2
  0D:01BA    Fadc$adc$0$0
  0D:0292    Ladc_get_average$channel$1$1
  0D:0293    Ladc_get_last_sample$channel$1$1
  0D:0294    Lget_temperature$channel$1$1
  0D:0295    LTimer3_Init$counts$1$1
  0D:0297    Lwrite_nicreg$val$1$1
  0D:0297    _write_nicreg_PARM_2
  0D:0298    Lwrite_nicreg$IOaddr$1$1
  0D:0299    Lwrite_nicdata$val$1$1
  0D:029A    Lset_nicreg$IOaddr$1$1
  0D:029B    LPHY_write$val$1$1
  0D:029B    _PHY_write_PARM_2
  0D:029D    LPHY_write$IOaddr$1$1
  0D:029E    Lread_nicreg$IOaddr$1$1
  0D:029F    L_wait_ms$count$1$1
  0D:02A1    G$led$0$0
  0D:02A1    _led
  0D:02A6    Lset_led$option$1$1
  0D:02A6    _set_led_PARM_2
  0D:02A7    Lset_led$status$1$1
  0D:02A8    Lhandle_led$ld$1$1
  0D:02AB    G$swtimer$0$0
  0D:02AB    _swtimer
  0D:02D3    G$timer_table$0$0
  0D:02D3    _timer_table
  0D:02DD    G$timer_cbs$0$0
  0D:02DD    _timer_cbs
  0D:02F1    G$kicker$0$0
  0D:02F1    _kicker
  0D:02F3    Lfree_timer$timer$1$1
  0D:02F4    Lset_timer$time$1$1
  0D:02F4    _set_timer_PARM_2
  0D:02F8    Lset_timer$cb$1$1
  0D:02F8    _set_timer_PARM_3
  0D:02FA    Lset_timer$timer$1$1
  0D:02FB    Lset_timer_cnt$time$1$1
  0D:02FB    _set_timer_cnt_PARM_2
  0D:02FF    Lset_timer_cnt$timer$1$1
  0D:0300    Lget_timer$timer$1$1
  0D:0301    Lget_timer_status$timer$1$1
  0D:0302    Lstop_timer$timer$1$1
  0D:0303    Lstart_timer$timer$1$1
  0D:0304    Lhandle_kicker$Kicker$1$1
  0D:0307    Lputchar$a$1$1
  0D:0308    G$wdt_resets$0$0
  0D:0308    _wdt_resets
  0D:0309    Lconfig$t$1$1
  0D:030A    Lread_flash$n$1$1
  0D:030B    Lwrite_config_to_flash$src$1$1
  0D:030D    Lwrite_new_verification_word$ver$1$1
  0D:030F    Lflash_chksum$command$1$1
  0D:0310    Lflash_chksum$chksum$1$1
  0D:0312    Lflash_chksum$loop$1$1
  0D:0314    G$sys_cfg$0$0
  0D:0314    _sys_cfg
  0D:0391    Lsys_getethaddr$addr$1$1
  0D:0394    Lmain$smtp_server$1$1
  0D:0398    Lmain$maild$1$1
  0D:039A    Lsmtp_done$error$1$1
  0D:039B    Fuip_app_registration$uipAppList$0$0
  0D:03A7    Luip_app_list_init$i$1$1
  0D:03A9    Lpsock_send$buf$1$1
  0D:03A9    _psock_send_PARM_2
  0D:03AC    Lpsock_send$len$1$1
  0D:03AC    _psock_send_PARM_3
  0D:03AE    Lpsock_send$s$1$1
  0D:03B1    Lpsock_generator_send$generate$1$1
  0D:03B1    _psock_generator_send_PARM_2
  0D:03B3    Lpsock_generator_send$arg$1$1
  0D:03B3    _psock_generator_send_PARM_3
  0D:03B6    Lpsock_generator_send$s$1$1
  0D:03B9    Lpsock_datalen$psock$1$1
  0D:03BC    Lpsock_newdata$s$1$1
  0D:03BF    Lpsock_readto$c$1$1
  0D:03BF    _psock_readto_PARM_2
  0D:03C0    Lpsock_readto$psock$1$1
  0D:03C3    Lpsock_readbuf$psock$1$1
  0D:03C6    Lpsock_init$buffer$1$1
  0D:03C6    _psock_init_PARM_2
  0D:03C9    Lpsock_init$buffersize$1$1
  0D:03C9    _psock_init_PARM_3
  0D:03CB    Lpsock_init$psock$1$1
  0D:03CE    G$uip_hostaddr$0$0
  0D:03CE    _uip_hostaddr
  0D:03D2    G$uip_draddr$0$0
  0D:03D2    _uip_draddr
  0D:03D6    G$uip_netmask$0$0
  0D:03D6    _uip_netmask
  0D:03DA    G$uip_buf$0$0
  0D:03DA    _uip_buf
  0D:056C    G$uip_appdata$0$0
  0D:056C    _uip_appdata
  0D:056F    G$uip_sappdata$0$0
  0D:056F    _uip_sappdata
  0D:0572    G$uip_len$0$0
  0D:0572    _uip_len
  0D:0574    G$uip_slen$0$0
  0D:0574    _uip_slen
  0D:0576    G$uip_flags$0$0
  0D:0576    _uip_flags
  0D:0577    G$uip_conn$0$0
  0D:0577    _uip_conn
  0D:057A    G$uip_conns$0$0
  0D:057A    _uip_conns
  0D:110A    G$uip_listenports$0$0
  0D:110A    _uip_listenports
  0D:111E    Fuip$ipid$0$0
  0D:1120    Luip_setipid$id$1$1
  0D:1122    Fuip$iss$0$0
  0D:1126    Fuip$lastport$0$0
  0D:1128    G$uip_acc32$0$0
  0D:1128    _uip_acc32
  0D:112C    Fuip$c$0$0
  0D:112D    Fuip$opt$0$0
  0D:112E    Fuip$tmp16$0$0
  0D:1130    Lchksum$indata$1$1
  0D:1130    _chksum_PARM_2
  0D:1133    Lchksum$len$1$1
  0D:1133    _chksum_PARM_3
  0D:1135    Lchksum$sum$1$1
  0D:1137    Luip_chksum$len$1$1
  0D:1137    _uip_chksum_PARM_2
  0D:1139    Luip_chksum$indata$1$1
  0D:113C    Lupper_layer_chksum$proto$1$1
  0D:113D    Lupper_layer_chksum$upper_layer_len$1$1
  0D:113F    Luip_connect$rport$1$1
  0D:113F    _uip_connect_PARM_2
  0D:1141    Luip_connect$ripaddr$1$1
  0D:1144    Luip_connect$conn$1$1
  0D:1147    Luip_connect$cconn$1$1
  0D:114A    Luip_unlisten$port$1$1
  0D:114C    Luip_listen$port$1$1
  0D:114E    Luip_add_rcv_nxt$n$1$1
  0D:1150    Luip_process$flag$1$1
  0D:1151    Luip_process$uip_connr$1$1
  0D:1154    Luip_process$m$4$61
  0D:1155    Lhtons$val$1$1
  0D:1157    Luip_send$len$1$1
  0D:1157    _uip_send_PARM_2
  0D:1159    Luip_send$indata$1$1
  0D:115C    Fuip_arp$arp_table$0$0
  0D:1188    Fuip_arp$ipaddr$0$0
  0D:118C    Fuip_arp$i$0$0
  0D:118D    Fuip_arp$c$0$0
  0D:118E    Fuip_arp$arptime$0$0
  0D:118F    Fuip_arp$tmpage$0$0
  0D:1190    _strcpy_PARM_2
  0D:1196    __divslong_PARM_2
  0D:119E    __divulong_PARM_2
  0D:11AA    _strncmp_PARM_2
  0D:11AD    _strncmp_PARM_3
  0D:11B2    _strrchr_PARM_2
  0D:11BA    _memcpy_PARM_2
  0D:11BD    _memcpy_PARM_3
  0D:11C2    _memset_PARM_2
  0D:11C3    _memset_PARM_3
  0D:11C9    _strcat_PARM_2
  0D:11CF    _strncpy_PARM_2
  0D:11D2    _strncpy_PARM_3
  0D:11DA    __gptrput_PARM_2
  0D:11DB    _strchr_PARM_2
  0D:11E1    __mulint_PARM_2
  0D:11E3    __modsint_PARM_2
  0D:11E7    __mullong_PARM_2
  0D:11EB    __moduint_PARM_2
  0D:11F0    _strncat_PARM_2
  0D:11F3    _strncat_PARM_3
  0D:11FB    __divsint_PARM_2
  0D:11FF    __divuint_PARM_2
  0D:1205    _vsprintf_PARM_2
  0D:1208    _vsprintf_PARM_3
  0D:120C    _vprintf_PARM_2
  0D:1220    __print_format_PARM_2
  0D:1223    __print_format_PARM_3
  0D:1226    __print_format_PARM_4

Hexadecimal

Area                               Addr   Size   Decimal Bytes (Attributes)
--------------------------------   ----   ----   ------- ----- ------------
XISEG                              1236   0026 =     38. bytes (REL,CON,XDATA)

      Value  Global
   --------  --------------------------------
  0D:1236    Fhttpd_cgi$calls$0$0
  0D:1251    Fhttpd_cgi$ip_format$0$0
  0D:1254    G$SIG_NEW_ADC_VALUE_RECEIVED$0$0
  0D:1254    _SIG_NEW_ADC_VALUE_RECEIVED
  0D:1255    Fswtimers$count$0$0
  0D:1256    G$uip_ethaddr$0$0
  0D:1256    _uip_ethaddr

Hexadecimal

Area                               Addr   Size   Decimal Bytes (Attributes)
--------------------------------   ----   ----   ------- ----- ------------
HOME                               0000   009A =    154. bytes (REL,CON,CODE)

      Value  Global
   --------  --------------------------------
  0C:0000    A$main$1298
  0C:0003    A$main$1299
  0C:000B    A$main$1301
  0C:0013    A$main$1303
  0C:001B    A$main$1305
  0C:0023    A$main$1307
  0C:002B    A$main$1309
  0C:0033    A$main$1311
  0C:003B    A$main$1313
  0C:0043    A$main$1315
  0C:004B    A$main$1317
  0C:0053    A$main$1319
  0C:005B    A$main$1321
  0C:0063    A$main$1323
  0C:006B    A$main$1325
  0C:0073    A$main$1327
  0C:007B    A$main$1329
  0C:007E    A$main$1351
  0C:007E    __sdcc_program_startup
  0C:0081    A$main$1353
  0C:0083    __sdcc_banked_call
  0C:0095    __sdcc_banked_ret
  0C:0098    __sdcc_call_dptr

Hexadecimal

Area                               Addr   Size   Decimal Bytes (Attributes)
--------------------------------   ----   ----   ------- ----- ------------
GSINIT0                            009A   0003 =      3. bytes (REL,CON,CODE)

      Value  Global
   --------  --------------------------------
  0C:009A    __sdcc_gsinit_startup



Hexadecimal

Area                               Addr   Size   Decimal Bytes (Attributes)
--------------------------------   ----   ----   ------- ----- ------------
GSINIT3                            00A7   0022 =     34. bytes (REL,CON,CODE)

      Value  Global
   --------  --------------------------------
  0C:00A7    __mcs51_genXINIT

Hexadecimal

Area                               Addr   Size   Decimal Bytes (Attributes)
--------------------------------   ----   ----   ------- ----- ------------
GSINIT4                            00C9   002A =     42. bytes (REL,CON,CODE)

      Value  Global
   --------  --------------------------------
  0C:00C9    __mcs51_genRAMCLEAR
  0C:00CF    __mcs51_genXRAMCLEAR


Hexadecimal

Area                               Addr   Size   Decimal Bytes (Attributes)
--------------------------------   ----   ----   ------- ----- ------------
GSINIT                             00F3   0009 =      9. bytes (REL,CON,CODE)

      Value  Global
   --------  --------------------------------
  0C:00F3    A$httpd-param$1280
  0C:00F3    C$httpd_param.c$180$1$1
  0C:00F5    A$httpd-param$1284
  0C:00F5    C$httpd_param.c$181$1$1
  0C:00F7    A$httpd$1260
  0C:00F7    C$httpd.c$270$1$1
  0C:00FA    A$httpd$1261
  0C:00FB    A$httpd$1262

Hexadecimal

Area                               Addr   Size   Decimal Bytes (Attributes)
--------------------------------   ----   ----   ------- ----- ------------
GSFINAL                            00FC   0003 =      3. bytes (REL,CON,CODE)

      Value  Global
   --------  --------------------------------
  0C:00FC    A$main$1344

Hexadecimal

Area                               Addr   Size   Decimal Bytes (Attributes)
--------------------------------   ----   ----   ------- ----- ------------
CSEG                               00FF   79E4 =  31204. bytes (REL,CON,CODE)

      Value  Global
   --------  --------------------------------
  0C:00FF    A$smtp$1306
  0C:00FF    C$smtp.c$106$0$0
  0C:00FF    C$smtp.c$108$2$2
  0C:00FF    Fsmtp$smtp_thread$0$0
  0C:0102    A$smtp$1307
  0C:0103    A$smtp$1308
  0C:0104    A$smtp$1309
  0C:0105    A$smtp$1310
  0C:0106    A$smtp$1311
  0C:0107    A$smtp$1312
  0C:010A    A$smtp$1313
  0C:010D    A$smtp$1314
  0C:0110    A$smtp$1316
  0C:0113    A$smtp$1317
  0C:0116    A$smtp$1318
  0C:0119    A$smtp$1320
  0C:011C    A$smtp$1321
  0C:011F    A$smtp$1322
  0C:0122    A$smtp$1324
  0C:0125    A$smtp$1325
  0C:0128    A$smtp$1326
  0C:012B    A$smtp$1328
  0C:012E    A$smtp$1329
  0C:0131    A$smtp$1330
  0C:0134    A$smtp$1332
  0C:0137    A$smtp$1333
  0C:013A    A$smtp$1334
  0C:013D    A$smtp$1336
  0C:0140    A$smtp$1337
  0C:0143    A$smtp$1338
  0C:0146    A$smtp$1340
  0C:0149    A$smtp$1341
  0C:014C    A$smtp$1342
  0C:014F    A$smtp$1344
  0C:0152    A$smtp$1345
  0C:0155    A$smtp$1346
  0C:0158    A$smtp$1348
  0C:015B    A$smtp$1349
  0C:015E    A$smtp$1350
  0C:0161    A$smtp$1352
  0C:0164    A$smtp$1353
  0C:0167    A$smtp$1354
  0C:016A    A$smtp$1356
  0C:016D    A$smtp$1357
  0C:0170    A$smtp$1358
  0C:0173    A$smtp$1360
  0C:0176    A$smtp$1361
  0C:0179    A$smtp$1362
  0C:017C    A$smtp$1364
  0C:017F    A$smtp$1365
  0C:0182    A$smtp$1366
  0C:0185    A$smtp$1368
  0C:0188    A$smtp$1369
  0C:018B    A$smtp$1370
  0C:018E    A$smtp$1372
  0C:0191    A$smtp$1373
  0C:0194    A$smtp$1374
  0C:0197    A$smtp$1376
  0C:019A    A$smtp$1377
  0C:019D    A$smtp$1378
  0C:01A0    A$smtp$1380
  0C:01A3    A$smtp$1381
  0C:01A6    A$smtp$1382
  0C:01A9    A$smtp$1384
  0C:01AC    A$smtp$1385
  0C:01AF    A$smtp$1386
  0C:01B2    A$smtp$1388
  0C:01B5    A$smtp$1389
  0C:01B8    A$smtp$1390
  0C:01BB    A$smtp$1392
  0C:01BE    A$smtp$1393
  0C:01C1    A$smtp$1394
  0C:01C4    A$smtp$1396
  0C:01C7    A$smtp$1397
  0C:01CA    A$smtp$1398
  0C:01CD    A$smtp$1400
  0C:01D0    A$smtp$1401
  0C:01D3    A$smtp$1402
  0C:01D6    A$smtp$1404
  0C:01D9    A$smtp$1405
  0C:01DC    A$smtp$1406
  0C:01DF    A$smtp$1408
  0C:01E2    A$smtp$1409
  0C:01E5    A$smtp$1410
  0C:01E8    A$smtp$1412
  0C:01EB    A$smtp$1413
  0C:01EE    A$smtp$1414
  0C:01F1    A$smtp$1416
  0C:01F4    A$smtp$1417
  0C:01F7    A$smtp$1418
  0C:01FA    A$smtp$1420
  0C:01FD    A$smtp$1421
  0C:0200    A$smtp$1422
  0C:0203    A$smtp$1424
  0C:0206    A$smtp$1425
  0C:0209    A$smtp$1426
  0C:020C    A$smtp$1428
  0C:020F    A$smtp$1429
  0C:0212    A$smtp$1430
  0C:0215    A$smtp$1432
  0C:0218    A$smtp$1433
  0C:021B    A$smtp$1434
  0C:021E    A$smtp$1436
  0C:0221    A$smtp$1437
  0C:0224    A$smtp$1438
  0C:0227    A$smtp$1440
  0C:022A    A$smtp$1441
  0C:022D    A$smtp$1442
  0C:0230    A$smtp$1444
  0C:0233    A$smtp$1445
  0C:0236    A$smtp$1446
  0C:0239    A$smtp$1448
  0C:023C    A$smtp$1449
  0C:023F    A$smtp$1450
  0C:0242    A$smtp$1452
  0C:0245    A$smtp$1453
  0C:0248    A$smtp$1454
  0C:024B    A$smtp$1456
  0C:024E    A$smtp$1457
  0C:0251    A$smtp$1458
  0C:0254    A$smtp$1460
  0C:0257    A$smtp$1461
  0C:025A    A$smtp$1462
  0C:025D    A$smtp$1464
  0C:0260    A$smtp$1465
  0C:0263    A$smtp$1466
  0C:0266    A$smtp$1468
  0C:0269    A$smtp$1469
  0C:026C    A$smtp$1470
  0C:026F    A$smtp$1472
  0C:0272    A$smtp$1473
  0C:0275    A$smtp$1474
  0C:0278    A$smtp$1476
  0C:027B    A$smtp$1477
  0C:027E    A$smtp$1478
  0C:0281    A$smtp$1480
  0C:0284    A$smtp$1481
  0C:0287    A$smtp$1482
  0C:028A    A$smtp$1484
  0C:028D    A$smtp$1485
  0C:0290    A$smtp$1486
  0C:0293    A$smtp$1488
  0C:0296    A$smtp$1489
  0C:0299    A$smtp$1490
  0C:029C    A$smtp$1492
  0C:029F    A$smtp$1493
  0C:02A2    A$smtp$1494
  0C:02A5    A$smtp$1496
  0C:02A8    A$smtp$1497
  0C:02AB    A$smtp$1498
  0C:02AE    A$smtp$1500
  0C:02B1    A$smtp$1501
  0C:02B4    A$smtp$1502
  0C:02B7    A$smtp$1504
  0C:02BA    A$smtp$1505
  0C:02BD    A$smtp$1506
  0C:02C0    A$smtp$1508
  0C:02C3    A$smtp$1509
  0C:02C6    A$smtp$1510
  0C:02C9    A$smtp$1512
  0C:02CC    A$smtp$1513
  0C:02CF    A$smtp$1514
  0C:02D2    A$smtp$1516
  0C:02D5    A$smtp$1520
  0C:02D5    C$smtp.c$110$3$3
  0C:02D8    A$smtp$1521
  0C:02DA    A$smtp$1522
  0C:02DB    A$smtp$1523
  0C:02DC    A$smtp$1524
  0C:02DD    A$smtp$1525
  0C:02DE    A$smtp$1527
  0C:02E1    A$smtp$1528
  0C:02E3    A$smtp$1529
  0C:02E4    A$smtp$1530
  0C:02E7    A$smtp$1531
  0C:02EA    A$smtp$1532
  0C:02EC    A$smtp$1533
  0C:02EE    A$smtp$1534
  0C:02F0    A$smtp$1535
  0C:02F3    A$smtp$1536
  0C:02F5    A$smtp$1537
  0C:02F7    A$smtp$1538
  0C:02F9    A$smtp$1539
  0C:02FA    A$smtp$1543
  0C:02FA    C$smtp.c$112$3$3
  0C:02FD    A$smtp$1544
  0C:02FF    A$smtp$1545
  0C:0300    A$smtp$1546
  0C:0301    A$smtp$1547
  0C:0303    A$smtp$1548
  0C:0304    A$smtp$1549
  0C:0305    A$smtp$1550
  0C:0307    A$smtp$1551
  0C:0308    A$smtp$1552
  0C:030B    A$smtp$1553
  0C:030D    A$smtp$1554
  0C:030E    A$smtp$1555
  0C:030F    A$smtp$1556
  0C:0310    A$smtp$1557
  0C:0311    A$smtp$1558
  0C:0314    A$smtp$1559
  0C:0317    A$smtp$1560
  0C:031A    A$smtp$1561
  0C:031C    A$smtp$1562
  0C:031F    A$smtp$1563
  0C:0321    A$smtp$1564
  0C:0323    A$smtp$1567
  0C:0323    C$smtp.c$113$4$6
  0C:0326    A$smtp$1568
  0C:0328    A$smtp$1569
  0C:0329    A$smtp$1572
  0C:0329    C$smtp.c$114$4$6
  0C:032C    A$smtp$1573
  0C:032F    A$smtp$1576
  0C:032F    C$smtp.c$115$5$7
  0C:0332    A$smtp$1577
  0C:0333    A$smtp$1578
  0C:0334    A$smtp$1579
  0C:0335    A$smtp$1580
  0C:0336    A$smtp$1581
  0C:0339    A$smtp$1582
  0C:033A    A$smtp$1586
  0C:033A    C$smtp.c$118$3$3
  0C:033D    A$smtp$1587
  0C:033E    A$smtp$1588
  0C:0340    A$smtp$1589
  0C:0343    A$smtp$1593
  0C:0343    C$smtp.c$119$5$9
  0C:0346    A$smtp$1594
  0C:0348    A$smtp$1595
  0C:0349    A$smtp$1596
  0C:034A    A$smtp$1597
  0C:034B    A$smtp$1598
  0C:034C    A$smtp$1600
  0C:034F    A$smtp$1601
  0C:0352    A$smtp$1602
  0C:0355    A$smtp$1603
  0C:0357    A$smtp$1604
  0C:0359    A$smtp$1605
  0C:035C    A$smtp$1606
  0C:035E    A$smtp$1607
  0C:035F    A$smtp$1608
  0C:0360    A$smtp$1609
  0C:0362    A$smtp$1610
  0C:0363    A$smtp$1611
  0C:0364    A$smtp$1612
  0C:0366    A$smtp$1613
  0C:0367    A$smtp$1614
  0C:036A    A$smtp$1615
  0C:036B    A$smtp$1616
  0C:036C    A$smtp$1617
  0C:036D    A$smtp$1618
  0C:036E    A$smtp$1619
  0C:036F    A$smtp$1620
  0C:0372    A$smtp$1621
  0C:0375    A$smtp$1622
  0C:0377    A$smtp$1623
  0C:0379    A$smtp$1624
  0C:037B    A$smtp$1625
  0C:037E    A$smtp$1626
  0C:0380    A$smtp$1627
  0C:0382    A$smtp$1628
  0C:0384    A$smtp$1629
  0C:0385    A$smtp$1633
  0C:0385    C$smtp.c$120$5$11
  0C:0388    A$smtp$1634
  0C:038A    A$smtp$1635
  0C:038B    A$smtp$1636
  0C:038C    A$smtp$1637
  0C:038D    A$smtp$1638
  0C:038E    A$smtp$1640
  0C:0391    A$smtp$1641
  0C:0392    A$smtp$1642
  0C:0393    A$smtp$1643
  0C:0394    A$smtp$1644
  0C:0395    A$smtp$1645
  0C:0396    A$smtp$1646
  0C:0397    A$smtp$1647
  0C:0398    A$smtp$1648
  0C:0399    A$smtp$1649
  0C:039B    A$smtp$1650
  0C:039D    A$smtp$1651
  0C:039F    A$smtp$1652
  0C:03A1    A$smtp$1653
  0C:03A3    A$smtp$1654
  0C:03A5    A$smtp$1655
  0C:03A8    A$smtp$1656
  0C:03AA    A$smtp$1657
  0C:03AC    A$smtp$1658
  0C:03AE    A$smtp$1659
  0C:03B0    A$smtp$1660
  0C:03B2    A$smtp$1661
  0C:03B5    A$smtp$1662
  0C:03B6    A$smtp$1663
  0C:03B7    A$smtp$1664
  0C:03B8    A$smtp$1665
  0C:03B9    A$smtp$1666
  0C:03BA    A$smtp$1667
  0C:03BB    A$smtp$1668
  0C:03BC    A$smtp$1669
  0C:03BD    A$smtp$1670
  0C:03C0    A$smtp$1671
  0C:03C1    A$smtp$1672
  0C:03C2    A$smtp$1673
  0C:03C3    A$smtp$1674
  0C:03C4    A$smtp$1675
  0C:03C5    A$smtp$1676
  0C:03C8    A$smtp$1677
  0C:03CB    A$smtp$1678
  0C:03CD    A$smtp$1679
  0C:03CF    A$smtp$1680
  0C:03D1    A$smtp$1681
  0C:03D4    A$smtp$1682
  0C:03D6    A$smtp$1683
  0C:03D8    A$smtp$1684
  0C:03DA    A$smtp$1685
  0C:03DB    A$smtp$1689
  0C:03DB    C$smtp.c$121$5$13
  0C:03DE    A$smtp$1690
  0C:03E0    A$smtp$1691
  0C:03E1    A$smtp$1692
  0C:03E2    A$smtp$1693
  0C:03E3    A$smtp$1694
  0C:03E4    A$smtp$1696
  0C:03E7    A$smtp$1697
  0C:03EA    A$smtp$1698
  0C:03ED    A$smtp$1699
  0C:03EF    A$smtp$1700
  0C:03F1    A$smtp$1701
  0C:03F4    A$smtp$1702
  0C:03F6    A$smtp$1703
  0C:03F7    A$smtp$1704
  0C:03F8    A$smtp$1705
  0C:03FA    A$smtp$1706
  0C:03FB    A$smtp$1707
  0C:03FC    A$smtp$1708
  0C:03FE    A$smtp$1709
  0C:03FF    A$smtp$1710
  0C:0402    A$smtp$1711
  0C:0403    A$smtp$1712
  0C:0404    A$smtp$1713
  0C:0405    A$smtp$1714
  0C:0406    A$smtp$1715
  0C:0407    A$smtp$1716
  0C:040A    A$smtp$1717
  0C:040D    A$smtp$1718
  0C:040F    A$smtp$1719
  0C:0411    A$smtp$1720
  0C:0413    A$smtp$1721
  0C:0416    A$smtp$1722
  0C:0418    A$smtp$1723
  0C:041A    A$smtp$1724
  0C:041D    A$smtp$1726
  0C:0420    A$smtp$1727
  0C:0421    A$smtp$1731
  0C:0421    C$smtp.c$123$4$15
  0C:0424    A$smtp$1732
  0C:0426    A$smtp$1733
  0C:0427    A$smtp$1734
  0C:0428    A$smtp$1735
  0C:0429    A$smtp$1736
  0C:042A    A$smtp$1738
  0C:042D    A$smtp$1739
  0C:0430    A$smtp$1740
  0C:0433    A$smtp$1741
  0C:0435    A$smtp$1742
  0C:0437    A$smtp$1743
  0C:043A    A$smtp$1744
  0C:043C    A$smtp$1745
  0C:043D    A$smtp$1746
  0C:043E    A$smtp$1747
  0C:0440    A$smtp$1748
  0C:0441    A$smtp$1749
  0C:0442    A$smtp$1750
  0C:0444    A$smtp$1751
  0C:0445    A$smtp$1752
  0C:0448    A$smtp$1753
  0C:0449    A$smtp$1754
  0C:044A    A$smtp$1755
  0C:044B    A$smtp$1756
  0C:044C    A$smtp$1757
  0C:044D    A$smtp$1758
  0C:0450    A$smtp$1759
  0C:0453    A$smtp$1760
  0C:0455    A$smtp$1761
  0C:0457    A$smtp$1762
  0C:0459    A$smtp$1763
  0C:045C    A$smtp$1764
  0C:045E    A$smtp$1765
  0C:0460    A$smtp$1766
  0C:0462    A$smtp$1767
  0C:0463    A$smtp$1771
  0C:0463    C$smtp.c$124$5$18
  0C:0466    A$smtp$1772
  0C:0468    A$smtp$1773
  0C:0469    A$smtp$1774
  0C:046A    A$smtp$1775
  0C:046B    A$smtp$1776
  0C:046C    A$smtp$1778
  0C:046F    A$smtp$1779
  0C:0470    A$smtp$1780
  0C:0471    A$smtp$1781
  0C:0472    A$smtp$1782
  0C:0473    A$smtp$1783
  0C:0474    A$smtp$1784
  0C:0475    A$smtp$1785
  0C:0476    A$smtp$1786
  0C:0477    A$smtp$1787
  0C:0479    A$smtp$1788
  0C:047B    A$smtp$1789
  0C:047D    A$smtp$1790
  0C:047F    A$smtp$1791
  0C:0481    A$smtp$1792
  0C:0483    A$smtp$1793
  0C:0486    A$smtp$1794
  0C:0488    A$smtp$1795
  0C:048A    A$smtp$1796
  0C:048C    A$smtp$1797
  0C:048E    A$smtp$1798
  0C:0490    A$smtp$1799
  0C:0493    A$smtp$1800
  0C:0494    A$smtp$1801
  0C:0495    A$smtp$1802
  0C:0496    A$smtp$1803
  0C:0497    A$smtp$1804
  0C:0498    A$smtp$1805
  0C:0499    A$smtp$1806
  0C:049A    A$smtp$1807
  0C:049B    A$smtp$1808
  0C:049E    A$smtp$1809
  0C:049F    A$smtp$1810
  0C:04A0    A$smtp$1811
  0C:04A1    A$smtp$1812
  0C:04A2    A$smtp$1813
  0C:04A3    A$smtp$1814
  0C:04A6    A$smtp$1815
  0C:04A9    A$smtp$1816
  0C:04AB    A$smtp$1817
  0C:04AD    A$smtp$1818
  0C:04AF    A$smtp$1819
  0C:04B2    A$smtp$1820
  0C:04B4    A$smtp$1821
  0C:04B6    A$smtp$1822
  0C:04B8    A$smtp$1823
  0C:04B9    A$smtp$1827
  0C:04B9    C$smtp.c$125$5$20
  0C:04BC    A$smtp$1828
  0C:04BE    A$smtp$1829
  0C:04BF    A$smtp$1830
  0C:04C0    A$smtp$1831
  0C:04C1    A$smtp$1832
  0C:04C2    A$smtp$1834
  0C:04C5    A$smtp$1835
  0C:04C8    A$smtp$1836
  0C:04CB    A$smtp$1837
  0C:04CD    A$smtp$1838
  0C:04CF    A$smtp$1839
  0C:04D2    A$smtp$1840
  0C:04D4    A$smtp$1841
  0C:04D5    A$smtp$1842
  0C:04D6    A$smtp$1843
  0C:04D8    A$smtp$1844
  0C:04D9    A$smtp$1845
  0C:04DA    A$smtp$1846
  0C:04DC    A$smtp$1847
  0C:04DD    A$smtp$1848
  0C:04E0    A$smtp$1849
  0C:04E1    A$smtp$1850
  0C:04E2    A$smtp$1851
  0C:04E3    A$smtp$1852
  0C:04E4    A$smtp$1853
  0C:04E5    A$smtp$1854
  0C:04E8    A$smtp$1855
  0C:04EB    A$smtp$1856
  0C:04ED    A$smtp$1857
  0C:04EF    A$smtp$1858
  0C:04F1    A$smtp$1859
  0C:04F4    A$smtp$1860
  0C:04F6    A$smtp$1861
  0C:04F8    A$smtp$1862
  0C:04FA    A$smtp$1863
  0C:04FB    A$smtp$1867
  0C:04FB    C$smtp.c$129$5$22
  0C:04FE    A$smtp$1868
  0C:0500    A$smtp$1869
  0C:0501    A$smtp$1870
  0C:0502    A$smtp$1871
  0C:0503    A$smtp$1872
  0C:0504    A$smtp$1874
  0C:0507    A$smtp$1875
  0C:0509    A$smtp$1876
  0C:050A    A$smtp$1877
  0C:050D    A$smtp$1878
  0C:0510    A$smtp$1879
  0C:0512    A$smtp$1880
  0C:0514    A$smtp$1881
  0C:0516    A$smtp$1882
  0C:0519    A$smtp$1883
  0C:051B    A$smtp$1884
  0C:051D    A$smtp$1885
  0C:051F    A$smtp$1886
  0C:0520    A$smtp$1890
  0C:0520    C$smtp.c$130$4$15
  0C:0523    A$smtp$1891
  0C:0525    A$smtp$1892
  0C:0526    A$smtp$1893
  0C:0527    A$smtp$1894
  0C:0529    A$smtp$1895
  0C:052A    A$smtp$1896
  0C:052B    A$smtp$1897
  0C:052D    A$smtp$1898
  0C:052E    A$smtp$1899
  0C:0531    A$smtp$1900
  0C:0533    A$smtp$1901
  0C:0534    A$smtp$1902
  0C:0535    A$smtp$1903
  0C:0536    A$smtp$1904
  0C:0537    A$smtp$1905
  0C:053A    A$smtp$1906
  0C:053D    A$smtp$1907
  0C:0540    A$smtp$1908
  0C:0542    A$smtp$1909
  0C:0545    A$smtp$1910
  0C:0547    A$smtp$1911
  0C:0549    A$smtp$1914
  0C:0549    C$smtp.c$132$5$25
  0C:054C    A$smtp$1915
  0C:054E    A$smtp$1916
  0C:054F    A$smtp$1917
  0C:0550    A$smtp$1918
  0C:0551    A$smtp$1919
  0C:0552    A$smtp$1921
  0C:0555    A$smtp$1922
  0C:0558    A$smtp$1923
  0C:055B    A$smtp$1924
  0C:055D    A$smtp$1925
  0C:055F    A$smtp$1926
  0C:0562    A$smtp$1927
  0C:0564    A$smtp$1928
  0C:0565    A$smtp$1929
  0C:0566    A$smtp$1930
  0C:0568    A$smtp$1931
  0C:0569    A$smtp$1932
  0C:056A    A$smtp$1933
  0C:056C    A$smtp$1934
  0C:056D    A$smtp$1935
  0C:0570    A$smtp$1936
  0C:0571    A$smtp$1937
  0C:0572    A$smtp$1938
  0C:0573    A$smtp$1939
  0C:0574    A$smtp$1940
  0C:0575    A$smtp$1941
  0C:0578    A$smtp$1942
  0C:057B    A$smtp$1943
  0C:057D    A$smtp$1944
  0C:057F    A$smtp$1945
  0C:0581    A$smtp$1946
  0C:0584    A$smtp$1947
  0C:0586    A$smtp$1948
  0C:0588    A$smtp$1949
  0C:058A    A$smtp$1950
  0C:058B    A$smtp$1954
  0C:058B    C$smtp.c$133$5$27
  0C:058E    A$smtp$1955
  0C:0590    A$smtp$1956
  0C:0591    A$smtp$1957
  0C:0592    A$smtp$1958
  0C:0593    A$smtp$1959
  0C:0594    A$smtp$1961
  0C:0597    A$smtp$1962
  0C:059A    A$smtp$1963
  0C:059D    A$smtp$1964
  0C:059F    A$smtp$1965
  0C:05A1    A$smtp$1966
  0C:05A4    A$smtp$1967
  0C:05A6    A$smtp$1968
  0C:05A7    A$smtp$1969
  0C:05A8    A$smtp$1970
  0C:05AA    A$smtp$1971
  0C:05AB    A$smtp$1972
  0C:05AC    A$smtp$1973
  0C:05AE    A$smtp$1974
  0C:05AF    A$smtp$1975
  0C:05B2    A$smtp$1976
  0C:05B3    A$smtp$1977
  0C:05B4    A$smtp$1978
  0C:05B5    A$smtp$1979
  0C:05B6    A$smtp$1980
  0C:05B7    A$smtp$1981
  0C:05BA    A$smtp$1982
  0C:05BD    A$smtp$1983
  0C:05BF    A$smtp$1984
  0C:05C1    A$smtp$1985
  0C:05C3    A$smtp$1986
  0C:05C6    A$smtp$1987
  0C:05C8    A$smtp$1988
  0C:05CA    A$smtp$1989
  0C:05CC    A$smtp$1990
  0C:05CD    A$smtp$1994
  0C:05CD    C$smtp.c$135$5$29
  0C:05D0    A$smtp$1995
  0C:05D2    A$smtp$1996
  0C:05D3    A$smtp$1997
  0C:05D4    A$smtp$1998
  0C:05D5    A$smtp$1999
  0C:05D6    A$smtp$2001
  0C:05D9    A$smtp$2002
  0C:05DB    A$smtp$2003
  0C:05DC    A$smtp$2004
  0C:05DF    A$smtp$2005
  0C:05E2    A$smtp$2006
  0C:05E4    A$smtp$2007
  0C:05E6    A$smtp$2008
  0C:05E8    A$smtp$2009
  0C:05EB    A$smtp$2010
  0C:05ED    A$smtp$2011
  0C:05EF    A$smtp$2012
  0C:05F1    A$smtp$2013
  0C:05F2    A$smtp$2017
  0C:05F2    C$smtp.c$138$4$15
  0C:05F5    A$smtp$2018
  0C:05F7    A$smtp$2019
  0C:05F8    A$smtp$2020
  0C:05F9    A$smtp$2021
  0C:05FB    A$smtp$2022
  0C:05FC    A$smtp$2023
  0C:05FD    A$smtp$2024
  0C:05FF    A$smtp$2025
  0C:0600    A$smtp$2026
  0C:0603    A$smtp$2027
  0C:0605    A$smtp$2028
  0C:0606    A$smtp$2029
  0C:0607    A$smtp$2030
  0C:0608    A$smtp$2031
  0C:0609    A$smtp$2032
  0C:060C    A$smtp$2033
  0C:060F    A$smtp$2034
  0C:0612    A$smtp$2035
  0C:0614    A$smtp$2036
  0C:0617    A$smtp$2037
  0C:0619    A$smtp$2038
  0C:061B    A$smtp$2041
  0C:061B    C$smtp.c$139$5$31
  0C:061E    A$smtp$2042
  0C:061F    A$smtp$2043
  0C:0620    A$smtp$2046
  0C:0620    C$smtp.c$140$5$31
  0C:0623    A$smtp$2047
  0C:0625    A$smtp$2048
  0C:0626    A$smtp$2051
  0C:0626    C$smtp.c$141$5$31
  0C:0629    A$smtp$2052
  0C:062C    A$smtp$2055
  0C:062C    C$smtp.c$142$6$32
  0C:062F    A$smtp$2056
  0C:0630    A$smtp$2057
  0C:0631    A$smtp$2058
  0C:0632    A$smtp$2059
  0C:0633    A$smtp$2060
  0C:0636    A$smtp$2061
  0C:0637    A$smtp$2065
  0C:0637    C$smtp.c$146$4$15
  0C:063A    A$smtp$2066
  0C:063C    A$smtp$2067
  0C:063D    A$smtp$2068
  0C:063E    A$smtp$2069
  0C:0640    A$smtp$2070
  0C:0641    A$smtp$2071
  0C:0642    A$smtp$2072
  0C:0643    A$smtp$2073
  0C:0644    A$smtp$2074
  0C:0647    A$smtp$2075
  0C:064A    A$smtp$2076
  0C:064D    A$smtp$2079
  0C:064D    C$smtp.c$147$5$33
  0C:0650    A$smtp$2080
  0C:0652    A$smtp$2081
  0C:0653    A$smtp$2082
  0C:0654    A$smtp$2083
  0C:0655    A$smtp$2084
  0C:0656    A$smtp$2086
  0C:0659    A$smtp$2087
  0C:065C    A$smtp$2088
  0C:065F    A$smtp$2089
  0C:0661    A$smtp$2090
  0C:0663    A$smtp$2091
  0C:0666    A$smtp$2092
  0C:0668    A$smtp$2093
  0C:0669    A$smtp$2094
  0C:066A    A$smtp$2095
  0C:066C    A$smtp$2096
  0C:066D    A$smtp$2097
  0C:066E    A$smtp$2098
  0C:066F    A$smtp$2099
  0C:0670    A$smtp$2100
  0C:0673    A$smtp$2101
  0C:0674    A$smtp$2102
  0C:0675    A$smtp$2103
  0C:0676    A$smtp$2104
  0C:0677    A$smtp$2105
  0C:0678    A$smtp$2106
  0C:067B    A$smtp$2107
  0C:067E    A$smtp$2108
  0C:0680    A$smtp$2109
  0C:0682    A$smtp$2110
  0C:0684    A$smtp$2111
  0C:0687    A$smtp$2112
  0C:0689    A$smtp$2113
  0C:068B    A$smtp$2114
  0C:068D    A$smtp$2115
  0C:068E    A$smtp$2119
  0C:068E    C$smtp.c$148$5$35
  0C:0691    A$smtp$2120
  0C:0693    A$smtp$2121
  0C:0694    A$smtp$2122
  0C:0695    A$smtp$2123
  0C:0696    A$smtp$2124
  0C:0697    A$smtp$2126
  0C:069A    A$smtp$2127
  0C:069D    A$smtp$2128
  0C:06A0    A$smtp$2129
  0C:06A2    A$smtp$2130
  0C:06A4    A$smtp$2131
  0C:06A7    A$smtp$2132
  0C:06A9    A$smtp$2133
  0C:06AA    A$smtp$2134
  0C:06AB    A$smtp$2135
  0C:06AD    A$smtp$2136
  0C:06AE    A$smtp$2137
  0C:06AF    A$smtp$2138
  0C:06B1    A$smtp$2139
  0C:06B2    A$smtp$2140
  0C:06B5    A$smtp$2141
  0C:06B6    A$smtp$2142
  0C:06B7    A$smtp$2143
  0C:06B8    A$smtp$2144
  0C:06B9    A$smtp$2145
  0C:06BA    A$smtp$2146
  0C:06BD    A$smtp$2147
  0C:06C0    A$smtp$2148
  0C:06C2    A$smtp$2149
  0C:06C4    A$smtp$2150
  0C:06C6    A$smtp$2151
  0C:06C9    A$smtp$2152
  0C:06CB    A$smtp$2153
  0C:06CD    A$smtp$2154
  0C:06CF    A$smtp$2155
  0C:06D0    A$smtp$2159
  0C:06D0    C$smtp.c$150$5$37
  0C:06D3    A$smtp$2160
  0C:06D5    A$smtp$2161
  0C:06D6    A$smtp$2162
  0C:06D7    A$smtp$2163
  0C:06D8    A$smtp$2164
  0C:06D9    A$smtp$2166
  0C:06DC    A$smtp$2167
  0C:06DE    A$smtp$2168
  0C:06DF    A$smtp$2169
  0C:06E2    A$smtp$2170
  0C:06E5    A$smtp$2171
  0C:06E7    A$smtp$2172
  0C:06E9    A$smtp$2173
  0C:06EB    A$smtp$2174
  0C:06EE    A$smtp$2175
  0C:06F0    A$smtp$2176
  0C:06F2    A$smtp$2177
  0C:06F4    A$smtp$2178
  0C:06F5    A$smtp$2182
  0C:06F5    C$smtp.c$153$4$15
  0C:06F8    A$smtp$2183
  0C:06FA    A$smtp$2184
  0C:06FB    A$smtp$2185
  0C:06FC    A$smtp$2186
  0C:06FE    A$smtp$2187
  0C:06FF    A$smtp$2188
  0C:0700    A$smtp$2189
  0C:0702    A$smtp$2190
  0C:0703    A$smtp$2191
  0C:0706    A$smtp$2192
  0C:0708    A$smtp$2193
  0C:0709    A$smtp$2194
  0C:070A    A$smtp$2195
  0C:070B    A$smtp$2196
  0C:070C    A$smtp$2197
  0C:070F    A$smtp$2198
  0C:0712    A$smtp$2199
  0C:0715    A$smtp$2200
  0C:0717    A$smtp$2201
  0C:071A    A$smtp$2202
  0C:071C    A$smtp$2203
  0C:071E    A$smtp$2206
  0C:071E    C$smtp.c$154$5$39
  0C:0721    A$smtp$2207
  0C:0722    A$smtp$2208
  0C:0723    A$smtp$2211
  0C:0723    C$smtp.c$155$5$39
  0C:0726    A$smtp$2212
  0C:0728    A$smtp$2213
  0C:0729    A$smtp$2216
  0C:0729    C$smtp.c$156$5$39
  0C:072C    A$smtp$2217
  0C:072F    A$smtp$2220
  0C:072F    C$smtp.c$157$6$40
  0C:0732    A$smtp$2221
  0C:0733    A$smtp$2222
  0C:0734    A$smtp$2223
  0C:0735    A$smtp$2224
  0C:0736    A$smtp$2225
  0C:0739    A$smtp$2226
  0C:073A    A$smtp$2230
  0C:073A    C$smtp.c$161$4$15
  0C:073D    A$smtp$2231
  0C:073F    A$smtp$2232
  0C:0740    A$smtp$2233
  0C:0741    A$smtp$2234
  0C:0743    A$smtp$2235
  0C:0744    A$smtp$2236
  0C:0745    A$smtp$2237
  0C:0746    A$smtp$2238
  0C:0747    A$smtp$2239
  0C:074A    A$smtp$2240
  0C:074D    A$smtp$2241
  0C:0750    A$smtp$2244
  0C:0750    C$smtp.c$162$5$41
  0C:0753    A$smtp$2245
  0C:0755    A$smtp$2246
  0C:0756    A$smtp$2247
  0C:0757    A$smtp$2248
  0C:0758    A$smtp$2249
  0C:0759    A$smtp$2251
  0C:075C    A$smtp$2252
  0C:075F    A$smtp$2253
  0C:0762    A$smtp$2254
  0C:0764    A$smtp$2255
  0C:0766    A$smtp$2256
  0C:0769    A$smtp$2257
  0C:076B    A$smtp$2258
  0C:076C    A$smtp$2259
  0C:076D    A$smtp$2260
  0C:076F    A$smtp$2261
  0C:0770    A$smtp$2262
  0C:0771    A$smtp$2263
  0C:0772    A$smtp$2264
  0C:0773    A$smtp$2265
  0C:0776    A$smtp$2266
  0C:0777    A$smtp$2267
  0C:0778    A$smtp$2268
  0C:0779    A$smtp$2269
  0C:077A    A$smtp$2270
  0C:077B    A$smtp$2271
  0C:077E    A$smtp$2272
  0C:0781    A$smtp$2273
  0C:0783    A$smtp$2274
  0C:0785    A$smtp$2275
  0C:0787    A$smtp$2276
  0C:078A    A$smtp$2277
  0C:078C    A$smtp$2278
  0C:078E    A$smtp$2279
  0C:0790    A$smtp$2280
  0C:0791    A$smtp$2284
  0C:0791    C$smtp.c$163$5$43
  0C:0794    A$smtp$2285
  0C:0796    A$smtp$2286
  0C:0797    A$smtp$2287
  0C:0798    A$smtp$2288
  0C:0799    A$smtp$2289
  0C:079A    A$smtp$2291
  0C:079D    A$smtp$2292
  0C:07A0    A$smtp$2293
  0C:07A3    A$smtp$2294
  0C:07A5    A$smtp$2295
  0C:07A7    A$smtp$2296
  0C:07AA    A$smtp$2297
  0C:07AC    A$smtp$2298
  0C:07AD    A$smtp$2299
  0C:07AE    A$smtp$2300
  0C:07B0    A$smtp$2301
  0C:07B1    A$smtp$2302
  0C:07B2    A$smtp$2303
  0C:07B4    A$smtp$2304
  0C:07B5    A$smtp$2305
  0C:07B8    A$smtp$2306
  0C:07B9    A$smtp$2307
  0C:07BA    A$smtp$2308
  0C:07BB    A$smtp$2309
  0C:07BC    A$smtp$2310
  0C:07BD    A$smtp$2311
  0C:07C0    A$smtp$2312
  0C:07C3    A$smtp$2313
  0C:07C5    A$smtp$2314
  0C:07C7    A$smtp$2315
  0C:07C9    A$smtp$2316
  0C:07CC    A$smtp$2317
  0C:07CE    A$smtp$2318
  0C:07D0    A$smtp$2319
  0C:07D2    A$smtp$2320
  0C:07D3    A$smtp$2324
  0C:07D3    C$smtp.c$166$5$45
  0C:07D6    A$smtp$2325
  0C:07D8    A$smtp$2326
  0C:07D9    A$smtp$2327
  0C:07DA    A$smtp$2328
  0C:07DB    A$smtp$2329
  0C:07DC    A$smtp$2331
  0C:07DF    A$smtp$2332
  0C:07E1    A$smtp$2333
  0C:07E2    A$smtp$2334
  0C:07E5    A$smtp$2335
  0C:07E8    A$smtp$2336
  0C:07EA    A$smtp$2337
  0C:07EC    A$smtp$2338
  0C:07EE    A$smtp$2339
  0C:07F1    A$smtp$2340
  0C:07F3    A$smtp$2341
  0C:07F5    A$smtp$2342
  0C:07F7    A$smtp$2343
  0C:07F8    A$smtp$2347
  0C:07F8    C$smtp.c$168$4$15
  0C:07FB    A$smtp$2348
  0C:07FD    A$smtp$2349
  0C:07FE    A$smtp$2350
  0C:07FF    A$smtp$2351
  0C:0801    A$smtp$2352
  0C:0802    A$smtp$2353
  0C:0803    A$smtp$2354
  0C:0805    A$smtp$2355
  0C:0806    A$smtp$2356
  0C:0809    A$smtp$2357
  0C:080B    A$smtp$2358
  0C:080C    A$smtp$2359
  0C:080D    A$smtp$2360
  0C:080E    A$smtp$2361
  0C:080F    A$smtp$2362
  0C:0812    A$smtp$2363
  0C:0815    A$smtp$2364
  0C:0818    A$smtp$2365
  0C:081A    A$smtp$2366
  0C:081D    A$smtp$2367
  0C:081F    A$smtp$2368
  0C:0821    A$smtp$2371
  0C:0821    C$smtp.c$169$5$47
  0C:0824    A$smtp$2372
  0C:0825    A$smtp$2373
  0C:0826    A$smtp$2376
  0C:0826    C$smtp.c$170$5$47
  0C:0829    A$smtp$2377
  0C:082B    A$smtp$2378
  0C:082C    A$smtp$2381
  0C:082C    C$smtp.c$171$5$47
  0C:082F    A$smtp$2382
  0C:0832    A$smtp$2385
  0C:0832    C$smtp.c$172$6$48
  0C:0835    A$smtp$2386
  0C:0836    A$smtp$2387
  0C:0837    A$smtp$2388
  0C:0838    A$smtp$2389
  0C:0839    A$smtp$2390
  0C:083C    A$smtp$2391
  0C:083D    A$smtp$2395
  0C:083D    C$smtp.c$177$3$3
  0C:0840    A$smtp$2396
  0C:0842    A$smtp$2397
  0C:0843    A$smtp$2398
  0C:0844    A$smtp$2399
  0C:0845    A$smtp$2400
  0C:0846    A$smtp$2402
  0C:0849    A$smtp$2403
  0C:084C    A$smtp$2404
  0C:084F    A$smtp$2405
  0C:0851    A$smtp$2406
  0C:0853    A$smtp$2407
  0C:0856    A$smtp$2408
  0C:0858    A$smtp$2409
  0C:0859    A$smtp$2410
  0C:085A    A$smtp$2411
  0C:085C    A$smtp$2412
  0C:085D    A$smtp$2413
  0C:085E    A$smtp$2414
  0C:0860    A$smtp$2415
  0C:0861    A$smtp$2416
  0C:0864    A$smtp$2417
  0C:0865    A$smtp$2418
  0C:0866    A$smtp$2419
  0C:0867    A$smtp$2420
  0C:0868    A$smtp$2421
  0C:0869    A$smtp$2422
  0C:086C    A$smtp$2423
  0C:086F    A$smtp$2424
  0C:0871    A$smtp$2425
  0C:0873    A$smtp$2426
  0C:0875    A$smtp$2427
  0C:0878    A$smtp$2428
  0C:087A    A$smtp$2429
  0C:087C    A$smtp$2430
  0C:087E    A$smtp$2431
  0C:087F    A$smtp$2435
  0C:087F    C$smtp.c$178$4$51
  0C:0882    A$smtp$2436
  0C:0884    A$smtp$2437
  0C:0885    A$smtp$2438
  0C:0886    A$smtp$2439
  0C:0887    A$smtp$2440
  0C:0888    A$smtp$2442
  0C:088B    A$smtp$2443
  0C:088C    A$smtp$2444
  0C:088D    A$smtp$2445
  0C:088E    A$smtp$2446
  0C:088F    A$smtp$2447
  0C:0890    A$smtp$2448
  0C:0891    A$smtp$2449
  0C:0892    A$smtp$2450
  0C:0893    A$smtp$2451
  0C:0895    A$smtp$2452
  0C:0897    A$smtp$2453
  0C:0899    A$smtp$2454
  0C:089B    A$smtp$2455
  0C:089D    A$smtp$2456
  0C:089F    A$smtp$2457
  0C:08A2    A$smtp$2458
  0C:08A4    A$smtp$2459
  0C:08A6    A$smtp$2460
  0C:08A8    A$smtp$2461
  0C:08AA    A$smtp$2462
  0C:08AC    A$smtp$2463
  0C:08AF    A$smtp$2464
  0C:08B0    A$smtp$2465
  0C:08B1    A$smtp$2466
  0C:08B2    A$smtp$2467
  0C:08B3    A$smtp$2468
  0C:08B4    A$smtp$2469
  0C:08B5    A$smtp$2470
  0C:08B6    A$smtp$2471
  0C:08B7    A$smtp$2472
  0C:08BA    A$smtp$2473
  0C:08BB    A$smtp$2474
  0C:08BC    A$smtp$2475
  0C:08BD    A$smtp$2476
  0C:08BE    A$smtp$2477
  0C:08BF    A$smtp$2478
  0C:08C2    A$smtp$2479
  0C:08C5    A$smtp$2480
  0C:08C7    A$smtp$2481
  0C:08C9    A$smtp$2482
  0C:08CB    A$smtp$2483
  0C:08CE    A$smtp$2484
  0C:08D0    A$smtp$2485
  0C:08D2    A$smtp$2486
  0C:08D4    A$smtp$2487
  0C:08D5    A$smtp$2491
  0C:08D5    C$smtp.c$181$4$53
  0C:08D8    A$smtp$2492
  0C:08DA    A$smtp$2493
  0C:08DB    A$smtp$2494
  0C:08DC    A$smtp$2495
  0C:08DD    A$smtp$2496
  0C:08DE    A$smtp$2498
  0C:08E1    A$smtp$2499
  0C:08E4    A$smtp$2500
  0C:08E7    A$smtp$2501
  0C:08E9    A$smtp$2502
  0C:08EB    A$smtp$2503
  0C:08EE    A$smtp$2504
  0C:08F0    A$smtp$2505
  0C:08F1    A$smtp$2506
  0C:08F2    A$smtp$2507
  0C:08F4    A$smtp$2508
  0C:08F5    A$smtp$2509
  0C:08F6    A$smtp$2510
  0C:08F8    A$smtp$2511
  0C:08F9    A$smtp$2512
  0C:08FC    A$smtp$2513
  0C:08FD    A$smtp$2514
  0C:08FE    A$smtp$2515
  0C:08FF    A$smtp$2516
  0C:0900    A$smtp$2517
  0C:0901    A$smtp$2518
  0C:0904    A$smtp$2519
  0C:0907    A$smtp$2520
  0C:0909    A$smtp$2521
  0C:090B    A$smtp$2522
  0C:090D    A$smtp$2523
  0C:0910    A$smtp$2524
  0C:0912    A$smtp$2525
  0C:0914    A$smtp$2526
  0C:0916    A$smtp$2527
  0C:0917    A$smtp$2531
  0C:0917    C$smtp.c$183$4$55
  0C:091A    A$smtp$2532
  0C:091C    A$smtp$2533
  0C:091D    A$smtp$2534
  0C:091E    A$smtp$2535
  0C:091F    A$smtp$2536
  0C:0920    A$smtp$2538
  0C:0923    A$smtp$2539
  0C:0925    A$smtp$2540
  0C:0926    A$smtp$2541
  0C:0929    A$smtp$2542
  0C:092C    A$smtp$2543
  0C:092E    A$smtp$2544
  0C:0930    A$smtp$2545
  0C:0932    A$smtp$2546
  0C:0935    A$smtp$2547
  0C:0937    A$smtp$2548
  0C:0939    A$smtp$2549
  0C:093B    A$smtp$2550
  0C:093C    A$smtp$2554
  0C:093C    C$smtp.c$185$3$3
  0C:093F    A$smtp$2555
  0C:0940    A$smtp$2556
  0C:0941    A$smtp$2557
  0C:0944    A$smtp$2558
  0C:0946    A$smtp$2562
  0C:0946    C$smtp.c$186$4$57
  0C:0949    A$smtp$2563
  0C:094B    A$smtp$2564
  0C:094C    A$smtp$2567
  0C:094C    C$smtp.c$187$4$57
  0C:094F    A$smtp$2568
  0C:0952    A$smtp$2571
  0C:0952    C$smtp.c$188$5$58
  0C:0955    A$smtp$2572
  0C:0956    A$smtp$2573
  0C:0957    A$smtp$2574
  0C:0958    A$smtp$2575
  0C:0959    A$smtp$2576
  0C:095C    A$smtp$2577
  0C:095D    A$smtp$2581
  0C:095D    C$smtp.c$191$3$3
  0C:0960    A$smtp$2582
  0C:0962    A$smtp$2583
  0C:0963    A$smtp$2584
  0C:0964    A$smtp$2585
  0C:0965    A$smtp$2586
  0C:0966    A$smtp$2588
  0C:0969    A$smtp$2589
  0C:096C    A$smtp$2590
  0C:096F    A$smtp$2591
  0C:0971    A$smtp$2592
  0C:0973    A$smtp$2593
  0C:0976    A$smtp$2594
  0C:0978    A$smtp$2595
  0C:0979    A$smtp$2596
  0C:097A    A$smtp$2597
  0C:097C    A$smtp$2598
  0C:097D    A$smtp$2599
  0C:097E    A$smtp$2600
  0C:0980    A$smtp$2601
  0C:0981    A$smtp$2602
  0C:0984    A$smtp$2603
  0C:0985    A$smtp$2604
  0C:0986    A$smtp$2605
  0C:0987    A$smtp$2606
  0C:0988    A$smtp$2607
  0C:0989    A$smtp$2608
  0C:098C    A$smtp$2609
  0C:098F    A$smtp$2610
  0C:0991    A$smtp$2611
  0C:0993    A$smtp$2612
  0C:0995    A$smtp$2613
  0C:0998    A$smtp$2614
  0C:099A    A$smtp$2615
  0C:099C    A$smtp$2616
  0C:099E    A$smtp$2617
  0C:099F    A$smtp$2621
  0C:099F    C$smtp.c$192$4$61
  0C:09A2    A$smtp$2622
  0C:09A4    A$smtp$2623
  0C:09A5    A$smtp$2624
  0C:09A6    A$smtp$2625
  0C:09A7    A$smtp$2626
  0C:09A8    A$smtp$2628
  0C:09AB    A$smtp$2629
  0C:09AC    A$smtp$2630
  0C:09AD    A$smtp$2631
  0C:09AE    A$smtp$2632
  0C:09AF    A$smtp$2633
  0C:09B0    A$smtp$2634
  0C:09B1    A$smtp$2635
  0C:09B2    A$smtp$2636
  0C:09B3    A$smtp$2637
  0C:09B5    A$smtp$2638
  0C:09B7    A$smtp$2639
  0C:09B9    A$smtp$2640
  0C:09BB    A$smtp$2641
  0C:09BD    A$smtp$2642
  0C:09BF    A$smtp$2643
  0C:09C2    A$smtp$2644
  0C:09C4    A$smtp$2645
  0C:09C6    A$smtp$2646
  0C:09C8    A$smtp$2647
  0C:09CA    A$smtp$2648
  0C:09CC    A$smtp$2649
  0C:09CF    A$smtp$2650
  0C:09D0    A$smtp$2651
  0C:09D1    A$smtp$2652
  0C:09D2    A$smtp$2653
  0C:09D3    A$smtp$2654
  0C:09D4    A$smtp$2655
  0C:09D5    A$smtp$2656
  0C:09D6    A$smtp$2657
  0C:09D7    A$smtp$2658
  0C:09DA    A$smtp$2659
  0C:09DB    A$smtp$2660
  0C:09DC    A$smtp$2661
  0C:09DD    A$smtp$2662
  0C:09DE    A$smtp$2663
  0C:09DF    A$smtp$2664
  0C:09E2    A$smtp$2665
  0C:09E5    A$smtp$2666
  0C:09E7    A$smtp$2667
  0C:09E9    A$smtp$2668
  0C:09EB    A$smtp$2669
  0C:09EE    A$smtp$2670
  0C:09F0    A$smtp$2671
  0C:09F2    A$smtp$2672
  0C:09F4    A$smtp$2673
  0C:09F5    A$smtp$2677
  0C:09F5    C$smtp.c$193$4$63
  0C:09F8    A$smtp$2678
  0C:09FA    A$smtp$2679
  0C:09FB    A$smtp$2680
  0C:09FC    A$smtp$2681
  0C:09FD    A$smtp$2682
  0C:09FE    A$smtp$2684
  0C:0A01    A$smtp$2685
  0C:0A04    A$smtp$2686
  0C:0A07    A$smtp$2687
  0C:0A09    A$smtp$2688
  0C:0A0B    A$smtp$2689
  0C:0A0E    A$smtp$2690
  0C:0A10    A$smtp$2691
  0C:0A11    A$smtp$2692
  0C:0A12    A$smtp$2693
  0C:0A14    A$smtp$2694
  0C:0A15    A$smtp$2695
  0C:0A16    A$smtp$2696
  0C:0A18    A$smtp$2697
  0C:0A19    A$smtp$2698
  0C:0A1C    A$smtp$2699
  0C:0A1D    A$smtp$2700
  0C:0A1E    A$smtp$2701
  0C:0A1F    A$smtp$2702
  0C:0A20    A$smtp$2703
  0C:0A21    A$smtp$2704
  0C:0A24    A$smtp$2705
  0C:0A27    A$smtp$2706
  0C:0A29    A$smtp$2707
  0C:0A2B    A$smtp$2708
  0C:0A2D    A$smtp$2709
  0C:0A30    A$smtp$2710
  0C:0A32    A$smtp$2711
  0C:0A34    A$smtp$2712
  0C:0A36    A$smtp$2713
  0C:0A37    A$smtp$2717
  0C:0A37    C$smtp.c$195$4$65
  0C:0A3A    A$smtp$2718
  0C:0A3C    A$smtp$2719
  0C:0A3D    A$smtp$2720
  0C:0A3E    A$smtp$2721
  0C:0A3F    A$smtp$2722
  0C:0A40    A$smtp$2724
  0C:0A43    A$smtp$2725
  0C:0A45    A$smtp$2726
  0C:0A46    A$smtp$2727
  0C:0A49    A$smtp$2728
  0C:0A4C    A$smtp$2729
  0C:0A4E    A$smtp$2730
  0C:0A50    A$smtp$2731
  0C:0A52    A$smtp$2732
  0C:0A55    A$smtp$2733
  0C:0A57    A$smtp$2734
  0C:0A59    A$smtp$2735
  0C:0A5B    A$smtp$2736
  0C:0A5C    A$smtp$2740
  0C:0A5C    C$smtp.c$197$3$3
  0C:0A5F    A$smtp$2741
  0C:0A60    A$smtp$2742
  0C:0A61    A$smtp$2743
  0C:0A64    A$smtp$2744
  0C:0A66    A$smtp$2748
  0C:0A66    C$smtp.c$198$4$67
  0C:0A69    A$smtp$2749
  0C:0A6B    A$smtp$2750
  0C:0A6C    A$smtp$2753
  0C:0A6C    C$smtp.c$199$4$67
  0C:0A6F    A$smtp$2754
  0C:0A72    A$smtp$2757
  0C:0A72    C$smtp.c$200$5$68
  0C:0A75    A$smtp$2758
  0C:0A76    A$smtp$2759
  0C:0A77    A$smtp$2760
  0C:0A78    A$smtp$2761
  0C:0A79    A$smtp$2762
  0C:0A7C    A$smtp$2763
  0C:0A7D    A$smtp$2767
  0C:0A7D    C$smtp.c$203$3$3
  0C:0A80    A$smtp$2768
  0C:0A81    A$smtp$2769
  0C:0A82    A$smtp$2770
  0C:0A83    A$smtp$2771
  0C:0A84    A$smtp$2772
  0C:0A85    A$smtp$2773
  0C:0A86    A$smtp$2774
  0C:0A87    A$smtp$2775
  0C:0A88    A$smtp$2776
  0C:0A8B    A$smtp$2777
  0C:0A8E    A$smtp$2778
  0C:0A91    A$smtp$2779
  0C:0A94    A$smtp$2783
  0C:0A94    C$smtp.c$204$5$70
  0C:0A97    A$smtp$2784
  0C:0A99    A$smtp$2785
  0C:0A9A    A$smtp$2786
  0C:0A9B    A$smtp$2787
  0C:0A9C    A$smtp$2788
  0C:0A9D    A$smtp$2790
  0C:0AA0    A$smtp$2791
  0C:0AA3    A$smtp$2792
  0C:0AA6    A$smtp$2793
  0C:0AA8    A$smtp$2794
  0C:0AAA    A$smtp$2795
  0C:0AAD    A$smtp$2796
  0C:0AAF    A$smtp$2797
  0C:0AB0    A$smtp$2798
  0C:0AB1    A$smtp$2799
  0C:0AB3    A$smtp$2800
  0C:0AB4    A$smtp$2801
  0C:0AB5    A$smtp$2802
  0C:0AB7    A$smtp$2803
  0C:0AB8    A$smtp$2804
  0C:0ABB    A$smtp$2805
  0C:0ABC    A$smtp$2806
  0C:0ABD    A$smtp$2807
  0C:0ABE    A$smtp$2808
  0C:0ABF    A$smtp$2809
  0C:0AC0    A$smtp$2810
  0C:0AC3    A$smtp$2811
  0C:0AC6    A$smtp$2812
  0C:0AC8    A$smtp$2813
  0C:0ACA    A$smtp$2814
  0C:0ACC    A$smtp$2815
  0C:0ACF    A$smtp$2816
  0C:0AD1    A$smtp$2817
  0C:0AD3    A$smtp$2818
  0C:0AD5    A$smtp$2819
  0C:0AD6    A$smtp$2823
  0C:0AD6    C$smtp.c$205$5$72
  0C:0AD9    A$smtp$2824
  0C:0ADB    A$smtp$2825
  0C:0ADC    A$smtp$2826
  0C:0ADD    A$smtp$2827
  0C:0ADE    A$smtp$2828
  0C:0ADF    A$smtp$2830
  0C:0AE2    A$smtp$2831
  0C:0AE3    A$smtp$2832
  0C:0AE4    A$smtp$2833
  0C:0AE5    A$smtp$2834
  0C:0AE6    A$smtp$2835
  0C:0AE7    A$smtp$2836
  0C:0AE8    A$smtp$2837
  0C:0AE9    A$smtp$2838
  0C:0AEA    A$smtp$2839
  0C:0AEC    A$smtp$2840
  0C:0AEE    A$smtp$2841
  0C:0AF0    A$smtp$2842
  0C:0AF2    A$smtp$2843
  0C:0AF4    A$smtp$2844
  0C:0AF6    A$smtp$2845
  0C:0AF9    A$smtp$2846
  0C:0AFB    A$smtp$2847
  0C:0AFD    A$smtp$2848
  0C:0AFF    A$smtp$2849
  0C:0B01    A$smtp$2850
  0C:0B03    A$smtp$2851
  0C:0B06    A$smtp$2852
  0C:0B07    A$smtp$2853
  0C:0B08    A$smtp$2854
  0C:0B09    A$smtp$2855
  0C:0B0A    A$smtp$2856
  0C:0B0B    A$smtp$2857
  0C:0B0C    A$smtp$2858
  0C:0B0D    A$smtp$2859
  0C:0B0E    A$smtp$2860
  0C:0B11    A$smtp$2861
  0C:0B12    A$smtp$2862
  0C:0B13    A$smtp$2863
  0C:0B14    A$smtp$2864
  0C:0B15    A$smtp$2865
  0C:0B16    A$smtp$2866
  0C:0B19    A$smtp$2867
  0C:0B1C    A$smtp$2868
  0C:0B1E    A$smtp$2869
  0C:0B20    A$smtp$2870
  0C:0B22    A$smtp$2871
  0C:0B25    A$smtp$2872
  0C:0B27    A$smtp$2873
  0C:0B29    A$smtp$2874
  0C:0B2B    A$smtp$2875
  0C:0B2C    A$smtp$2879
  0C:0B2C    C$smtp.c$206$5$74
  0C:0B2F    A$smtp$2880
  0C:0B31    A$smtp$2881
  0C:0B32    A$smtp$2882
  0C:0B33    A$smtp$2883
  0C:0B34    A$smtp$2884
  0C:0B35    A$smtp$2886
  0C:0B38    A$smtp$2887
  0C:0B3B    A$smtp$2888
  0C:0B3E    A$smtp$2889
  0C:0B40    A$smtp$2890
  0C:0B42    A$smtp$2891
  0C:0B45    A$smtp$2892
  0C:0B47    A$smtp$2893
  0C:0B48    A$smtp$2894
  0C:0B49    A$smtp$2895
  0C:0B4B    A$smtp$2896
  0C:0B4C    A$smtp$2897
  0C:0B4D    A$smtp$2898
  0C:0B4F    A$smtp$2899
  0C:0B50    A$smtp$2900
  0C:0B53    A$smtp$2901
  0C:0B54    A$smtp$2902
  0C:0B55    A$smtp$2903
  0C:0B56    A$smtp$2904
  0C:0B57    A$smtp$2905
  0C:0B58    A$smtp$2906
  0C:0B5B    A$smtp$2907
  0C:0B5E    A$smtp$2908
  0C:0B60    A$smtp$2909
  0C:0B62    A$smtp$2910
  0C:0B64    A$smtp$2911
  0C:0B67    A$smtp$2912
  0C:0B69    A$smtp$2913
  0C:0B6B    A$smtp$2914
  0C:0B6D    A$smtp$2915
  0C:0B6E    A$smtp$2919
  0C:0B6E    C$smtp.c$208$5$76
  0C:0B71    A$smtp$2920
  0C:0B73    A$smtp$2921
  0C:0B74    A$smtp$2922
  0C:0B75    A$smtp$2923
  0C:0B76    A$smtp$2924
  0C:0B77    A$smtp$2926
  0C:0B7A    A$smtp$2927
  0C:0B7C    A$smtp$2928
  0C:0B7D    A$smtp$2929
  0C:0B80    A$smtp$2930
  0C:0B83    A$smtp$2931
  0C:0B85    A$smtp$2932
  0C:0B87    A$smtp$2933
  0C:0B89    A$smtp$2934
  0C:0B8C    A$smtp$2935
  0C:0B8E    A$smtp$2936
  0C:0B90    A$smtp$2937
  0C:0B92    A$smtp$2938
  0C:0B93    A$smtp$2942
  0C:0B93    C$smtp.c$210$4$69
  0C:0B96    A$smtp$2943
  0C:0B97    A$smtp$2944
  0C:0B98    A$smtp$2945
  0C:0B9B    A$smtp$2946
  0C:0B9D    A$smtp$2950
  0C:0B9D    C$smtp.c$211$5$78
  0C:0BA0    A$smtp$2951
  0C:0BA2    A$smtp$2952
  0C:0BA3    A$smtp$2955
  0C:0BA3    C$smtp.c$212$5$78
  0C:0BA6    A$smtp$2956
  0C:0BA9    A$smtp$2959
  0C:0BA9    C$smtp.c$213$6$79
  0C:0BAC    A$smtp$2960
  0C:0BAD    A$smtp$2961
  0C:0BAE    A$smtp$2962
  0C:0BAF    A$smtp$2963
  0C:0BB0    A$smtp$2964
  0C:0BB3    A$smtp$2965
  0C:0BB4    A$smtp$2969
  0C:0BB4    C$smtp.c$217$3$3
  0C:0BB7    A$smtp$2970
  0C:0BB9    A$smtp$2971
  0C:0BBA    A$smtp$2972
  0C:0BBB    A$smtp$2973
  0C:0BBC    A$smtp$2974
  0C:0BBD    A$smtp$2976
  0C:0BC0    A$smtp$2977
  0C:0BC3    A$smtp$2978
  0C:0BC6    A$smtp$2979
  0C:0BC8    A$smtp$2980
  0C:0BCA    A$smtp$2981
  0C:0BCD    A$smtp$2982
  0C:0BCF    A$smtp$2983
  0C:0BD0    A$smtp$2984
  0C:0BD1    A$smtp$2985
  0C:0BD3    A$smtp$2986
  0C:0BD4    A$smtp$2987
  0C:0BD5    A$smtp$2988
  0C:0BD7    A$smtp$2989
  0C:0BD8    A$smtp$2990
  0C:0BDB    A$smtp$2991
  0C:0BDC    A$smtp$2992
  0C:0BDD    A$smtp$2993
  0C:0BDE    A$smtp$2994
  0C:0BDF    A$smtp$2995
  0C:0BE0    A$smtp$2996
  0C:0BE3    A$smtp$2997
  0C:0BE6    A$smtp$2998
  0C:0BE8    A$smtp$2999
  0C:0BEA    A$smtp$3000
  0C:0BEC    A$smtp$3001
  0C:0BEF    A$smtp$3002
  0C:0BF1    A$smtp$3003
  0C:0BF3    A$smtp$3004
  0C:0BF5    A$smtp$3005
  0C:0BF6    A$smtp$3009
  0C:0BF6    C$smtp.c$219$4$82
  0C:0BF9    A$smtp$3010
  0C:0BFB    A$smtp$3011
  0C:0BFC    A$smtp$3012
  0C:0BFD    A$smtp$3013
  0C:0BFE    A$smtp$3014
  0C:0BFF    A$smtp$3016
  0C:0C02    A$smtp$3017
  0C:0C04    A$smtp$3018
  0C:0C05    A$smtp$3019
  0C:0C08    A$smtp$3020
  0C:0C0B    A$smtp$3021
  0C:0C0D    A$smtp$3022
  0C:0C0F    A$smtp$3023
  0C:0C11    A$smtp$3024
  0C:0C14    A$smtp$3025
  0C:0C16    A$smtp$3026
  0C:0C18    A$smtp$3027
  0C:0C1A    A$smtp$3028
  0C:0C1B    A$smtp$3032
  0C:0C1B    C$smtp.c$221$3$3
  0C:0C1E    A$smtp$3033
  0C:0C1F    A$smtp$3034
  0C:0C20    A$smtp$3035
  0C:0C23    A$smtp$3036
  0C:0C25    A$smtp$3040
  0C:0C25    C$smtp.c$222$4$84
  0C:0C28    A$smtp$3041
  0C:0C2A    A$smtp$3042
  0C:0C2B    A$smtp$3045
  0C:0C2B    C$smtp.c$223$4$84
  0C:0C2E    A$smtp$3046
  0C:0C31    A$smtp$3049
  0C:0C31    C$smtp.c$224$5$85
  0C:0C34    A$smtp$3050
  0C:0C35    A$smtp$3051
  0C:0C36    A$smtp$3052
  0C:0C37    A$smtp$3053
  0C:0C38    A$smtp$3054
  0C:0C3B    A$smtp$3055
  0C:0C3C    A$smtp$3059
  0C:0C3C    C$smtp.c$227$3$3
  0C:0C3F    A$smtp$3060
  0C:0C41    A$smtp$3061
  0C:0C42    A$smtp$3062
  0C:0C43    A$smtp$3063
  0C:0C44    A$smtp$3064
  0C:0C45    A$smtp$3066
  0C:0C48    A$smtp$3067
  0C:0C4B    A$smtp$3068
  0C:0C4E    A$smtp$3069
  0C:0C50    A$smtp$3070
  0C:0C52    A$smtp$3071
  0C:0C55    A$smtp$3072
  0C:0C57    A$smtp$3073
  0C:0C58    A$smtp$3074
  0C:0C59    A$smtp$3075
  0C:0C5B    A$smtp$3076
  0C:0C5C    A$smtp$3077
  0C:0C5D    A$smtp$3078
  0C:0C5F    A$smtp$3079
  0C:0C60    A$smtp$3080
  0C:0C63    A$smtp$3081
  0C:0C64    A$smtp$3082
  0C:0C65    A$smtp$3083
  0C:0C66    A$smtp$3084
  0C:0C67    A$smtp$3085
  0C:0C68    A$smtp$3086
  0C:0C6B    A$smtp$3087
  0C:0C6E    A$smtp$3088
  0C:0C70    A$smtp$3089
  0C:0C72    A$smtp$3090
  0C:0C74    A$smtp$3091
  0C:0C77    A$smtp$3092
  0C:0C79    A$smtp$3093
  0C:0C7B    A$smtp$3094
  0C:0C7D    A$smtp$3095
  0C:0C7E    A$smtp$3099
  0C:0C7E    C$smtp.c$228$4$88
  0C:0C81    A$smtp$3100
  0C:0C83    A$smtp$3101
  0C:0C84    A$smtp$3102
  0C:0C85    A$smtp$3103
  0C:0C86    A$smtp$3104
  0C:0C87    A$smtp$3106
  0C:0C8A    A$smtp$3107
  0C:0C8B    A$smtp$3108
  0C:0C8C    A$smtp$3109
  0C:0C8D    A$smtp$3110
  0C:0C8E    A$smtp$3111
  0C:0C8F    A$smtp$3112
  0C:0C90    A$smtp$3113
  0C:0C91    A$smtp$3114
  0C:0C92    A$smtp$3115
  0C:0C94    A$smtp$3116
  0C:0C96    A$smtp$3117
  0C:0C98    A$smtp$3118
  0C:0C9A    A$smtp$3119
  0C:0C9C    A$smtp$3120
  0C:0C9E    A$smtp$3121
  0C:0CA1    A$smtp$3122
  0C:0CA3    A$smtp$3123
  0C:0CA5    A$smtp$3124
  0C:0CA7    A$smtp$3125
  0C:0CA9    A$smtp$3126
  0C:0CAB    A$smtp$3127
  0C:0CAE    A$smtp$3128
  0C:0CAF    A$smtp$3129
  0C:0CB0    A$smtp$3130
  0C:0CB1    A$smtp$3131
  0C:0CB2    A$smtp$3132
  0C:0CB3    A$smtp$3133
  0C:0CB4    A$smtp$3134
  0C:0CB5    A$smtp$3135
  0C:0CB6    A$smtp$3136
  0C:0CB9    A$smtp$3137
  0C:0CBA    A$smtp$3138
  0C:0CBB    A$smtp$3139
  0C:0CBC    A$smtp$3140
  0C:0CBD    A$smtp$3141
  0C:0CBE    A$smtp$3142
  0C:0CC1    A$smtp$3143
  0C:0CC4    A$smtp$3144
  0C:0CC6    A$smtp$3145
  0C:0CC8    A$smtp$3146
  0C:0CCA    A$smtp$3147
  0C:0CCD    A$smtp$3148
  0C:0CCF    A$smtp$3149
  0C:0CD1    A$smtp$3150
  0C:0CD3    A$smtp$3151
  0C:0CD4    A$smtp$3155
  0C:0CD4    C$smtp.c$229$4$90
  0C:0CD7    A$smtp$3156
  0C:0CD9    A$smtp$3157
  0C:0CDA    A$smtp$3158
  0C:0CDB    A$smtp$3159
  0C:0CDC    A$smtp$3160
  0C:0CDD    A$smtp$3162
  0C:0CE0    A$smtp$3163
  0C:0CE3    A$smtp$3164
  0C:0CE6    A$smtp$3165
  0C:0CE8    A$smtp$3166
  0C:0CEA    A$smtp$3167
  0C:0CED    A$smtp$3168
  0C:0CEF    A$smtp$3169
  0C:0CF0    A$smtp$3170
  0C:0CF1    A$smtp$3171
  0C:0CF3    A$smtp$3172
  0C:0CF4    A$smtp$3173
  0C:0CF5    A$smtp$3174
  0C:0CF7    A$smtp$3175
  0C:0CF8    A$smtp$3176
  0C:0CFB    A$smtp$3177
  0C:0CFC    A$smtp$3178
  0C:0CFD    A$smtp$3179
  0C:0CFE    A$smtp$3180
  0C:0CFF    A$smtp$3181
  0C:0D00    A$smtp$3182
  0C:0D03    A$smtp$3183
  0C:0D06    A$smtp$3184
  0C:0D08    A$smtp$3185
  0C:0D0A    A$smtp$3186
  0C:0D0C    A$smtp$3187
  0C:0D0F    A$smtp$3188
  0C:0D11    A$smtp$3189
  0C:0D13    A$smtp$3190
  0C:0D15    A$smtp$3191
  0C:0D16    A$smtp$3195
  0C:0D16    C$smtp.c$231$3$3
  0C:0D19    A$smtp$3196
  0C:0D1A    A$smtp$3197
  0C:0D1B    A$smtp$3198
  0C:0D1C    A$smtp$3199
  0C:0D1D    A$smtp$3200
  0C:0D1E    A$smtp$3201
  0C:0D1F    A$smtp$3202
  0C:0D20    A$smtp$3203
  0C:0D21    A$smtp$3204
  0C:0D22    A$smtp$3205
  0C:0D23    A$smtp$3206
  0C:0D24    A$smtp$3207
  0C:0D26    A$smtp$3208
  0C:0D29    A$smtp$3212
  0C:0D29    C$smtp.c$232$5$93
  0C:0D2C    A$smtp$3213
  0C:0D2E    A$smtp$3214
  0C:0D2F    A$smtp$3215
  0C:0D30    A$smtp$3216
  0C:0D31    A$smtp$3217
  0C:0D32    A$smtp$3219
  0C:0D35    A$smtp$3220
  0C:0D38    A$smtp$3221
  0C:0D3B    A$smtp$3222
  0C:0D3D    A$smtp$3223
  0C:0D3F    A$smtp$3224
  0C:0D42    A$smtp$3225
  0C:0D44    A$smtp$3226
  0C:0D45    A$smtp$3227
  0C:0D46    A$smtp$3228
  0C:0D48    A$smtp$3229
  0C:0D49    A$smtp$3230
  0C:0D4A    A$smtp$3231
  0C:0D4C    A$smtp$3232
  0C:0D4D    A$smtp$3233
  0C:0D50    A$smtp$3234
  0C:0D51    A$smtp$3235
  0C:0D52    A$smtp$3236
  0C:0D53    A$smtp$3237
  0C:0D54    A$smtp$3238
  0C:0D55    A$smtp$3239
  0C:0D58    A$smtp$3240
  0C:0D5B    A$smtp$3241
  0C:0D5D    A$smtp$3242
  0C:0D5F    A$smtp$3243
  0C:0D61    A$smtp$3244
  0C:0D64    A$smtp$3245
  0C:0D66    A$smtp$3246
  0C:0D68    A$smtp$3247
  0C:0D6A    A$smtp$3248
  0C:0D6B    A$smtp$3252
  0C:0D6B    C$smtp.c$233$5$95
  0C:0D6E    A$smtp$3253
  0C:0D70    A$smtp$3254
  0C:0D71    A$smtp$3255
  0C:0D72    A$smtp$3256
  0C:0D73    A$smtp$3257
  0C:0D74    A$smtp$3259
  0C:0D77    A$smtp$3260
  0C:0D78    A$smtp$3261
  0C:0D79    A$smtp$3262
  0C:0D7A    A$smtp$3263
  0C:0D7B    A$smtp$3264
  0C:0D7C    A$smtp$3265
  0C:0D7D    A$smtp$3266
  0C:0D7E    A$smtp$3267
  0C:0D7F    A$smtp$3268
  0C:0D81    A$smtp$3269
  0C:0D83    A$smtp$3270
  0C:0D85    A$smtp$3271
  0C:0D87    A$smtp$3272
  0C:0D89    A$smtp$3273
  0C:0D8B    A$smtp$3274
  0C:0D8E    A$smtp$3275
  0C:0D90    A$smtp$3276
  0C:0D92    A$smtp$3277
  0C:0D94    A$smtp$3278
  0C:0D96    A$smtp$3279
  0C:0D98    A$smtp$3280
  0C:0D9B    A$smtp$3281
  0C:0D9C    A$smtp$3282
  0C:0D9D    A$smtp$3283
  0C:0D9E    A$smtp$3284
  0C:0D9F    A$smtp$3285
  0C:0DA0    A$smtp$3286
  0C:0DA1    A$smtp$3287
  0C:0DA2    A$smtp$3288
  0C:0DA3    A$smtp$3289
  0C:0DA6    A$smtp$3290
  0C:0DA7    A$smtp$3291
  0C:0DA8    A$smtp$3292
  0C:0DA9    A$smtp$3293
  0C:0DAA    A$smtp$3294
  0C:0DAB    A$smtp$3295
  0C:0DAE    A$smtp$3296
  0C:0DB1    A$smtp$3297
  0C:0DB3    A$smtp$3298
  0C:0DB5    A$smtp$3299
  0C:0DB7    A$smtp$3300
  0C:0DBA    A$smtp$3301
  0C:0DBC    A$smtp$3302
  0C:0DBE    A$smtp$3303
  0C:0DC0    A$smtp$3304
  0C:0DC1    A$smtp$3308
  0C:0DC1    C$smtp.c$234$5$97
  0C:0DC4    A$smtp$3309
  0C:0DC6    A$smtp$3310
  0C:0DC7    A$smtp$3311
  0C:0DC8    A$smtp$3312
  0C:0DC9    A$smtp$3313
  0C:0DCA    A$smtp$3315
  0C:0DCD    A$smtp$3316
  0C:0DD0    A$smtp$3317
  0C:0DD3    A$smtp$3318
  0C:0DD5    A$smtp$3319
  0C:0DD7    A$smtp$3320
  0C:0DDA    A$smtp$3321
  0C:0DDC    A$smtp$3322
  0C:0DDD    A$smtp$3323
  0C:0DDE    A$smtp$3324
  0C:0DE0    A$smtp$3325
  0C:0DE1    A$smtp$3326
  0C:0DE2    A$smtp$3327
  0C:0DE4    A$smtp$3328
  0C:0DE5    A$smtp$3329
  0C:0DE8    A$smtp$3330
  0C:0DE9    A$smtp$3331
  0C:0DEA    A$smtp$3332
  0C:0DEB    A$smtp$3333
  0C:0DEC    A$smtp$3334
  0C:0DED    A$smtp$3335
  0C:0DF0    A$smtp$3336
  0C:0DF3    A$smtp$3337
  0C:0DF5    A$smtp$3338
  0C:0DF7    A$smtp$3339
  0C:0DF9    A$smtp$3340
  0C:0DFC    A$smtp$3341
  0C:0DFE    A$smtp$3342
  0C:0E00    A$smtp$3343
  0C:0E02    A$smtp$3344
  0C:0E03    A$smtp$3348
  0C:0E03    C$smtp.c$237$3$3
  0C:0E06    A$smtp$3349
  0C:0E08    A$smtp$3350
  0C:0E09    A$smtp$3351
  0C:0E0A    A$smtp$3352
  0C:0E0B    A$smtp$3353
  0C:0E0C    A$smtp$3355
  0C:0E0F    A$smtp$3356
  0C:0E12    A$smtp$3357
  0C:0E15    A$smtp$3358
  0C:0E17    A$smtp$3359
  0C:0E19    A$smtp$3360
  0C:0E1C    A$smtp$3361
  0C:0E1E    A$smtp$3362
  0C:0E1F    A$smtp$3363
  0C:0E20    A$smtp$3364
  0C:0E22    A$smtp$3365
  0C:0E23    A$smtp$3366
  0C:0E24    A$smtp$3367
  0C:0E26    A$smtp$3368
  0C:0E27    A$smtp$3369
  0C:0E2A    A$smtp$3370
  0C:0E2B    A$smtp$3371
  0C:0E2C    A$smtp$3372
  0C:0E2D    A$smtp$3373
  0C:0E2E    A$smtp$3374
  0C:0E2F    A$smtp$3375
  0C:0E32    A$smtp$3376
  0C:0E35    A$smtp$3377
  0C:0E37    A$smtp$3378
  0C:0E39    A$smtp$3379
  0C:0E3B    A$smtp$3380
  0C:0E3E    A$smtp$3381
  0C:0E40    A$smtp$3382
  0C:0E42    A$smtp$3383
  0C:0E44    A$smtp$3384
  0C:0E45    A$smtp$3388
  0C:0E45    C$smtp.c$238$4$101
  0C:0E48    A$smtp$3389
  0C:0E4A    A$smtp$3390
  0C:0E4B    A$smtp$3391
  0C:0E4C    A$smtp$3392
  0C:0E4D    A$smtp$3393
  0C:0E4E    A$smtp$3395
  0C:0E51    A$smtp$3396
  0C:0E52    A$smtp$3397
  0C:0E53    A$smtp$3398
  0C:0E54    A$smtp$3399
  0C:0E55    A$smtp$3400
  0C:0E56    A$smtp$3401
  0C:0E57    A$smtp$3402
  0C:0E58    A$smtp$3403
  0C:0E59    A$smtp$3404
  0C:0E5B    A$smtp$3405
  0C:0E5D    A$smtp$3406
  0C:0E5F    A$smtp$3407
  0C:0E61    A$smtp$3408
  0C:0E63    A$smtp$3409
  0C:0E65    A$smtp$3410
  0C:0E68    A$smtp$3411
  0C:0E6A    A$smtp$3412
  0C:0E6C    A$smtp$3413
  0C:0E6E    A$smtp$3414
  0C:0E70    A$smtp$3415
  0C:0E72    A$smtp$3416
  0C:0E75    A$smtp$3417
  0C:0E76    A$smtp$3418
  0C:0E77    A$smtp$3419
  0C:0E78    A$smtp$3420
  0C:0E79    A$smtp$3421
  0C:0E7A    A$smtp$3422
  0C:0E7B    A$smtp$3423
  0C:0E7C    A$smtp$3424
  0C:0E7D    A$smtp$3425
  0C:0E80    A$smtp$3426
  0C:0E81    A$smtp$3427
  0C:0E82    A$smtp$3428
  0C:0E83    A$smtp$3429
  0C:0E84    A$smtp$3430
  0C:0E85    A$smtp$3431
  0C:0E88    A$smtp$3432
  0C:0E8B    A$smtp$3433
  0C:0E8D    A$smtp$3434
  0C:0E8F    A$smtp$3435
  0C:0E91    A$smtp$3436
  0C:0E94    A$smtp$3437
  0C:0E96    A$smtp$3438
  0C:0E98    A$smtp$3439
  0C:0E9A    A$smtp$3440
  0C:0E9B    A$smtp$3444
  0C:0E9B    C$smtp.c$239$4$103
  0C:0E9E    A$smtp$3445
  0C:0EA0    A$smtp$3446
  0C:0EA1    A$smtp$3447
  0C:0EA2    A$smtp$3448
  0C:0EA3    A$smtp$3449
  0C:0EA4    A$smtp$3451
  0C:0EA7    A$smtp$3452
  0C:0EAA    A$smtp$3453
  0C:0EAD    A$smtp$3454
  0C:0EAF    A$smtp$3455
  0C:0EB1    A$smtp$3456
  0C:0EB4    A$smtp$3457
  0C:0EB6    A$smtp$3458
  0C:0EB7    A$smtp$3459
  0C:0EB8    A$smtp$3460
  0C:0EBA    A$smtp$3461
  0C:0EBB    A$smtp$3462
  0C:0EBC    A$smtp$3463
  0C:0EBE    A$smtp$3464
  0C:0EBF    A$smtp$3465
  0C:0EC2    A$smtp$3466
  0C:0EC3    A$smtp$3467
  0C:0EC4    A$smtp$3468
  0C:0EC5    A$smtp$3469
  0C:0EC6    A$smtp$3470
  0C:0EC7    A$smtp$3471
  0C:0ECA    A$smtp$3472
  0C:0ECD    A$smtp$3473
  0C:0ECF    A$smtp$3474
  0C:0ED1    A$smtp$3475
  0C:0ED3    A$smtp$3476
  0C:0ED6    A$smtp$3477
  0C:0ED8    A$smtp$3478
  0C:0EDA    A$smtp$3479
  0C:0EDC    A$smtp$3480
  0C:0EDD    A$smtp$3484
  0C:0EDD    C$smtp.c$241$4$105
  0C:0EE0    A$smtp$3485
  0C:0EE2    A$smtp$3486
  0C:0EE3    A$smtp$3487
  0C:0EE4    A$smtp$3488
  0C:0EE5    A$smtp$3489
  0C:0EE6    A$smtp$3491
  0C:0EE9    A$smtp$3492
  0C:0EEC    A$smtp$3493
  0C:0EEF    A$smtp$3494
  0C:0EF1    A$smtp$3495
  0C:0EF3    A$smtp$3496
  0C:0EF6    A$smtp$3497
  0C:0EF8    A$smtp$3498
  0C:0EF9    A$smtp$3499
  0C:0EFA    A$smtp$3500
  0C:0EFC    A$smtp$3501
  0C:0EFD    A$smtp$3502
  0C:0EFE    A$smtp$3503
  0C:0F00    A$smtp$3504
  0C:0F01    A$smtp$3505
  0C:0F04    A$smtp$3506
  0C:0F05    A$smtp$3507
  0C:0F06    A$smtp$3508
  0C:0F07    A$smtp$3509
  0C:0F08    A$smtp$3510
  0C:0F09    A$smtp$3511
  0C:0F0C    A$smtp$3512
  0C:0F0F    A$smtp$3513
  0C:0F11    A$smtp$3514
  0C:0F13    A$smtp$3515
  0C:0F15    A$smtp$3516
  0C:0F18    A$smtp$3517
  0C:0F1A    A$smtp$3518
  0C:0F1C    A$smtp$3519
  0C:0F1E    A$smtp$3520
  0C:0F1F    A$smtp$3524
  0C:0F1F    C$smtp.c$242$4$107
  0C:0F22    A$smtp$3525
  0C:0F24    A$smtp$3526
  0C:0F25    A$smtp$3527
  0C:0F26    A$smtp$3528
  0C:0F27    A$smtp$3529
  0C:0F28    A$smtp$3531
  0C:0F2B    A$smtp$3532
  0C:0F2C    A$smtp$3533
  0C:0F2D    A$smtp$3534
  0C:0F2E    A$smtp$3535
  0C:0F2F    A$smtp$3536
  0C:0F30    A$smtp$3537
  0C:0F31    A$smtp$3538
  0C:0F32    A$smtp$3539
  0C:0F33    A$smtp$3540
  0C:0F35    A$smtp$3541
  0C:0F37    A$smtp$3542
  0C:0F39    A$smtp$3543
  0C:0F3B    A$smtp$3544
  0C:0F3D    A$smtp$3545
  0C:0F3F    A$smtp$3546
  0C:0F42    A$smtp$3547
  0C:0F44    A$smtp$3548
  0C:0F46    A$smtp$3549
  0C:0F48    A$smtp$3550
  0C:0F4A    A$smtp$3551
  0C:0F4C    A$smtp$3552
  0C:0F4F    A$smtp$3553
  0C:0F50    A$smtp$3554
  0C:0F51    A$smtp$3555
  0C:0F52    A$smtp$3556
  0C:0F53    A$smtp$3557
  0C:0F54    A$smtp$3558
  0C:0F55    A$smtp$3559
  0C:0F56    A$smtp$3560
  0C:0F57    A$smtp$3561
  0C:0F5A    A$smtp$3562
  0C:0F5B    A$smtp$3563
  0C:0F5C    A$smtp$3564
  0C:0F5D    A$smtp$3565
  0C:0F5E    A$smtp$3566
  0C:0F5F    A$smtp$3567
  0C:0F62    A$smtp$3568
  0C:0F65    A$smtp$3569
  0C:0F67    A$smtp$3570
  0C:0F69    A$smtp$3571
  0C:0F6B    A$smtp$3572
  0C:0F6E    A$smtp$3573
  0C:0F70    A$smtp$3574
  0C:0F72    A$smtp$3575
  0C:0F74    A$smtp$3576
  0C:0F75    A$smtp$3580
  0C:0F75    C$smtp.c$243$4$109
  0C:0F78    A$smtp$3581
  0C:0F7A    A$smtp$3582
  0C:0F7B    A$smtp$3583
  0C:0F7C    A$smtp$3584
  0C:0F7D    A$smtp$3585
  0C:0F7E    A$smtp$3587
  0C:0F81    A$smtp$3588
  0C:0F84    A$smtp$3589
  0C:0F87    A$smtp$3590
  0C:0F89    A$smtp$3591
  0C:0F8B    A$smtp$3592
  0C:0F8E    A$smtp$3593
  0C:0F90    A$smtp$3594
  0C:0F91    A$smtp$3595
  0C:0F92    A$smtp$3596
  0C:0F94    A$smtp$3597
  0C:0F95    A$smtp$3598
  0C:0F96    A$smtp$3599
  0C:0F98    A$smtp$3600
  0C:0F99    A$smtp$3601
  0C:0F9C    A$smtp$3602
  0C:0F9D    A$smtp$3603
  0C:0F9E    A$smtp$3604
  0C:0F9F    A$smtp$3605
  0C:0FA0    A$smtp$3606
  0C:0FA1    A$smtp$3607
  0C:0FA4    A$smtp$3608
  0C:0FA7    A$smtp$3609
  0C:0FA9    A$smtp$3610
  0C:0FAB    A$smtp$3611
  0C:0FAD    A$smtp$3612
  0C:0FB0    A$smtp$3613
  0C:0FB2    A$smtp$3614
  0C:0FB4    A$smtp$3615
  0C:0FB6    A$smtp$3616
  0C:0FB7    A$smtp$3620
  0C:0FB7    C$smtp.c$245$4$111
  0C:0FBA    A$smtp$3621
  0C:0FBC    A$smtp$3622
  0C:0FBD    A$smtp$3623
  0C:0FBE    A$smtp$3624
  0C:0FBF    A$smtp$3625
  0C:0FC0    A$smtp$3627
  0C:0FC3    A$smtp$3628
  0C:0FC6    A$smtp$3629
  0C:0FC9    A$smtp$3630
  0C:0FCB    A$smtp$3631
  0C:0FCD    A$smtp$3632
  0C:0FD0    A$smtp$3633
  0C:0FD2    A$smtp$3634
  0C:0FD3    A$smtp$3635
  0C:0FD4    A$smtp$3636
  0C:0FD6    A$smtp$3637
  0C:0FD7    A$smtp$3638
  0C:0FD8    A$smtp$3639
  0C:0FDA    A$smtp$3640
  0C:0FDB    A$smtp$3641
  0C:0FDE    A$smtp$3642
  0C:0FDF    A$smtp$3643
  0C:0FE0    A$smtp$3644
  0C:0FE1    A$smtp$3645
  0C:0FE2    A$smtp$3646
  0C:0FE3    A$smtp$3647
  0C:0FE6    A$smtp$3648
  0C:0FE9    A$smtp$3649
  0C:0FEB    A$smtp$3650
  0C:0FED    A$smtp$3651
  0C:0FEF    A$smtp$3652
  0C:0FF2    A$smtp$3653
  0C:0FF4    A$smtp$3654
  0C:0FF6    A$smtp$3655
  0C:0FF8    A$smtp$3656
  0C:0FF9    A$smtp$3660
  0C:0FF9    C$smtp.c$246$4$113
  0C:0FFC    A$smtp$3661
  0C:0FFE    A$smtp$3662
  0C:0FFF    A$smtp$3663
  0C:1000    A$smtp$3664
  0C:1001    A$smtp$3665
  0C:1002    A$smtp$3667
  0C:1005    A$smtp$3668
  0C:1008    A$smtp$3669
  0C:100B    A$smtp$3670
  0C:100D    A$smtp$3671
  0C:100F    A$smtp$3672
  0C:1012    A$smtp$3673
  0C:1014    A$smtp$3674
  0C:1015    A$smtp$3675
  0C:1016    A$smtp$3676
  0C:1018    A$smtp$3677
  0C:1019    A$smtp$3678
  0C:101A    A$smtp$3679
  0C:101C    A$smtp$3680
  0C:101D    A$smtp$3681
  0C:1020    A$smtp$3682
  0C:1021    A$smtp$3683
  0C:1022    A$smtp$3684
  0C:1023    A$smtp$3685
  0C:1024    A$smtp$3686
  0C:1025    A$smtp$3687
  0C:1028    A$smtp$3688
  0C:102B    A$smtp$3689
  0C:102D    A$smtp$3690
  0C:102F    A$smtp$3691
  0C:1031    A$smtp$3692
  0C:1034    A$smtp$3693
  0C:1036    A$smtp$3694
  0C:1038    A$smtp$3695
  0C:103A    A$smtp$3696
  0C:103B    A$smtp$3700
  0C:103B    C$smtp.c$247$4$115
  0C:103E    A$smtp$3701
  0C:1040    A$smtp$3702
  0C:1041    A$smtp$3703
  0C:1042    A$smtp$3704
  0C:1043    A$smtp$3705
  0C:1044    A$smtp$3707
  0C:1047    A$smtp$3708
  0C:104A    A$smtp$3709
  0C:104D    A$smtp$3710
  0C:104F    A$smtp$3711
  0C:1051    A$smtp$3712
  0C:1054    A$smtp$3713
  0C:1056    A$smtp$3714
  0C:1057    A$smtp$3715
  0C:1058    A$smtp$3716
  0C:105A    A$smtp$3717
  0C:105B    A$smtp$3718
  0C:105C    A$smtp$3719
  0C:105E    A$smtp$3720
  0C:105F    A$smtp$3721
  0C:1062    A$smtp$3722
  0C:1063    A$smtp$3723
  0C:1064    A$smtp$3724
  0C:1065    A$smtp$3725
  0C:1066    A$smtp$3726
  0C:1067    A$smtp$3727
  0C:106A    A$smtp$3728
  0C:106D    A$smtp$3729
  0C:106F    A$smtp$3730
  0C:1071    A$smtp$3731
  0C:1073    A$smtp$3732
  0C:1076    A$smtp$3733
  0C:1078    A$smtp$3734
  0C:107A    A$smtp$3735
  0C:107C    A$smtp$3736
  0C:107D    A$smtp$3740
  0C:107D    C$smtp.c$249$4$117
  0C:1080    A$smtp$3741
  0C:1082    A$smtp$3742
  0C:1083    A$smtp$3743
  0C:1084    A$smtp$3744
  0C:1085    A$smtp$3745
  0C:1086    A$smtp$3747
  0C:1089    A$smtp$3748
  0C:108A    A$smtp$3749
  0C:108B    A$smtp$3750
  0C:108C    A$smtp$3751
  0C:108D    A$smtp$3752
  0C:108E    A$smtp$3753
  0C:108F    A$smtp$3754
  0C:1090    A$smtp$3755
  0C:1091    A$smtp$3756
  0C:1094    A$smtp$3757
  0C:1095    A$smtp$3758
  0C:1096    A$smtp$3759
  0C:1097    A$smtp$3760
  0C:1098    A$smtp$3761
  0C:1099    A$smtp$3762
  0C:109C    A$smtp$3763
  0C:109D    A$smtp$3764
  0C:109E    A$smtp$3765
  0C:109F    A$smtp$3766
  0C:10A0    A$smtp$3767
  0C:10A1    A$smtp$3768
  0C:10A2    A$smtp$3769
  0C:10A3    A$smtp$3770
  0C:10A4    A$smtp$3771
  0C:10A7    A$smtp$3772
  0C:10A8    A$smtp$3773
  0C:10A9    A$smtp$3774
  0C:10AA    A$smtp$3775
  0C:10AB    A$smtp$3776
  0C:10AC    A$smtp$3777
  0C:10AF    A$smtp$3778
  0C:10B2    A$smtp$3779
  0C:10B4    A$smtp$3780
  0C:10B6    A$smtp$3781
  0C:10B8    A$smtp$3782
  0C:10BB    A$smtp$3783
  0C:10BD    A$smtp$3784
  0C:10BF    A$smtp$3785
  0C:10C1    A$smtp$3786
  0C:10C2    A$smtp$3790
  0C:10C2    C$smtp.c$251$4$119
  0C:10C5    A$smtp$3791
  0C:10C7    A$smtp$3792
  0C:10C8    A$smtp$3793
  0C:10C9    A$smtp$3794
  0C:10CA    A$smtp$3795
  0C:10CB    A$smtp$3797
  0C:10CE    A$smtp$3798
  0C:10D1    A$smtp$3799
  0C:10D4    A$smtp$3800
  0C:10D6    A$smtp$3801
  0C:10D8    A$smtp$3802
  0C:10DB    A$smtp$3803
  0C:10DD    A$smtp$3804
  0C:10DE    A$smtp$3805
  0C:10DF    A$smtp$3806
  0C:10E1    A$smtp$3807
  0C:10E2    A$smtp$3808
  0C:10E3    A$smtp$3809
  0C:10E5    A$smtp$3810
  0C:10E6    A$smtp$3811
  0C:10E9    A$smtp$3812
  0C:10EA    A$smtp$3813
  0C:10EB    A$smtp$3814
  0C:10EC    A$smtp$3815
  0C:10ED    A$smtp$3816
  0C:10EE    A$smtp$3817
  0C:10F1    A$smtp$3818
  0C:10F4    A$smtp$3819
  0C:10F6    A$smtp$3820
  0C:10F8    A$smtp$3821
  0C:10FA    A$smtp$3822
  0C:10FD    A$smtp$3823
  0C:10FF    A$smtp$3824
  0C:1101    A$smtp$3825
  0C:1103    A$smtp$3826
  0C:1104    A$smtp$3830
  0C:1104    C$smtp.c$253$4$121
  0C:1107    A$smtp$3831
  0C:1109    A$smtp$3832
  0C:110A    A$smtp$3833
  0C:110B    A$smtp$3834
  0C:110C    A$smtp$3835
  0C:110D    A$smtp$3837
  0C:1110    A$smtp$3838
  0C:1112    A$smtp$3839
  0C:1113    A$smtp$3840
  0C:1116    A$smtp$3841
  0C:1119    A$smtp$3842
  0C:111B    A$smtp$3843
  0C:111D    A$smtp$3844
  0C:111F    A$smtp$3845
  0C:1122    A$smtp$3846
  0C:1124    A$smtp$3847
  0C:1126    A$smtp$3848
  0C:1128    A$smtp$3849
  0C:1129    A$smtp$3853
  0C:1129    C$smtp.c$255$3$3
  0C:112C    A$smtp$3854
  0C:112D    A$smtp$3855
  0C:112E    A$smtp$3856
  0C:1131    A$smtp$3857
  0C:1133    A$smtp$3861
  0C:1133    C$smtp.c$256$4$123
  0C:1136    A$smtp$3862
  0C:1138    A$smtp$3863
  0C:1139    A$smtp$3866
  0C:1139    C$smtp.c$257$4$123
  0C:113C    A$smtp$3867
  0C:113F    A$smtp$3870
  0C:113F    C$smtp.c$258$5$124
  0C:1142    A$smtp$3871
  0C:1143    A$smtp$3872
  0C:1144    A$smtp$3873
  0C:1145    A$smtp$3874
  0C:1146    A$smtp$3875
  0C:1149    A$smtp$3878
  0C:1149    C$smtp.c$261$3$3
  0C:114A    A$smtp$3880
  0C:114D    A$smtp$3881
  0C:114F    A$smtp$3882
  0C:1150    A$smtp$3883
  0C:1151    A$smtp$3884
  0C:1153    A$smtp$3885
  0C:1154    A$smtp$3887
  0C:1157    A$smtp$3888
  0C:115A    A$smtp$3889
  0C:115D    A$smtp$3890
  0C:115F    A$smtp$3891
  0C:1161    A$smtp$3892
  0C:1164    A$smtp$3893
  0C:1166    A$smtp$3894
  0C:1167    A$smtp$3895
  0C:1168    A$smtp$3896
  0C:116A    A$smtp$3897
  0C:116B    A$smtp$3898
  0C:116C    A$smtp$3899
  0C:116E    A$smtp$3900
  0C:116F    A$smtp$3901
  0C:1172    A$smtp$3902
  0C:1173    A$smtp$3903
  0C:1174    A$smtp$3904
  0C:1175    A$smtp$3905
  0C:1176    A$smtp$3906
  0C:1177    A$smtp$3907
  0C:117A    A$smtp$3908
  0C:117D    A$smtp$3909
  0C:117F    A$smtp$3910
  0C:1181    A$smtp$3911
  0C:1183    A$smtp$3912
  0C:1186    A$smtp$3913
  0C:1188    A$smtp$3914
  0C:118A    A$smtp$3915
  0C:118C    A$smtp$3916
  0C:118D    A$smtp$3920
  0C:118D    C$smtp.c$262$3$3
  0C:1190    A$smtp$3921
  0C:1193    A$smtp$3925
  0C:1193    C$smtp.c$265$2$2
  0C:1196    A$smtp$3926
  0C:1197    A$smtp$3927
  0C:1198    A$smtp$3928
  0C:1199    A$smtp$3929
  0C:119A    A$smtp$3930
  0C:119D    A$smtp$3933
  0C:119D    C$smtp.c$266$2$2
  0C:119D    XFsmtp$smtp_thread$0$0
  0C:119E    A$smtp$3947
  0C:119E    C$smtp.c$269$2$2
  0C:119E    C$smtp.c$271$1$1
  0C:119E    G$smtp_appcall$0$0
  0C:119E    _smtp_appcall
  0C:11A1    A$smtp$3948
  0C:11A2    A$smtp$3949
  0C:11A3    A$smtp$3950
  0C:11A6    A$smtp$3953
  0C:11A6    C$smtp.c$272$2$2
  0C:11A9    A$smtp$3954
  0C:11AA    A$smtp$3955
  0C:11AB    A$smtp$3958
  0C:11AB    C$smtp.c$273$2$2
  0C:11AC    A$smtp$3962
  0C:11AC    C$smtp.c$275$1$1
  0C:11AD    A$smtp$3963
  0C:11B0    A$smtp$3964
  0C:11B1    A$smtp$3965
  0C:11B4    A$smtp$3969
  0C:11B4    C$smtp.c$276$2$3
  0C:11B7    A$smtp$3970
  0C:11B8    A$smtp$3971
  0C:11B9    A$smtp$3974
  0C:11B9    C$smtp.c$277$2$3
  0C:11BC    A$smtp$3977
  0C:11BC    C$smtp.c$278$2$3
  0C:11BF    A$smtp$3983
  0C:11BF    C$smtp.c$280$1$1
  0C:11BF    C$smtp.c$281$1$1
  0C:11BF    XG$smtp_appcall$0$0
  0C:11C2    A$smtp$3997
  0C:11C2    C$smtp.c$295$1$1
  0C:11C2    G$smtp_configure$0$0
  0C:11C2    _smtp_configure
  0C:11C4    A$smtp$3998
  0C:11C6    A$smtp$3999
  0C:11C8    A$smtp$4000
  0C:11CB    A$smtp$4001
  0C:11CC    A$smtp$4002
  0C:11CD    A$smtp$4003
  0C:11CE    A$smtp$4004
  0C:11CF    A$smtp$4005
  0C:11D0    A$smtp$4006
  0C:11D1    A$smtp$4007
  0C:11D2    A$smtp$4010
  0C:11D2    C$smtp.c$297$1$1
  0C:11D5    A$smtp$4011
  0C:11D6    A$smtp$4012
  0C:11D7    A$smtp$4013
  0C:11D8    A$smtp$4014
  0C:11D9    A$smtp$4015
  0C:11DA    A$smtp$4016
  0C:11DB    A$smtp$4017
  0C:11DC    A$smtp$4018
  0C:11DD    A$smtp$4019
  0C:11E0    A$smtp$4020
  0C:11E1    A$smtp$4021
  0C:11E2    A$smtp$4022
  0C:11E3    A$smtp$4023
  0C:11E4    A$smtp$4024
  0C:11E5    A$smtp$4025
  0C:11E6    A$smtp$4026
  0C:11E7    A$smtp$4027
  0C:11E8    A$smtp$4030
  0C:11E8    C$smtp.c$298$2$2
  0C:11EB    A$smtp$4031
  0C:11EC    A$smtp$4032
  0C:11ED    A$smtp$4033
  0C:11EE    A$smtp$4034
  0C:11EF    A$smtp$4035
  0C:11F0    A$smtp$4036
  0C:11F1    A$smtp$4037
  0C:11F2    A$smtp$4038
  0C:11F3    A$smtp$4039
  0C:11F5    A$smtp$4040
  0C:11F7    A$smtp$4041
  0C:11F9    A$smtp$4042
  0C:11FC    A$smtp$4043
  0C:11FD    A$smtp$4044
  0C:11FE    A$smtp$4045
  0C:1201    A$smtp$4046
  0C:1202    A$smtp$4047
  0C:1205    A$smtp$4048
  0C:1206    A$smtp$4049
  0C:1207    A$smtp$4050
  0C:1208    A$smtp$4051
  0C:1209    A$smtp$4052
  0C:120A    A$smtp$4053
  0C:120C    A$smtp$4054
  0C:120D    A$smtp$4055
  0C:120E    A$smtp$4056
  0C:120F    A$smtp$4057
  0C:1210    A$smtp$4058
  0C:1211    A$smtp$4059
  0C:1213    A$smtp$4060
  0C:1215    A$smtp$4061
  0C:1217    A$smtp$4062
  0C:121A    A$smtp$4063
  0C:121B    A$smtp$4064
  0C:121C    A$smtp$4065
  0C:121F    A$smtp$4066
  0C:1220    A$smtp$4067
  0C:1223    A$smtp$4068
  0C:1226    A$smtp$4069
  0C:1227    A$smtp$4070
  0C:122A    A$smtp$4071
  0C:122B    A$smtp$4072
  0C:122C    A$smtp$4075
  0C:122C    C$smtp.c$299$1$1
  0C:122C    XG$smtp_configure$0$0
  0C:122F    A$smtp$4094
  0C:122F    C$smtp.c$312$1$1
  0C:122F    G$smtp_send$0$0
  0C:122F    _smtp_send
  0C:1231    A$smtp$4095
  0C:1233    A$smtp$4096
  0C:1235    A$smtp$4097
  0C:1238    A$smtp$4098
  0C:1239    A$smtp$4099
  0C:123A    A$smtp$4100
  0C:123B    A$smtp$4101
  0C:123C    A$smtp$4102
  0C:123D    A$smtp$4103
  0C:123E    A$smtp$4104
  0C:123F    A$smtp$4107
  0C:123F    C$smtp.c$318$1$1
  0C:1242    A$smtp$4108
  0C:1243    A$smtp$4109
  0C:1244    A$smtp$4110
  0C:1245    A$smtp$4111
  0C:1246    A$smtp$4112
  0C:1247    A$smtp$4113
  0C:1249    A$smtp$4114
  0C:124B    A$smtp$4115
  0C:124D    A$smtp$4116
  0C:124F    A$smtp$4117
  0C:1251    A$smtp$4118
  0C:1254    A$smtp$4119
  0C:1256    A$smtp$4120
  0C:1258    A$smtp$4121
  0C:125B    A$smtp$4122
  0C:125C    A$smtp$4123
  0C:125D    A$smtp$4124
  0C:125E    A$smtp$4125
  0C:125F    A$smtp$4126
  0C:1260    A$smtp$4127
  0C:1263    A$smtp$4128
  0C:1266    A$smtp$4129
  0C:1268    A$smtp$4130
  0C:126A    A$smtp$4131
  0C:126C    A$smtp$4132
  0C:126F    A$smtp$4133
  0C:1271    A$smtp$4134
  0C:1273    A$smtp$4135
  0C:1275    A$smtp$4138
  0C:1275    C$smtp.c$319$1$1
  0C:1278    A$smtp$4139
  0C:127B    A$smtp$4140
  0C:127E    A$smtp$4143
  0C:127E    C$smtp.c$321$2$2
  0C:1281    A$smtp$4144
  0C:1282    A$smtp$4148
  0C:1282    C$smtp.c$324$1$1
  0C:1285    A$smtp$4149
  0C:1287    A$smtp$4150
  0C:1288    A$smtp$4153
  0C:1288    C$smtp.c$325$1$1
  0C:128B    A$smtp$4154
  0C:128C    A$smtp$4155
  0C:128D    A$smtp$4156
  0C:128E    A$smtp$4157
  0C:128F    A$smtp$4158
  0C:1290    A$smtp$4159
  0C:1291    A$smtp$4160
  0C:1292    A$smtp$4161
  0C:1293    A$smtp$4162
  0C:1296    A$smtp$4163
  0C:1297    A$smtp$4164
  0C:1298    A$smtp$4165
  0C:1299    A$smtp$4166
  0C:129A    A$smtp$4167
  0C:129B    A$smtp$4168
  0C:129C    A$smtp$4169
  0C:129D    A$smtp$4170
  0C:129E    A$smtp$4173
  0C:129E    C$smtp.c$326$1$1
  0C:12A1    A$smtp$4174
  0C:12A2    A$smtp$4175
  0C:12A3    A$smtp$4176
  0C:12A4    A$smtp$4177
  0C:12A5    A$smtp$4178
  0C:12A6    A$smtp$4179
  0C:12A7    A$smtp$4180
  0C:12A8    A$smtp$4181
  0C:12A9    A$smtp$4182
  0C:12AC    A$smtp$4183
  0C:12AD    A$smtp$4184
  0C:12AE    A$smtp$4185
  0C:12AF    A$smtp$4186
  0C:12B0    A$smtp$4187
  0C:12B1    A$smtp$4188
  0C:12B2    A$smtp$4189
  0C:12B3    A$smtp$4190
  0C:12B4    A$smtp$4193
  0C:12B4    C$smtp.c$327$1$1
  0C:12B7    A$smtp$4194
  0C:12B8    A$smtp$4195
  0C:12B9    A$smtp$4196
  0C:12BA    A$smtp$4197
  0C:12BB    A$smtp$4198
  0C:12BC    A$smtp$4199
  0C:12BD    A$smtp$4200
  0C:12BE    A$smtp$4201
  0C:12BF    A$smtp$4202
  0C:12C2    A$smtp$4203
  0C:12C3    A$smtp$4204
  0C:12C4    A$smtp$4205
  0C:12C5    A$smtp$4206
  0C:12C6    A$smtp$4207
  0C:12C7    A$smtp$4208
  0C:12C8    A$smtp$4209
  0C:12C9    A$smtp$4210
  0C:12CA    A$smtp$4213
  0C:12CA    C$smtp.c$328$1$1
  0C:12CD    A$smtp$4214
  0C:12CE    A$smtp$4215
  0C:12CF    A$smtp$4216
  0C:12D0    A$smtp$4217
  0C:12D1    A$smtp$4218
  0C:12D2    A$smtp$4219
  0C:12D3    A$smtp$4220
  0C:12D4    A$smtp$4221
  0C:12D5    A$smtp$4222
  0C:12D8    A$smtp$4223
  0C:12D9    A$smtp$4224
  0C:12DA    A$smtp$4225
  0C:12DB    A$smtp$4226
  0C:12DC    A$smtp$4227
  0C:12DD    A$smtp$4228
  0C:12DE    A$smtp$4229
  0C:12DF    A$smtp$4230
  0C:12E0    A$smtp$4233
  0C:12E0    C$smtp.c$329$1$1
  0C:12E3    A$smtp$4234
  0C:12E4    A$smtp$4235
  0C:12E5    A$smtp$4236
  0C:12E6    A$smtp$4237
  0C:12E7    A$smtp$4238
  0C:12E8    A$smtp$4239
  0C:12E9    A$smtp$4240
  0C:12EA    A$smtp$4241
  0C:12EB    A$smtp$4242
  0C:12EE    A$smtp$4243
  0C:12EF    A$smtp$4244
  0C:12F0    A$smtp$4245
  0C:12F1    A$smtp$4246
  0C:12F2    A$smtp$4247
  0C:12F3    A$smtp$4248
  0C:12F4    A$smtp$4249
  0C:12F5    A$smtp$4250
  0C:12F6    A$smtp$4253
  0C:12F6    C$smtp.c$330$1$1
  0C:12F9    A$smtp$4254
  0C:12FA    A$smtp$4255
  0C:12FB    A$smtp$4256
  0C:12FC    A$smtp$4257
  0C:12FD    A$smtp$4258
  0C:12FE    A$smtp$4259
  0C:1301    A$smtp$4260
  0C:1302    A$smtp$4261
  0C:1303    A$smtp$4262
  0C:1304    A$smtp$4263
  0C:1305    A$smtp$4264
  0C:1306    A$smtp$4267
  0C:1306    C$smtp.c$332$1$1
  0C:1309    A$smtp$4268
  0C:130B    A$smtp$4269
  0C:130C    A$smtp$4270
  0C:130D    A$smtp$4271
  0C:130F    A$smtp$4272
  0C:1310    A$smtp$4273
  0C:1311    A$smtp$4274
  0C:1312    A$smtp$4275
  0C:1313    A$smtp$4276
  0C:1316    A$smtp$4277
  0C:1318    A$smtp$4278
  0C:1319    A$smtp$4279
  0C:131A    A$smtp$4280
  0C:131B    A$smtp$4281
  0C:131C    A$smtp$4282
  0C:131F    A$smtp$4283
  0C:1322    A$smtp$4284
  0C:1324    A$smtp$4285
  0C:1326    A$smtp$4286
  0C:1328    A$smtp$4287
  0C:132B    A$smtp$4290
  0C:132B    C$smtp.c$334$1$1
  0C:132E    A$smtp$4293
  0C:132E    C$smtp.c$335$1$1
  0C:132E    XG$smtp_send$0$0
  0C:132F    A$smtp$4308
  0C:132F    C$smtp.c$338$1$1
  0C:132F    C$smtp.c$344$1$1
  0C:132F    G$smtp_init$0$0
  0C:132F    _smtp_init
  0C:1332    A$smtp$4309
  0C:1333    A$smtp$4310
  0C:1334    A$smtp$4311
  0C:1335    A$smtp$4312
  0C:1336    A$smtp$4313
  0C:1337    A$smtp$4314
  0C:1339    A$smtp$4315
  0C:133B    A$smtp$4316
  0C:133D    A$smtp$4317
  0C:133F    A$smtp$4318
  0C:1341    A$smtp$4319
  0C:1344    A$smtp$4320
  0C:1346    A$smtp$4321
  0C:1348    A$smtp$4324
  0C:1348    C$smtp.c$342$1$1
  0C:1349    A$smtp$4325
  0C:134B    A$smtp$4326
  0C:134D    A$smtp$4327
  0C:134F    A$smtp$4328
  0C:1350    A$smtp$4329
  0C:1352    A$smtp$4330
  0C:1355    A$smtp$4331
  0C:1358    A$smtp$4332
  0C:135A    A$smtp$4333
  0C:135C    A$smtp$4334
  0C:135E    A$smtp$4335
  0C:1360    A$smtp$4338
  0C:1360    C$smtp.c$347$1$1
  0C:1361    A$smtp$4339
  0C:1363    A$smtp$4342
  0C:1363    C$smtp.c$354$2$3
  0C:1366    A$smtp$4343
  0C:1367    A$smtp$4344
  0C:1368    A$smtp$4348
  0C:1368    C$smtp.c$356$1$1
  0C:1368    XG$smtp_init$0$0
  0C:1369    A$base64$127
  0C:1369    C$base64.c$219$0$0
  0C:1369    G$encodeblock64$0$0
  0C:1369    _encodeblock64
  0C:136B    A$base64$128
  0C:136E    A$base64$129
  0C:1370    A$base64$130
  0C:1372    A$base64$131
  0C:1374    A$base64$132
  0C:1376    A$base64$133
  0C:1378    A$base64$134
  0C:137A    A$base64$137
  0C:137A    C$base64.c$221$1$1
  0C:137C    A$base64$138
  0C:137E    A$base64$139
  0C:137F    A$base64$140
  0C:1381    A$base64$141
  0C:1382    A$base64$142
  0C:1384    A$base64$143
  0C:1385    A$base64$144
  0C:1387    A$base64$145
  0C:1389    A$base64$146
  0C:138A    A$base64$147
  0C:138C    A$base64$148
  0C:138D    A$base64$149
  0C:138F    A$base64$150
  0C:1390    A$base64$151
  0C:1392    A$base64$152
  0C:1395    A$base64$153
  0C:1396    A$base64$154
  0C:1397    A$base64$155
  0C:1398    A$base64$156
  0C:139A    A$base64$157
  0C:139D    A$base64$158
  0C:139E    A$base64$159
  0C:13A0    A$base64$160
  0C:13A2    A$base64$161
  0C:13A4    A$base64$162
  0C:13A7    A$base64$165
  0C:13A7    C$base64.c$222$1$1
  0C:13A9    A$base64$166
  0C:13AB    A$base64$167
  0C:13AC    A$base64$168
  0C:13AE    A$base64$169
  0C:13AF    A$base64$170
  0C:13B0    A$base64$171
  0C:13B1    A$base64$172
  0C:13B2    A$base64$173
  0C:13B3    A$base64$174
  0C:13B4    A$base64$175
  0C:13B5    A$base64$176
  0C:13B7    A$base64$177
  0C:13BA    A$base64$178
  0C:13BC    A$base64$179
  0C:13BE    A$base64$180
  0C:13BF    A$base64$181
  0C:13C0    A$base64$182
  0C:13C1    A$base64$183
  0C:13C3    A$base64$184
  0C:13C4    A$base64$185
  0C:13C6    A$base64$186
  0C:13C7    A$base64$187
  0C:13C9    A$base64$188
  0C:13CA    A$base64$189
  0C:13CB    A$base64$190
  0C:13CC    A$base64$191
  0C:13CD    A$base64$192
  0C:13CE    A$base64$193
  0C:13CF    A$base64$194
  0C:13D0    A$base64$195
  0C:13D2    A$base64$196
  0C:13D4    A$base64$197
  0C:13D6    A$base64$198
  0C:13D8    A$base64$199
  0C:13DB    A$base64$200
  0C:13DC    A$base64$201
  0C:13DE    A$base64$202
  0C:13DF    A$base64$203
  0C:13E0    A$base64$204
  0C:13E2    A$base64$205
  0C:13E3    A$base64$206
  0C:13E5    A$base64$207
  0C:13E7    A$base64$208
  0C:13E8    A$base64$209
  0C:13E9    A$base64$210
  0C:13EA    A$base64$211
  0C:13ED    A$base64$212
  0C:13EE    A$base64$213
  0C:13EF    A$base64$214
  0C:13F1    A$base64$215
  0C:13F3    A$base64$216
  0C:13F4    A$base64$217
  0C:13F6    A$base64$218
  0C:13F7    A$base64$219
  0C:13F9    A$base64$220
  0C:13FA    A$base64$221
  0C:13FC    A$base64$222
  0C:13FD    A$base64$223
  0C:1400    A$base64$226
  0C:1400    C$base64.c$223$1$1
  0C:1402    A$base64$227
  0C:1404    A$base64$228
  0C:1405    A$base64$229
  0C:1407    A$base64$230
  0C:1408    A$base64$231
  0C:1409    A$base64$232
  0C:140A    A$base64$233
  0C:140B    A$base64$234
  0C:140C    A$base64$235
  0C:140D    A$base64$236
  0C:140E    A$base64$237
  0C:1410    A$base64$238
  0C:1412    A$base64$239
  0C:1414    A$base64$240
  0C:1415    A$base64$241
  0C:1416    A$base64$242
  0C:1418    A$base64$243
  0C:1419    A$base64$244
  0C:141B    A$base64$245
  0C:141C    A$base64$246
  0C:141E    A$base64$247
  0C:1421    A$base64$248
  0C:1423    A$base64$249
  0C:1425    A$base64$250
  0C:1427    A$base64$251
  0C:1429    A$base64$252
  0C:142B    A$base64$253
  0C:142E    A$base64$254
  0C:142F    A$base64$255
  0C:1430    A$base64$256
  0C:1432    A$base64$257
  0C:1433    A$base64$258
  0C:1435    A$base64$259
  0C:1436    A$base64$260
  0C:1438    A$base64$261
  0C:1439    A$base64$262
  0C:143A    A$base64$263
  0C:143B    A$base64$264
  0C:143C    A$base64$265
  0C:143D    A$base64$266
  0C:143E    A$base64$267
  0C:143F    A$base64$268
  0C:1441    A$base64$269
  0C:1443    A$base64$270
  0C:1445    A$base64$271
  0C:1447    A$base64$272
  0C:144A    A$base64$273
  0C:144C    A$base64$274
  0C:144D    A$base64$275
  0C:144E    A$base64$276
  0C:1450    A$base64$277
  0C:1451    A$base64$278
  0C:1452    A$base64$279
  0C:1455    A$base64$280
  0C:1456    A$base64$281
  0C:1457    A$base64$282
  0C:1459    A$base64$283
  0C:145B    A$base64$284
  0C:145D    A$base64$285
  0C:145F    A$base64$287
  0C:1461    A$base64$289
  0C:1463    A$base64$290
  0C:1465    A$base64$291
  0C:1466    A$base64$292
  0C:1468    A$base64$293
  0C:1469    A$base64$294
  0C:146B    A$base64$295
  0C:146C    A$base64$296
  0C:146E    A$base64$297
  0C:146F    A$base64$298
  0C:1472    A$base64$301
  0C:1472    C$base64.c$224$1$1
  0C:1474    A$base64$302
  0C:1475    A$base64$303
  0C:1476    A$base64$304
  0C:1477    A$base64$305
  0C:1478    A$base64$306
  0C:1479    A$base64$307
  0C:147B    A$base64$308
  0C:147D    A$base64$309
  0C:147F    A$base64$310
  0C:1480    A$base64$311
  0C:1481    A$base64$312
  0C:1483    A$base64$313
  0C:1484    A$base64$314
  0C:1486    A$base64$315
  0C:1487    A$base64$316
  0C:1489    A$base64$317
  0C:148C    A$base64$318
  0C:148E    A$base64$319
  0C:1490    A$base64$320
  0C:1492    A$base64$321
  0C:1493    A$base64$322
  0C:1495    A$base64$323
  0C:1496    A$base64$324
  0C:1497    A$base64$325
  0C:1498    A$base64$326
  0C:1499    A$base64$327
  0C:149A    A$base64$328
  0C:149B    A$base64$329
  0C:149C    A$base64$330
  0C:149E    A$base64$331
  0C:14A0    A$base64$332
  0C:14A2    A$base64$333
  0C:14A4    A$base64$334
  0C:14A7    A$base64$335
  0C:14A8    A$base64$336
  0C:14AA    A$base64$337
  0C:14AB    A$base64$338
  0C:14AE    A$base64$339
  0C:14AF    A$base64$340
  0C:14B0    A$base64$341
  0C:14B2    A$base64$343
  0C:14B4    A$base64$345
  0C:14B6    A$base64$346
  0C:14B8    A$base64$347
  0C:14BA    A$base64$348
  0C:14BB    A$base64$349
  0C:14BE    A$base64$350
  0C:14C1    A$base64$351
  0C:14C3    A$base64$354
  0C:14C3    C$base64.c$225$1$1
  0C:14C3    XG$encodeblock64$0$0
  0C:14C4    A$base64$372
  0C:14C4    C$base64.c$232$1$1
  0C:14C4    G$encode64$0$0
  0C:14C4    _encode64
  0C:14C6    A$base64$373
  0C:14C8    A$base64$374
  0C:14CA    A$base64$375
  0C:14CD    A$base64$376
  0C:14CE    A$base64$377
  0C:14CF    A$base64$378
  0C:14D0    A$base64$379
  0C:14D1    A$base64$380
  0C:14D2    A$base64$381
  0C:14D3    A$base64$382
  0C:14D4    A$base64$386
  0C:14D4    C$base64.c$237$3$3
  0C:14D7    A$base64$387
  0C:14D8    A$base64$388
  0C:14D9    A$base64$389
  0C:14DA    A$base64$390
  0C:14DB    A$base64$391
  0C:14DC    A$base64$392
  0C:14DD    A$base64$393
  0C:14DE    A$base64$394
  0C:14DF    A$base64$395
  0C:14E1    A$base64$396
  0C:14E3    A$base64$397
  0C:14E5    A$base64$398
  0C:14E8    A$base64$399
  0C:14EA    A$base64$400
  0C:14ED    A$base64$404
  0C:14ED    C$base64.c$240$1$1
  0C:14EF    A$base64$405
  0C:14F1    A$base64$406
  0C:14F3    A$base64$407
  0C:14F5    A$base64$409
  0C:14F6    A$base64$410
  0C:14F7    A$base64$411
  0C:14F9    A$base64$412
  0C:14FA    A$base64$413
  0C:14FC    A$base64$414
  0C:14FE    A$base64$415
  0C:1500    A$base64$418
  0C:1500    C$base64.c$241$1$1
  0C:1502    A$base64$419
  0C:1504    A$base64$420
  0C:1505    A$base64$421
  0C:1507    A$base64$422
  0C:1508    A$base64$423
  0C:1509    A$base64$424
  0C:150B    A$base64$425
  0C:150C    A$base64$426
  0C:150E    A$base64$427
  0C:1510    A$base64$428
  0C:1512    A$base64$429
  0C:1515    A$base64$430
  0C:1516    A$base64$431
  0C:1518    A$base64$432
  0C:151A    A$base64$433
  0C:151B    A$base64$436
  0C:151B    C$base64.c$242$1$1
  0C:151C    A$base64$437
  0C:151E    A$base64$438
  0C:1520    A$base64$439
  0C:1522    A$base64$442
  0C:1522    C$base64.c$243$4$4
  0C:1523    A$base64$443
  0C:1526    A$base64$444
  0C:1527    A$base64$446
  0C:152A    A$base64$447
  0C:152B    A$base64$448
  0C:152C    A$base64$449
  0C:152D    A$base64$450
  0C:152E    A$base64$451
  0C:152F    A$base64$452
  0C:1530    A$base64$453
  0C:1531    A$base64$454
  0C:1532    A$base64$457
  0C:1532    C$base64.c$244$4$4
  0C:1533    A$base64$458
  0C:1536    A$base64$459
  0C:1537    A$base64$464
  0C:1537    C$base64.c$240$2$2
  0C:1538    A$base64$465
  0C:153B    A$base64$466
  0C:153C    A$base64$467
  0C:153E    A$base64$469
  0C:1541    A$base64$470
  0C:1542    A$base64$471
  0C:1543    A$base64$472
  0C:1544    A$base64$473
  0C:1545    A$base64$474
  0C:1546    A$base64$475
  0C:1547    A$base64$476
  0C:1548    A$base64$477
  0C:1549    A$base64$480
  0C:1549    C$base64.c$247$2$2
  0C:154A    A$base64$481
  0C:154B    A$base64$482
  0C:154D    A$base64$485
  0C:154D    C$base64.c$248$3$5
  0C:154F    A$base64$486
  0C:1551    A$base64$487
  0C:1553    A$base64$488
  0C:1555    A$base64$489
  0C:1557    A$base64$490
  0C:1559    A$base64$491
  0C:155A    A$base64$492
  0C:155C    A$base64$493
  0C:155F    A$base64$494
  0C:1562    A$base64$495
  0C:1565    A$base64$496
  0C:1567    A$base64$497
  0C:1569    A$base64$498
  0C:156B    A$base64$501
  0C:156B    C$base64.c$249$1$1
  0C:156E    A$base64$502
  0C:156F    A$base64$503
  0C:1570    A$base64$504
  0C:1571    A$base64$505
  0C:1572    A$base64$506
  0C:1573    A$base64$507
  0C:1574    A$base64$508
  0C:1575    A$base64$509
  0C:1576    A$base64$510
  0C:1578    A$base64$511
  0C:157A    A$base64$513
  0C:157B    A$base64$514
  0C:157C    A$base64$515
  0C:157E    A$base64$516
  0C:157F    A$base64$517
  0C:1581    A$base64$518
  0C:1583    A$base64$519
  0C:1585    A$base64$520
  0C:1588    A$base64$524
  0C:1588    C$base64.c$250$4$6
  0C:1589    A$base64$525
  0C:158B    A$base64$526
  0C:158D    A$base64$527
  0C:158E    A$base64$528
  0C:1590    A$base64$529
  0C:1592    A$base64$530
  0C:1593    A$base64$531
  0C:1594    A$base64$532
  0C:1596    A$base64$533
  0C:1598    A$base64$534
  0C:159A    A$base64$535
  0C:159D    A$base64$536
  0C:159E    A$base64$537
  0C:15A0    A$base64$538
  0C:15A2    A$base64$539
  0C:15A5    A$base64$540
  0C:15A6    A$base64$541
  0C:15A7    A$base64$542
  0C:15A8    A$base64$543
  0C:15A9    A$base64$544
  0C:15AA    A$base64$545
  0C:15AB    A$base64$546
  0C:15AC    A$base64$547
  0C:15AD    A$base64$550
  0C:15AD    C$base64.c$249$3$5
  0C:15AE    A$base64$551
  0C:15B1    A$base64$552
  0C:15B2    A$base64$553
  0C:15B4    A$base64$557
  0C:15B4    C$base64.c$254$1$1
  0C:15B7    A$base64$558
  0C:15B8    A$base64$559
  0C:15B9    A$base64$560
  0C:15BA    A$base64$561
  0C:15BB    A$base64$562
  0C:15BC    A$base64$563
  0C:15BD    A$base64$564
  0C:15BE    A$base64$565
  0C:15BF    A$base64$566
  0C:15C1    A$base64$567
  0C:15C3    A$base64$568
  0C:15C5    A$base64$569
  0C:15C6    A$base64$572
  0C:15C6    C$base64.c$255$1$1
  0C:15C6    XG$encode64$0$0
  0C:15C9    A$httpd-cgi$1266
  0C:15C9    C$httpd_cgi.c$85$0$0
  0C:15C9    Fhttpd_cgi$nullfunction$0$0
  0C:15CB    A$httpd-cgi$1267
  0C:15CE    A$httpd-cgi$1268
  0C:15D0    A$httpd-cgi$1269
  0C:15D2    A$httpd-cgi$1270
  0C:15D4    A$httpd-cgi$1273
  0C:15D4    C$httpd_cgi.c$89$2$2
  0C:15D6    A$httpd-cgi$1274
  0C:15D7    A$httpd-cgi$1275
  0C:15D8    A$httpd-cgi$1276
  0C:15D9    A$httpd-cgi$1277
  0C:15DA    A$httpd-cgi$1278
  0C:15DB    A$httpd-cgi$1279
  0C:15DD    A$httpd-cgi$1280
  0C:15DF    A$httpd-cgi$1281
  0C:15E1    A$httpd-cgi$1282
  0C:15E4    A$httpd-cgi$1283
  0C:15E5    A$httpd-cgi$1284
  0C:15E6    A$httpd-cgi$1285
  0C:15E9    A$httpd-cgi$1286
  0C:15EA    A$httpd-cgi$1287
  0C:15ED    A$httpd-cgi$1288
  0C:15F0    A$httpd-cgi$1291
  0C:15F0    C$httpd_cgi.c$90$3$3
  0C:15F2    A$httpd-cgi$1292
  0C:15F4    A$httpd-cgi$1293
  0C:15F5    A$httpd-cgi$1294
  0C:15F7    A$httpd-cgi$1295
  0C:15F8    A$httpd-cgi$1296
  0C:15FA    A$httpd-cgi$1297
  0C:15FB    A$httpd-cgi$1298
  0C:15FD    A$httpd-cgi$1299
  0C:15FF    A$httpd-cgi$1300
  0C:1601    A$httpd-cgi$1301
  0C:1603    A$httpd-cgi$1302
  0C:1606    A$httpd-cgi$1303
  0C:1608    A$httpd-cgi$1306
  0C:1608    C$httpd_cgi.c$91$3$3
  0C:160A    A$httpd-cgi$1310
  0C:160A    C$httpd_cgi.c$92$2$2
  0C:160C    A$httpd-cgi$1311
  0C:160E    A$httpd-cgi$1312
  0C:1610    A$httpd-cgi$1313
  0C:1611    A$httpd-cgi$1314
  0C:1614    A$httpd-cgi$1315
  0C:1615    A$httpd-cgi$1316
  0C:1616    A$httpd-cgi$1317
  0C:1619    A$httpd-cgi$1318
  0C:161C    A$httpd-cgi$1319
  0C:161E    A$httpd-cgi$1322
  0C:161E    C$httpd_cgi.c$93$2$2
  0C:161E    XFhttpd_cgi$nullfunction$0$0
  0C:161F    A$httpd-cgi$1337
  0C:161F    C$httpd_cgi.c$96$2$2
  0C:161F    G$httpd_cgi$0$0
  0C:161F    _httpd_cgi
  0C:1621    A$httpd-cgi$1338
  0C:1624    A$httpd-cgi$1339
  0C:1626    A$httpd-cgi$1340
  0C:1628    A$httpd-cgi$1341
  0C:162A    A$httpd-cgi$1342
  0C:162C    A$httpd-cgi$1343
  0C:162E    A$httpd-cgi$1344
  0C:1630    A$httpd-cgi$1347
  0C:1632    A$httpd-cgi$1348
  0C:1634    A$httpd-cgi$1349
  0C:1635    A$httpd-cgi$1350
  0C:1637    A$httpd-cgi$1351
  0C:1638    A$httpd-cgi$1352
  0C:163A    A$httpd-cgi$1353
  0C:163B    A$httpd-cgi$1354
  0C:163D    A$httpd-cgi$1355
  0C:163F    A$httpd-cgi$1356
  0C:1641    A$httpd-cgi$1357
  0C:1642    A$httpd-cgi$1358
  0C:1644    A$httpd-cgi$1359
  0C:1645    A$httpd-cgi$1360
  0C:1647    A$httpd-cgi$1361
  0C:1648    A$httpd-cgi$1362
  0C:164A    A$httpd-cgi$1364
  0C:164C    A$httpd-cgi$1365
  0C:164E    A$httpd-cgi$1366
  0C:1650    A$httpd-cgi$1367
  0C:1653    A$httpd-cgi$1368
  0C:1654    A$httpd-cgi$1369
  0C:1655    A$httpd-cgi$1370
  0C:1658    A$httpd-cgi$1371
  0C:1659    A$httpd-cgi$1372
  0C:165A    A$httpd-cgi$1373
  0C:165D    A$httpd-cgi$1374
  0C:165E    A$httpd-cgi$1375
  0C:165F    A$httpd-cgi$1376
  0C:1662    A$httpd-cgi$1377
  0C:1665    A$httpd-cgi$1378
  0C:1668    A$httpd-cgi$1379
  0C:1669    A$httpd-cgi$1381
  0C:166B    A$httpd-cgi$1382
  0C:166E    A$httpd-cgi$1386
  0C:166E    C$httpd_cgi.c$102$1$1
  0C:1670    A$httpd-cgi$1387
  0C:1672    A$httpd-cgi$1388
  0C:1674    A$httpd-cgi$1389
  0C:1677    A$httpd-cgi$1390
  0C:1678    A$httpd-cgi$1391
  0C:1679    A$httpd-cgi$1392
  0C:167C    A$httpd-cgi$1393
  0C:167D    A$httpd-cgi$1394
  0C:167E    A$httpd-cgi$1395
  0C:1681    A$httpd-cgi$1396
  0C:1682    A$httpd-cgi$1397
  0C:1684    A$httpd-cgi$1398
  0C:1686    A$httpd-cgi$1399
  0C:1688    A$httpd-cgi$1400
  0C:168A    A$httpd-cgi$1401
  0C:168C    A$httpd-cgi$1402
  0C:168D    A$httpd-cgi$1403
  0C:1690    A$httpd-cgi$1404
  0C:1691    A$httpd-cgi$1405
  0C:1692    A$httpd-cgi$1406
  0C:1695    A$httpd-cgi$1407
  0C:1696    A$httpd-cgi$1408
  0C:1697    A$httpd-cgi$1409
  0C:1698    A$httpd-cgi$1410
  0C:169B    A$httpd-cgi$1411
  0C:169C    A$httpd-cgi$1412
  0C:169D    A$httpd-cgi$1413
  0C:169F    A$httpd-cgi$1414
  0C:16A1    A$httpd-cgi$1415
  0C:16A2    A$httpd-cgi$1416
  0C:16A4    A$httpd-cgi$1417
  0C:16A5    A$httpd-cgi$1418
  0C:16A7    A$httpd-cgi$1419
  0C:16A8    A$httpd-cgi$1420
  0C:16AA    A$httpd-cgi$1421
  0C:16AC    A$httpd-cgi$1422
  0C:16AE    A$httpd-cgi$1423
  0C:16B0    A$httpd-cgi$1424
  0C:16B3    A$httpd-cgi$1425
  0C:16B5    A$httpd-cgi$1426
  0C:16B7    A$httpd-cgi$1427
  0C:16B9    A$httpd-cgi$1428
  0C:16BA    A$httpd-cgi$1429
  0C:16BD    A$httpd-cgi$1430
  0C:16BE    A$httpd-cgi$1431
  0C:16BF    A$httpd-cgi$1432
  0C:16C0    A$httpd-cgi$1433
  0C:16C1    A$httpd-cgi$1434
  0C:16C2    A$httpd-cgi$1435
  0C:16C3    A$httpd-cgi$1436
  0C:16C4    A$httpd-cgi$1437
  0C:16C5    A$httpd-cgi$1438
  0C:16C6    A$httpd-cgi$1439
  0C:16C7    A$httpd-cgi$1440
  0C:16CA    A$httpd-cgi$1441
  0C:16CB    A$httpd-cgi$1442
  0C:16CC    A$httpd-cgi$1443
  0C:16CD    A$httpd-cgi$1444
  0C:16CE    A$httpd-cgi$1445
  0C:16CF    A$httpd-cgi$1446
  0C:16D1    A$httpd-cgi$1447
  0C:16D3    A$httpd-cgi$1448
  0C:16D4    A$httpd-cgi$1449
  0C:16D6    A$httpd-cgi$1450
  0C:16D7    A$httpd-cgi$1451
  0C:16D9    A$httpd-cgi$1452
  0C:16DA    A$httpd-cgi$1453
  0C:16DC    A$httpd-cgi$1454
  0C:16DF    A$httpd-cgi$1455
  0C:16E1    A$httpd-cgi$1456
  0C:16E4    A$httpd-cgi$1457
  0C:16E6    A$httpd-cgi$1458
  0C:16E8    A$httpd-cgi$1459
  0C:16EA    A$httpd-cgi$1460
  0C:16EC    A$httpd-cgi$1461
  0C:16EE    A$httpd-cgi$1464
  0C:16EE    C$httpd_cgi.c$103$3$3
  0C:16F0    A$httpd-cgi$1465
  0C:16F2    A$httpd-cgi$1466
  0C:16F3    A$httpd-cgi$1467
  0C:16F5    A$httpd-cgi$1468
  0C:16F6    A$httpd-cgi$1469
  0C:16F8    A$httpd-cgi$1470
  0C:16F9    A$httpd-cgi$1471
  0C:16FB    A$httpd-cgi$1472
  0C:16FE    A$httpd-cgi$1473
  0C:16FF    A$httpd-cgi$1474
  0C:1700    A$httpd-cgi$1475
  0C:1703    A$httpd-cgi$1476
  0C:1704    A$httpd-cgi$1477
  0C:1705    A$httpd-cgi$1478
  0C:1708    A$httpd-cgi$1479
  0C:1709    A$httpd-cgi$1480
  0C:170B    A$httpd-cgi$1481
  0C:170C    A$httpd-cgi$1482
  0C:170D    A$httpd-cgi$1483
  0C:170E    A$httpd-cgi$1484
  0C:170F    A$httpd-cgi$1485
  0C:1710    A$httpd-cgi$1486
  0C:1712    A$httpd-cgi$1487
  0C:1714    A$httpd-cgi$1488
  0C:1716    A$httpd-cgi$1489
  0C:1719    A$httpd-cgi$1490
  0C:171A    A$httpd-cgi$1491
  0C:171B    A$httpd-cgi$1492
  0C:171E    A$httpd-cgi$1493
  0C:171F    A$httpd-cgi$1494
  0C:1721    A$httpd-cgi$1495
  0C:1723    A$httpd-cgi$1496
  0C:1725    A$httpd-cgi$1500
  0C:1725    C$httpd_cgi.c$101$1$1
  0C:1727    A$httpd-cgi$1501
  0C:1728    A$httpd-cgi$1502
  0C:1729    A$httpd-cgi$1503
  0C:172A    A$httpd-cgi$1504
  0C:172B    A$httpd-cgi$1505
  0C:172C    A$httpd-cgi$1506
  0C:172E    A$httpd-cgi$1507
  0C:1730    A$httpd-cgi$1508
  0C:1731    A$httpd-cgi$1509
  0C:1733    A$httpd-cgi$1510
  0C:1734    A$httpd-cgi$1511
  0C:1736    A$httpd-cgi$1512
  0C:1737    A$httpd-cgi$1513
  0C:1739    A$httpd-cgi$1514
  0C:173C    A$httpd-cgi$1518
  0C:173C    C$httpd_cgi.c$106$1$1
  0C:173F    A$httpd-cgi$1520
  0C:1742    A$httpd-cgi$1521
  0C:1744    A$httpd-cgi$1524
  0C:1744    C$httpd_cgi.c$107$1$1
  0C:1744    XG$httpd_cgi$0$0
  0C:1745    A$httpd-cgi$1543
  0C:1745    C$httpd_cgi.c$110$1$1
  0C:1745    Fhttpd_cgi$get_temp$0$0
  0C:1747    A$httpd-cgi$1544
  0C:174A    A$httpd-cgi$1545
  0C:174C    A$httpd-cgi$1546
  0C:174E    A$httpd-cgi$1547
  0C:1750    A$httpd-cgi$1548
  0C:1752    A$httpd-cgi$1549
  0C:1754    A$httpd-cgi$1550
  0C:1756    A$httpd-cgi$1553
  0C:1756    C$httpd_cgi.c$112$1$1
  0C:1758    A$httpd-cgi$1554
  0C:175A    A$httpd-cgi$1555
  0C:175B    A$httpd-cgi$1556
  0C:175C    A$httpd-cgi$1557
  0C:175D    A$httpd-cgi$1558
  0C:175E    A$httpd-cgi$1559
  0C:175F    A$httpd-cgi$1562
  0C:175F    C$httpd_cgi.c$115$2$2
  0C:1761    A$httpd-cgi$1563
  0C:1762    A$httpd-cgi$1564
  0C:1764    A$httpd-cgi$1565
  0C:1765    A$httpd-cgi$1566
  0C:1766    A$httpd-cgi$1567
  0C:1767    A$httpd-cgi$1568
  0C:1768    A$httpd-cgi$1569
  0C:1769    A$httpd-cgi$1570
  0C:176A    A$httpd-cgi$1571
  0C:176B    A$httpd-cgi$1572
  0C:176D    A$httpd-cgi$1573
  0C:176F    A$httpd-cgi$1574
  0C:1771    A$httpd-cgi$1575
  0C:1773    A$httpd-cgi$1576
  0C:1776    A$httpd-cgi$1577
  0C:1777    A$httpd-cgi$1578
  0C:1778    A$httpd-cgi$1579
  0C:177B    A$httpd-cgi$1580
  0C:177C    A$httpd-cgi$1581
  0C:177F    A$httpd-cgi$1582
  0C:1782    A$httpd-cgi$1583
  0C:1784    A$httpd-cgi$1585
  0C:1787    A$httpd-cgi$1586
  0C:178A    A$httpd-cgi$1587
  0C:178D    A$httpd-cgi$1589
  0C:1790    A$httpd-cgi$1593
  0C:1790    C$httpd_cgi.c$117$2$2
  0C:1792    A$httpd-cgi$1594
  0C:1794    A$httpd-cgi$1595
  0C:1795    A$httpd-cgi$1596
  0C:1797    A$httpd-cgi$1597
  0C:1799    A$httpd-cgi$1598
  0C:179A    A$httpd-cgi$1599
  0C:179B    A$httpd-cgi$1600
  0C:179C    A$httpd-cgi$1601
  0C:179D    A$httpd-cgi$1602
  0C:179E    A$httpd-cgi$1603
  0C:179F    A$httpd-cgi$1604
  0C:17A0    A$httpd-cgi$1605
  0C:17A1    A$httpd-cgi$1606
  0C:17A2    A$httpd-cgi$1607
  0C:17A3    A$httpd-cgi$1608
  0C:17A4    A$httpd-cgi$1610
  0C:17A6    A$httpd-cgi$1611
  0C:17A8    A$httpd-cgi$1612
  0C:17A9    A$httpd-cgi$1613
  0C:17AB    A$httpd-cgi$1614
  0C:17AC    A$httpd-cgi$1615
  0C:17AE    A$httpd-cgi$1616
  0C:17AF    A$httpd-cgi$1617
  0C:17B1    A$httpd-cgi$1618
  0C:17B4    A$httpd-cgi$1619
  0C:17B5    A$httpd-cgi$1620
  0C:17B6    A$httpd-cgi$1621
  0C:17B9    A$httpd-cgi$1622
  0C:17BA    A$httpd-cgi$1624
  0C:17BC    A$httpd-cgi$1627
  0C:17BC    C$httpd_cgi.c$118$3$3
  0C:17BE    A$httpd-cgi$1628
  0C:17C0    A$httpd-cgi$1629
  0C:17C1    A$httpd-cgi$1630
  0C:17C2    A$httpd-cgi$1631
  0C:17C5    A$httpd-cgi$1632
  0C:17C6    A$httpd-cgi$1633
  0C:17C7    A$httpd-cgi$1635
  0C:17C9    A$httpd-cgi$1639
  0C:17C9    C$httpd_cgi.c$119$2$2
  0C:17CB    A$httpd-cgi$1640
  0C:17CD    A$httpd-cgi$1641
  0C:17CE    A$httpd-cgi$1642
  0C:17D0    A$httpd-cgi$1643
  0C:17D1    A$httpd-cgi$1644
  0C:17D2    A$httpd-cgi$1645
  0C:17D3    A$httpd-cgi$1646
  0C:17D4    A$httpd-cgi$1647
  0C:17D5    A$httpd-cgi$1648
  0C:17D6    A$httpd-cgi$1649
  0C:17D7    A$httpd-cgi$1650
  0C:17D9    A$httpd-cgi$1653
  0C:17D9    C$httpd_cgi.c$120$3$3
  0C:17DB    A$httpd-cgi$1654
  0C:17DD    A$httpd-cgi$1655
  0C:17DF    A$httpd-cgi$1656
  0C:17E1    A$httpd-cgi$1657
  0C:17E3    A$httpd-cgi$1658
  0C:17E5    A$httpd-cgi$1659
  0C:17E8    A$httpd-cgi$1660
  0C:17EA    A$httpd-cgi$1661
  0C:17EC    A$httpd-cgi$1662
  0C:17EE    A$httpd-cgi$1663
  0C:17F0    A$httpd-cgi$1664
  0C:17F2    A$httpd-cgi$1667
  0C:17F2    C$httpd_cgi.c$122$3$3
  0C:17F3    A$httpd-cgi$1668
  0C:17F4    A$httpd-cgi$1669
  0C:17F6    A$httpd-cgi$1670
  0C:17F9    A$httpd-cgi$1672
  0C:17FA    A$httpd-cgi$1673
  0C:17FC    A$httpd-cgi$1674
  0C:17FD    A$httpd-cgi$1675
  0C:17FF    A$httpd-cgi$1676
  0C:1801    A$httpd-cgi$1677
  0C:1804    A$httpd-cgi$1678
  0C:1806    A$httpd-cgi$1679
  0C:1808    A$httpd-cgi$1680
  0C:180B    A$httpd-cgi$1682
  0C:180C    A$httpd-cgi$1683
  0C:180D    A$httpd-cgi$1684
  0C:180E    A$httpd-cgi$1685
  0C:1811    A$httpd-cgi$1686
  0C:1812    A$httpd-cgi$1688
  0C:1815    A$httpd-cgi$1689
  0C:1818    A$httpd-cgi$1690
  0C:181B    A$httpd-cgi$1691
  0C:181E    A$httpd-cgi$1692
  0C:1821    A$httpd-cgi$1693
  0C:1824    A$httpd-cgi$1694
  0C:1827    A$httpd-cgi$1695
  0C:182A    A$httpd-cgi$1707
  0C:182A    C$httpd_cgi.c$124$4$4
  0C:182A    C$httpd_cgi.c$125$4$4
  0C:182A    C$httpd_cgi.c$126$4$4
  0C:182A    C$httpd_cgi.c$127$2$2
  0C:182C    A$httpd-cgi$1708
  0C:182E    A$httpd-cgi$1709
  0C:1830    A$httpd-cgi$1710
  0C:1832    A$httpd-cgi$1711
  0C:1835    A$httpd-cgi$1712
  0C:1837    A$httpd-cgi$1713
  0C:1839    A$httpd-cgi$1714
  0C:183B    A$httpd-cgi$1715
  0C:183D    A$httpd-cgi$1716
  0C:183F    A$httpd-cgi$1717
  0C:1841    A$httpd-cgi$1718
  0C:1843    A$httpd-cgi$1719
  0C:1844    A$httpd-cgi$1720
  0C:1846    A$httpd-cgi$1721
  0C:1847    A$httpd-cgi$1722
  0C:1849    A$httpd-cgi$1727
  0C:1849    C$httpd_cgi.c$128$2$2
  0C:1849    C$httpd_cgi.c$130$4$4
  0C:184B    A$httpd-cgi$1731
  0C:184B    C$httpd_cgi.c$131$2$2
  0C:184E    A$httpd-cgi$1732
  0C:184F    A$httpd-cgi$1733
  0C:1850    A$httpd-cgi$1734
  0C:1851    A$httpd-cgi$1735
  0C:1852    A$httpd-cgi$1736
  0C:1853    A$httpd-cgi$1737
  0C:1855    A$httpd-cgi$1738
  0C:1857    A$httpd-cgi$1739
  0C:1858    A$httpd-cgi$1740
  0C:185A    A$httpd-cgi$1741
  0C:185B    A$httpd-cgi$1742
  0C:185D    A$httpd-cgi$1747
  0C:185D    C$httpd_cgi.c$132$2$2
  0C:185D    C$httpd_cgi.c$134$4$4
  0C:185F    A$httpd-cgi$1751
  0C:185F    C$httpd_cgi.c$135$2$2
  0C:1862    A$httpd-cgi$1752
  0C:1863    A$httpd-cgi$1753
  0C:1864    A$httpd-cgi$1754
  0C:1865    A$httpd-cgi$1755
  0C:1866    A$httpd-cgi$1756
  0C:1867    A$httpd-cgi$1757
  0C:1869    A$httpd-cgi$1758
  0C:186B    A$httpd-cgi$1759
  0C:186C    A$httpd-cgi$1760
  0C:186E    A$httpd-cgi$1761
  0C:186F    A$httpd-cgi$1762
  0C:1871    A$httpd-cgi$1767
  0C:1871    C$httpd_cgi.c$136$2$2
  0C:1871    C$httpd_cgi.c$138$4$4
  0C:1873    A$httpd-cgi$1771
  0C:1873    C$httpd_cgi.c$139$2$2
  0C:1876    A$httpd-cgi$1772
  0C:1877    A$httpd-cgi$1773
  0C:1878    A$httpd-cgi$1774
  0C:1879    A$httpd-cgi$1775
  0C:187A    A$httpd-cgi$1776
  0C:187B    A$httpd-cgi$1777
  0C:187D    A$httpd-cgi$1778
  0C:187F    A$httpd-cgi$1779
  0C:1880    A$httpd-cgi$1780
  0C:1882    A$httpd-cgi$1781
  0C:1883    A$httpd-cgi$1782
  0C:1885    A$httpd-cgi$1787
  0C:1885    C$httpd_cgi.c$140$2$2
  0C:1885    C$httpd_cgi.c$142$4$4
  0C:1887    A$httpd-cgi$1791
  0C:1887    C$httpd_cgi.c$143$2$2
  0C:188A    A$httpd-cgi$1792
  0C:188B    A$httpd-cgi$1793
  0C:188C    A$httpd-cgi$1794
  0C:188D    A$httpd-cgi$1795
  0C:188E    A$httpd-cgi$1796
  0C:188F    A$httpd-cgi$1797
  0C:1891    A$httpd-cgi$1798
  0C:1893    A$httpd-cgi$1799
  0C:1894    A$httpd-cgi$1800
  0C:1896    A$httpd-cgi$1801
  0C:1897    A$httpd-cgi$1802
  0C:1899    A$httpd-cgi$1807
  0C:1899    C$httpd_cgi.c$144$2$2
  0C:1899    C$httpd_cgi.c$146$4$4
  0C:189B    A$httpd-cgi$1811
  0C:189B    C$httpd_cgi.c$147$4$4
  0C:189E    A$httpd-cgi$1812
  0C:189F    A$httpd-cgi$1813
  0C:18A0    A$httpd-cgi$1814
  0C:18A1    A$httpd-cgi$1815
  0C:18A2    A$httpd-cgi$1816
  0C:18A3    A$httpd-cgi$1817
  0C:18A5    A$httpd-cgi$1818
  0C:18A7    A$httpd-cgi$1819
  0C:18A8    A$httpd-cgi$1820
  0C:18AA    A$httpd-cgi$1821
  0C:18AB    A$httpd-cgi$1822
  0C:18AD    A$httpd-cgi$1828
  0C:18AD    C$httpd_cgi.c$149$3$3
  0C:18AD    C$httpd_cgi.c$151$2$2
  0C:18B0    A$httpd-cgi$1829
  0C:18B2    A$httpd-cgi$1830
  0C:18B3    A$httpd-cgi$1831
  0C:18B4    A$httpd-cgi$1832
  0C:18B5    A$httpd-cgi$1833
  0C:18B6    A$httpd-cgi$1834
  0C:18B8    A$httpd-cgi$1835
  0C:18BA    A$httpd-cgi$1836
  0C:18BB    A$httpd-cgi$1837
  0C:18BD    A$httpd-cgi$1838
  0C:18BE    A$httpd-cgi$1839
  0C:18C0    A$httpd-cgi$1840
  0C:18C2    A$httpd-cgi$1841
  0C:18C4    A$httpd-cgi$1842
  0C:18C6    A$httpd-cgi$1843
  0C:18C9    A$httpd-cgi$1844
  0C:18CC    A$httpd-cgi$1845
  0C:18CE    A$httpd-cgi$1846
  0C:18CF    A$httpd-cgi$1847
  0C:18D0    A$httpd-cgi$1848
  0C:18D1    A$httpd-cgi$1849
  0C:18D2    A$httpd-cgi$1850
  0C:18D3    A$httpd-cgi$1851
  0C:18D4    A$httpd-cgi$1852
  0C:18D6    A$httpd-cgi$1853
  0C:18D7    A$httpd-cgi$1854
  0C:18D9    A$httpd-cgi$1855
  0C:18DC    A$httpd-cgi$1856
  0C:18DE    A$httpd-cgi$1857
  0C:18DF    A$httpd-cgi$1858
  0C:18E0    A$httpd-cgi$1859
  0C:18E1    A$httpd-cgi$1860
  0C:18E2    A$httpd-cgi$1861
  0C:18E4    A$httpd-cgi$1862
  0C:18E6    A$httpd-cgi$1863
  0C:18E7    A$httpd-cgi$1864
  0C:18E9    A$httpd-cgi$1865
  0C:18EA    A$httpd-cgi$1866
  0C:18EC    A$httpd-cgi$1867
  0C:18EF    A$httpd-cgi$1868
  0C:18F1    A$httpd-cgi$1869
  0C:18F3    A$httpd-cgi$1870
  0C:18F5    A$httpd-cgi$1871
  0C:18F7    A$httpd-cgi$1872
  0C:18F8    A$httpd-cgi$1873
  0C:18F9    A$httpd-cgi$1874
  0C:18FB    A$httpd-cgi$1875
  0C:18FC    A$httpd-cgi$1876
  0C:18FD    A$httpd-cgi$1877
  0C:18FF    A$httpd-cgi$1878
  0C:1901    A$httpd-cgi$1879
  0C:1903    A$httpd-cgi$1880
  0C:1905    A$httpd-cgi$1881
  0C:1907    A$httpd-cgi$1882
  0C:1909    A$httpd-cgi$1883
  0C:190B    A$httpd-cgi$1884
  0C:190D    A$httpd-cgi$1885
  0C:190F    A$httpd-cgi$1886
  0C:1912    A$httpd-cgi$1887
  0C:1913    A$httpd-cgi$1888
  0C:1915    A$httpd-cgi$1889
  0C:1916    A$httpd-cgi$1890
  0C:1917    A$httpd-cgi$1891
  0C:1919    A$httpd-cgi$1892
  0C:191A    A$httpd-cgi$1893
  0C:191B    A$httpd-cgi$1894
  0C:191D    A$httpd-cgi$1895
  0C:1920    A$httpd-cgi$1896
  0C:1922    A$httpd-cgi$1897
  0C:1924    A$httpd-cgi$1898
  0C:1926    A$httpd-cgi$1899
  0C:1928    A$httpd-cgi$1900
  0C:192A    A$httpd-cgi$1901
  0C:192C    A$httpd-cgi$1904
  0C:192C    C$httpd_cgi.c$153$4$5
  0C:192E    A$httpd-cgi$1905
  0C:1930    A$httpd-cgi$1906
  0C:1932    A$httpd-cgi$1907
  0C:1934    A$httpd-cgi$1908
  0C:1937    A$httpd-cgi$1909
  0C:1938    A$httpd-cgi$1910
  0C:1939    A$httpd-cgi$1911
  0C:193C    A$httpd-cgi$1913
  0C:193E    A$httpd-cgi$1914
  0C:1940    A$httpd-cgi$1915
  0C:1942    A$httpd-cgi$1916
  0C:1944    A$httpd-cgi$1917
  0C:1945    A$httpd-cgi$1918
  0C:1947    A$httpd-cgi$1919
  0C:1949    A$httpd-cgi$1920
  0C:194A    A$httpd-cgi$1921
  0C:194C    A$httpd-cgi$1922
  0C:194D    A$httpd-cgi$1923
  0C:194E    A$httpd-cgi$1924
  0C:194F    A$httpd-cgi$1925
  0C:1950    A$httpd-cgi$1926
  0C:1951    A$httpd-cgi$1927
  0C:1952    A$httpd-cgi$1928
  0C:1953    A$httpd-cgi$1929
  0C:1954    A$httpd-cgi$1930
  0C:1955    A$httpd-cgi$1931
  0C:1956    A$httpd-cgi$1932
  0C:1957    A$httpd-cgi$1933
  0C:195A    A$httpd-cgi$1934
  0C:195B    A$httpd-cgi$1935
  0C:195C    A$httpd-cgi$1936
  0C:195D    A$httpd-cgi$1937
  0C:195E    A$httpd-cgi$1938
  0C:195F    A$httpd-cgi$1939
  0C:1960    A$httpd-cgi$1940
  0C:1961    A$httpd-cgi$1941
  0C:1962    A$httpd-cgi$1942
  0C:1964    A$httpd-cgi$1943
  0C:1966    A$httpd-cgi$1944
  0C:1968    A$httpd-cgi$1945
  0C:196A    A$httpd-cgi$1946
  0C:196C    A$httpd-cgi$1947
  0C:196E    A$httpd-cgi$1948
  0C:1970    A$httpd-cgi$1949
  0C:1972    A$httpd-cgi$1950
  0C:1974    A$httpd-cgi$1951
  0C:1976    A$httpd-cgi$1952
  0C:1979    A$httpd-cgi$1953
  0C:197B    A$httpd-cgi$1954
  0C:197D    A$httpd-cgi$1955
  0C:197F    A$httpd-cgi$1956
  0C:1981    A$httpd-cgi$1957
  0C:1983    A$httpd-cgi$1958
  0C:1985    A$httpd-cgi$1959
  0C:1988    A$httpd-cgi$1960
  0C:1989    A$httpd-cgi$1961
  0C:198A    A$httpd-cgi$1962
  0C:198B    A$httpd-cgi$1963
  0C:198C    A$httpd-cgi$1964
  0C:198D    A$httpd-cgi$1965
  0C:198E    A$httpd-cgi$1966
  0C:198F    A$httpd-cgi$1967
  0C:1990    A$httpd-cgi$1968
  0C:1993    A$httpd-cgi$1969
  0C:1994    A$httpd-cgi$1970
  0C:1995    A$httpd-cgi$1971
  0C:1996    A$httpd-cgi$1972
  0C:1997    A$httpd-cgi$1973
  0C:1998    A$httpd-cgi$1974
  0C:199A    A$httpd-cgi$1975
  0C:199C    A$httpd-cgi$1976
  0C:199D    A$httpd-cgi$1977
  0C:199F    A$httpd-cgi$1978
  0C:19A0    A$httpd-cgi$1979
  0C:19A2    A$httpd-cgi$1980
  0C:19A3    A$httpd-cgi$1981
  0C:19A5    A$httpd-cgi$1982
  0C:19A7    A$httpd-cgi$1983
  0C:19A9    A$httpd-cgi$1984
  0C:19AB    A$httpd-cgi$1985
  0C:19AD    A$httpd-cgi$1986
  0C:19AF    A$httpd-cgi$1987
  0C:19B1    A$httpd-cgi$1988
  0C:19B4    A$httpd-cgi$1989
  0C:19B6    A$httpd-cgi$1990
  0C:19B8    A$httpd-cgi$1991
  0C:19BA    A$httpd-cgi$1992
  0C:19BC    A$httpd-cgi$1993
  0C:19BE    A$httpd-cgi$1994
  0C:19C0    A$httpd-cgi$1995
  0C:19C2    A$httpd-cgi$1996
  0C:19C4    A$httpd-cgi$1997
  0C:19C6    A$httpd-cgi$2000
  0C:19C6    C$httpd_cgi.c$154$2$2
  0C:19C8    A$httpd-cgi$2002
  0C:19CA    A$httpd-cgi$2003
  0C:19CC    A$httpd-cgi$2004
  0C:19CE    A$httpd-cgi$2005
  0C:19CF    A$httpd-cgi$2006
  0C:19D2    A$httpd-cgi$2007
  0C:19D3    A$httpd-cgi$2008
  0C:19D4    A$httpd-cgi$2009
  0C:19D7    A$httpd-cgi$2010
  0C:19DA    A$httpd-cgi$2012
  0C:19DD    A$httpd-cgi$2013
  0C:19DF    A$httpd-cgi$2016
  0C:19DF    C$httpd_cgi.c$155$2$2
  0C:19DF    XFhttpd_cgi$get_temp$0$0
  0C:19E0    A$httpd-cgi$2035
  0C:19E0    C$httpd_cgi.c$158$2$2
  0C:19E0    Fhttpd_cgi$get_frac$0$0
  0C:19E2    A$httpd-cgi$2036
  0C:19E5    A$httpd-cgi$2037
  0C:19E7    A$httpd-cgi$2038
  0C:19E9    A$httpd-cgi$2039
  0C:19EB    A$httpd-cgi$2040
  0C:19ED    A$httpd-cgi$2041
  0C:19EF    A$httpd-cgi$2042
  0C:19F1    A$httpd-cgi$2045
  0C:19F1    C$httpd_cgi.c$160$1$2
  0C:19F3    A$httpd-cgi$2046
  0C:19F5    A$httpd-cgi$2047
  0C:19F6    A$httpd-cgi$2048
  0C:19F7    A$httpd-cgi$2049
  0C:19F8    A$httpd-cgi$2050
  0C:19F9    A$httpd-cgi$2051
  0C:19FA    A$httpd-cgi$2054
  0C:19FA    C$httpd_cgi.c$163$2$2
  0C:19FC    A$httpd-cgi$2055
  0C:19FD    A$httpd-cgi$2056
  0C:19FF    A$httpd-cgi$2057
  0C:1A00    A$httpd-cgi$2058
  0C:1A01    A$httpd-cgi$2059
  0C:1A02    A$httpd-cgi$2060
  0C:1A03    A$httpd-cgi$2061
  0C:1A04    A$httpd-cgi$2062
  0C:1A05    A$httpd-cgi$2063
  0C:1A06    A$httpd-cgi$2064
  0C:1A08    A$httpd-cgi$2065
  0C:1A0A    A$httpd-cgi$2066
  0C:1A0C    A$httpd-cgi$2067
  0C:1A0E    A$httpd-cgi$2068
  0C:1A11    A$httpd-cgi$2069
  0C:1A12    A$httpd-cgi$2070
  0C:1A13    A$httpd-cgi$2071
  0C:1A16    A$httpd-cgi$2072
  0C:1A17    A$httpd-cgi$2073
  0C:1A1A    A$httpd-cgi$2074
  0C:1A1D    A$httpd-cgi$2075
  0C:1A1F    A$httpd-cgi$2077
  0C:1A22    A$httpd-cgi$2078
  0C:1A25    A$httpd-cgi$2079
  0C:1A28    A$httpd-cgi$2081
  0C:1A2B    A$httpd-cgi$2085
  0C:1A2B    C$httpd_cgi.c$165$2$2
  0C:1A2D    A$httpd-cgi$2086
  0C:1A2F    A$httpd-cgi$2087
  0C:1A30    A$httpd-cgi$2088
  0C:1A32    A$httpd-cgi$2089
  0C:1A34    A$httpd-cgi$2090
  0C:1A35    A$httpd-cgi$2091
  0C:1A36    A$httpd-cgi$2092
  0C:1A37    A$httpd-cgi$2093
  0C:1A38    A$httpd-cgi$2094
  0C:1A39    A$httpd-cgi$2095
  0C:1A3A    A$httpd-cgi$2096
  0C:1A3B    A$httpd-cgi$2097
  0C:1A3C    A$httpd-cgi$2098
  0C:1A3D    A$httpd-cgi$2099
  0C:1A3E    A$httpd-cgi$2100
  0C:1A3F    A$httpd-cgi$2102
  0C:1A41    A$httpd-cgi$2103
  0C:1A43    A$httpd-cgi$2104
  0C:1A44    A$httpd-cgi$2105
  0C:1A46    A$httpd-cgi$2106
  0C:1A47    A$httpd-cgi$2107
  0C:1A49    A$httpd-cgi$2108
  0C:1A4A    A$httpd-cgi$2109
  0C:1A4C    A$httpd-cgi$2110
  0C:1A4F    A$httpd-cgi$2111
  0C:1A50    A$httpd-cgi$2112
  0C:1A51    A$httpd-cgi$2113
  0C:1A54    A$httpd-cgi$2114
  0C:1A55    A$httpd-cgi$2116
  0C:1A57    A$httpd-cgi$2119
  0C:1A57    C$httpd_cgi.c$166$3$3
  0C:1A59    A$httpd-cgi$2120
  0C:1A5B    A$httpd-cgi$2121
  0C:1A5C    A$httpd-cgi$2122
  0C:1A5D    A$httpd-cgi$2123
  0C:1A60    A$httpd-cgi$2124
  0C:1A61    A$httpd-cgi$2125
  0C:1A62    A$httpd-cgi$2127
  0C:1A64    A$httpd-cgi$2131
  0C:1A64    C$httpd_cgi.c$167$2$2
  0C:1A66    A$httpd-cgi$2132
  0C:1A68    A$httpd-cgi$2133
  0C:1A69    A$httpd-cgi$2134
  0C:1A6B    A$httpd-cgi$2135
  0C:1A6C    A$httpd-cgi$2136
  0C:1A6D    A$httpd-cgi$2137
  0C:1A6E    A$httpd-cgi$2138
  0C:1A6F    A$httpd-cgi$2139
  0C:1A70    A$httpd-cgi$2140
  0C:1A71    A$httpd-cgi$2141
  0C:1A72    A$httpd-cgi$2142
  0C:1A74    A$httpd-cgi$2145
  0C:1A74    C$httpd_cgi.c$168$3$3
  0C:1A76    A$httpd-cgi$2146
  0C:1A78    A$httpd-cgi$2147
  0C:1A7A    A$httpd-cgi$2148
  0C:1A7C    A$httpd-cgi$2149
  0C:1A7E    A$httpd-cgi$2150
  0C:1A80    A$httpd-cgi$2151
  0C:1A83    A$httpd-cgi$2152
  0C:1A85    A$httpd-cgi$2153
  0C:1A87    A$httpd-cgi$2154
  0C:1A89    A$httpd-cgi$2155
  0C:1A8B    A$httpd-cgi$2156
  0C:1A8D    A$httpd-cgi$2159
  0C:1A8D    C$httpd_cgi.c$170$3$3
  0C:1A8E    A$httpd-cgi$2160
  0C:1A91    A$httpd-cgi$2161
  0C:1A94    A$httpd-cgi$2162
  0C:1A95    A$httpd-cgi$2164
  0C:1A97    A$httpd-cgi$2167
  0C:1A97    C$httpd_cgi.c$173$4$4
  0C:1A9A    A$httpd-cgi$2168
  0C:1A9B    A$httpd-cgi$2169
  0C:1A9C    A$httpd-cgi$2170
  0C:1A9D    A$httpd-cgi$2171
  0C:1A9E    A$httpd-cgi$2172
  0C:1A9F    A$httpd-cgi$2173
  0C:1AA1    A$httpd-cgi$2174
  0C:1AA3    A$httpd-cgi$2175
  0C:1AA4    A$httpd-cgi$2176
  0C:1AA6    A$httpd-cgi$2177
  0C:1AA7    A$httpd-cgi$2178
  0C:1AA9    A$httpd-cgi$2184
  0C:1AA9    C$httpd_cgi.c$175$3$3
  0C:1AA9    C$httpd_cgi.c$177$2$2
  0C:1AAC    A$httpd-cgi$2185
  0C:1AAE    A$httpd-cgi$2186
  0C:1AAF    A$httpd-cgi$2187
  0C:1AB0    A$httpd-cgi$2188
  0C:1AB1    A$httpd-cgi$2189
  0C:1AB2    A$httpd-cgi$2190
  0C:1AB4    A$httpd-cgi$2191
  0C:1AB6    A$httpd-cgi$2192
  0C:1AB7    A$httpd-cgi$2193
  0C:1AB9    A$httpd-cgi$2194
  0C:1ABA    A$httpd-cgi$2195
  0C:1ABC    A$httpd-cgi$2196
  0C:1ABE    A$httpd-cgi$2197
  0C:1AC0    A$httpd-cgi$2198
  0C:1AC2    A$httpd-cgi$2199
  0C:1AC5    A$httpd-cgi$2200
  0C:1AC8    A$httpd-cgi$2201
  0C:1ACA    A$httpd-cgi$2202
  0C:1ACB    A$httpd-cgi$2203
  0C:1ACC    A$httpd-cgi$2204
  0C:1ACD    A$httpd-cgi$2205
  0C:1ACE    A$httpd-cgi$2206
  0C:1ACF    A$httpd-cgi$2207
  0C:1AD0    A$httpd-cgi$2208
  0C:1AD2    A$httpd-cgi$2209
  0C:1AD3    A$httpd-cgi$2210
  0C:1AD5    A$httpd-cgi$2211
  0C:1AD8    A$httpd-cgi$2212
  0C:1ADA    A$httpd-cgi$2213
  0C:1ADB    A$httpd-cgi$2214
  0C:1ADC    A$httpd-cgi$2215
  0C:1ADD    A$httpd-cgi$2216
  0C:1ADE    A$httpd-cgi$2217
  0C:1AE0    A$httpd-cgi$2218
  0C:1AE2    A$httpd-cgi$2219
  0C:1AE3    A$httpd-cgi$2220
  0C:1AE5    A$httpd-cgi$2221
  0C:1AE6    A$httpd-cgi$2222
  0C:1AE8    A$httpd-cgi$2223
  0C:1AEB    A$httpd-cgi$2224
  0C:1AED    A$httpd-cgi$2225
  0C:1AEF    A$httpd-cgi$2226
  0C:1AF1    A$httpd-cgi$2227
  0C:1AF3    A$httpd-cgi$2228
  0C:1AF4    A$httpd-cgi$2229
  0C:1AF5    A$httpd-cgi$2230
  0C:1AF7    A$httpd-cgi$2231
  0C:1AF8    A$httpd-cgi$2232
  0C:1AF9    A$httpd-cgi$2233
  0C:1AFB    A$httpd-cgi$2234
  0C:1AFD    A$httpd-cgi$2235
  0C:1AFF    A$httpd-cgi$2236
  0C:1B01    A$httpd-cgi$2237
  0C:1B03    A$httpd-cgi$2238
  0C:1B05    A$httpd-cgi$2239
  0C:1B07    A$httpd-cgi$2240
  0C:1B09    A$httpd-cgi$2241
  0C:1B0B    A$httpd-cgi$2242
  0C:1B0E    A$httpd-cgi$2243
  0C:1B0F    A$httpd-cgi$2244
  0C:1B11    A$httpd-cgi$2245
  0C:1B12    A$httpd-cgi$2246
  0C:1B13    A$httpd-cgi$2247
  0C:1B15    A$httpd-cgi$2248
  0C:1B16    A$httpd-cgi$2249
  0C:1B17    A$httpd-cgi$2250
  0C:1B19    A$httpd-cgi$2251
  0C:1B1C    A$httpd-cgi$2252
  0C:1B1E    A$httpd-cgi$2253
  0C:1B20    A$httpd-cgi$2254
  0C:1B22    A$httpd-cgi$2255
  0C:1B24    A$httpd-cgi$2256
  0C:1B26    A$httpd-cgi$2257
  0C:1B28    A$httpd-cgi$2260
  0C:1B28    C$httpd_cgi.c$179$4$5
  0C:1B2A    A$httpd-cgi$2261
  0C:1B2C    A$httpd-cgi$2262
  0C:1B2E    A$httpd-cgi$2263
  0C:1B30    A$httpd-cgi$2264
  0C:1B33    A$httpd-cgi$2265
  0C:1B34    A$httpd-cgi$2266
  0C:1B35    A$httpd-cgi$2267
  0C:1B38    A$httpd-cgi$2269
  0C:1B3A    A$httpd-cgi$2270
  0C:1B3C    A$httpd-cgi$2271
  0C:1B3E    A$httpd-cgi$2272
  0C:1B40    A$httpd-cgi$2273
  0C:1B41    A$httpd-cgi$2274
  0C:1B43    A$httpd-cgi$2275
  0C:1B45    A$httpd-cgi$2276
  0C:1B46    A$httpd-cgi$2277
  0C:1B48    A$httpd-cgi$2278
  0C:1B49    A$httpd-cgi$2279
  0C:1B4A    A$httpd-cgi$2280
  0C:1B4B    A$httpd-cgi$2281
  0C:1B4C    A$httpd-cgi$2282
  0C:1B4D    A$httpd-cgi$2283
  0C:1B4E    A$httpd-cgi$2284
  0C:1B4F    A$httpd-cgi$2285
  0C:1B50    A$httpd-cgi$2286
  0C:1B51    A$httpd-cgi$2287
  0C:1B52    A$httpd-cgi$2288
  0C:1B53    A$httpd-cgi$2289
  0C:1B56    A$httpd-cgi$2290
  0C:1B57    A$httpd-cgi$2291
  0C:1B58    A$httpd-cgi$2292
  0C:1B59    A$httpd-cgi$2293
  0C:1B5A    A$httpd-cgi$2294
  0C:1B5B    A$httpd-cgi$2295
  0C:1B5C    A$httpd-cgi$2296
  0C:1B5D    A$httpd-cgi$2297
  0C:1B5E    A$httpd-cgi$2298
  0C:1B60    A$httpd-cgi$2299
  0C:1B62    A$httpd-cgi$2300
  0C:1B64    A$httpd-cgi$2301
  0C:1B66    A$httpd-cgi$2302
  0C:1B68    A$httpd-cgi$2303
  0C:1B6A    A$httpd-cgi$2304
  0C:1B6C    A$httpd-cgi$2305
  0C:1B6E    A$httpd-cgi$2306
  0C:1B70    A$httpd-cgi$2307
  0C:1B72    A$httpd-cgi$2308
  0C:1B75    A$httpd-cgi$2309
  0C:1B77    A$httpd-cgi$2310
  0C:1B79    A$httpd-cgi$2311
  0C:1B7B    A$httpd-cgi$2312
  0C:1B7D    A$httpd-cgi$2313
  0C:1B7F    A$httpd-cgi$2314
  0C:1B81    A$httpd-cgi$2315
  0C:1B84    A$httpd-cgi$2316
  0C:1B85    A$httpd-cgi$2317
  0C:1B86    A$httpd-cgi$2318
  0C:1B87    A$httpd-cgi$2319
  0C:1B88    A$httpd-cgi$2320
  0C:1B89    A$httpd-cgi$2321
  0C:1B8A    A$httpd-cgi$2322
  0C:1B8B    A$httpd-cgi$2323
  0C:1B8C    A$httpd-cgi$2324
  0C:1B8F    A$httpd-cgi$2325
  0C:1B90    A$httpd-cgi$2326
  0C:1B91    A$httpd-cgi$2327
  0C:1B92    A$httpd-cgi$2328
  0C:1B93    A$httpd-cgi$2329
  0C:1B94    A$httpd-cgi$2330
  0C:1B96    A$httpd-cgi$2331
  0C:1B98    A$httpd-cgi$2332
  0C:1B99    A$httpd-cgi$2333
  0C:1B9B    A$httpd-cgi$2334
  0C:1B9C    A$httpd-cgi$2335
  0C:1B9E    A$httpd-cgi$2336
  0C:1B9F    A$httpd-cgi$2337
  0C:1BA1    A$httpd-cgi$2338
  0C:1BA3    A$httpd-cgi$2339
  0C:1BA5    A$httpd-cgi$2340
  0C:1BA7    A$httpd-cgi$2341
  0C:1BA9    A$httpd-cgi$2342
  0C:1BAB    A$httpd-cgi$2343
  0C:1BAD    A$httpd-cgi$2344
  0C:1BB0    A$httpd-cgi$2345
  0C:1BB2    A$httpd-cgi$2346
  0C:1BB4    A$httpd-cgi$2347
  0C:1BB6    A$httpd-cgi$2348
  0C:1BB8    A$httpd-cgi$2349
  0C:1BBA    A$httpd-cgi$2350
  0C:1BBC    A$httpd-cgi$2351
  0C:1BBE    A$httpd-cgi$2352
  0C:1BC0    A$httpd-cgi$2353
  0C:1BC2    A$httpd-cgi$2356
  0C:1BC2    C$httpd_cgi.c$180$2$2
  0C:1BC4    A$httpd-cgi$2358
  0C:1BC6    A$httpd-cgi$2359
  0C:1BC8    A$httpd-cgi$2360
  0C:1BCA    A$httpd-cgi$2361
  0C:1BCB    A$httpd-cgi$2362
  0C:1BCE    A$httpd-cgi$2363
  0C:1BCF    A$httpd-cgi$2364
  0C:1BD0    A$httpd-cgi$2365
  0C:1BD3    A$httpd-cgi$2366
  0C:1BD6    A$httpd-cgi$2368
  0C:1BD9    A$httpd-cgi$2369
  0C:1BDB    A$httpd-cgi$2372
  0C:1BDB    C$httpd_cgi.c$181$2$2
  0C:1BDB    XFhttpd_cgi$get_frac$0$0
  0C:1BDC    A$httpd-cgi$2390
  0C:1BDC    C$httpd_cgi.c$184$2$2
  0C:1BDC    Fhttpd_cgi$get_stat$0$0
  0C:1BDE    A$httpd-cgi$2391
  0C:1BE0    A$httpd-cgi$2392
  0C:1BE2    A$httpd-cgi$2393
  0C:1BE4    A$httpd-cgi$2394
  0C:1BE6    A$httpd-cgi$2395
  0C:1BE8    A$httpd-cgi$2396
  0C:1BEA    A$httpd-cgi$2397
  0C:1BEC    A$httpd-cgi$2400
  0C:1BEC    C$httpd_cgi.c$188$2$2
  0C:1BEE    A$httpd-cgi$2401
  0C:1BEF    A$httpd-cgi$2402
  0C:1BF0    A$httpd-cgi$2403
  0C:1BF1    A$httpd-cgi$2404
  0C:1BF2    A$httpd-cgi$2405
  0C:1BF3    A$httpd-cgi$2406
  0C:1BF5    A$httpd-cgi$2407
  0C:1BF7    A$httpd-cgi$2408
  0C:1BF9    A$httpd-cgi$2409
  0C:1BFB    A$httpd-cgi$2410
  0C:1BFD    A$httpd-cgi$2411
  0C:1BFE    A$httpd-cgi$2412
  0C:1BFF    A$httpd-cgi$2413
  0C:1C00    A$httpd-cgi$2414
  0C:1C03    A$httpd-cgi$2415
  0C:1C04    A$httpd-cgi$2416
  0C:1C05    A$httpd-cgi$2417
  0C:1C08    A$httpd-cgi$2418
  0C:1C09    A$httpd-cgi$2419
  0C:1C0A    A$httpd-cgi$2420
  0C:1C0C    A$httpd-cgi$2421
  0C:1C0D    A$httpd-cgi$2422
  0C:1C0E    A$httpd-cgi$2423
  0C:1C0F    A$httpd-cgi$2424
  0C:1C12    A$httpd-cgi$2425
  0C:1C13    A$httpd-cgi$2426
  0C:1C16    A$httpd-cgi$2427
  0C:1C18    A$httpd-cgi$2429
  0C:1C1A    A$httpd-cgi$2430
  0C:1C1B    A$httpd-cgi$2431
  0C:1C1C    A$httpd-cgi$2432
  0C:1C1D    A$httpd-cgi$2433
  0C:1C20    A$httpd-cgi$2434
  0C:1C21    A$httpd-cgi$2435
  0C:1C24    A$httpd-cgi$2436
  0C:1C27    A$httpd-cgi$2438
  0C:1C2A    A$httpd-cgi$2442
  0C:1C2A    C$httpd_cgi.c$190$2$2
  0C:1C2C    A$httpd-cgi$2443
  0C:1C2E    A$httpd-cgi$2444
  0C:1C2F    A$httpd-cgi$2445
  0C:1C31    A$httpd-cgi$2446
  0C:1C33    A$httpd-cgi$2447
  0C:1C34    A$httpd-cgi$2448
  0C:1C35    A$httpd-cgi$2449
  0C:1C36    A$httpd-cgi$2450
  0C:1C37    A$httpd-cgi$2451
  0C:1C38    A$httpd-cgi$2452
  0C:1C39    A$httpd-cgi$2453
  0C:1C3A    A$httpd-cgi$2454
  0C:1C3B    A$httpd-cgi$2455
  0C:1C3C    A$httpd-cgi$2456
  0C:1C3D    A$httpd-cgi$2457
  0C:1C3E    A$httpd-cgi$2459
  0C:1C40    A$httpd-cgi$2460
  0C:1C42    A$httpd-cgi$2461
  0C:1C44    A$httpd-cgi$2462
  0C:1C46    A$httpd-cgi$2463
  0C:1C48    A$httpd-cgi$2464
  0C:1C49    A$httpd-cgi$2465
  0C:1C4B    A$httpd-cgi$2466
  0C:1C4C    A$httpd-cgi$2467
  0C:1C4E    A$httpd-cgi$2468
  0C:1C4F    A$httpd-cgi$2469
  0C:1C51    A$httpd-cgi$2470
  0C:1C54    A$httpd-cgi$2471
  0C:1C55    A$httpd-cgi$2472
  0C:1C56    A$httpd-cgi$2473
  0C:1C59    A$httpd-cgi$2474
  0C:1C5A    A$httpd-cgi$2476
  0C:1C5C    A$httpd-cgi$2477
  0C:1C5E    A$httpd-cgi$2478
  0C:1C60    A$httpd-cgi$2479
  0C:1C62    A$httpd-cgi$2482
  0C:1C62    C$httpd_cgi.c$191$3$3
  0C:1C64    A$httpd-cgi$2483
  0C:1C66    A$httpd-cgi$2484
  0C:1C67    A$httpd-cgi$2485
  0C:1C68    A$httpd-cgi$2486
  0C:1C6B    A$httpd-cgi$2487
  0C:1C6C    A$httpd-cgi$2488
  0C:1C6D    A$httpd-cgi$2490
  0C:1C6F    A$httpd-cgi$2494
  0C:1C6F    C$httpd_cgi.c$192$2$2
  0C:1C71    A$httpd-cgi$2495
  0C:1C73    A$httpd-cgi$2496
  0C:1C75    A$httpd-cgi$2497
  0C:1C77    A$httpd-cgi$2498
  0C:1C79    A$httpd-cgi$2499
  0C:1C7A    A$httpd-cgi$2500
  0C:1C7C    A$httpd-cgi$2501
  0C:1C7D    A$httpd-cgi$2502
  0C:1C7E    A$httpd-cgi$2503
  0C:1C7F    A$httpd-cgi$2504
  0C:1C80    A$httpd-cgi$2505
  0C:1C81    A$httpd-cgi$2506
  0C:1C82    A$httpd-cgi$2507
  0C:1C83    A$httpd-cgi$2508
  0C:1C85    A$httpd-cgi$2511
  0C:1C85    C$httpd_cgi.c$193$3$3
  0C:1C87    A$httpd-cgi$2512
  0C:1C89    A$httpd-cgi$2513
  0C:1C8B    A$httpd-cgi$2514
  0C:1C8D    A$httpd-cgi$2515
  0C:1C8F    A$httpd-cgi$2516
  0C:1C91    A$httpd-cgi$2517
  0C:1C93    A$httpd-cgi$2518
  0C:1C96    A$httpd-cgi$2519
  0C:1C98    A$httpd-cgi$2520
  0C:1C9A    A$httpd-cgi$2521
  0C:1C9C    A$httpd-cgi$2522
  0C:1C9E    A$httpd-cgi$2523
  0C:1CA0    A$httpd-cgi$2524
  0C:1CA2    A$httpd-cgi$2525
  0C:1CA4    A$httpd-cgi$2526
  0C:1CA5    A$httpd-cgi$2527
  0C:1CA7    A$httpd-cgi$2528
  0C:1CA8    A$httpd-cgi$2529
  0C:1CAA    A$httpd-cgi$2532
  0C:1CAA    C$httpd_cgi.c$195$2$2
  0C:1CAC    A$httpd-cgi$2533
  0C:1CAE    A$httpd-cgi$2534
  0C:1CB0    A$httpd-cgi$2535
  0C:1CB3    A$httpd-cgi$2536
  0C:1CB6    A$httpd-cgi$2540
  0C:1CB6    C$httpd_cgi.c$196$2$2
  0C:1CB8    A$httpd-cgi$2541
  0C:1CBA    A$httpd-cgi$2542
  0C:1CBC    A$httpd-cgi$2543
  0C:1CBE    A$httpd-cgi$2544
  0C:1CC0    A$httpd-cgi$2545
  0C:1CC2    A$httpd-cgi$2546
  0C:1CC4    A$httpd-cgi$2547
  0C:1CC6    A$httpd-cgi$2548
  0C:1CC8    A$httpd-cgi$2549
  0C:1CCA    A$httpd-cgi$2550
  0C:1CCC    A$httpd-cgi$2551
  0C:1CCF    A$httpd-cgi$2552
  0C:1CD1    A$httpd-cgi$2553
  0C:1CD3    A$httpd-cgi$2554
  0C:1CD5    A$httpd-cgi$2555
  0C:1CD7    A$httpd-cgi$2556
  0C:1CD9    A$httpd-cgi$2557
  0C:1CDB    A$httpd-cgi$2558
  0C:1CDC    A$httpd-cgi$2559
  0C:1CDD    A$httpd-cgi$2560
  0C:1CDF    A$httpd-cgi$2561
  0C:1CE0    A$httpd-cgi$2562
  0C:1CE2    A$httpd-cgi$2563
  0C:1CE3    A$httpd-cgi$2564
  0C:1CE4    A$httpd-cgi$2565
  0C:1CE7    A$httpd-cgi$2566
  0C:1CE8    A$httpd-cgi$2567
  0C:1CE9    A$httpd-cgi$2568
  0C:1CEC    A$httpd-cgi$2569
  0C:1CEE    A$httpd-cgi$2570
  0C:1CF0    A$httpd-cgi$2572
  0C:1CF1    A$httpd-cgi$2574
  0C:1CF3    A$httpd-cgi$2575
  0C:1CF5    A$httpd-cgi$2576
  0C:1CF7    A$httpd-cgi$2577
  0C:1CF9    A$httpd-cgi$2580
  0C:1CF9    C$httpd_cgi.c$197$4$4
  0C:1CFB    A$httpd-cgi$2581
  0C:1CFD    A$httpd-cgi$2582
  0C:1CFF    A$httpd-cgi$2583
  0C:1D01    A$httpd-cgi$2584
  0C:1D03    A$httpd-cgi$2585
  0C:1D05    A$httpd-cgi$2586
  0C:1D07    A$httpd-cgi$2587
  0C:1D09    A$httpd-cgi$2588
  0C:1D0B    A$httpd-cgi$2589
  0C:1D0D    A$httpd-cgi$2590
  0C:1D0F    A$httpd-cgi$2591
  0C:1D11    A$httpd-cgi$2592
  0C:1D14    A$httpd-cgi$2593
  0C:1D15    A$httpd-cgi$2594
  0C:1D17    A$httpd-cgi$2595
  0C:1D18    A$httpd-cgi$2596
  0C:1D19    A$httpd-cgi$2597
  0C:1D1B    A$httpd-cgi$2598
  0C:1D1C    A$httpd-cgi$2599
  0C:1D1D    A$httpd-cgi$2600
  0C:1D1F    A$httpd-cgi$2601
  0C:1D22    A$httpd-cgi$2602
  0C:1D24    A$httpd-cgi$2603
  0C:1D26    A$httpd-cgi$2604
  0C:1D28    A$httpd-cgi$2605
  0C:1D2A    A$httpd-cgi$2606
  0C:1D2C    A$httpd-cgi$2607
  0C:1D2E    A$httpd-cgi$2608
  0C:1D30    A$httpd-cgi$2609
  0C:1D32    A$httpd-cgi$2610
  0C:1D34    A$httpd-cgi$2611
  0C:1D37    A$httpd-cgi$2615
  0C:1D37    C$httpd_cgi.c$199$4$4
  0C:1D39    A$httpd-cgi$2616
  0C:1D3B    A$httpd-cgi$2617
  0C:1D3D    A$httpd-cgi$2618
  0C:1D3F    A$httpd-cgi$2619
  0C:1D41    A$httpd-cgi$2620
  0C:1D43    A$httpd-cgi$2621
  0C:1D45    A$httpd-cgi$2622
  0C:1D47    A$httpd-cgi$2623
  0C:1D49    A$httpd-cgi$2624
  0C:1D4B    A$httpd-cgi$2625
  0C:1D4D    A$httpd-cgi$2626
  0C:1D4F    A$httpd-cgi$2627
  0C:1D52    A$httpd-cgi$2628
  0C:1D53    A$httpd-cgi$2629
  0C:1D55    A$httpd-cgi$2630
  0C:1D56    A$httpd-cgi$2631
  0C:1D57    A$httpd-cgi$2632
  0C:1D59    A$httpd-cgi$2633
  0C:1D5A    A$httpd-cgi$2634
  0C:1D5B    A$httpd-cgi$2635
  0C:1D5D    A$httpd-cgi$2636
  0C:1D60    A$httpd-cgi$2637
  0C:1D62    A$httpd-cgi$2638
  0C:1D64    A$httpd-cgi$2639
  0C:1D66    A$httpd-cgi$2640
  0C:1D68    A$httpd-cgi$2641
  0C:1D6A    A$httpd-cgi$2642
  0C:1D6C    A$httpd-cgi$2643
  0C:1D6E    A$httpd-cgi$2644
  0C:1D70    A$httpd-cgi$2645
  0C:1D72    A$httpd-cgi$2646
  0C:1D74    A$httpd-cgi$2650
  0C:1D74    C$httpd_cgi.c$200$3$3
  0C:1D77    A$httpd-cgi$2653
  0C:1D77    C$httpd_cgi.c$201$4$5
  0C:1D79    A$httpd-cgi$2654
  0C:1D7B    A$httpd-cgi$2655
  0C:1D7D    A$httpd-cgi$2656
  0C:1D7F    A$httpd-cgi$2657
  0C:1D81    A$httpd-cgi$2658
  0C:1D83    A$httpd-cgi$2659
  0C:1D85    A$httpd-cgi$2660
  0C:1D87    A$httpd-cgi$2661
  0C:1D89    A$httpd-cgi$2662
  0C:1D8B    A$httpd-cgi$2663
  0C:1D8D    A$httpd-cgi$2664
  0C:1D8F    A$httpd-cgi$2665
  0C:1D92    A$httpd-cgi$2666
  0C:1D93    A$httpd-cgi$2667
  0C:1D95    A$httpd-cgi$2668
  0C:1D96    A$httpd-cgi$2669
  0C:1D97    A$httpd-cgi$2670
  0C:1D99    A$httpd-cgi$2671
  0C:1D9A    A$httpd-cgi$2672
  0C:1D9B    A$httpd-cgi$2673
  0C:1D9D    A$httpd-cgi$2674
  0C:1DA0    A$httpd-cgi$2675
  0C:1DA2    A$httpd-cgi$2676
  0C:1DA4    A$httpd-cgi$2677
  0C:1DA6    A$httpd-cgi$2678
  0C:1DA8    A$httpd-cgi$2679
  0C:1DAA    A$httpd-cgi$2680
  0C:1DAC    A$httpd-cgi$2681
  0C:1DAE    A$httpd-cgi$2682
  0C:1DB0    A$httpd-cgi$2683
  0C:1DB2    A$httpd-cgi$2684
  0C:1DB4    A$httpd-cgi$2688
  0C:1DB4    C$httpd_cgi.c$203$4$6
  0C:1DB6    A$httpd-cgi$2689
  0C:1DB8    A$httpd-cgi$2690
  0C:1DBA    A$httpd-cgi$2691
  0C:1DBC    A$httpd-cgi$2692
  0C:1DBE    A$httpd-cgi$2693
  0C:1DC0    A$httpd-cgi$2694
  0C:1DC2    A$httpd-cgi$2695
  0C:1DC4    A$httpd-cgi$2696
  0C:1DC6    A$httpd-cgi$2697
  0C:1DC8    A$httpd-cgi$2698
  0C:1DCA    A$httpd-cgi$2699
  0C:1DCC    A$httpd-cgi$2700
  0C:1DCF    A$httpd-cgi$2701
  0C:1DD0    A$httpd-cgi$2702
  0C:1DD2    A$httpd-cgi$2703
  0C:1DD3    A$httpd-cgi$2704
  0C:1DD4    A$httpd-cgi$2705
  0C:1DD6    A$httpd-cgi$2706
  0C:1DD7    A$httpd-cgi$2707
  0C:1DD8    A$httpd-cgi$2708
  0C:1DDA    A$httpd-cgi$2709
  0C:1DDD    A$httpd-cgi$2710
  0C:1DDF    A$httpd-cgi$2711
  0C:1DE1    A$httpd-cgi$2712
  0C:1DE3    A$httpd-cgi$2713
  0C:1DE5    A$httpd-cgi$2714
  0C:1DE7    A$httpd-cgi$2715
  0C:1DE9    A$httpd-cgi$2716
  0C:1DEB    A$httpd-cgi$2717
  0C:1DED    A$httpd-cgi$2718
  0C:1DEF    A$httpd-cgi$2722
  0C:1DEF    C$httpd_cgi.c$206$3$3
  0C:1DF1    A$httpd-cgi$2723
  0C:1DF3    A$httpd-cgi$2724
  0C:1DF5    A$httpd-cgi$2725
  0C:1DF7    A$httpd-cgi$2726
  0C:1DFA    A$httpd-cgi$2727
  0C:1DFB    A$httpd-cgi$2728
  0C:1DFC    A$httpd-cgi$2729
  0C:1DFF    A$httpd-cgi$2731
  0C:1E01    A$httpd-cgi$2732
  0C:1E03    A$httpd-cgi$2733
  0C:1E05    A$httpd-cgi$2734
  0C:1E07    A$httpd-cgi$2735
  0C:1E09    A$httpd-cgi$2736
  0C:1E0A    A$httpd-cgi$2737
  0C:1E0C    A$httpd-cgi$2738
  0C:1E0D    A$httpd-cgi$2739
  0C:1E0E    A$httpd-cgi$2740
  0C:1E0F    A$httpd-cgi$2741
  0C:1E10    A$httpd-cgi$2742
  0C:1E11    A$httpd-cgi$2743
  0C:1E12    A$httpd-cgi$2744
  0C:1E13    A$httpd-cgi$2745
  0C:1E15    A$httpd-cgi$2746
  0C:1E18    A$httpd-cgi$2747
  0C:1E19    A$httpd-cgi$2748
  0C:1E1A    A$httpd-cgi$2749
  0C:1E1B    A$httpd-cgi$2750
  0C:1E1C    A$httpd-cgi$2751
  0C:1E1D    A$httpd-cgi$2752
  0C:1E1E    A$httpd-cgi$2753
  0C:1E1F    A$httpd-cgi$2754
  0C:1E20    A$httpd-cgi$2755
  0C:1E22    A$httpd-cgi$2756
  0C:1E24    A$httpd-cgi$2757
  0C:1E26    A$httpd-cgi$2758
  0C:1E28    A$httpd-cgi$2759
  0C:1E2A    A$httpd-cgi$2760
  0C:1E2C    A$httpd-cgi$2761
  0C:1E2E    A$httpd-cgi$2762
  0C:1E30    A$httpd-cgi$2763
  0C:1E32    A$httpd-cgi$2764
  0C:1E34    A$httpd-cgi$2765
  0C:1E37    A$httpd-cgi$2766
  0C:1E39    A$httpd-cgi$2767
  0C:1E3B    A$httpd-cgi$2768
  0C:1E3D    A$httpd-cgi$2769
  0C:1E3F    A$httpd-cgi$2770
  0C:1E41    A$httpd-cgi$2771
  0C:1E43    A$httpd-cgi$2772
  0C:1E46    A$httpd-cgi$2773
  0C:1E47    A$httpd-cgi$2774
  0C:1E48    A$httpd-cgi$2775
  0C:1E49    A$httpd-cgi$2776
  0C:1E4A    A$httpd-cgi$2777
  0C:1E4B    A$httpd-cgi$2778
  0C:1E4C    A$httpd-cgi$2779
  0C:1E4D    A$httpd-cgi$2780
  0C:1E4E    A$httpd-cgi$2781
  0C:1E51    A$httpd-cgi$2782
  0C:1E52    A$httpd-cgi$2783
  0C:1E53    A$httpd-cgi$2784
  0C:1E54    A$httpd-cgi$2785
  0C:1E55    A$httpd-cgi$2786
  0C:1E56    A$httpd-cgi$2787
  0C:1E58    A$httpd-cgi$2788
  0C:1E5A    A$httpd-cgi$2789
  0C:1E5B    A$httpd-cgi$2790
  0C:1E5D    A$httpd-cgi$2791
  0C:1E5E    A$httpd-cgi$2792
  0C:1E60    A$httpd-cgi$2793
  0C:1E61    A$httpd-cgi$2794
  0C:1E63    A$httpd-cgi$2795
  0C:1E65    A$httpd-cgi$2796
  0C:1E67    A$httpd-cgi$2797
  0C:1E69    A$httpd-cgi$2798
  0C:1E6B    A$httpd-cgi$2799
  0C:1E6D    A$httpd-cgi$2800
  0C:1E6F    A$httpd-cgi$2801
  0C:1E72    A$httpd-cgi$2802
  0C:1E74    A$httpd-cgi$2803
  0C:1E76    A$httpd-cgi$2804
  0C:1E78    A$httpd-cgi$2805
  0C:1E7A    A$httpd-cgi$2806
  0C:1E7C    A$httpd-cgi$2807
  0C:1E7E    A$httpd-cgi$2808
  0C:1E80    A$httpd-cgi$2809
  0C:1E82    A$httpd-cgi$2810
  0C:1E84    A$httpd-cgi$2813
  0C:1E84    C$httpd_cgi.c$207$2$2
  0C:1E86    A$httpd-cgi$2815
  0C:1E88    A$httpd-cgi$2816
  0C:1E8A    A$httpd-cgi$2817
  0C:1E8C    A$httpd-cgi$2818
  0C:1E8D    A$httpd-cgi$2819
  0C:1E90    A$httpd-cgi$2820
  0C:1E91    A$httpd-cgi$2821
  0C:1E92    A$httpd-cgi$2822
  0C:1E95    A$httpd-cgi$2823
  0C:1E98    A$httpd-cgi$2825
  0C:1E9B    A$httpd-cgi$2826
  0C:1E9D    A$httpd-cgi$2829
  0C:1E9D    C$httpd_cgi.c$208$2$2
  0C:1E9D    XFhttpd_cgi$get_stat$0$0
  0C:1E9E    A$httpd-cgi$2848
  0C:1E9E    C$httpd_cgi.c$211$2$2
  0C:1E9E    Fhttpd_cgi$get_ip_num$0$0
  0C:1EA0    A$httpd-cgi$2849
  0C:1EA2    A$httpd-cgi$2850
  0C:1EA4    A$httpd-cgi$2851
  0C:1EA6    A$httpd-cgi$2852
  0C:1EA8    A$httpd-cgi$2853
  0C:1EAA    A$httpd-cgi$2854
  0C:1EAC    A$httpd-cgi$2855
  0C:1EAE    A$httpd-cgi$2858
  0C:1EAE    C$httpd_cgi.c$215$2$2
  0C:1EB0    A$httpd-cgi$2859
  0C:1EB1    A$httpd-cgi$2860
  0C:1EB2    A$httpd-cgi$2861
  0C:1EB3    A$httpd-cgi$2862
  0C:1EB4    A$httpd-cgi$2863
  0C:1EB5    A$httpd-cgi$2864
  0C:1EB7    A$httpd-cgi$2865
  0C:1EB9    A$httpd-cgi$2866
  0C:1EBB    A$httpd-cgi$2867
  0C:1EBD    A$httpd-cgi$2868
  0C:1EBF    A$httpd-cgi$2869
  0C:1EC0    A$httpd-cgi$2870
  0C:1EC1    A$httpd-cgi$2871
  0C:1EC4    A$httpd-cgi$2872
  0C:1EC5    A$httpd-cgi$2873
  0C:1EC6    A$httpd-cgi$2874
  0C:1EC9    A$httpd-cgi$2875
  0C:1ECA    A$httpd-cgi$2876
  0C:1ECB    A$httpd-cgi$2877
  0C:1ECD    A$httpd-cgi$2878
  0C:1ECE    A$httpd-cgi$2879
  0C:1ECF    A$httpd-cgi$2880
  0C:1ED2    A$httpd-cgi$2881
  0C:1ED3    A$httpd-cgi$2882
  0C:1ED6    A$httpd-cgi$2883
  0C:1ED8    A$httpd-cgi$2885
  0C:1EDA    A$httpd-cgi$2886
  0C:1EDB    A$httpd-cgi$2887
  0C:1EDC    A$httpd-cgi$2888
  0C:1EDF    A$httpd-cgi$2889
  0C:1EE0    A$httpd-cgi$2890
  0C:1EE3    A$httpd-cgi$2891
  0C:1EE6    A$httpd-cgi$2893
  0C:1EE9    A$httpd-cgi$2897
  0C:1EE9    C$httpd_cgi.c$217$2$2
  0C:1EEB    A$httpd-cgi$2898
  0C:1EED    A$httpd-cgi$2899
  0C:1EEE    A$httpd-cgi$2900
  0C:1EF0    A$httpd-cgi$2901
  0C:1EF2    A$httpd-cgi$2902
  0C:1EF3    A$httpd-cgi$2903
  0C:1EF4    A$httpd-cgi$2904
  0C:1EF5    A$httpd-cgi$2905
  0C:1EF6    A$httpd-cgi$2906
  0C:1EF7    A$httpd-cgi$2907
  0C:1EF8    A$httpd-cgi$2908
  0C:1EF9    A$httpd-cgi$2909
  0C:1EFA    A$httpd-cgi$2910
  0C:1EFB    A$httpd-cgi$2911
  0C:1EFC    A$httpd-cgi$2912
  0C:1EFD    A$httpd-cgi$2914
  0C:1EFF    A$httpd-cgi$2915
  0C:1F01    A$httpd-cgi$2916
  0C:1F03    A$httpd-cgi$2917
  0C:1F05    A$httpd-cgi$2918
  0C:1F07    A$httpd-cgi$2919
  0C:1F08    A$httpd-cgi$2920
  0C:1F0A    A$httpd-cgi$2921
  0C:1F0B    A$httpd-cgi$2922
  0C:1F0D    A$httpd-cgi$2923
  0C:1F0E    A$httpd-cgi$2924
  0C:1F10    A$httpd-cgi$2925
  0C:1F13    A$httpd-cgi$2926
  0C:1F14    A$httpd-cgi$2927
  0C:1F15    A$httpd-cgi$2928
  0C:1F18    A$httpd-cgi$2929
  0C:1F19    A$httpd-cgi$2931
  0C:1F1B    A$httpd-cgi$2932
  0C:1F1D    A$httpd-cgi$2933
  0C:1F1F    A$httpd-cgi$2934
  0C:1F21    A$httpd-cgi$2937
  0C:1F21    C$httpd_cgi.c$218$3$3
  0C:1F23    A$httpd-cgi$2938
  0C:1F25    A$httpd-cgi$2939
  0C:1F26    A$httpd-cgi$2940
  0C:1F27    A$httpd-cgi$2941
  0C:1F2A    A$httpd-cgi$2942
  0C:1F2B    A$httpd-cgi$2943
  0C:1F2C    A$httpd-cgi$2945
  0C:1F2E    A$httpd-cgi$2949
  0C:1F2E    C$httpd_cgi.c$219$2$2
  0C:1F30    A$httpd-cgi$2950
  0C:1F32    A$httpd-cgi$2951
  0C:1F34    A$httpd-cgi$2952
  0C:1F36    A$httpd-cgi$2953
  0C:1F38    A$httpd-cgi$2954
  0C:1F39    A$httpd-cgi$2955
  0C:1F3B    A$httpd-cgi$2956
  0C:1F3C    A$httpd-cgi$2957
  0C:1F3D    A$httpd-cgi$2958
  0C:1F3E    A$httpd-cgi$2959
  0C:1F3F    A$httpd-cgi$2960
  0C:1F40    A$httpd-cgi$2961
  0C:1F41    A$httpd-cgi$2962
  0C:1F42    A$httpd-cgi$2963
  0C:1F44    A$httpd-cgi$2966
  0C:1F44    C$httpd_cgi.c$221$3$3
  0C:1F46    A$httpd-cgi$2967
  0C:1F48    A$httpd-cgi$2968
  0C:1F4A    A$httpd-cgi$2969
  0C:1F4C    A$httpd-cgi$2970
  0C:1F4E    A$httpd-cgi$2971
  0C:1F50    A$httpd-cgi$2972
  0C:1F52    A$httpd-cgi$2973
  0C:1F55    A$httpd-cgi$2974
  0C:1F57    A$httpd-cgi$2975
  0C:1F59    A$httpd-cgi$2976
  0C:1F5B    A$httpd-cgi$2977
  0C:1F5D    A$httpd-cgi$2978
  0C:1F5F    A$httpd-cgi$2979
  0C:1F61    A$httpd-cgi$2980
  0C:1F63    A$httpd-cgi$2981
  0C:1F64    A$httpd-cgi$2982
  0C:1F66    A$httpd-cgi$2985
  0C:1F66    C$httpd_cgi.c$223$3$3
  0C:1F68    A$httpd-cgi$2986
  0C:1F69    A$httpd-cgi$2987
  0C:1F6A    A$httpd-cgi$2988
  0C:1F6D    A$httpd-cgi$2989
  0C:1F6E    A$httpd-cgi$2991
  0C:1F70    A$httpd-cgi$2992
  0C:1F72    A$httpd-cgi$2993
  0C:1F74    A$httpd-cgi$2994
  0C:1F76    A$httpd-cgi$2995
  0C:1F78    A$httpd-cgi$2996
  0C:1F79    A$httpd-cgi$2997
  0C:1F7C    A$httpd-cgi$2998
  0C:1F7F    A$httpd-cgi$3000
  0C:1F81    A$httpd-cgi$3001
  0C:1F82    A$httpd-cgi$3002
  0C:1F85    A$httpd-cgi$3003
  0C:1F88    A$httpd-cgi$3005
  0C:1F8A    A$httpd-cgi$3006
  0C:1F8B    A$httpd-cgi$3007
  0C:1F8E    A$httpd-cgi$3008
  0C:1F91    A$httpd-cgi$3010
  0C:1F93    A$httpd-cgi$3011
  0C:1F94    A$httpd-cgi$3012
  0C:1F97    A$httpd-cgi$3013
  0C:1F9A    A$httpd-cgi$3015
  0C:1F9D    A$httpd-cgi$3021
  0C:1F9D    C$httpd_cgi.c$225$4$4
  0C:1F9D    C$httpd_cgi.c$229$2$2
  0C:1F9F    A$httpd-cgi$3022
  0C:1FA1    A$httpd-cgi$3023
  0C:1FA3    A$httpd-cgi$3024
  0C:1FA6    A$httpd-cgi$3025
  0C:1FA7    A$httpd-cgi$3026
  0C:1FA8    A$httpd-cgi$3027
  0C:1FAA    A$httpd-cgi$3028
  0C:1FAC    A$httpd-cgi$3029
  0C:1FAD    A$httpd-cgi$3030
  0C:1FAF    A$httpd-cgi$3031
  0C:1FB0    A$httpd-cgi$3032
  0C:1FB2    A$httpd-cgi$3033
  0C:1FB5    A$httpd-cgi$3034
  0C:1FB6    A$httpd-cgi$3035
  0C:1FB7    A$httpd-cgi$3036
  0C:1FB9    A$httpd-cgi$3037
  0C:1FBA    A$httpd-cgi$3038
  0C:1FBB    A$httpd-cgi$3039
  0C:1FBD    A$httpd-cgi$3040
  0C:1FBE    A$httpd-cgi$3041
  0C:1FC0    A$httpd-cgi$3044
  0C:1FC0    C$httpd_cgi.c$228$4$4
  0C:1FC3    A$httpd-cgi$3045
  0C:1FC4    A$httpd-cgi$3046
  0C:1FC5    A$httpd-cgi$3047
  0C:1FC7    A$httpd-cgi$3048
  0C:1FC9    A$httpd-cgi$3049
  0C:1FCA    A$httpd-cgi$3050
  0C:1FCC    A$httpd-cgi$3051
  0C:1FCD    A$httpd-cgi$3052
  0C:1FCF    A$httpd-cgi$3053
  0C:1FD2    A$httpd-cgi$3054
  0C:1FD3    A$httpd-cgi$3055
  0C:1FD4    A$httpd-cgi$3056
  0C:1FD6    A$httpd-cgi$3059
  0C:1FD6    C$httpd_cgi.c$227$4$4
  0C:1FD8    A$httpd-cgi$3060
  0C:1FDA    A$httpd-cgi$3061
  0C:1FDC    A$httpd-cgi$3062
  0C:1FDE    A$httpd-cgi$3063
  0C:1FE0    A$httpd-cgi$3064
  0C:1FE2    A$httpd-cgi$3065
  0C:1FE4    A$httpd-cgi$3066
  0C:1FE6    A$httpd-cgi$3067
  0C:1FE7    A$httpd-cgi$3068
  0C:1FE8    A$httpd-cgi$3069
  0C:1FEA    A$httpd-cgi$3070
  0C:1FEB    A$httpd-cgi$3071
  0C:1FEC    A$httpd-cgi$3072
  0C:1FEE    A$httpd-cgi$3073
  0C:1FF0    A$httpd-cgi$3074
  0C:1FF1    A$httpd-cgi$3075
  0C:1FF2    A$httpd-cgi$3076
  0C:1FF3    A$httpd-cgi$3077
  0C:1FF5    A$httpd-cgi$3078
  0C:1FF6    A$httpd-cgi$3079
  0C:1FF7    A$httpd-cgi$3080
  0C:1FF9    A$httpd-cgi$3081
  0C:1FFB    A$httpd-cgi$3082
  0C:1FFD    A$httpd-cgi$3083
  0C:1FFE    A$httpd-cgi$3084
  0C:1FFF    A$httpd-cgi$3085
  0C:2001    A$httpd-cgi$3086
  0C:2002    A$httpd-cgi$3087
  0C:2003    A$httpd-cgi$3088
  0C:2005    A$httpd-cgi$3089
  0C:2007    A$httpd-cgi$3090
  0C:2009    A$httpd-cgi$3091
  0C:200C    A$httpd-cgi$3092
  0C:200D    A$httpd-cgi$3093
  0C:200F    A$httpd-cgi$3094
  0C:2010    A$httpd-cgi$3095
  0C:2011    A$httpd-cgi$3096
  0C:2013    A$httpd-cgi$3097
  0C:2014    A$httpd-cgi$3098
  0C:2015    A$httpd-cgi$3099
  0C:2017    A$httpd-cgi$3100
  0C:201A    A$httpd-cgi$3101
  0C:201B    A$httpd-cgi$3102
  0C:201D    A$httpd-cgi$3103
  0C:201E    A$httpd-cgi$3104
  0C:201F    A$httpd-cgi$3105
  0C:2021    A$httpd-cgi$3106
  0C:2022    A$httpd-cgi$3107
  0C:2023    A$httpd-cgi$3108
  0C:2025    A$httpd-cgi$3109
  0C:2028    A$httpd-cgi$3110
  0C:202A    A$httpd-cgi$3111
  0C:202C    A$httpd-cgi$3112
  0C:202E    A$httpd-cgi$3113
  0C:2030    A$httpd-cgi$3114
  0C:2032    A$httpd-cgi$3115
  0C:2034    A$httpd-cgi$3116
  0C:2036    A$httpd-cgi$3117
  0C:2038    A$httpd-cgi$3118
  0C:203A    A$httpd-cgi$3121
  0C:203A    C$httpd_cgi.c$230$2$2
  0C:203C    A$httpd-cgi$3122
  0C:203E    A$httpd-cgi$3123
  0C:2040    A$httpd-cgi$3124
  0C:2043    A$httpd-cgi$3130
  0C:2043    C$httpd_cgi.c$232$4$4
  0C:2043    C$httpd_cgi.c$236$2$2
  0C:2045    A$httpd-cgi$3131
  0C:2047    A$httpd-cgi$3132
  0C:2049    A$httpd-cgi$3133
  0C:204C    A$httpd-cgi$3134
  0C:204D    A$httpd-cgi$3135
  0C:204E    A$httpd-cgi$3136
  0C:2050    A$httpd-cgi$3137
  0C:2052    A$httpd-cgi$3138
  0C:2053    A$httpd-cgi$3139
  0C:2055    A$httpd-cgi$3140
  0C:2056    A$httpd-cgi$3141
  0C:2058    A$httpd-cgi$3142
  0C:205B    A$httpd-cgi$3143
  0C:205C    A$httpd-cgi$3144
  0C:205D    A$httpd-cgi$3145
  0C:205F    A$httpd-cgi$3146
  0C:2061    A$httpd-cgi$3147
  0C:2062    A$httpd-cgi$3148
  0C:2064    A$httpd-cgi$3149
  0C:2065    A$httpd-cgi$3150
  0C:2067    A$httpd-cgi$3153
  0C:2067    C$httpd_cgi.c$235$4$4
  0C:206A    A$httpd-cgi$3154
  0C:206B    A$httpd-cgi$3155
  0C:206C    A$httpd-cgi$3156
  0C:206E    A$httpd-cgi$3157
  0C:206F    A$httpd-cgi$3158
  0C:2070    A$httpd-cgi$3159
  0C:2072    A$httpd-cgi$3160
  0C:2073    A$httpd-cgi$3161
  0C:2075    A$httpd-cgi$3162
  0C:2078    A$httpd-cgi$3163
  0C:2079    A$httpd-cgi$3164
  0C:207A    A$httpd-cgi$3165
  0C:207C    A$httpd-cgi$3168
  0C:207C    C$httpd_cgi.c$234$4$4
  0C:207E    A$httpd-cgi$3169
  0C:2080    A$httpd-cgi$3170
  0C:2082    A$httpd-cgi$3171
  0C:2084    A$httpd-cgi$3172
  0C:2086    A$httpd-cgi$3173
  0C:2088    A$httpd-cgi$3174
  0C:208A    A$httpd-cgi$3175
  0C:208C    A$httpd-cgi$3176
  0C:208D    A$httpd-cgi$3177
  0C:208E    A$httpd-cgi$3178
  0C:2090    A$httpd-cgi$3179
  0C:2091    A$httpd-cgi$3180
  0C:2092    A$httpd-cgi$3181
  0C:2094    A$httpd-cgi$3182
  0C:2096    A$httpd-cgi$3183
  0C:2098    A$httpd-cgi$3184
  0C:2099    A$httpd-cgi$3185
  0C:209A    A$httpd-cgi$3186
  0C:209C    A$httpd-cgi$3187
  0C:209D    A$httpd-cgi$3188
  0C:209E    A$httpd-cgi$3189
  0C:20A0    A$httpd-cgi$3190
  0C:20A2    A$httpd-cgi$3191
  0C:20A3    A$httpd-cgi$3192
  0C:20A4    A$httpd-cgi$3193
  0C:20A5    A$httpd-cgi$3194
  0C:20A7    A$httpd-cgi$3195
  0C:20A8    A$httpd-cgi$3196
  0C:20A9    A$httpd-cgi$3197
  0C:20AB    A$httpd-cgi$3198
  0C:20AD    A$httpd-cgi$3199
  0C:20AF    A$httpd-cgi$3200
  0C:20B2    A$httpd-cgi$3201
  0C:20B3    A$httpd-cgi$3202
  0C:20B5    A$httpd-cgi$3203
  0C:20B6    A$httpd-cgi$3204
  0C:20B7    A$httpd-cgi$3205
  0C:20B9    A$httpd-cgi$3206
  0C:20BA    A$httpd-cgi$3207
  0C:20BB    A$httpd-cgi$3208
  0C:20BD    A$httpd-cgi$3209
  0C:20C0    A$httpd-cgi$3210
  0C:20C1    A$httpd-cgi$3211
  0C:20C3    A$httpd-cgi$3212
  0C:20C4    A$httpd-cgi$3213
  0C:20C5    A$httpd-cgi$3214
  0C:20C7    A$httpd-cgi$3215
  0C:20C8    A$httpd-cgi$3216
  0C:20C9    A$httpd-cgi$3217
  0C:20CB    A$httpd-cgi$3218
  0C:20CE    A$httpd-cgi$3219
  0C:20D0    A$httpd-cgi$3220
  0C:20D2    A$httpd-cgi$3221
  0C:20D4    A$httpd-cgi$3222
  0C:20D6    A$httpd-cgi$3223
  0C:20D8    A$httpd-cgi$3224
  0C:20DA    A$httpd-cgi$3225
  0C:20DC    A$httpd-cgi$3226
  0C:20DE    A$httpd-cgi$3227
  0C:20E0    A$httpd-cgi$3230
  0C:20E0    C$httpd_cgi.c$237$2$2
  0C:20E2    A$httpd-cgi$3231
  0C:20E4    A$httpd-cgi$3232
  0C:20E6    A$httpd-cgi$3233
  0C:20E9    A$httpd-cgi$3239
  0C:20E9    C$httpd_cgi.c$239$4$4
  0C:20E9    C$httpd_cgi.c$243$2$2
  0C:20EB    A$httpd-cgi$3240
  0C:20ED    A$httpd-cgi$3241
  0C:20EF    A$httpd-cgi$3242
  0C:20F2    A$httpd-cgi$3243
  0C:20F3    A$httpd-cgi$3244
  0C:20F4    A$httpd-cgi$3245
  0C:20F6    A$httpd-cgi$3246
  0C:20F8    A$httpd-cgi$3247
  0C:20F9    A$httpd-cgi$3248
  0C:20FB    A$httpd-cgi$3249
  0C:20FC    A$httpd-cgi$3250
  0C:20FE    A$httpd-cgi$3251
  0C:2101    A$httpd-cgi$3252
  0C:2102    A$httpd-cgi$3253
  0C:2103    A$httpd-cgi$3254
  0C:2105    A$httpd-cgi$3255
  0C:2107    A$httpd-cgi$3256
  0C:2108    A$httpd-cgi$3257
  0C:210A    A$httpd-cgi$3258
  0C:210B    A$httpd-cgi$3259
  0C:210D    A$httpd-cgi$3262
  0C:210D    C$httpd_cgi.c$242$4$4
  0C:2110    A$httpd-cgi$3263
  0C:2111    A$httpd-cgi$3264
  0C:2112    A$httpd-cgi$3265
  0C:2114    A$httpd-cgi$3266
  0C:2115    A$httpd-cgi$3267
  0C:2116    A$httpd-cgi$3268
  0C:2118    A$httpd-cgi$3269
  0C:2119    A$httpd-cgi$3270
  0C:211B    A$httpd-cgi$3271
  0C:211E    A$httpd-cgi$3272
  0C:211F    A$httpd-cgi$3273
  0C:2120    A$httpd-cgi$3274
  0C:2122    A$httpd-cgi$3277
  0C:2122    C$httpd_cgi.c$241$4$4
  0C:2124    A$httpd-cgi$3278
  0C:2126    A$httpd-cgi$3279
  0C:2128    A$httpd-cgi$3280
  0C:212A    A$httpd-cgi$3281
  0C:212C    A$httpd-cgi$3282
  0C:212E    A$httpd-cgi$3283
  0C:2130    A$httpd-cgi$3284
  0C:2132    A$httpd-cgi$3285
  0C:2133    A$httpd-cgi$3286
  0C:2134    A$httpd-cgi$3287
  0C:2136    A$httpd-cgi$3288
  0C:2137    A$httpd-cgi$3289
  0C:2138    A$httpd-cgi$3290
  0C:213A    A$httpd-cgi$3291
  0C:213C    A$httpd-cgi$3292
  0C:213E    A$httpd-cgi$3293
  0C:213F    A$httpd-cgi$3294
  0C:2140    A$httpd-cgi$3295
  0C:2142    A$httpd-cgi$3296
  0C:2143    A$httpd-cgi$3297
  0C:2144    A$httpd-cgi$3298
  0C:2146    A$httpd-cgi$3299
  0C:2148    A$httpd-cgi$3300
  0C:2149    A$httpd-cgi$3301
  0C:214A    A$httpd-cgi$3302
  0C:214B    A$httpd-cgi$3303
  0C:214D    A$httpd-cgi$3304
  0C:214E    A$httpd-cgi$3305
  0C:214F    A$httpd-cgi$3306
  0C:2151    A$httpd-cgi$3307
  0C:2153    A$httpd-cgi$3308
  0C:2155    A$httpd-cgi$3309
  0C:2158    A$httpd-cgi$3310
  0C:2159    A$httpd-cgi$3311
  0C:215B    A$httpd-cgi$3312
  0C:215C    A$httpd-cgi$3313
  0C:215D    A$httpd-cgi$3314
  0C:215F    A$httpd-cgi$3315
  0C:2160    A$httpd-cgi$3316
  0C:2161    A$httpd-cgi$3317
  0C:2163    A$httpd-cgi$3318
  0C:2166    A$httpd-cgi$3319
  0C:2167    A$httpd-cgi$3320
  0C:2169    A$httpd-cgi$3321
  0C:216A    A$httpd-cgi$3322
  0C:216B    A$httpd-cgi$3323
  0C:216D    A$httpd-cgi$3324
  0C:216E    A$httpd-cgi$3325
  0C:216F    A$httpd-cgi$3326
  0C:2171    A$httpd-cgi$3327
  0C:2174    A$httpd-cgi$3328
  0C:2176    A$httpd-cgi$3329
  0C:2178    A$httpd-cgi$3330
  0C:217A    A$httpd-cgi$3331
  0C:217C    A$httpd-cgi$3332
  0C:217E    A$httpd-cgi$3333
  0C:2180    A$httpd-cgi$3334
  0C:2182    A$httpd-cgi$3335
  0C:2184    A$httpd-cgi$3336
  0C:2186    A$httpd-cgi$3339
  0C:2186    C$httpd_cgi.c$244$2$2
  0C:2188    A$httpd-cgi$3340
  0C:218A    A$httpd-cgi$3341
  0C:218C    A$httpd-cgi$3342
  0C:218F    A$httpd-cgi$3348
  0C:218F    C$httpd_cgi.c$246$4$4
  0C:218F    C$httpd_cgi.c$250$2$2
  0C:2191    A$httpd-cgi$3349
  0C:2193    A$httpd-cgi$3350
  0C:2195    A$httpd-cgi$3351
  0C:2198    A$httpd-cgi$3352
  0C:2199    A$httpd-cgi$3353
  0C:219A    A$httpd-cgi$3354
  0C:219C    A$httpd-cgi$3355
  0C:219E    A$httpd-cgi$3356
  0C:219F    A$httpd-cgi$3357
  0C:21A1    A$httpd-cgi$3358
  0C:21A2    A$httpd-cgi$3359
  0C:21A4    A$httpd-cgi$3360
  0C:21A7    A$httpd-cgi$3361
  0C:21A8    A$httpd-cgi$3362
  0C:21A9    A$httpd-cgi$3363
  0C:21AB    A$httpd-cgi$3364
  0C:21AD    A$httpd-cgi$3365
  0C:21AE    A$httpd-cgi$3366
  0C:21B0    A$httpd-cgi$3367
  0C:21B1    A$httpd-cgi$3368
  0C:21B3    A$httpd-cgi$3371
  0C:21B3    C$httpd_cgi.c$249$4$4
  0C:21B6    A$httpd-cgi$3372
  0C:21B7    A$httpd-cgi$3373
  0C:21B8    A$httpd-cgi$3374
  0C:21BA    A$httpd-cgi$3375
  0C:21BB    A$httpd-cgi$3376
  0C:21BC    A$httpd-cgi$3377
  0C:21BE    A$httpd-cgi$3378
  0C:21BF    A$httpd-cgi$3379
  0C:21C1    A$httpd-cgi$3380
  0C:21C4    A$httpd-cgi$3381
  0C:21C5    A$httpd-cgi$3382
  0C:21C6    A$httpd-cgi$3383
  0C:21C8    A$httpd-cgi$3386
  0C:21C8    C$httpd_cgi.c$248$4$4
  0C:21CA    A$httpd-cgi$3387
  0C:21CC    A$httpd-cgi$3388
  0C:21CE    A$httpd-cgi$3389
  0C:21D0    A$httpd-cgi$3390
  0C:21D2    A$httpd-cgi$3391
  0C:21D4    A$httpd-cgi$3392
  0C:21D6    A$httpd-cgi$3393
  0C:21D8    A$httpd-cgi$3394
  0C:21D9    A$httpd-cgi$3395
  0C:21DA    A$httpd-cgi$3396
  0C:21DC    A$httpd-cgi$3397
  0C:21DD    A$httpd-cgi$3398
  0C:21DE    A$httpd-cgi$3399
  0C:21E0    A$httpd-cgi$3400
  0C:21E2    A$httpd-cgi$3401
  0C:21E4    A$httpd-cgi$3402
  0C:21E5    A$httpd-cgi$3403
  0C:21E6    A$httpd-cgi$3404
  0C:21E8    A$httpd-cgi$3405
  0C:21E9    A$httpd-cgi$3406
  0C:21EA    A$httpd-cgi$3407
  0C:21EC    A$httpd-cgi$3408
  0C:21EE    A$httpd-cgi$3409
  0C:21EF    A$httpd-cgi$3410
  0C:21F0    A$httpd-cgi$3411
  0C:21F1    A$httpd-cgi$3412
  0C:21F3    A$httpd-cgi$3413
  0C:21F4    A$httpd-cgi$3414
  0C:21F5    A$httpd-cgi$3415
  0C:21F7    A$httpd-cgi$3416
  0C:21F9    A$httpd-cgi$3417
  0C:21FB    A$httpd-cgi$3418
  0C:21FE    A$httpd-cgi$3419
  0C:21FF    A$httpd-cgi$3420
  0C:2201    A$httpd-cgi$3421
  0C:2202    A$httpd-cgi$3422
  0C:2203    A$httpd-cgi$3423
  0C:2205    A$httpd-cgi$3424
  0C:2206    A$httpd-cgi$3425
  0C:2207    A$httpd-cgi$3426
  0C:2209    A$httpd-cgi$3427
  0C:220C    A$httpd-cgi$3428
  0C:220D    A$httpd-cgi$3429
  0C:220F    A$httpd-cgi$3430
  0C:2210    A$httpd-cgi$3431
  0C:2211    A$httpd-cgi$3432
  0C:2213    A$httpd-cgi$3433
  0C:2214    A$httpd-cgi$3434
  0C:2215    A$httpd-cgi$3435
  0C:2217    A$httpd-cgi$3436
  0C:221A    A$httpd-cgi$3437
  0C:221C    A$httpd-cgi$3438
  0C:221E    A$httpd-cgi$3439
  0C:2220    A$httpd-cgi$3440
  0C:2222    A$httpd-cgi$3441
  0C:2224    A$httpd-cgi$3442
  0C:2226    A$httpd-cgi$3443
  0C:2228    A$httpd-cgi$3444
  0C:222A    A$httpd-cgi$3445
  0C:222C    A$httpd-cgi$3448
  0C:222C    C$httpd_cgi.c$251$2$2
  0C:222E    A$httpd-cgi$3449
  0C:2230    A$httpd-cgi$3450
  0C:2232    A$httpd-cgi$3453
  0C:2232    C$httpd_cgi.c$253$4$4
  0C:2234    A$httpd-cgi$3457
  0C:2234    C$httpd_cgi.c$255$2$2
  0C:2236    A$httpd-cgi$3458
  0C:2238    A$httpd-cgi$3459
  0C:223A    A$httpd-cgi$3460
  0C:223D    A$httpd-cgi$3461
  0C:223E    A$httpd-cgi$3462
  0C:223F    A$httpd-cgi$3463
  0C:2240    A$httpd-cgi$3464
  0C:2241    A$httpd-cgi$3465
  0C:2242    A$httpd-cgi$3466
  0C:2244    A$httpd-cgi$3467
  0C:2246    A$httpd-cgi$3468
  0C:2248    A$httpd-cgi$3469
  0C:224A    A$httpd-cgi$3470
  0C:224C    A$httpd-cgi$3471
  0C:224E    A$httpd-cgi$3472
  0C:2250    A$httpd-cgi$3473
  0C:2252    A$httpd-cgi$3474
  0C:2254    A$httpd-cgi$3475
  0C:2256    A$httpd-cgi$3476
  0C:2258    A$httpd-cgi$3477
  0C:225A    A$httpd-cgi$3478
  0C:225C    A$httpd-cgi$3479
  0C:225E    A$httpd-cgi$3480
  0C:2261    A$httpd-cgi$3481
  0C:2262    A$httpd-cgi$3482
  0C:2264    A$httpd-cgi$3483
  0C:2265    A$httpd-cgi$3484
  0C:2266    A$httpd-cgi$3485
  0C:2268    A$httpd-cgi$3486
  0C:2269    A$httpd-cgi$3487
  0C:226A    A$httpd-cgi$3488
  0C:226C    A$httpd-cgi$3489
  0C:226F    A$httpd-cgi$3490
  0C:2271    A$httpd-cgi$3491
  0C:2273    A$httpd-cgi$3492
  0C:2275    A$httpd-cgi$3493
  0C:2277    A$httpd-cgi$3494
  0C:2279    A$httpd-cgi$3495
  0C:227B    A$httpd-cgi$3496
  0C:227D    A$httpd-cgi$3497
  0C:227F    A$httpd-cgi$3498
  0C:2281    A$httpd-cgi$3501
  0C:2283    A$httpd-cgi$3502
  0C:2285    A$httpd-cgi$3503
  0C:2287    A$httpd-cgi$3507
  0C:2287    C$httpd_cgi.c$264$3$3
  0C:2289    A$httpd-cgi$3508
  0C:228B    A$httpd-cgi$3509
  0C:228D    A$httpd-cgi$3510
  0C:228F    A$httpd-cgi$3511
  0C:2292    A$httpd-cgi$3512
  0C:2293    A$httpd-cgi$3513
  0C:2295    A$httpd-cgi$3514
  0C:2298    A$httpd-cgi$3516
  0C:229A    A$httpd-cgi$3517
  0C:229C    A$httpd-cgi$3518
  0C:229E    A$httpd-cgi$3519
  0C:22A0    A$httpd-cgi$3520
  0C:22A2    A$httpd-cgi$3521
  0C:22A3    A$httpd-cgi$3522
  0C:22A5    A$httpd-cgi$3523
  0C:22A6    A$httpd-cgi$3524
  0C:22A7    A$httpd-cgi$3525
  0C:22A8    A$httpd-cgi$3526
  0C:22A9    A$httpd-cgi$3527
  0C:22AA    A$httpd-cgi$3528
  0C:22AB    A$httpd-cgi$3529
  0C:22AC    A$httpd-cgi$3530
  0C:22AE    A$httpd-cgi$3531
  0C:22B1    A$httpd-cgi$3532
  0C:22B2    A$httpd-cgi$3533
  0C:22B3    A$httpd-cgi$3534
  0C:22B4    A$httpd-cgi$3535
  0C:22B5    A$httpd-cgi$3536
  0C:22B6    A$httpd-cgi$3537
  0C:22B7    A$httpd-cgi$3538
  0C:22B8    A$httpd-cgi$3539
  0C:22B9    A$httpd-cgi$3540
  0C:22BB    A$httpd-cgi$3541
  0C:22BD    A$httpd-cgi$3542
  0C:22BF    A$httpd-cgi$3543
  0C:22C1    A$httpd-cgi$3544
  0C:22C3    A$httpd-cgi$3545
  0C:22C5    A$httpd-cgi$3546
  0C:22C7    A$httpd-cgi$3547
  0C:22C9    A$httpd-cgi$3548
  0C:22CB    A$httpd-cgi$3549
  0C:22CD    A$httpd-cgi$3550
  0C:22D0    A$httpd-cgi$3551
  0C:22D2    A$httpd-cgi$3552
  0C:22D4    A$httpd-cgi$3553
  0C:22D6    A$httpd-cgi$3554
  0C:22D8    A$httpd-cgi$3555
  0C:22DA    A$httpd-cgi$3556
  0C:22DC    A$httpd-cgi$3557
  0C:22DF    A$httpd-cgi$3558
  0C:22E0    A$httpd-cgi$3559
  0C:22E1    A$httpd-cgi$3560
  0C:22E2    A$httpd-cgi$3561
  0C:22E3    A$httpd-cgi$3562
  0C:22E4    A$httpd-cgi$3563
  0C:22E5    A$httpd-cgi$3564
  0C:22E6    A$httpd-cgi$3565
  0C:22E7    A$httpd-cgi$3566
  0C:22EA    A$httpd-cgi$3567
  0C:22EB    A$httpd-cgi$3568
  0C:22EC    A$httpd-cgi$3569
  0C:22ED    A$httpd-cgi$3570
  0C:22EE    A$httpd-cgi$3571
  0C:22EF    A$httpd-cgi$3572
  0C:22F1    A$httpd-cgi$3573
  0C:22F3    A$httpd-cgi$3574
  0C:22F4    A$httpd-cgi$3575
  0C:22F6    A$httpd-cgi$3576
  0C:22F7    A$httpd-cgi$3577
  0C:22F9    A$httpd-cgi$3578
  0C:22FA    A$httpd-cgi$3579
  0C:22FC    A$httpd-cgi$3580
  0C:22FE    A$httpd-cgi$3581
  0C:2300    A$httpd-cgi$3582
  0C:2302    A$httpd-cgi$3583
  0C:2304    A$httpd-cgi$3584
  0C:2306    A$httpd-cgi$3585
  0C:2308    A$httpd-cgi$3586
  0C:230B    A$httpd-cgi$3587
  0C:230D    A$httpd-cgi$3588
  0C:230F    A$httpd-cgi$3589
  0C:2311    A$httpd-cgi$3590
  0C:2313    A$httpd-cgi$3591
  0C:2315    A$httpd-cgi$3592
  0C:2317    A$httpd-cgi$3593
  0C:2319    A$httpd-cgi$3594
  0C:231B    A$httpd-cgi$3595
  0C:231D    A$httpd-cgi$3598
  0C:231D    C$httpd_cgi.c$266$2$2
  0C:231F    A$httpd-cgi$3600
  0C:2321    A$httpd-cgi$3601
  0C:2323    A$httpd-cgi$3602
  0C:2325    A$httpd-cgi$3603
  0C:2326    A$httpd-cgi$3604
  0C:2329    A$httpd-cgi$3605
  0C:232A    A$httpd-cgi$3606
  0C:232B    A$httpd-cgi$3607
  0C:232E    A$httpd-cgi$3608
  0C:2331    A$httpd-cgi$3610
  0C:2334    A$httpd-cgi$3611
  0C:2336    A$httpd-cgi$3614
  0C:2336    C$httpd_cgi.c$267$2$2
  0C:2336    XFhttpd_cgi$get_ip_num$0$0
  0C:2337    A$httpd-cgi$3632
  0C:2337    C$httpd_cgi.c$270$2$2
  0C:2337    Fhttpd_cgi$get_check_box$0$0
  0C:2339    A$httpd-cgi$3633
  0C:233C    A$httpd-cgi$3634
  0C:233E    A$httpd-cgi$3635
  0C:2340    A$httpd-cgi$3636
  0C:2342    A$httpd-cgi$3637
  0C:2344    A$httpd-cgi$3638
  0C:2346    A$httpd-cgi$3639
  0C:2348    A$httpd-cgi$3642
  0C:2348    C$httpd_cgi.c$274$2$2
  0C:234A    A$httpd-cgi$3643
  0C:234B    A$httpd-cgi$3644
  0C:234D    A$httpd-cgi$3645
  0C:234E    A$httpd-cgi$3646
  0C:234F    A$httpd-cgi$3647
  0C:2350    A$httpd-cgi$3648
  0C:2351    A$httpd-cgi$3649
  0C:2352    A$httpd-cgi$3650
  0C:2353    A$httpd-cgi$3651
  0C:2354    A$httpd-cgi$3652
  0C:2356    A$httpd-cgi$3653
  0C:2358    A$httpd-cgi$3654
  0C:235A    A$httpd-cgi$3655
  0C:235C    A$httpd-cgi$3656
  0C:235F    A$httpd-cgi$3657
  0C:2360    A$httpd-cgi$3658
  0C:2361    A$httpd-cgi$3659
  0C:2364    A$httpd-cgi$3660
  0C:2365    A$httpd-cgi$3661
  0C:2368    A$httpd-cgi$3662
  0C:236B    A$httpd-cgi$3663
  0C:236D    A$httpd-cgi$3665
  0C:2370    A$httpd-cgi$3666
  0C:2373    A$httpd-cgi$3667
  0C:2376    A$httpd-cgi$3669
  0C:2379    A$httpd-cgi$3673
  0C:2379    C$httpd_cgi.c$276$2$2
  0C:237B    A$httpd-cgi$3674
  0C:237D    A$httpd-cgi$3675
  0C:237E    A$httpd-cgi$3676
  0C:2380    A$httpd-cgi$3677
  0C:2382    A$httpd-cgi$3678
  0C:2383    A$httpd-cgi$3679
  0C:2384    A$httpd-cgi$3680
  0C:2385    A$httpd-cgi$3681
  0C:2386    A$httpd-cgi$3682
  0C:2387    A$httpd-cgi$3683
  0C:2388    A$httpd-cgi$3684
  0C:2389    A$httpd-cgi$3685
  0C:238A    A$httpd-cgi$3686
  0C:238B    A$httpd-cgi$3687
  0C:238C    A$httpd-cgi$3688
  0C:238D    A$httpd-cgi$3690
  0C:238F    A$httpd-cgi$3691
  0C:2391    A$httpd-cgi$3692
  0C:2392    A$httpd-cgi$3693
  0C:2394    A$httpd-cgi$3694
  0C:2395    A$httpd-cgi$3695
  0C:2397    A$httpd-cgi$3696
  0C:2398    A$httpd-cgi$3697
  0C:239A    A$httpd-cgi$3698
  0C:239D    A$httpd-cgi$3699
  0C:239E    A$httpd-cgi$3700
  0C:239F    A$httpd-cgi$3701
  0C:23A2    A$httpd-cgi$3702
  0C:23A3    A$httpd-cgi$3704
  0C:23A5    A$httpd-cgi$3707
  0C:23A5    C$httpd_cgi.c$277$3$3
  0C:23A7    A$httpd-cgi$3708
  0C:23A9    A$httpd-cgi$3709
  0C:23AA    A$httpd-cgi$3710
  0C:23AB    A$httpd-cgi$3711
  0C:23AE    A$httpd-cgi$3712
  0C:23AF    A$httpd-cgi$3713
  0C:23B0    A$httpd-cgi$3715
  0C:23B2    A$httpd-cgi$3719
  0C:23B2    C$httpd_cgi.c$278$2$2
  0C:23B4    A$httpd-cgi$3720
  0C:23B6    A$httpd-cgi$3721
  0C:23B7    A$httpd-cgi$3722
  0C:23B9    A$httpd-cgi$3723
  0C:23BA    A$httpd-cgi$3724
  0C:23BB    A$httpd-cgi$3725
  0C:23BC    A$httpd-cgi$3726
  0C:23BD    A$httpd-cgi$3727
  0C:23BE    A$httpd-cgi$3728
  0C:23BF    A$httpd-cgi$3729
  0C:23C0    A$httpd-cgi$3730
  0C:23C2    A$httpd-cgi$3733
  0C:23C2    C$httpd_cgi.c$280$3$3
  0C:23C4    A$httpd-cgi$3734
  0C:23C6    A$httpd-cgi$3735
  0C:23C8    A$httpd-cgi$3736
  0C:23CA    A$httpd-cgi$3737
  0C:23CC    A$httpd-cgi$3738
  0C:23CE    A$httpd-cgi$3739
  0C:23D1    A$httpd-cgi$3740
  0C:23D3    A$httpd-cgi$3741
  0C:23D5    A$httpd-cgi$3742
  0C:23D7    A$httpd-cgi$3743
  0C:23D9    A$httpd-cgi$3744
  0C:23DB    A$httpd-cgi$3747
  0C:23DB    C$httpd_cgi.c$282$3$3
  0C:23DC    A$httpd-cgi$3748
  0C:23DF    A$httpd-cgi$3749
  0C:23E0    A$httpd-cgi$3751
  0C:23E2    A$httpd-cgi$3752
  0C:23E5    A$httpd-cgi$3753
  0C:23E7    A$httpd-cgi$3755
  0C:23EA    A$httpd-cgi$3756
  0C:23EC    A$httpd-cgi$3758
  0C:23EF    A$httpd-cgi$3759
  0C:23F1    A$httpd-cgi$3763
  0C:23F1    C$httpd_cgi.c$284$4$4
  0C:23F4    A$httpd-cgi$3764
  0C:23F6    A$httpd-cgi$3768
  0C:23F6    C$httpd_cgi.c$285$2$2
  0C:23F9    A$httpd-cgi$3769
  0C:23FA    A$httpd-cgi$3770
  0C:23FB    A$httpd-cgi$3771
  0C:23FC    A$httpd-cgi$3776
  0C:23FC    C$httpd_cgi.c$286$2$2
  0C:23FC    C$httpd_cgi.c$288$4$4
  0C:23FE    A$httpd-cgi$3780
  0C:23FE    C$httpd_cgi.c$289$2$2
  0C:2401    A$httpd-cgi$3781
  0C:2402    A$httpd-cgi$3782
  0C:2403    A$httpd-cgi$3783
  0C:2404    A$httpd-cgi$3788
  0C:2404    C$httpd_cgi.c$290$2$2
  0C:2404    C$httpd_cgi.c$292$4$4
  0C:2406    A$httpd-cgi$3792
  0C:2406    C$httpd_cgi.c$293$2$2
  0C:2409    A$httpd-cgi$3793
  0C:240A    A$httpd-cgi$3794
  0C:240B    A$httpd-cgi$3795
  0C:240C    A$httpd-cgi$3800
  0C:240C    C$httpd_cgi.c$294$2$2
  0C:240C    C$httpd_cgi.c$296$4$4
  0C:240E    A$httpd-cgi$3804
  0C:240E    C$httpd_cgi.c$297$2$2
  0C:2411    A$httpd-cgi$3805
  0C:2412    A$httpd-cgi$3806
  0C:2413    A$httpd-cgi$3807
  0C:2414    A$httpd-cgi$3812
  0C:2414    C$httpd_cgi.c$298$2$2
  0C:2414    C$httpd_cgi.c$300$4$4
  0C:2416    A$httpd-cgi$3816
  0C:2416    C$httpd_cgi.c$301$4$4
  0C:2419    A$httpd-cgi$3817
  0C:241A    A$httpd-cgi$3818
  0C:241B    A$httpd-cgi$3819
  0C:241C    A$httpd-cgi$3825
  0C:241C    C$httpd_cgi.c$303$3$3
  0C:241C    C$httpd_cgi.c$305$3$3
  0C:241D    A$httpd-cgi$3826
  0C:241F    A$httpd-cgi$3829
  0C:241F    C$httpd_cgi.c$306$3$3
  0C:2421    A$httpd-cgi$3830
  0C:2423    A$httpd-cgi$3831
  0C:2425    A$httpd-cgi$3832
  0C:2427    A$httpd-cgi$3833
  0C:2429    A$httpd-cgi$3834
  0C:242B    A$httpd-cgi$3835
  0C:242D    A$httpd-cgi$3836
  0C:242F    A$httpd-cgi$3837
  0C:2431    A$httpd-cgi$3838
  0C:2434    A$httpd-cgi$3839
  0C:2435    A$httpd-cgi$3840
  0C:2437    A$httpd-cgi$3841
  0C:2438    A$httpd-cgi$3842
  0C:2439    A$httpd-cgi$3843
  0C:243B    A$httpd-cgi$3844
  0C:243C    A$httpd-cgi$3845
  0C:243D    A$httpd-cgi$3846
  0C:243F    A$httpd-cgi$3847
  0C:2442    A$httpd-cgi$3848
  0C:2444    A$httpd-cgi$3849
  0C:2446    A$httpd-cgi$3850
  0C:2448    A$httpd-cgi$3851
  0C:244A    A$httpd-cgi$3852
  0C:244C    A$httpd-cgi$3853
  0C:244E    A$httpd-cgi$3854
  0C:2450    A$httpd-cgi$3858
  0C:2450    C$httpd_cgi.c$308$3$3
  0C:2452    A$httpd-cgi$3859
  0C:2454    A$httpd-cgi$3860
  0C:2456    A$httpd-cgi$3861
  0C:2458    A$httpd-cgi$3862
  0C:245A    A$httpd-cgi$3863
  0C:245C    A$httpd-cgi$3864
  0C:245E    A$httpd-cgi$3865
  0C:2460    A$httpd-cgi$3866
  0C:2462    A$httpd-cgi$3867
  0C:2465    A$httpd-cgi$3868
  0C:2466    A$httpd-cgi$3869
  0C:2468    A$httpd-cgi$3870
  0C:2469    A$httpd-cgi$3871
  0C:246A    A$httpd-cgi$3872
  0C:246C    A$httpd-cgi$3873
  0C:246D    A$httpd-cgi$3874
  0C:246E    A$httpd-cgi$3875
  0C:2470    A$httpd-cgi$3876
  0C:2473    A$httpd-cgi$3877
  0C:2475    A$httpd-cgi$3878
  0C:2477    A$httpd-cgi$3879
  0C:2479    A$httpd-cgi$3880
  0C:247B    A$httpd-cgi$3881
  0C:247D    A$httpd-cgi$3882
  0C:247F    A$httpd-cgi$3886
  0C:247F    C$httpd_cgi.c$310$3$3
  0C:2481    A$httpd-cgi$3887
  0C:2483    A$httpd-cgi$3888
  0C:2485    A$httpd-cgi$3889
  0C:2487    A$httpd-cgi$3890
  0C:248A    A$httpd-cgi$3891
  0C:248B    A$httpd-cgi$3892
  0C:248D    A$httpd-cgi$3893
  0C:2490    A$httpd-cgi$3895
  0C:2492    A$httpd-cgi$3896
  0C:2494    A$httpd-cgi$3897
  0C:2496    A$httpd-cgi$3898
  0C:2498    A$httpd-cgi$3899
  0C:2499    A$httpd-cgi$3900
  0C:249B    A$httpd-cgi$3901
  0C:249D    A$httpd-cgi$3902
  0C:249E    A$httpd-cgi$3903
  0C:24A0    A$httpd-cgi$3904
  0C:24A1    A$httpd-cgi$3905
  0C:24A2    A$httpd-cgi$3906
  0C:24A3    A$httpd-cgi$3907
  0C:24A4    A$httpd-cgi$3908
  0C:24A5    A$httpd-cgi$3909
  0C:24A6    A$httpd-cgi$3910
  0C:24A7    A$httpd-cgi$3911
  0C:24A8    A$httpd-cgi$3912
  0C:24A9    A$httpd-cgi$3913
  0C:24AA    A$httpd-cgi$3914
  0C:24AB    A$httpd-cgi$3915
  0C:24AE    A$httpd-cgi$3916
  0C:24AF    A$httpd-cgi$3917
  0C:24B0    A$httpd-cgi$3918
  0C:24B1    A$httpd-cgi$3919
  0C:24B2    A$httpd-cgi$3920
  0C:24B3    A$httpd-cgi$3921
  0C:24B4    A$httpd-cgi$3922
  0C:24B5    A$httpd-cgi$3923
  0C:24B6    A$httpd-cgi$3924
  0C:24B8    A$httpd-cgi$3925
  0C:24BA    A$httpd-cgi$3926
  0C:24BC    A$httpd-cgi$3927
  0C:24BE    A$httpd-cgi$3928
  0C:24C0    A$httpd-cgi$3929
  0C:24C2    A$httpd-cgi$3930
  0C:24C4    A$httpd-cgi$3931
  0C:24C6    A$httpd-cgi$3932
  0C:24C8    A$httpd-cgi$3933
  0C:24CA    A$httpd-cgi$3934
  0C:24CD    A$httpd-cgi$3935
  0C:24CF    A$httpd-cgi$3936
  0C:24D1    A$httpd-cgi$3937
  0C:24D3    A$httpd-cgi$3938
  0C:24D5    A$httpd-cgi$3939
  0C:24D7    A$httpd-cgi$3940
  0C:24D9    A$httpd-cgi$3941
  0C:24DC    A$httpd-cgi$3942
  0C:24DD    A$httpd-cgi$3943
  0C:24DE    A$httpd-cgi$3944
  0C:24DF    A$httpd-cgi$3945
  0C:24E0    A$httpd-cgi$3946
  0C:24E1    A$httpd-cgi$3947
  0C:24E2    A$httpd-cgi$3948
  0C:24E3    A$httpd-cgi$3949
  0C:24E4    A$httpd-cgi$3950
  0C:24E7    A$httpd-cgi$3951
  0C:24E8    A$httpd-cgi$3952
  0C:24E9    A$httpd-cgi$3953
  0C:24EA    A$httpd-cgi$3954
  0C:24EB    A$httpd-cgi$3955
  0C:24EC    A$httpd-cgi$3956
  0C:24EE    A$httpd-cgi$3957
  0C:24F0    A$httpd-cgi$3958
  0C:24F1    A$httpd-cgi$3959
  0C:24F3    A$httpd-cgi$3960
  0C:24F4    A$httpd-cgi$3961
  0C:24F6    A$httpd-cgi$3962
  0C:24F7    A$httpd-cgi$3963
  0C:24F9    A$httpd-cgi$3964
  0C:24FB    A$httpd-cgi$3965
  0C:24FD    A$httpd-cgi$3966
  0C:24FF    A$httpd-cgi$3967
  0C:2501    A$httpd-cgi$3968
  0C:2503    A$httpd-cgi$3969
  0C:2505    A$httpd-cgi$3970
  0C:2508    A$httpd-cgi$3971
  0C:250A    A$httpd-cgi$3972
  0C:250C    A$httpd-cgi$3973
  0C:250E    A$httpd-cgi$3974
  0C:2510    A$httpd-cgi$3975
  0C:2512    A$httpd-cgi$3976
  0C:2514    A$httpd-cgi$3977
  0C:2516    A$httpd-cgi$3978
  0C:2518    A$httpd-cgi$3979
  0C:251A    A$httpd-cgi$3982
  0C:251A    C$httpd_cgi.c$311$2$2
  0C:251C    A$httpd-cgi$3984
  0C:251E    A$httpd-cgi$3985
  0C:2520    A$httpd-cgi$3986
  0C:2522    A$httpd-cgi$3987
  0C:2523    A$httpd-cgi$3988
  0C:2526    A$httpd-cgi$3989
  0C:2527    A$httpd-cgi$3990
  0C:2528    A$httpd-cgi$3991
  0C:252B    A$httpd-cgi$3992
  0C:252E    A$httpd-cgi$3994
  0C:2531    A$httpd-cgi$3995
  0C:2533    A$httpd-cgi$3998
  0C:2533    C$httpd_cgi.c$312$2$2
  0C:2533    XFhttpd_cgi$get_check_box$0$0
  0C:2534    A$httpd-cgi$4017
  0C:2534    C$httpd_cgi.c$315$2$2
  0C:2534    Fhttpd_cgi$get_string$0$0
  0C:2536    A$httpd-cgi$4018
  0C:2538    A$httpd-cgi$4019
  0C:253A    A$httpd-cgi$4020
  0C:253C    A$httpd-cgi$4021
  0C:253E    A$httpd-cgi$4022
  0C:2540    A$httpd-cgi$4023
  0C:2542    A$httpd-cgi$4024
  0C:2544    A$httpd-cgi$4027
  0C:2544    C$httpd_cgi.c$318$1$1
  0C:2546    A$httpd-cgi$4028
  0C:2547    A$httpd-cgi$4029
  0C:2548    A$httpd-cgi$4030
  0C:2549    A$httpd-cgi$4031
  0C:254A    A$httpd-cgi$4032
  0C:254B    A$httpd-cgi$4033
  0C:254C    A$httpd-cgi$4034
  0C:254D    A$httpd-cgi$4035
  0C:254F    A$httpd-cgi$4038
  0C:254F    C$httpd_cgi.c$320$2$2
  0C:2551    A$httpd-cgi$4039
  0C:2552    A$httpd-cgi$4040
  0C:2553    A$httpd-cgi$4041
  0C:2554    A$httpd-cgi$4042
  0C:2555    A$httpd-cgi$4043
  0C:2556    A$httpd-cgi$4044
  0C:2558    A$httpd-cgi$4045
  0C:255A    A$httpd-cgi$4046
  0C:255C    A$httpd-cgi$4047
  0C:255E    A$httpd-cgi$4048
  0C:2560    A$httpd-cgi$4049
  0C:2562    A$httpd-cgi$4050
  0C:2563    A$httpd-cgi$4051
  0C:2566    A$httpd-cgi$4052
  0C:2567    A$httpd-cgi$4053
  0C:2568    A$httpd-cgi$4054
  0C:256B    A$httpd-cgi$4055
  0C:256C    A$httpd-cgi$4056
  0C:256D    A$httpd-cgi$4057
  0C:256F    A$httpd-cgi$4058
  0C:2571    A$httpd-cgi$4059
  0C:2572    A$httpd-cgi$4060
  0C:2575    A$httpd-cgi$4061
  0C:2576    A$httpd-cgi$4062
  0C:2579    A$httpd-cgi$4063
  0C:257B    A$httpd-cgi$4065
  0C:257D    A$httpd-cgi$4066
  0C:257F    A$httpd-cgi$4067
  0C:2580    A$httpd-cgi$4068
  0C:2583    A$httpd-cgi$4069
  0C:2584    A$httpd-cgi$4070
  0C:2587    A$httpd-cgi$4071
  0C:258A    A$httpd-cgi$4073
  0C:258D    A$httpd-cgi$4077
  0C:258D    C$httpd_cgi.c$322$2$2
  0C:258F    A$httpd-cgi$4078
  0C:2591    A$httpd-cgi$4079
  0C:2592    A$httpd-cgi$4080
  0C:2594    A$httpd-cgi$4081
  0C:2596    A$httpd-cgi$4082
  0C:2597    A$httpd-cgi$4083
  0C:2598    A$httpd-cgi$4084
  0C:2599    A$httpd-cgi$4085
  0C:259A    A$httpd-cgi$4086
  0C:259B    A$httpd-cgi$4087
  0C:259C    A$httpd-cgi$4088
  0C:259D    A$httpd-cgi$4089
  0C:259E    A$httpd-cgi$4090
  0C:259F    A$httpd-cgi$4091
  0C:25A0    A$httpd-cgi$4092
  0C:25A1    A$httpd-cgi$4094
  0C:25A3    A$httpd-cgi$4095
  0C:25A5    A$httpd-cgi$4096
  0C:25A7    A$httpd-cgi$4097
  0C:25A9    A$httpd-cgi$4098
  0C:25AB    A$httpd-cgi$4099
  0C:25AC    A$httpd-cgi$4100
  0C:25AE    A$httpd-cgi$4101
  0C:25AF    A$httpd-cgi$4102
  0C:25B1    A$httpd-cgi$4103
  0C:25B2    A$httpd-cgi$4104
  0C:25B4    A$httpd-cgi$4105
  0C:25B7    A$httpd-cgi$4106
  0C:25B8    A$httpd-cgi$4107
  0C:25B9    A$httpd-cgi$4108
  0C:25BC    A$httpd-cgi$4109
  0C:25BD    A$httpd-cgi$4111
  0C:25BF    A$httpd-cgi$4112
  0C:25C1    A$httpd-cgi$4113
  0C:25C3    A$httpd-cgi$4114
  0C:25C5    A$httpd-cgi$4117
  0C:25C5    C$httpd_cgi.c$323$3$3
  0C:25C7    A$httpd-cgi$4118
  0C:25C9    A$httpd-cgi$4119
  0C:25CA    A$httpd-cgi$4120
  0C:25CB    A$httpd-cgi$4121
  0C:25CE    A$httpd-cgi$4122
  0C:25CF    A$httpd-cgi$4123
  0C:25D0    A$httpd-cgi$4125
  0C:25D2    A$httpd-cgi$4129
  0C:25D2    C$httpd_cgi.c$324$2$2
  0C:25D4    A$httpd-cgi$4130
  0C:25D6    A$httpd-cgi$4131
  0C:25D8    A$httpd-cgi$4132
  0C:25DA    A$httpd-cgi$4133
  0C:25DC    A$httpd-cgi$4134
  0C:25DD    A$httpd-cgi$4135
  0C:25DF    A$httpd-cgi$4136
  0C:25E0    A$httpd-cgi$4137
  0C:25E1    A$httpd-cgi$4138
  0C:25E2    A$httpd-cgi$4139
  0C:25E3    A$httpd-cgi$4140
  0C:25E4    A$httpd-cgi$4141
  0C:25E5    A$httpd-cgi$4142
  0C:25E6    A$httpd-cgi$4143
  0C:25E8    A$httpd-cgi$4146
  0C:25E8    C$httpd_cgi.c$326$3$3
  0C:25EA    A$httpd-cgi$4147
  0C:25EC    A$httpd-cgi$4148
  0C:25EE    A$httpd-cgi$4149
  0C:25F0    A$httpd-cgi$4150
  0C:25F2    A$httpd-cgi$4151
  0C:25F4    A$httpd-cgi$4152
  0C:25F6    A$httpd-cgi$4153
  0C:25F9    A$httpd-cgi$4154
  0C:25FB    A$httpd-cgi$4155
  0C:25FD    A$httpd-cgi$4156
  0C:25FF    A$httpd-cgi$4157
  0C:2601    A$httpd-cgi$4158
  0C:2603    A$httpd-cgi$4159
  0C:2605    A$httpd-cgi$4160
  0C:2607    A$httpd-cgi$4161
  0C:2608    A$httpd-cgi$4162
  0C:260A    A$httpd-cgi$4165
  0C:260A    C$httpd_cgi.c$328$3$3
  0C:260C    A$httpd-cgi$4166
  0C:260D    A$httpd-cgi$4167
  0C:260E    A$httpd-cgi$4168
  0C:2611    A$httpd-cgi$4169
  0C:2612    A$httpd-cgi$4171
  0C:2614    A$httpd-cgi$4172
  0C:2616    A$httpd-cgi$4173
  0C:2618    A$httpd-cgi$4174
  0C:261A    A$httpd-cgi$4175
  0C:261C    A$httpd-cgi$4176
  0C:261D    A$httpd-cgi$4177
  0C:2620    A$httpd-cgi$4178
  0C:2622    A$httpd-cgi$4180
  0C:2624    A$httpd-cgi$4181
  0C:2625    A$httpd-cgi$4182
  0C:2628    A$httpd-cgi$4183
  0C:262A    A$httpd-cgi$4185
  0C:262C    A$httpd-cgi$4186
  0C:262D    A$httpd-cgi$4189
  0C:262D    C$httpd_cgi.c$331$4$4
  0C:2630    A$httpd-cgi$4190
  0C:2632    A$httpd-cgi$4194
  0C:2632    C$httpd_cgi.c$332$4$4
  0C:2634    A$httpd-cgi$4195
  0C:2635    A$httpd-cgi$4196
  0C:2636    A$httpd-cgi$4197
  0C:2638    A$httpd-cgi$4198
  0C:2639    A$httpd-cgi$4199
  0C:263B    A$httpd-cgi$4200
  0C:263C    A$httpd-cgi$4201
  0C:263E    A$httpd-cgi$4206
  0C:263E    C$httpd_cgi.c$333$4$4
  0C:263E    C$httpd_cgi.c$336$4$4
  0C:2640    A$httpd-cgi$4210
  0C:2640    C$httpd_cgi.c$337$4$4
  0C:2642    A$httpd-cgi$4211
  0C:2643    A$httpd-cgi$4212
  0C:2644    A$httpd-cgi$4213
  0C:2646    A$httpd-cgi$4214
  0C:2647    A$httpd-cgi$4215
  0C:2649    A$httpd-cgi$4216
  0C:264A    A$httpd-cgi$4217
  0C:264C    A$httpd-cgi$4222
  0C:264C    C$httpd_cgi.c$338$4$4
  0C:264C    C$httpd_cgi.c$341$4$4
  0C:264E    A$httpd-cgi$4226
  0C:264E    C$httpd_cgi.c$342$4$4
  0C:2650    A$httpd-cgi$4227
  0C:2651    A$httpd-cgi$4228
  0C:2652    A$httpd-cgi$4229
  0C:2654    A$httpd-cgi$4230
  0C:2655    A$httpd-cgi$4231
  0C:2657    A$httpd-cgi$4232
  0C:2658    A$httpd-cgi$4233
  0C:265A    A$httpd-cgi$4238
  0C:265A    C$httpd_cgi.c$343$4$4
  0C:265A    C$httpd_cgi.c$346$4$4
  0C:265C    A$httpd-cgi$4242
  0C:265C    C$httpd_cgi.c$347$4$4
  0C:265E    A$httpd-cgi$4243
  0C:265F    A$httpd-cgi$4244
  0C:2660    A$httpd-cgi$4245
  0C:2662    A$httpd-cgi$4246
  0C:2663    A$httpd-cgi$4247
  0C:2665    A$httpd-cgi$4248
  0C:2666    A$httpd-cgi$4249
  0C:2668    A$httpd-cgi$4255
  0C:2668    C$httpd_cgi.c$349$3$3
  0C:2668    C$httpd_cgi.c$351$3$3
  0C:266A    A$httpd-cgi$4256
  0C:266B    A$httpd-cgi$4257
  0C:266C    A$httpd-cgi$4258
  0C:266D    A$httpd-cgi$4259
  0C:266E    A$httpd-cgi$4260
  0C:266F    A$httpd-cgi$4261
  0C:2670    A$httpd-cgi$4262
  0C:2671    A$httpd-cgi$4263
  0C:2673    A$httpd-cgi$4266
  0C:2673    C$httpd_cgi.c$352$3$3
  0C:2675    A$httpd-cgi$4267
  0C:2677    A$httpd-cgi$4268
  0C:2679    A$httpd-cgi$4269
  0C:267B    A$httpd-cgi$4270
  0C:267D    A$httpd-cgi$4271
  0C:267F    A$httpd-cgi$4272
  0C:2681    A$httpd-cgi$4273
  0C:2682    A$httpd-cgi$4274
  0C:2683    A$httpd-cgi$4275
  0C:2684    A$httpd-cgi$4276
  0C:2686    A$httpd-cgi$4277
  0C:2687    A$httpd-cgi$4278
  0C:2688    A$httpd-cgi$4279
  0C:268A    A$httpd-cgi$4280
  0C:268B    A$httpd-cgi$4281
  0C:268C    A$httpd-cgi$4282
  0C:268E    A$httpd-cgi$4283
  0C:2690    A$httpd-cgi$4284
  0C:2692    A$httpd-cgi$4285
  0C:2694    A$httpd-cgi$4286
  0C:2696    A$httpd-cgi$4287
  0C:2698    A$httpd-cgi$4288
  0C:269A    A$httpd-cgi$4289
  0C:269D    A$httpd-cgi$4290
  0C:269E    A$httpd-cgi$4291
  0C:26A0    A$httpd-cgi$4292
  0C:26A1    A$httpd-cgi$4293
  0C:26A2    A$httpd-cgi$4294
  0C:26A4    A$httpd-cgi$4295
  0C:26A5    A$httpd-cgi$4296
  0C:26A6    A$httpd-cgi$4297
  0C:26A8    A$httpd-cgi$4298
  0C:26AB    A$httpd-cgi$4299
  0C:26AD    A$httpd-cgi$4300
  0C:26AF    A$httpd-cgi$4301
  0C:26B1    A$httpd-cgi$4302
  0C:26B3    A$httpd-cgi$4303
  0C:26B5    A$httpd-cgi$4304
  0C:26B7    A$httpd-cgi$4305
  0C:26B9    A$httpd-cgi$4306
  0C:26BB    A$httpd-cgi$4307
  0C:26BD    A$httpd-cgi$4311
  0C:26BD    C$httpd_cgi.c$354$3$3
  0C:26BF    A$httpd-cgi$4312
  0C:26C1    A$httpd-cgi$4313
  0C:26C3    A$httpd-cgi$4314
  0C:26C5    A$httpd-cgi$4315
  0C:26C8    A$httpd-cgi$4316
  0C:26C9    A$httpd-cgi$4317
  0C:26CB    A$httpd-cgi$4318
  0C:26CE    A$httpd-cgi$4320
  0C:26D0    A$httpd-cgi$4321
  0C:26D2    A$httpd-cgi$4322
  0C:26D4    A$httpd-cgi$4323
  0C:26D6    A$httpd-cgi$4324
  0C:26D8    A$httpd-cgi$4325
  0C:26D9    A$httpd-cgi$4326
  0C:26DB    A$httpd-cgi$4327
  0C:26DC    A$httpd-cgi$4328
  0C:26DD    A$httpd-cgi$4329
  0C:26DE    A$httpd-cgi$4330
  0C:26DF    A$httpd-cgi$4331
  0C:26E0    A$httpd-cgi$4332
  0C:26E1    A$httpd-cgi$4333
  0C:26E2    A$httpd-cgi$4334
  0C:26E4    A$httpd-cgi$4335
  0C:26E7    A$httpd-cgi$4336
  0C:26E8    A$httpd-cgi$4337
  0C:26E9    A$httpd-cgi$4338
  0C:26EA    A$httpd-cgi$4339
  0C:26EB    A$httpd-cgi$4340
  0C:26EC    A$httpd-cgi$4341
  0C:26ED    A$httpd-cgi$4342
  0C:26EE    A$httpd-cgi$4343
  0C:26EF    A$httpd-cgi$4344
  0C:26F1    A$httpd-cgi$4345
  0C:26F3    A$httpd-cgi$4346
  0C:26F5    A$httpd-cgi$4347
  0C:26F7    A$httpd-cgi$4348
  0C:26F9    A$httpd-cgi$4349
  0C:26FB    A$httpd-cgi$4350
  0C:26FD    A$httpd-cgi$4351
  0C:26FF    A$httpd-cgi$4352
  0C:2701    A$httpd-cgi$4353
  0C:2703    A$httpd-cgi$4354
  0C:2706    A$httpd-cgi$4355
  0C:2708    A$httpd-cgi$4356
  0C:270A    A$httpd-cgi$4357
  0C:270C    A$httpd-cgi$4358
  0C:270E    A$httpd-cgi$4359
  0C:2710    A$httpd-cgi$4360
  0C:2712    A$httpd-cgi$4361
  0C:2715    A$httpd-cgi$4362
  0C:2716    A$httpd-cgi$4363
  0C:2717    A$httpd-cgi$4364
  0C:2718    A$httpd-cgi$4365
  0C:2719    A$httpd-cgi$4366
  0C:271A    A$httpd-cgi$4367
  0C:271B    A$httpd-cgi$4368
  0C:271C    A$httpd-cgi$4369
  0C:271D    A$httpd-cgi$4370
  0C:2720    A$httpd-cgi$4371
  0C:2721    A$httpd-cgi$4372
  0C:2722    A$httpd-cgi$4373
  0C:2723    A$httpd-cgi$4374
  0C:2724    A$httpd-cgi$4375
  0C:2725    A$httpd-cgi$4376
  0C:2727    A$httpd-cgi$4377
  0C:2729    A$httpd-cgi$4378
  0C:272A    A$httpd-cgi$4379
  0C:272C    A$httpd-cgi$4380
  0C:272D    A$httpd-cgi$4381
  0C:272F    A$httpd-cgi$4382
  0C:2730    A$httpd-cgi$4383
  0C:2732    A$httpd-cgi$4384
  0C:2734    A$httpd-cgi$4385
  0C:2736    A$httpd-cgi$4386
  0C:2738    A$httpd-cgi$4387
  0C:273A    A$httpd-cgi$4388
  0C:273C    A$httpd-cgi$4389
  0C:273E    A$httpd-cgi$4390
  0C:2741    A$httpd-cgi$4391
  0C:2743    A$httpd-cgi$4392
  0C:2745    A$httpd-cgi$4393
  0C:2747    A$httpd-cgi$4394
  0C:2749    A$httpd-cgi$4395
  0C:274B    A$httpd-cgi$4396
  0C:274D    A$httpd-cgi$4397
  0C:274F    A$httpd-cgi$4398
  0C:2751    A$httpd-cgi$4399
  0C:2753    A$httpd-cgi$4402
  0C:2753    C$httpd_cgi.c$355$2$2
  0C:2755    A$httpd-cgi$4404
  0C:2757    A$httpd-cgi$4405
  0C:2759    A$httpd-cgi$4406
  0C:275B    A$httpd-cgi$4407
  0C:275C    A$httpd-cgi$4408
  0C:275F    A$httpd-cgi$4409
  0C:2760    A$httpd-cgi$4410
  0C:2761    A$httpd-cgi$4411
  0C:2764    A$httpd-cgi$4412
  0C:2767    A$httpd-cgi$4414
  0C:276A    A$httpd-cgi$4415
  0C:276C    A$httpd-cgi$4418
  0C:276C    C$httpd_cgi.c$356$2$2
  0C:276C    XFhttpd_cgi$get_string$0$0
  0C:276D    A$httpd-cgi$4443
  0C:276D    C$httpd_cgi.c$360$2$2
  0C:276D    Fhttpd_cgi$get_int$0$0
  0C:276F    A$httpd-cgi$4444
  0C:2771    A$httpd-cgi$4445
  0C:2773    A$httpd-cgi$4446
  0C:2775    A$httpd-cgi$4447
  0C:2777    A$httpd-cgi$4448
  0C:2779    A$httpd-cgi$4449
  0C:277B    A$httpd-cgi$4450
  0C:277D    A$httpd-cgi$4453
  0C:277D    C$httpd_cgi.c$369$2$2
  0C:277F    A$httpd-cgi$4454
  0C:2781    A$httpd-cgi$4455
  0C:2782    A$httpd-cgi$4456
  0C:2784    A$httpd-cgi$4457
  0C:2785    A$httpd-cgi$4458
  0C:2786    A$httpd-cgi$4459
  0C:2787    A$httpd-cgi$4460
  0C:2788    A$httpd-cgi$4461
  0C:2789    A$httpd-cgi$4462
  0C:278A    A$httpd-cgi$4463
  0C:278B    A$httpd-cgi$4464
  0C:278D    A$httpd-cgi$4465
  0C:278F    A$httpd-cgi$4466
  0C:2791    A$httpd-cgi$4467
  0C:2792    A$httpd-cgi$4468
  0C:2794    A$httpd-cgi$4469
  0C:2795    A$httpd-cgi$4470
  0C:2797    A$httpd-cgi$4471
  0C:2798    A$httpd-cgi$4472
  0C:279A    A$httpd-cgi$4473
  0C:279D    A$httpd-cgi$4474
  0C:279E    A$httpd-cgi$4475
  0C:279F    A$httpd-cgi$4476
  0C:27A2    A$httpd-cgi$4477
  0C:27A3    A$httpd-cgi$4478
  0C:27A6    A$httpd-cgi$4479
  0C:27A9    A$httpd-cgi$4480
  0C:27AB    A$httpd-cgi$4482
  0C:27AE    A$httpd-cgi$4483
  0C:27B1    A$httpd-cgi$4484
  0C:27B4    A$httpd-cgi$4486
  0C:27B7    A$httpd-cgi$4490
  0C:27B7    C$httpd_cgi.c$372$2$2
  0C:27B9    A$httpd-cgi$4491
  0C:27BB    A$httpd-cgi$4492
  0C:27BC    A$httpd-cgi$4493
  0C:27BE    A$httpd-cgi$4494
  0C:27BF    A$httpd-cgi$4495
  0C:27C1    A$httpd-cgi$4496
  0C:27C2    A$httpd-cgi$4497
  0C:27C4    A$httpd-cgi$4499
  0C:27C6    A$httpd-cgi$4500
  0C:27C8    A$httpd-cgi$4501
  0C:27CA    A$httpd-cgi$4502
  0C:27CC    A$httpd-cgi$4503
  0C:27CE    A$httpd-cgi$4504
  0C:27D0    A$httpd-cgi$4505
  0C:27D3    A$httpd-cgi$4506
  0C:27D4    A$httpd-cgi$4507
  0C:27D5    A$httpd-cgi$4508
  0C:27D8    A$httpd-cgi$4509
  0C:27D9    A$httpd-cgi$4511
  0C:27DB    A$httpd-cgi$4512
  0C:27DD    A$httpd-cgi$4513
  0C:27DF    A$httpd-cgi$4514
  0C:27E1    A$httpd-cgi$4517
  0C:27E1    C$httpd_cgi.c$373$3$3
  0C:27E2    A$httpd-cgi$4518
  0C:27E5    A$httpd-cgi$4519
  0C:27E6    A$httpd-cgi$4520
  0C:27E8    A$httpd-cgi$4524
  0C:27E8    C$httpd_cgi.c$374$2$2
  0C:27EA    A$httpd-cgi$4525
  0C:27EC    A$httpd-cgi$4526
  0C:27EE    A$httpd-cgi$4527
  0C:27F0    A$httpd-cgi$4528
  0C:27F1    A$httpd-cgi$4529
  0C:27F2    A$httpd-cgi$4530
  0C:27F3    A$httpd-cgi$4531
  0C:27F4    A$httpd-cgi$4532
  0C:27F5    A$httpd-cgi$4533
  0C:27F7    A$httpd-cgi$4536
  0C:27F7    C$httpd_cgi.c$375$3$3
  0C:27F9    A$httpd-cgi$4537
  0C:27FB    A$httpd-cgi$4538
  0C:27FD    A$httpd-cgi$4539
  0C:27FF    A$httpd-cgi$4540
  0C:2802    A$httpd-cgi$4541
  0C:2804    A$httpd-cgi$4542
  0C:2806    A$httpd-cgi$4543
  0C:2808    A$httpd-cgi$4544
  0C:280A    A$httpd-cgi$4547
  0C:280A    C$httpd_cgi.c$377$3$3
  0C:280B    A$httpd-cgi$4548
  0C:280E    A$httpd-cgi$4549
  0C:280F    A$httpd-cgi$4551
  0C:2811    A$httpd-cgi$4552
  0C:2813    A$httpd-cgi$4553
  0C:2815    A$httpd-cgi$4554
  0C:2817    A$httpd-cgi$4557
  0C:2817    C$httpd_cgi.c$380$4$4
  0C:281A    A$httpd-cgi$4558
  0C:281C    A$httpd-cgi$4562
  0C:281C    C$httpd_cgi.c$381$4$4
  0C:281E    A$httpd-cgi$4563
  0C:2820    A$httpd-cgi$4564
  0C:2822    A$httpd-cgi$4565
  0C:2824    A$httpd-cgi$4566
  0C:2826    A$httpd-cgi$4567
  0C:2828    A$httpd-cgi$4568
  0C:282B    A$httpd-cgi$4569
  0C:282D    A$httpd-cgi$4570
  0C:282E    A$httpd-cgi$4571
  0C:2830    A$httpd-cgi$4572
  0C:2831    A$httpd-cgi$4573
  0C:2833    A$httpd-cgi$4574
  0C:2834    A$httpd-cgi$4575
  0C:2836    A$httpd-cgi$4576
  0C:2837    A$httpd-cgi$4577
  0C:2838    A$httpd-cgi$4578
  0C:283A    A$httpd-cgi$4579
  0C:283C    A$httpd-cgi$4580
  0C:283E    A$httpd-cgi$4581
  0C:2840    A$httpd-cgi$4582
  0C:2841    A$httpd-cgi$4583
  0C:2843    A$httpd-cgi$4584
  0C:2845    A$httpd-cgi$4585
  0C:2846    A$httpd-cgi$4586
  0C:2847    A$httpd-cgi$4587
  0C:2848    A$httpd-cgi$4588
  0C:2849    A$httpd-cgi$4589
  0C:284A    A$httpd-cgi$4590
  0C:284B    A$httpd-cgi$4591
  0C:284C    A$httpd-cgi$4592
  0C:284D    A$httpd-cgi$4593
  0C:284E    A$httpd-cgi$4594
  0C:284F    A$httpd-cgi$4595
  0C:2850    A$httpd-cgi$4596
  0C:2851    A$httpd-cgi$4597
  0C:2852    A$httpd-cgi$4598
  0C:2853    A$httpd-cgi$4599
  0C:2854    A$httpd-cgi$4604
  0C:2854    C$httpd_cgi.c$382$4$4
  0C:2854    C$httpd_cgi.c$385$4$4
  0C:2856    A$httpd-cgi$4608
  0C:2856    C$httpd_cgi.c$386$4$4
  0C:2858    A$httpd-cgi$4609
  0C:285A    A$httpd-cgi$4610
  0C:285C    A$httpd-cgi$4611
  0C:285E    A$httpd-cgi$4612
  0C:2860    A$httpd-cgi$4613
  0C:2862    A$httpd-cgi$4614
  0C:2865    A$httpd-cgi$4615
  0C:2867    A$httpd-cgi$4616
  0C:2868    A$httpd-cgi$4617
  0C:286A    A$httpd-cgi$4618
  0C:286B    A$httpd-cgi$4619
  0C:286D    A$httpd-cgi$4620
  0C:286E    A$httpd-cgi$4621
  0C:2870    A$httpd-cgi$4622
  0C:2871    A$httpd-cgi$4623
  0C:2872    A$httpd-cgi$4624
  0C:2874    A$httpd-cgi$4625
  0C:2876    A$httpd-cgi$4626
  0C:2878    A$httpd-cgi$4627
  0C:287A    A$httpd-cgi$4628
  0C:287B    A$httpd-cgi$4629
  0C:287D    A$httpd-cgi$4630
  0C:287F    A$httpd-cgi$4631
  0C:2880    A$httpd-cgi$4632
  0C:2881    A$httpd-cgi$4633
  0C:2882    A$httpd-cgi$4634
  0C:2883    A$httpd-cgi$4635
  0C:2884    A$httpd-cgi$4636
  0C:2885    A$httpd-cgi$4637
  0C:2886    A$httpd-cgi$4638
  0C:2887    A$httpd-cgi$4639
  0C:2888    A$httpd-cgi$4640
  0C:2889    A$httpd-cgi$4641
  0C:288A    A$httpd-cgi$4642
  0C:288B    A$httpd-cgi$4643
  0C:288C    A$httpd-cgi$4644
  0C:288D    A$httpd-cgi$4645
  0C:288E    A$httpd-cgi$4650
  0C:288E    C$httpd_cgi.c$387$4$4
  0C:288E    C$httpd_cgi.c$389$4$4
  0C:2890    A$httpd-cgi$4654
  0C:2890    C$httpd_cgi.c$390$4$4
  0C:2892    A$httpd-cgi$4655
  0C:2894    A$httpd-cgi$4656
  0C:2895    A$httpd-cgi$4657
  0C:2896    A$httpd-cgi$4658
  0C:2897    A$httpd-cgi$4659
  0C:2898    A$httpd-cgi$4660
  0C:2899    A$httpd-cgi$4661
  0C:289A    A$httpd-cgi$4662
  0C:289B    A$httpd-cgi$4663
  0C:289C    A$httpd-cgi$4664
  0C:289D    A$httpd-cgi$4670
  0C:289D    C$httpd_cgi.c$391$3$3
  0C:289D    C$httpd_cgi.c$393$2$2
  0C:289F    A$httpd-cgi$4671
  0C:28A1    A$httpd-cgi$4672
  0C:28A3    A$httpd-cgi$4673
  0C:28A6    A$httpd-cgi$4674
  0C:28A8    A$httpd-cgi$4675
  0C:28A9    A$httpd-cgi$4676
  0C:28AA    A$httpd-cgi$4677
  0C:28AB    A$httpd-cgi$4678
  0C:28AC    A$httpd-cgi$4679
  0C:28AD    A$httpd-cgi$4680
  0C:28AE    A$httpd-cgi$4681
  0C:28AF    A$httpd-cgi$4682
  0C:28B0    A$httpd-cgi$4683
  0C:28B2    A$httpd-cgi$4684
  0C:28B4    A$httpd-cgi$4685
  0C:28B5    A$httpd-cgi$4686
  0C:28B7    A$httpd-cgi$4687
  0C:28B8    A$httpd-cgi$4688
  0C:28BA    A$httpd-cgi$4689
  0C:28BB    A$httpd-cgi$4690
  0C:28BD    A$httpd-cgi$4691
  0C:28BE    A$httpd-cgi$4692
  0C:28BF    A$httpd-cgi$4693
  0C:28C1    A$httpd-cgi$4694
  0C:28C3    A$httpd-cgi$4695
  0C:28C5    A$httpd-cgi$4696
  0C:28C8    A$httpd-cgi$4697
  0C:28CA    A$httpd-cgi$4698
  0C:28CC    A$httpd-cgi$4699
  0C:28CE    A$httpd-cgi$4700
  0C:28CF    A$httpd-cgi$4701
  0C:28D1    A$httpd-cgi$4702
  0C:28D3    A$httpd-cgi$4703
  0C:28D4    A$httpd-cgi$4704
  0C:28D6    A$httpd-cgi$4705
  0C:28D7    A$httpd-cgi$4706
  0C:28D9    A$httpd-cgi$4707
  0C:28DA    A$httpd-cgi$4708
  0C:28DB    A$httpd-cgi$4709
  0C:28DD    A$httpd-cgi$4710
  0C:28DF    A$httpd-cgi$4713
  0C:28DF    C$httpd_cgi.c$394$2$2
  0C:28E2    A$httpd-cgi$4714
  0C:28E4    A$httpd-cgi$4715
  0C:28E5    A$httpd-cgi$4716
  0C:28E6    A$httpd-cgi$4717
  0C:28E8    A$httpd-cgi$4718
  0C:28E9    A$httpd-cgi$4719
  0C:28EA    A$httpd-cgi$4720
  0C:28EB    A$httpd-cgi$4721
  0C:28EC    A$httpd-cgi$4722
  0C:28ED    A$httpd-cgi$4723
  0C:28EE    A$httpd-cgi$4724
  0C:28F0    A$httpd-cgi$4725
  0C:28F2    A$httpd-cgi$4726
  0C:28F3    A$httpd-cgi$4727
  0C:28F5    A$httpd-cgi$4728
  0C:28F6    A$httpd-cgi$4729
  0C:28F8    A$httpd-cgi$4730
  0C:28F9    A$httpd-cgi$4731
  0C:28FB    A$httpd-cgi$4732
  0C:28FC    A$httpd-cgi$4733
  0C:28FD    A$httpd-cgi$4734
  0C:2900    A$httpd-cgi$4735
  0C:2902    A$httpd-cgi$4736
  0C:2903    A$httpd-cgi$4737
  0C:2904    A$httpd-cgi$4738
  0C:2905    A$httpd-cgi$4739
  0C:2906    A$httpd-cgi$4740
  0C:2907    A$httpd-cgi$4741
  0C:2909    A$httpd-cgi$4742
  0C:290A    A$httpd-cgi$4743
  0C:290C    A$httpd-cgi$4744
  0C:290D    A$httpd-cgi$4745
  0C:290F    A$httpd-cgi$4746
  0C:2910    A$httpd-cgi$4747
  0C:2911    A$httpd-cgi$4748
  0C:2913    A$httpd-cgi$4749
  0C:2915    A$httpd-cgi$4750
  0C:2917    A$httpd-cgi$4751
  0C:2919    A$httpd-cgi$4752
  0C:291B    A$httpd-cgi$4755
  0C:291B    C$httpd_cgi.c$395$2$2
  0C:291D    A$httpd-cgi$4756
  0C:291F    A$httpd-cgi$4757
  0C:2920    A$httpd-cgi$4758
  0C:2923    A$httpd-cgi$4759
  0C:2924    A$httpd-cgi$4760
  0C:2925    A$httpd-cgi$4761
  0C:2926    A$httpd-cgi$4762
  0C:2927    A$httpd-cgi$4763
  0C:2928    A$httpd-cgi$4764
  0C:2929    A$httpd-cgi$4765
  0C:292A    A$httpd-cgi$4766
  0C:292B    A$httpd-cgi$4767
  0C:292C    A$httpd-cgi$4768
  0C:292D    A$httpd-cgi$4769
  0C:292E    A$httpd-cgi$4770
  0C:292F    A$httpd-cgi$4771
  0C:2930    A$httpd-cgi$4772
  0C:2931    A$httpd-cgi$4773
  0C:2934    A$httpd-cgi$4774
  0C:2935    A$httpd-cgi$4775
  0C:2937    A$httpd-cgi$4776
  0C:293A    A$httpd-cgi$4777
  0C:293C    A$httpd-cgi$4778
  0C:293E    A$httpd-cgi$4779
  0C:2940    A$httpd-cgi$4780
  0C:2941    A$httpd-cgi$4781
  0C:2943    A$httpd-cgi$4782
  0C:2945    A$httpd-cgi$4783
  0C:2946    A$httpd-cgi$4784
  0C:2947    A$httpd-cgi$4785
  0C:2948    A$httpd-cgi$4786
  0C:2949    A$httpd-cgi$4787
  0C:294A    A$httpd-cgi$4788
  0C:294B    A$httpd-cgi$4789
  0C:294C    A$httpd-cgi$4790
  0C:294D    A$httpd-cgi$4791
  0C:294E    A$httpd-cgi$4792
  0C:294F    A$httpd-cgi$4793
  0C:2950    A$httpd-cgi$4794
  0C:2951    A$httpd-cgi$4795
  0C:2952    A$httpd-cgi$4796
  0C:2953    A$httpd-cgi$4797
  0C:2954    A$httpd-cgi$4798
  0C:2955    A$httpd-cgi$4799
  0C:2956    A$httpd-cgi$4800
  0C:2959    A$httpd-cgi$4801
  0C:295B    A$httpd-cgi$4802
  0C:295C    A$httpd-cgi$4803
  0C:295D    A$httpd-cgi$4804
  0C:295E    A$httpd-cgi$4805
  0C:295F    A$httpd-cgi$4806
  0C:2960    A$httpd-cgi$4807
  0C:2961    A$httpd-cgi$4808
  0C:2962    A$httpd-cgi$4809
  0C:2963    A$httpd-cgi$4810
  0C:2965    A$httpd-cgi$4811
  0C:2967    A$httpd-cgi$4812
  0C:2969    A$httpd-cgi$4813
  0C:296A    A$httpd-cgi$4814
  0C:296D    A$httpd-cgi$4815
  0C:296F    A$httpd-cgi$4818
  0C:296F    C$httpd_cgi.c$396$3$3
  0C:2971    A$httpd-cgi$4819
  0C:2973    A$httpd-cgi$4820
  0C:2974    A$httpd-cgi$4821
  0C:2976    A$httpd-cgi$4822
  0C:2978    A$httpd-cgi$4823
  0C:297A    A$httpd-cgi$4824
  0C:297B    A$httpd-cgi$4825
  0C:297C    A$httpd-cgi$4826
  0C:297D    A$httpd-cgi$4827
  0C:297F    A$httpd-cgi$4828
  0C:2980    A$httpd-cgi$4829
  0C:2981    A$httpd-cgi$4830
  0C:2982    A$httpd-cgi$4831
  0C:2983    A$httpd-cgi$4832
  0C:2984    A$httpd-cgi$4833
  0C:2985    A$httpd-cgi$4834
  0C:2988    A$httpd-cgi$4835
  0C:2989    A$httpd-cgi$4836
  0C:298A    A$httpd-cgi$4837
  0C:298B    A$httpd-cgi$4838
  0C:298C    A$httpd-cgi$4839
  0C:298D    A$httpd-cgi$4840
  0C:298E    A$httpd-cgi$4843
  0C:298E    C$httpd_cgi.c$398$3$3
  0C:2990    A$httpd-cgi$4844
  0C:2992    A$httpd-cgi$4845
  0C:2994    A$httpd-cgi$4846
  0C:2996    A$httpd-cgi$4847
  0C:2998    A$httpd-cgi$4848
  0C:299A    A$httpd-cgi$4849
  0C:299C    A$httpd-cgi$4850
  0C:299E    A$httpd-cgi$4851
  0C:29A0    A$httpd-cgi$4852
  0C:29A2    A$httpd-cgi$4853
  0C:29A4    A$httpd-cgi$4854
  0C:29A5    A$httpd-cgi$4855
  0C:29A6    A$httpd-cgi$4856
  0C:29A8    A$httpd-cgi$4857
  0C:29A9    A$httpd-cgi$4858
  0C:29AA    A$httpd-cgi$4859
  0C:29AC    A$httpd-cgi$4860
  0C:29AD    A$httpd-cgi$4861
  0C:29AE    A$httpd-cgi$4862
  0C:29B0    A$httpd-cgi$4863
  0C:29B1    A$httpd-cgi$4864
  0C:29B2    A$httpd-cgi$4865
  0C:29B4    A$httpd-cgi$4866
  0C:29B6    A$httpd-cgi$4867
  0C:29B8    A$httpd-cgi$4868
  0C:29BA    A$httpd-cgi$4869
  0C:29BC    A$httpd-cgi$4870
  0C:29BE    A$httpd-cgi$4871
  0C:29C0    A$httpd-cgi$4872
  0C:29C3    A$httpd-cgi$4873
  0C:29C4    A$httpd-cgi$4874
  0C:29C6    A$httpd-cgi$4875
  0C:29C7    A$httpd-cgi$4876
  0C:29C8    A$httpd-cgi$4877
  0C:29CA    A$httpd-cgi$4878
  0C:29CB    A$httpd-cgi$4879
  0C:29CC    A$httpd-cgi$4880
  0C:29CE    A$httpd-cgi$4881
  0C:29D1    A$httpd-cgi$4882
  0C:29D3    A$httpd-cgi$4883
  0C:29D5    A$httpd-cgi$4884
  0C:29D7    A$httpd-cgi$4885
  0C:29D9    A$httpd-cgi$4886
  0C:29DB    A$httpd-cgi$4887
  0C:29DD    A$httpd-cgi$4890
  0C:29DF    A$httpd-cgi$4891
  0C:29E1    A$httpd-cgi$4892
  0C:29E2    A$httpd-cgi$4893
  0C:29E4    A$httpd-cgi$4894
  0C:29E5    A$httpd-cgi$4895
  0C:29E7    A$httpd-cgi$4896
  0C:29E8    A$httpd-cgi$4897
  0C:29EA    A$httpd-cgi$4898
  0C:29EC    A$httpd-cgi$4899
  0C:29EF    A$httpd-cgi$4900
  0C:29F0    A$httpd-cgi$4901
  0C:29F2    A$httpd-cgi$4902
  0C:29F5    A$httpd-cgi$4905
  0C:29F7    A$httpd-cgi$4906
  0C:29F9    A$httpd-cgi$4907
  0C:29FB    A$httpd-cgi$4911
  0C:29FB    C$httpd_cgi.c$403$4$5
  0C:29FD    A$httpd-cgi$4912
  0C:29FF    A$httpd-cgi$4913
  0C:2A00    A$httpd-cgi$4914
  0C:2A02    A$httpd-cgi$4915
  0C:2A03    A$httpd-cgi$4916
  0C:2A04    A$httpd-cgi$4917
  0C:2A05    A$httpd-cgi$4918
  0C:2A06    A$httpd-cgi$4919
  0C:2A07    A$httpd-cgi$4920
  0C:2A08    A$httpd-cgi$4921
  0C:2A09    A$httpd-cgi$4922
  0C:2A0B    A$httpd-cgi$4923
  0C:2A0E    A$httpd-cgi$4924
  0C:2A0F    A$httpd-cgi$4925
  0C:2A10    A$httpd-cgi$4926
  0C:2A11    A$httpd-cgi$4927
  0C:2A12    A$httpd-cgi$4928
  0C:2A13    A$httpd-cgi$4929
  0C:2A14    A$httpd-cgi$4930
  0C:2A15    A$httpd-cgi$4931
  0C:2A16    A$httpd-cgi$4932
  0C:2A18    A$httpd-cgi$4933
  0C:2A1A    A$httpd-cgi$4934
  0C:2A1C    A$httpd-cgi$4935
  0C:2A1E    A$httpd-cgi$4936
  0C:2A20    A$httpd-cgi$4937
  0C:2A22    A$httpd-cgi$4938
  0C:2A24    A$httpd-cgi$4939
  0C:2A26    A$httpd-cgi$4940
  0C:2A28    A$httpd-cgi$4941
  0C:2A2B    A$httpd-cgi$4942
  0C:2A2D    A$httpd-cgi$4943
  0C:2A2F    A$httpd-cgi$4944
  0C:2A31    A$httpd-cgi$4945
  0C:2A33    A$httpd-cgi$4946
  0C:2A35    A$httpd-cgi$4947
  0C:2A38    A$httpd-cgi$4948
  0C:2A39    A$httpd-cgi$4949
  0C:2A3A    A$httpd-cgi$4950
  0C:2A3B    A$httpd-cgi$4951
  0C:2A3C    A$httpd-cgi$4952
  0C:2A3D    A$httpd-cgi$4953
  0C:2A3E    A$httpd-cgi$4954
  0C:2A3F    A$httpd-cgi$4955
  0C:2A40    A$httpd-cgi$4956
  0C:2A43    A$httpd-cgi$4957
  0C:2A44    A$httpd-cgi$4958
  0C:2A45    A$httpd-cgi$4959
  0C:2A46    A$httpd-cgi$4960
  0C:2A47    A$httpd-cgi$4961
  0C:2A48    A$httpd-cgi$4962
  0C:2A4A    A$httpd-cgi$4963
  0C:2A4C    A$httpd-cgi$4964
  0C:2A4D    A$httpd-cgi$4965
  0C:2A4F    A$httpd-cgi$4966
  0C:2A50    A$httpd-cgi$4967
  0C:2A52    A$httpd-cgi$4968
  0C:2A53    A$httpd-cgi$4969
  0C:2A55    A$httpd-cgi$4970
  0C:2A57    A$httpd-cgi$4971
  0C:2A59    A$httpd-cgi$4972
  0C:2A5B    A$httpd-cgi$4973
  0C:2A5E    A$httpd-cgi$4974
  0C:2A60    A$httpd-cgi$4975
  0C:2A62    A$httpd-cgi$4976
  0C:2A64    A$httpd-cgi$4979
  0C:2A64    C$httpd_cgi.c$405$2$2
  0C:2A66    A$httpd-cgi$4981
  0C:2A68    A$httpd-cgi$4982
  0C:2A6A    A$httpd-cgi$4983
  0C:2A6B    A$httpd-cgi$4984
  0C:2A6D    A$httpd-cgi$4985
  0C:2A6E    A$httpd-cgi$4986
  0C:2A70    A$httpd-cgi$4987
  0C:2A71    A$httpd-cgi$4988
  0C:2A73    A$httpd-cgi$4989
  0C:2A74    A$httpd-cgi$4990
  0C:2A77    A$httpd-cgi$4991
  0C:2A78    A$httpd-cgi$4992
  0C:2A79    A$httpd-cgi$4993
  0C:2A7C    A$httpd-cgi$4994
  0C:2A7F    A$httpd-cgi$4996
  0C:2A82    A$httpd-cgi$4997
  0C:2A84    A$httpd-cgi$5000
  0C:2A84    C$httpd_cgi.c$406$2$2
  0C:2A84    XFhttpd_cgi$get_int$0$0
  0C:2A85    A$httpd-cgi$5017
  0C:2A85    C$httpd_cgi.c$409$2$2
  0C:2A85    Fhttpd_cgi$get_smtpport$0$0
  0C:2A87    A$httpd-cgi$5018
  0C:2A89    A$httpd-cgi$5019
  0C:2A8B    A$httpd-cgi$5020
  0C:2A8D    A$httpd-cgi$5021
  0C:2A8F    A$httpd-cgi$5022
  0C:2A91    A$httpd-cgi$5023
  0C:2A93    A$httpd-cgi$5024
  0C:2A95    A$httpd-cgi$5027
  0C:2A95    C$httpd_cgi.c$411$2$2
  0C:2A97    A$httpd-cgi$5028
  0C:2A98    A$httpd-cgi$5029
  0C:2A99    A$httpd-cgi$5030
  0C:2A9A    A$httpd-cgi$5031
  0C:2A9B    A$httpd-cgi$5032
  0C:2A9C    A$httpd-cgi$5033
  0C:2A9E    A$httpd-cgi$5034
  0C:2AA0    A$httpd-cgi$5035
  0C:2AA2    A$httpd-cgi$5036
  0C:2AA4    A$httpd-cgi$5037
  0C:2AA7    A$httpd-cgi$5038
  0C:2AA8    A$httpd-cgi$5039
  0C:2AA9    A$httpd-cgi$5040
  0C:2AAC    A$httpd-cgi$5041
  0C:2AAD    A$httpd-cgi$5042
  0C:2AB0    A$httpd-cgi$5043
  0C:2AB3    A$httpd-cgi$5044
  0C:2AB5    A$httpd-cgi$5046
  0C:2AB8    A$httpd-cgi$5047
  0C:2ABB    A$httpd-cgi$5048
  0C:2ABD    A$httpd-cgi$5050
  0C:2AC0    A$httpd-cgi$5054
  0C:2AC0    C$httpd_cgi.c$415$3$3
  0C:2AC3    A$httpd-cgi$5055
  0C:2AC4    A$httpd-cgi$5056
  0C:2AC5    A$httpd-cgi$5057
  0C:2AC6    A$httpd-cgi$5058
  0C:2AC7    A$httpd-cgi$5059
  0C:2AC8    A$httpd-cgi$5060
  0C:2ACA    A$httpd-cgi$5061
  0C:2ACC    A$httpd-cgi$5062
  0C:2ACE    A$httpd-cgi$5063
  0C:2AD0    A$httpd-cgi$5064
  0C:2AD2    A$httpd-cgi$5065
  0C:2AD4    A$httpd-cgi$5066
  0C:2AD6    A$httpd-cgi$5067
  0C:2AD8    A$httpd-cgi$5068
  0C:2ADA    A$httpd-cgi$5069
  0C:2ADC    A$httpd-cgi$5070
  0C:2ADE    A$httpd-cgi$5071
  0C:2AE0    A$httpd-cgi$5072
  0C:2AE2    A$httpd-cgi$5073
  0C:2AE4    A$httpd-cgi$5074
  0C:2AE7    A$httpd-cgi$5075
  0C:2AE8    A$httpd-cgi$5076
  0C:2AEA    A$httpd-cgi$5077
  0C:2AEB    A$httpd-cgi$5078
  0C:2AEC    A$httpd-cgi$5079
  0C:2AEE    A$httpd-cgi$5080
  0C:2AEF    A$httpd-cgi$5081
  0C:2AF0    A$httpd-cgi$5082
  0C:2AF2    A$httpd-cgi$5083
  0C:2AF5    A$httpd-cgi$5084
  0C:2AF7    A$httpd-cgi$5085
  0C:2AF9    A$httpd-cgi$5086
  0C:2AFB    A$httpd-cgi$5087
  0C:2AFD    A$httpd-cgi$5088
  0C:2AFF    A$httpd-cgi$5089
  0C:2B01    A$httpd-cgi$5090
  0C:2B03    A$httpd-cgi$5091
  0C:2B05    A$httpd-cgi$5092
  0C:2B07    A$httpd-cgi$5095
  0C:2B07    C$httpd_cgi.c$417$4$4
  0C:2B09    A$httpd-cgi$5096
  0C:2B0B    A$httpd-cgi$5097
  0C:2B0D    A$httpd-cgi$5098
  0C:2B0F    A$httpd-cgi$5099
  0C:2B12    A$httpd-cgi$5100
  0C:2B13    A$httpd-cgi$5101
  0C:2B15    A$httpd-cgi$5102
  0C:2B18    A$httpd-cgi$5104
  0C:2B1A    A$httpd-cgi$5105
  0C:2B1C    A$httpd-cgi$5106
  0C:2B1E    A$httpd-cgi$5107
  0C:2B20    A$httpd-cgi$5108
  0C:2B21    A$httpd-cgi$5109
  0C:2B23    A$httpd-cgi$5110
  0C:2B24    A$httpd-cgi$5111
  0C:2B25    A$httpd-cgi$5112
  0C:2B26    A$httpd-cgi$5113
  0C:2B27    A$httpd-cgi$5114
  0C:2B28    A$httpd-cgi$5115
  0C:2B29    A$httpd-cgi$5116
  0C:2B2A    A$httpd-cgi$5117
  0C:2B2C    A$httpd-cgi$5118
  0C:2B2F    A$httpd-cgi$5119
  0C:2B31    A$httpd-cgi$5120
  0C:2B33    A$httpd-cgi$5121
  0C:2B34    A$httpd-cgi$5122
  0C:2B35    A$httpd-cgi$5123
  0C:2B36    A$httpd-cgi$5124
  0C:2B37    A$httpd-cgi$5125
  0C:2B38    A$httpd-cgi$5126
  0C:2B39    A$httpd-cgi$5127
  0C:2B3A    A$httpd-cgi$5128
  0C:2B3B    A$httpd-cgi$5129
  0C:2B3C    A$httpd-cgi$5130
  0C:2B3D    A$httpd-cgi$5131
  0C:2B3E    A$httpd-cgi$5132
  0C:2B40    A$httpd-cgi$5133
  0C:2B42    A$httpd-cgi$5134
  0C:2B43    A$httpd-cgi$5135
  0C:2B45    A$httpd-cgi$5136
  0C:2B46    A$httpd-cgi$5137
  0C:2B48    A$httpd-cgi$5138
  0C:2B49    A$httpd-cgi$5139
  0C:2B4B    A$httpd-cgi$5140
  0C:2B4D    A$httpd-cgi$5141
  0C:2B4F    A$httpd-cgi$5142
  0C:2B50    A$httpd-cgi$5143
  0C:2B52    A$httpd-cgi$5144
  0C:2B53    A$httpd-cgi$5145
  0C:2B55    A$httpd-cgi$5146
  0C:2B56    A$httpd-cgi$5147
  0C:2B58    A$httpd-cgi$5148
  0C:2B5A    A$httpd-cgi$5149
  0C:2B5C    A$httpd-cgi$5150
  0C:2B5E    A$httpd-cgi$5151
  0C:2B60    A$httpd-cgi$5152
  0C:2B63    A$httpd-cgi$5153
  0C:2B65    A$httpd-cgi$5154
  0C:2B67    A$httpd-cgi$5155
  0C:2B69    A$httpd-cgi$5156
  0C:2B6B    A$httpd-cgi$5157
  0C:2B6D    A$httpd-cgi$5158
  0C:2B6F    A$httpd-cgi$5159
  0C:2B72    A$httpd-cgi$5160
  0C:2B73    A$httpd-cgi$5161
  0C:2B74    A$httpd-cgi$5162
  0C:2B75    A$httpd-cgi$5163
  0C:2B76    A$httpd-cgi$5164
  0C:2B77    A$httpd-cgi$5165
  0C:2B78    A$httpd-cgi$5166
  0C:2B79    A$httpd-cgi$5167
  0C:2B7A    A$httpd-cgi$5168
  0C:2B7D    A$httpd-cgi$5169
  0C:2B7E    A$httpd-cgi$5170
  0C:2B7F    A$httpd-cgi$5171
  0C:2B80    A$httpd-cgi$5172
  0C:2B81    A$httpd-cgi$5173
  0C:2B82    A$httpd-cgi$5174
  0C:2B84    A$httpd-cgi$5175
  0C:2B85    A$httpd-cgi$5176
  0C:2B87    A$httpd-cgi$5177
  0C:2B88    A$httpd-cgi$5178
  0C:2B8A    A$httpd-cgi$5179
  0C:2B8B    A$httpd-cgi$5180
  0C:2B8D    A$httpd-cgi$5181
  0C:2B8F    A$httpd-cgi$5182
  0C:2B91    A$httpd-cgi$5183
  0C:2B93    A$httpd-cgi$5184
  0C:2B95    A$httpd-cgi$5185
  0C:2B97    A$httpd-cgi$5186
  0C:2B99    A$httpd-cgi$5187
  0C:2B9C    A$httpd-cgi$5188
  0C:2B9E    A$httpd-cgi$5189
  0C:2BA0    A$httpd-cgi$5190
  0C:2BA2    A$httpd-cgi$5191
  0C:2BA4    A$httpd-cgi$5192
  0C:2BA6    A$httpd-cgi$5193
  0C:2BA8    A$httpd-cgi$5194
  0C:2BAA    A$httpd-cgi$5195
  0C:2BAC    A$httpd-cgi$5196
  0C:2BAE    A$httpd-cgi$5199
  0C:2BAE    C$httpd_cgi.c$419$2$2
  0C:2BB0    A$httpd-cgi$5201
  0C:2BB2    A$httpd-cgi$5202
  0C:2BB4    A$httpd-cgi$5203
  0C:2BB6    A$httpd-cgi$5204
  0C:2BB7    A$httpd-cgi$5205
  0C:2BBA    A$httpd-cgi$5206
  0C:2BBB    A$httpd-cgi$5207
  0C:2BBC    A$httpd-cgi$5208
  0C:2BBF    A$httpd-cgi$5209
  0C:2BC2    A$httpd-cgi$5211
  0C:2BC5    A$httpd-cgi$5212
  0C:2BC7    A$httpd-cgi$5215
  0C:2BC7    C$httpd_cgi.c$420$2$2
  0C:2BC7    XFhttpd_cgi$get_smtpport$0$0
  0C:2BC8    A$httpd-fs$128
  0C:2BC8    C$httpd_fs.c$52$0$0
  0C:2BC8    Fhttpd_fs$httpd_fs_strcmp$0$0
  0C:2BCA    A$httpd-fs$129
  0C:2BCD    A$httpd-fs$130
  0C:2BCF    A$httpd-fs$131
  0C:2BD1    A$httpd-fs$132
  0C:2BD3    A$httpd-fs$135
  0C:2BD3    C$httpd_fs.c$56$1$1
  0C:2BD5    A$httpd-fs$139
  0C:2BD5    C$httpd_fs.c$58$1$1
  0C:2BD7    A$httpd-fs$140
  0C:2BD9    A$httpd-fs$141
  0C:2BDA    A$httpd-fs$142
  0C:2BDB    A$httpd-fs$143
  0C:2BDC    A$httpd-fs$144
  0C:2BDD    A$httpd-fs$145
  0C:2BDE    A$httpd-fs$146
  0C:2BDF    A$httpd-fs$147
  0C:2BE0    A$httpd-fs$148
  0C:2BE1    A$httpd-fs$149
  0C:2BE2    A$httpd-fs$150
  0C:2BE4    A$httpd-fs$151
  0C:2BE6    A$httpd-fs$152
  0C:2BE8    A$httpd-fs$153
  0C:2BEA    A$httpd-fs$154
  0C:2BED    A$httpd-fs$155
  0C:2BEE    A$httpd-fs$156
  0C:2BF0    A$httpd-fs$159
  0C:2BF0    C$httpd_fs.c$59$1$1
  0C:2BF2    A$httpd-fs$160
  0C:2BF3    A$httpd-fs$161
  0C:2BF4    A$httpd-fs$162
  0C:2BF5    A$httpd-fs$163
  0C:2BF6    A$httpd-fs$164
  0C:2BF7    A$httpd-fs$165
  0C:2BF8    A$httpd-fs$166
  0C:2BF9    A$httpd-fs$167
  0C:2BFA    A$httpd-fs$168
  0C:2BFB    A$httpd-fs$169
  0C:2BFD    A$httpd-fs$170
  0C:2BFF    A$httpd-fs$171
  0C:2C01    A$httpd-fs$172
  0C:2C03    A$httpd-fs$173
  0C:2C06    A$httpd-fs$174
  0C:2C07    A$httpd-fs$175
  0C:2C0A    A$httpd-fs$176
  0C:2C0C    A$httpd-fs$180
  0C:2C0C    C$httpd_fs.c$60$1$1
  0C:2C0F    A$httpd-fs$184
  0C:2C0F    C$httpd_fs.c$61$2$2
  0C:2C12    A$httpd-fs$185
  0C:2C14    A$httpd-fs$189
  0C:2C14    C$httpd_fs.c$64$1$1
  0C:2C15    A$httpd-fs$190
  0C:2C18    A$httpd-fs$191
  0C:2C1A    A$httpd-fs$195
  0C:2C1A    C$httpd_fs.c$65$2$3
  0C:2C1D    A$httpd-fs$196
  0C:2C1F    A$httpd-fs$200
  0C:2C1F    C$httpd_fs.c$68$1$1
  0C:2C20    A$httpd-fs$203
  0C:2C20    C$httpd_fs.c$69$1$1
  0C:2C22    A$httpd-fs$205
  0C:2C25    A$httpd-fs$206
  0C:2C27    A$httpd-fs$209
  0C:2C27    C$httpd_fs.c$70$1$1
  0C:2C27    XFhttpd_fs$httpd_fs_strcmp$0$0
  0C:2C28    A$httpd-fs$227
  0C:2C28    C$httpd_fs.c$73$1$1
  0C:2C28    G$httpd_fs_open$0$0
  0C:2C28    _httpd_fs_open
  0C:2C2A    A$httpd-fs$228
  0C:2C2D    A$httpd-fs$229
  0C:2C2F    A$httpd-fs$230
  0C:2C31    A$httpd-fs$231
  0C:2C33    A$httpd-fs$232
  0C:2C35    A$httpd-fs$233
  0C:2C37    A$httpd-fs$234
  0C:2C39    A$httpd-fs$237
  0C:2C39    C$httpd_fs.c$76$1$1
  0C:2C3B    A$httpd-fs$238
  0C:2C3D    A$httpd-fs$239
  0C:2C3E    A$httpd-fs$240
  0C:2C3F    A$httpd-fs$241
  0C:2C40    A$httpd-fs$242
  0C:2C41    A$httpd-fs$243
  0C:2C42    A$httpd-fs$246
  0C:2C42    C$httpd_fs.c$80$1$1
  0C:2C44    A$httpd-fs$247
  0C:2C46    A$httpd-fs$248
  0C:2C47    A$httpd-fs$249
  0C:2C49    A$httpd-fs$250
  0C:2C4A    A$httpd-fs$251
  0C:2C4C    A$httpd-fs$252
  0C:2C4D    A$httpd-fs$253
  0C:2C4F    A$httpd-fs$254
  0C:2C51    A$httpd-fs$255
  0C:2C53    A$httpd-fs$259
  0C:2C53    C$httpd_fs.c$81$1$1
  0C:2C55    A$httpd-fs$260
  0C:2C57    A$httpd-fs$261
  0C:2C58    A$httpd-fs$262
  0C:2C5B    A$httpd-fs$263
  0C:2C5C    A$httpd-fs$264
  0C:2C5F    A$httpd-fs$265
  0C:2C60    A$httpd-fs$266
  0C:2C63    A$httpd-fs$267
  0C:2C66    A$httpd-fs$271
  0C:2C66    C$httpd_fs.c$84$1$1
  0C:2C68    A$httpd-fs$272
  0C:2C6A    A$httpd-fs$273
  0C:2C6B    A$httpd-fs$274
  0C:2C6D    A$httpd-fs$275
  0C:2C6E    A$httpd-fs$276
  0C:2C6F    A$httpd-fs$277
  0C:2C70    A$httpd-fs$278
  0C:2C71    A$httpd-fs$279
  0C:2C72    A$httpd-fs$280
  0C:2C73    A$httpd-fs$281
  0C:2C74    A$httpd-fs$282
  0C:2C76    A$httpd-fs$283
  0C:2C78    A$httpd-fs$284
  0C:2C7A    A$httpd-fs$285
  0C:2C7C    A$httpd-fs$286
  0C:2C7F    A$httpd-fs$287
  0C:2C80    A$httpd-fs$288
  0C:2C81    A$httpd-fs$289
  0C:2C84    A$httpd-fs$290
  0C:2C85    A$httpd-fs$291
  0C:2C86    A$httpd-fs$292
  0C:2C89    A$httpd-fs$293
  0C:2C8A    A$httpd-fs$294
  0C:2C8C    A$httpd-fs$295
  0C:2C8E    A$httpd-fs$296
  0C:2C90    A$httpd-fs$297
  0C:2C92    A$httpd-fs$298
  0C:2C94    A$httpd-fs$299
  0C:2C96    A$httpd-fs$300
  0C:2C97    A$httpd-fs$301
  0C:2C99    A$httpd-fs$302
  0C:2C9A    A$httpd-fs$303
  0C:2C9C    A$httpd-fs$304
  0C:2C9D    A$httpd-fs$305
  0C:2C9F    A$httpd-fs$306
  0C:2CA2    A$httpd-fs$307
  0C:2CA4    A$httpd-fs$308
  0C:2CA6    A$httpd-fs$309
  0C:2CA8    A$httpd-fs$310
  0C:2CAA    A$httpd-fs$311
  0C:2CAC    A$httpd-fs$312
  0C:2CAE    A$httpd-fs$313
  0C:2CAF    A$httpd-fs$314
  0C:2CB1    A$httpd-fs$315
  0C:2CB4    A$httpd-fs$319
  0C:2CB4    C$httpd_fs.c$85$3$3
  0C:2CB6    A$httpd-fs$320
  0C:2CB8    A$httpd-fs$321
  0C:2CB9    A$httpd-fs$322
  0C:2CBB    A$httpd-fs$323
  0C:2CBC    A$httpd-fs$324
  0C:2CBE    A$httpd-fs$325
  0C:2CBF    A$httpd-fs$326
  0C:2CC1    A$httpd-fs$327
  0C:2CC3    A$httpd-fs$328
  0C:2CC5    A$httpd-fs$329
  0C:2CC6    A$httpd-fs$330
  0C:2CC8    A$httpd-fs$331
  0C:2CC9    A$httpd-fs$332
  0C:2CCA    A$httpd-fs$333
  0C:2CCB    A$httpd-fs$334
  0C:2CCC    A$httpd-fs$335
  0C:2CCD    A$httpd-fs$336
  0C:2CCE    A$httpd-fs$337
  0C:2CCF    A$httpd-fs$338
  0C:2CD1    A$httpd-fs$339
  0C:2CD3    A$httpd-fs$340
  0C:2CD5    A$httpd-fs$341
  0C:2CD7    A$httpd-fs$342
  0C:2CDA    A$httpd-fs$343
  0C:2CDB    A$httpd-fs$344
  0C:2CDC    A$httpd-fs$345
  0C:2CDF    A$httpd-fs$346
  0C:2CE0    A$httpd-fs$347
  0C:2CE1    A$httpd-fs$348
  0C:2CE4    A$httpd-fs$349
  0C:2CE5    A$httpd-fs$350
  0C:2CE7    A$httpd-fs$351
  0C:2CE9    A$httpd-fs$352
  0C:2CEB    A$httpd-fs$353
  0C:2CEC    A$httpd-fs$354
  0C:2CEF    A$httpd-fs$355
  0C:2CF0    A$httpd-fs$356
  0C:2CF1    A$httpd-fs$357
  0C:2CF4    A$httpd-fs$358
  0C:2CF5    A$httpd-fs$359
  0C:2CF6    A$httpd-fs$360
  0C:2CF9    A$httpd-fs$363
  0C:2CF9    C$httpd_fs.c$86$3$3
  0C:2CFB    A$httpd-fs$364
  0C:2CFC    A$httpd-fs$365
  0C:2CFD    A$httpd-fs$366
  0C:2CFE    A$httpd-fs$367
  0C:2CFF    A$httpd-fs$368
  0C:2D00    A$httpd-fs$369
  0C:2D02    A$httpd-fs$370
  0C:2D04    A$httpd-fs$371
  0C:2D06    A$httpd-fs$372
  0C:2D07    A$httpd-fs$373
  0C:2D09    A$httpd-fs$374
  0C:2D0A    A$httpd-fs$375
  0C:2D0B    A$httpd-fs$376
  0C:2D0C    A$httpd-fs$377
  0C:2D0D    A$httpd-fs$378
  0C:2D0E    A$httpd-fs$379
  0C:2D0F    A$httpd-fs$380
  0C:2D10    A$httpd-fs$381
  0C:2D12    A$httpd-fs$382
  0C:2D14    A$httpd-fs$383
  0C:2D16    A$httpd-fs$384
  0C:2D18    A$httpd-fs$385
  0C:2D1B    A$httpd-fs$386
  0C:2D1C    A$httpd-fs$387
  0C:2D1D    A$httpd-fs$388
  0C:2D20    A$httpd-fs$389
  0C:2D21    A$httpd-fs$390
  0C:2D23    A$httpd-fs$391
  0C:2D25    A$httpd-fs$392
  0C:2D27    A$httpd-fs$393
  0C:2D28    A$httpd-fs$394
  0C:2D2B    A$httpd-fs$395
  0C:2D2C    A$httpd-fs$396
  0C:2D2D    A$httpd-fs$397
  0C:2D30    A$httpd-fs$400
  0C:2D30    C$httpd_fs.c$88$3$3
  0C:2D32    A$httpd-fs$401
  0C:2D34    A$httpd-fs$402
  0C:2D35    A$httpd-fs$403
  0C:2D37    A$httpd-fs$404
  0C:2D38    A$httpd-fs$405
  0C:2D39    A$httpd-fs$406
  0C:2D3A    A$httpd-fs$407
  0C:2D3C    A$httpd-fs$408
  0C:2D3D    A$httpd-fs$409
  0C:2D3E    A$httpd-fs$410
  0C:2D3F    A$httpd-fs$411
  0C:2D40    A$httpd-fs$412
  0C:2D42    A$httpd-fs$413
  0C:2D43    A$httpd-fs$414
  0C:2D44    A$httpd-fs$415
  0C:2D46    A$httpd-fs$416
  0C:2D47    A$httpd-fs$417
  0C:2D49    A$httpd-fs$418
  0C:2D4B    A$httpd-fs$419
  0C:2D4C    A$httpd-fs$420
  0C:2D4D    A$httpd-fs$421
  0C:2D4E    A$httpd-fs$422
  0C:2D4F    A$httpd-fs$423
  0C:2D50    A$httpd-fs$424
  0C:2D51    A$httpd-fs$425
  0C:2D54    A$httpd-fs$426
  0C:2D55    A$httpd-fs$428
  0C:2D57    A$httpd-fs$429
  0C:2D59    A$httpd-fs$430
  0C:2D5A    A$httpd-fs$431
  0C:2D5B    A$httpd-fs$432
  0C:2D5C    A$httpd-fs$433
  0C:2D5D    A$httpd-fs$434
  0C:2D5E    A$httpd-fs$437
  0C:2D5E    C$httpd_fs.c$90$3$3
  0C:2D61    A$httpd-fs$438
  0C:2D63    A$httpd-fs$442
  0C:2D63    C$httpd_fs.c$93$2$2
  0C:2D64    A$httpd-fs$443
  0C:2D67    A$httpd-fs$444
  0C:2D68    A$httpd-fs$446
  0C:2D6A    A$httpd-fs$447
  0C:2D6C    A$httpd-fs$448
  0C:2D6D    A$httpd-fs$449
  0C:2D6F    A$httpd-fs$450
  0C:2D70    A$httpd-fs$451
  0C:2D72    A$httpd-fs$454
  0C:2D72    C$httpd_fs.c$82$1$1
  0C:2D74    A$httpd-fs$455
  0C:2D76    A$httpd-fs$456
  0C:2D77    A$httpd-fs$457
  0C:2D79    A$httpd-fs$458
  0C:2D7A    A$httpd-fs$459
  0C:2D7C    A$httpd-fs$460
  0C:2D7D    A$httpd-fs$461
  0C:2D7F    A$httpd-fs$462
  0C:2D82    A$httpd-fs$463
  0C:2D83    A$httpd-fs$464
  0C:2D84    A$httpd-fs$465
  0C:2D85    A$httpd-fs$466
  0C:2D86    A$httpd-fs$467
  0C:2D89    A$httpd-fs$468
  0C:2D8A    A$httpd-fs$469
  0C:2D8B    A$httpd-fs$470
  0C:2D8C    A$httpd-fs$471
  0C:2D8F    A$httpd-fs$472
  0C:2D90    A$httpd-fs$473
  0C:2D91    A$httpd-fs$474
  0C:2D94    A$httpd-fs$478
  0C:2D94    C$httpd_fs.c$97$1$1
  0C:2D97    A$httpd-fs$480
  0C:2D9A    A$httpd-fs$481
  0C:2D9C    A$httpd-fs$484
  0C:2D9C    C$httpd_fs.c$98$1$1
  0C:2D9C    XG$httpd_fs_open$0$0
  0C:2D9D    A$httpd-fs$499
  0C:2D9D    C$httpd_fs.c$101$1$1
  0C:2D9D    C$httpd_fs.c$105$2$2
  0C:2D9D    G$httpd_fs_init$0$0
  0C:2D9D    _httpd_fs_init
  0C:2D9F    A$httpd-fs$500
  0C:2DA1    A$httpd-fs$502
  0C:2DA2    A$httpd-fs$503
  0C:2DA3    A$httpd-fs$504
  0C:2DA5    A$httpd-fs$505
  0C:2DA6    A$httpd-fs$506
  0C:2DA8    A$httpd-fs$507
  0C:2DAA    A$httpd-fs$510
  0C:2DAA    C$httpd_fs.c$106$2$2
  0C:2DAC    A$httpd-fs$511
  0C:2DAD    A$httpd-fs$512
  0C:2DAE    A$httpd-fs$513
  0C:2DB0    A$httpd-fs$514
  0C:2DB1    A$httpd-fs$515
  0C:2DB2    A$httpd-fs$516
  0C:2DB3    A$httpd-fs$517
  0C:2DB4    A$httpd-fs$518
  0C:2DB6    A$httpd-fs$519
  0C:2DB8    A$httpd-fs$520
  0C:2DB9    A$httpd-fs$521
  0C:2DBB    A$httpd-fs$522
  0C:2DBD    A$httpd-fs$523
  0C:2DBE    A$httpd-fs$524
  0C:2DBF    A$httpd-fs$525
  0C:2DC0    A$httpd-fs$526
  0C:2DC1    A$httpd-fs$529
  0C:2DC1    C$httpd_fs.c$105$1$1
  0C:2DC2    A$httpd-fs$530
  0C:2DC5    A$httpd-fs$531
  0C:2DC6    A$httpd-fs$532
  0C:2DC8    A$httpd-fs$536
  0C:2DC8    C$httpd_fs.c$109$1$1
  0C:2DC8    XG$httpd_fs_init$0$0
  0C:2DC9    A$httpd-fs$551
  0C:2DC9    C$httpd_fs.c$112$1$1
  0C:2DC9    G$httpd_fs_count$0$0
  0C:2DC9    _httpd_fs_count
  0C:2DCB    A$httpd-fs$552
  0C:2DCE    A$httpd-fs$553
  0C:2DD0    A$httpd-fs$554
  0C:2DD2    A$httpd-fs$555
  0C:2DD4    A$httpd-fs$556
  0C:2DD6    A$httpd-fs$557
  0C:2DD8    A$httpd-fs$558
  0C:2DDA    A$httpd-fs$563
  0C:2DDA    C$httpd_fs.c$118$1$1
  0C:2DDA    C$httpd_fs.c$119$1$1
  0C:2DDB    A$httpd-fs$564
  0C:2DDC    A$httpd-fs$565
  0C:2DDD    A$httpd-fs$566
  0C:2DDF    A$httpd-fs$567
  0C:2DE1    A$httpd-fs$568
  0C:2DE2    A$httpd-fs$569
  0C:2DE4    A$httpd-fs$570
  0C:2DE5    A$httpd-fs$571
  0C:2DE7    A$httpd-fs$572
  0C:2DE8    A$httpd-fs$573
  0C:2DEA    A$httpd-fs$574
  0C:2DEC    A$httpd-fs$575
  0C:2DEE    A$httpd-fs$579
  0C:2DEE    C$httpd_fs.c$120$1$1
  0C:2DF0    A$httpd-fs$580
  0C:2DF2    A$httpd-fs$581
  0C:2DF3    A$httpd-fs$582
  0C:2DF6    A$httpd-fs$583
  0C:2DF7    A$httpd-fs$584
  0C:2DFA    A$httpd-fs$585
  0C:2DFB    A$httpd-fs$586
  0C:2DFE    A$httpd-fs$587
  0C:2E01    A$httpd-fs$591
  0C:2E01    C$httpd_fs.c$123$1$1
  0C:2E03    A$httpd-fs$592
  0C:2E05    A$httpd-fs$593
  0C:2E07    A$httpd-fs$594
  0C:2E09    A$httpd-fs$595
  0C:2E0A    A$httpd-fs$596
  0C:2E0C    A$httpd-fs$597
  0C:2E0D    A$httpd-fs$598
  0C:2E0E    A$httpd-fs$599
  0C:2E0F    A$httpd-fs$600
  0C:2E10    A$httpd-fs$601
  0C:2E11    A$httpd-fs$602
  0C:2E12    A$httpd-fs$603
  0C:2E13    A$httpd-fs$604
  0C:2E15    A$httpd-fs$605
  0C:2E17    A$httpd-fs$606
  0C:2E19    A$httpd-fs$607
  0C:2E1B    A$httpd-fs$608
  0C:2E1E    A$httpd-fs$609
  0C:2E1F    A$httpd-fs$610
  0C:2E20    A$httpd-fs$611
  0C:2E23    A$httpd-fs$612
  0C:2E24    A$httpd-fs$613
  0C:2E25    A$httpd-fs$614
  0C:2E28    A$httpd-fs$615
  0C:2E29    A$httpd-fs$616
  0C:2E2B    A$httpd-fs$617
  0C:2E2D    A$httpd-fs$618
  0C:2E2F    A$httpd-fs$619
  0C:2E31    A$httpd-fs$620
  0C:2E33    A$httpd-fs$621
  0C:2E35    A$httpd-fs$622
  0C:2E37    A$httpd-fs$623
  0C:2E39    A$httpd-fs$624
  0C:2E3A    A$httpd-fs$625
  0C:2E3C    A$httpd-fs$626
  0C:2E3D    A$httpd-fs$627
  0C:2E3F    A$httpd-fs$628
  0C:2E40    A$httpd-fs$629
  0C:2E42    A$httpd-fs$630
  0C:2E45    A$httpd-fs$631
  0C:2E47    A$httpd-fs$632
  0C:2E49    A$httpd-fs$633
  0C:2E4B    A$httpd-fs$634
  0C:2E4D    A$httpd-fs$635
  0C:2E4F    A$httpd-fs$636
  0C:2E51    A$httpd-fs$637
  0C:2E53    A$httpd-fs$638
  0C:2E55    A$httpd-fs$639
  0C:2E57    A$httpd-fs$640
  0C:2E59    A$httpd-fs$641
  0C:2E5A    A$httpd-fs$642
  0C:2E5C    A$httpd-fs$645
  0C:2E5C    C$httpd_fs.c$124$3$3
  0C:2E5E    A$httpd-fs$646
  0C:2E5F    A$httpd-fs$647
  0C:2E60    A$httpd-fs$648
  0C:2E62    A$httpd-fs$649
  0C:2E63    A$httpd-fs$650
  0C:2E64    A$httpd-fs$651
  0C:2E65    A$httpd-fs$652
  0C:2E66    A$httpd-fs$653
  0C:2E68    A$httpd-fs$654
  0C:2E6A    A$httpd-fs$655
  0C:2E6B    A$httpd-fs$656
  0C:2E6D    A$httpd-fs$657
  0C:2E6F    A$httpd-fs$658
  0C:2E70    A$httpd-fs$659
  0C:2E71    A$httpd-fs$660
  0C:2E72    A$httpd-fs$661
  0C:2E73    A$httpd-fs$662
  0C:2E74    A$httpd-fs$663
  0C:2E76    A$httpd-fs$664
  0C:2E78    A$httpd-fs$665
  0C:2E7A    A$httpd-fs$669
  0C:2E7A    C$httpd_fs.c$126$2$2
  0C:2E7B    A$httpd-fs$670
  0C:2E7E    A$httpd-fs$671
  0C:2E7F    A$httpd-fs$673
  0C:2E81    A$httpd-fs$674
  0C:2E83    A$httpd-fs$677
  0C:2E83    C$httpd_fs.c$121$1$1
  0C:2E85    A$httpd-fs$678
  0C:2E87    A$httpd-fs$679
  0C:2E88    A$httpd-fs$680
  0C:2E8A    A$httpd-fs$681
  0C:2E8B    A$httpd-fs$682
  0C:2E8D    A$httpd-fs$683
  0C:2E8E    A$httpd-fs$684
  0C:2E90    A$httpd-fs$685
  0C:2E93    A$httpd-fs$686
  0C:2E94    A$httpd-fs$687
  0C:2E95    A$httpd-fs$688
  0C:2E96    A$httpd-fs$689
  0C:2E97    A$httpd-fs$690
  0C:2E9A    A$httpd-fs$691
  0C:2E9B    A$httpd-fs$692
  0C:2E9C    A$httpd-fs$693
  0C:2E9D    A$httpd-fs$694
  0C:2EA0    A$httpd-fs$695
  0C:2EA1    A$httpd-fs$696
  0C:2EA2    A$httpd-fs$697
  0C:2EA5    A$httpd-fs$701
  0C:2EA5    C$httpd_fs.c$128$1$1
  0C:2EA8    A$httpd-fs$703
  0C:2EAB    A$httpd-fs$704
  0C:2EAD    A$httpd-fs$707
  0C:2EAD    C$httpd_fs.c$129$1$1
  0C:2EAD    XG$httpd_fs_count$0$0
  0C:2EAE    A$httpd$1296
  0C:2EAE    C$httpd.c$91$0$0
  0C:2EAE    Fhttpd$generate_part_of_file$0$0
  0C:2EB0    A$httpd$1297
  0C:2EB3    A$httpd$1298
  0C:2EB5    A$httpd$1299
  0C:2EB7    A$httpd$1300
  0C:2EB9    A$httpd$1301
  0C:2EBB    A$httpd$1302
  0C:2EBD    A$httpd$1303
  0C:2EBF    A$httpd$1306
  0C:2EBF    C$httpd.c$93$1$1
  0C:2EC1    A$httpd$1307
  0C:2EC2    A$httpd$1308
  0C:2EC4    A$httpd$1309
  0C:2EC6    A$httpd$1310
  0C:2EC7    A$httpd$1311
  0C:2EC8    A$httpd$1312
  0C:2EC9    A$httpd$1313
  0C:2ECA    A$httpd$1314
  0C:2ECB    A$httpd$1315
  0C:2ECC    A$httpd$1316
  0C:2ECD    A$httpd$1317
  0C:2ECE    A$httpd$1318
  0C:2ECF    A$httpd$1319
  0C:2ED0    A$httpd$1320
  0C:2ED1    A$httpd$1323
  0C:2ED1    C$httpd.c$95$1$1
  0C:2ED3    A$httpd$1324
  0C:2ED4    A$httpd$1325
  0C:2ED6    A$httpd$1326
  0C:2ED7    A$httpd$1327
  0C:2ED8    A$httpd$1328
  0C:2ED9    A$httpd$1329
  0C:2EDA    A$httpd$1330
  0C:2EDB    A$httpd$1331
  0C:2EDC    A$httpd$1332
  0C:2EDD    A$httpd$1333
  0C:2EDF    A$httpd$1334
  0C:2EE1    A$httpd$1335
  0C:2EE2    A$httpd$1336
  0C:2EE3    A$httpd$1337
  0C:2EE4    A$httpd$1338
  0C:2EE5    A$httpd$1339
  0C:2EE6    A$httpd$1340
  0C:2EE8    A$httpd$1341
  0C:2EEA    A$httpd$1342
  0C:2EEC    A$httpd$1343
  0C:2EEF    A$httpd$1344
  0C:2EF0    A$httpd$1345
  0C:2EF1    A$httpd$1346
  0C:2EF4    A$httpd$1347
  0C:2EF5    A$httpd$1348
  0C:2EF8    A$httpd$1349
  0C:2EF9    A$httpd$1350
  0C:2EFA    A$httpd$1351
  0C:2EFB    A$httpd$1352
  0C:2EFC    A$httpd$1353
  0C:2EFD    A$httpd$1354
  0C:2EFE    A$httpd$1355
  0C:2EFF    A$httpd$1356
  0C:2F00    A$httpd$1357
  0C:2F02    A$httpd$1358
  0C:2F03    A$httpd$1359
  0C:2F04    A$httpd$1360
  0C:2F05    A$httpd$1361
  0C:2F06    A$httpd$1362
  0C:2F07    A$httpd$1363
  0C:2F09    A$httpd$1364
  0C:2F0B    A$httpd$1365
  0C:2F0D    A$httpd$1366
  0C:2F0F    A$httpd$1367
  0C:2F11    A$httpd$1368
  0C:2F12    A$httpd$1369
  0C:2F15    A$httpd$1370
  0C:2F16    A$httpd$1371
  0C:2F17    A$httpd$1372
  0C:2F1A    A$httpd$1373
  0C:2F1B    A$httpd$1374
  0C:2F1C    A$httpd$1375
  0C:2F1E    A$httpd$1376
  0C:2F20    A$httpd$1377
  0C:2F22    A$httpd$1378
  0C:2F24    A$httpd$1379
  0C:2F25    A$httpd$1380
  0C:2F26    A$httpd$1381
  0C:2F27    A$httpd$1382
  0C:2F28    A$httpd$1383
  0C:2F29    A$httpd$1384
  0C:2F2A    A$httpd$1385
  0C:2F2B    A$httpd$1386
  0C:2F2D    A$httpd$1389
  0C:2F2D    C$httpd.c$96$2$2
  0C:2F2F    A$httpd$1390
  0C:2F30    A$httpd$1391
  0C:2F32    A$httpd$1392
  0C:2F34    A$httpd$1393
  0C:2F35    A$httpd$1394
  0C:2F36    A$httpd$1395
  0C:2F37    A$httpd$1396
  0C:2F38    A$httpd$1397
  0C:2F3A    A$httpd$1398
  0C:2F3C    A$httpd$1399
  0C:2F3E    A$httpd$1400
  0C:2F40    A$httpd$1401
  0C:2F42    A$httpd$1402
  0C:2F44    A$httpd$1403
  0C:2F45    A$httpd$1404
  0C:2F46    A$httpd$1405
  0C:2F49    A$httpd$1406
  0C:2F4A    A$httpd$1407
  0C:2F4B    A$httpd$1408
  0C:2F4C    A$httpd$1409
  0C:2F4F    A$httpd$1410
  0C:2F51    A$httpd$1414
  0C:2F51    C$httpd.c$98$2$3
  0C:2F53    A$httpd$1415
  0C:2F54    A$httpd$1416
  0C:2F56    A$httpd$1417
  0C:2F58    A$httpd$1418
  0C:2F59    A$httpd$1419
  0C:2F5A    A$httpd$1420
  0C:2F5B    A$httpd$1421
  0C:2F5C    A$httpd$1422
  0C:2F5E    A$httpd$1423
  0C:2F60    A$httpd$1424
  0C:2F62    A$httpd$1425
  0C:2F64    A$httpd$1426
  0C:2F65    A$httpd$1427
  0C:2F68    A$httpd$1428
  0C:2F69    A$httpd$1429
  0C:2F6A    A$httpd$1430
  0C:2F6D    A$httpd$1434
  0C:2F6D    C$httpd.c$100$1$1
  0C:2F70    A$httpd$1435
  0C:2F72    A$httpd$1436
  0C:2F74    A$httpd$1437
  0C:2F75    A$httpd$1438
  0C:2F76    A$httpd$1439
  0C:2F77    A$httpd$1440
  0C:2F78    A$httpd$1441
  0C:2F79    A$httpd$1442
  0C:2F7A    A$httpd$1443
  0C:2F7B    A$httpd$1444
  0C:2F7C    A$httpd$1445
  0C:2F7D    A$httpd$1446
  0C:2F7E    A$httpd$1447
  0C:2F7F    A$httpd$1448
  0C:2F81    A$httpd$1449
  0C:2F83    A$httpd$1450
  0C:2F84    A$httpd$1451
  0C:2F86    A$httpd$1452
  0C:2F87    A$httpd$1453
  0C:2F88    A$httpd$1454
  0C:2F89    A$httpd$1455
  0C:2F8A    A$httpd$1456
  0C:2F8B    A$httpd$1457
  0C:2F8C    A$httpd$1458
  0C:2F8D    A$httpd$1459
  0C:2F8F    A$httpd$1460
  0C:2F91    A$httpd$1461
  0C:2F93    A$httpd$1462
  0C:2F95    A$httpd$1463
  0C:2F97    A$httpd$1464
  0C:2F99    A$httpd$1465
  0C:2F9A    A$httpd$1466
  0C:2F9D    A$httpd$1467
  0C:2F9E    A$httpd$1468
  0C:2F9F    A$httpd$1469
  0C:2FA2    A$httpd$1470
  0C:2FA3    A$httpd$1471
  0C:2FA4    A$httpd$1472
  0C:2FA5    A$httpd$1473
  0C:2FA8    A$httpd$1474
  0C:2FA9    A$httpd$1475
  0C:2FAA    A$httpd$1476
  0C:2FAC    A$httpd$1477
  0C:2FAE    A$httpd$1478
  0C:2FAF    A$httpd$1479
  0C:2FB1    A$httpd$1480
  0C:2FB3    A$httpd$1481
  0C:2FB4    A$httpd$1482
  0C:2FB5    A$httpd$1483
  0C:2FB6    A$httpd$1484
  0C:2FB7    A$httpd$1485
  0C:2FB9    A$httpd$1486
  0C:2FBB    A$httpd$1487
  0C:2FBD    A$httpd$1488
  0C:2FBF    A$httpd$1489
  0C:2FC2    A$httpd$1490
  0C:2FC3    A$httpd$1491
  0C:2FC4    A$httpd$1492
  0C:2FC7    A$httpd$1493
  0C:2FC8    A$httpd$1494
  0C:2FCA    A$httpd$1495
  0C:2FCC    A$httpd$1496
  0C:2FCD    A$httpd$1497
  0C:2FD0    A$httpd$1498
  0C:2FD1    A$httpd$1499
  0C:2FD2    A$httpd$1500
  0C:2FD3    A$httpd$1501
  0C:2FD4    A$httpd$1502
  0C:2FD5    A$httpd$1503
  0C:2FD6    A$httpd$1504
  0C:2FD7    A$httpd$1505
  0C:2FD8    A$httpd$1506
  0C:2FD9    A$httpd$1507
  0C:2FDA    A$httpd$1508
  0C:2FDD    A$httpd$1509
  0C:2FDE    A$httpd$1510
  0C:2FDF    A$httpd$1511
  0C:2FE0    A$httpd$1512
  0C:2FE1    A$httpd$1513
  0C:2FE2    A$httpd$1514
  0C:2FE4    A$httpd$1515
  0C:2FE6    A$httpd$1516
  0C:2FE7    A$httpd$1517
  0C:2FE9    A$httpd$1518
  0C:2FEA    A$httpd$1519
  0C:2FEC    A$httpd$1520
  0C:2FED    A$httpd$1521
  0C:2FEF    A$httpd$1522
  0C:2FF1    A$httpd$1523
  0C:2FF3    A$httpd$1524
  0C:2FF5    A$httpd$1525
  0C:2FF8    A$httpd$1526
  0C:2FFA    A$httpd$1527
  0C:2FFC    A$httpd$1528
  0C:2FFE    A$httpd$1531
  0C:2FFE    C$httpd.c$102$1$1
  0C:3000    A$httpd$1532
  0C:3002    A$httpd$1533
  0C:3004    A$httpd$1534
  0C:3007    A$httpd$1535
  0C:3008    A$httpd$1536
  0C:3009    A$httpd$1537
  0C:300C    A$httpd$1538
  0C:300D    A$httpd$1539
  0C:300F    A$httpd$1540
  0C:3011    A$httpd$1541
  0C:3014    A$httpd$1542
  0C:3016    A$httpd$1545
  0C:3016    C$httpd.c$103$1$1
  0C:3016    XFhttpd$generate_part_of_file$0$0
  0C:3017    A$httpd$1562
  0C:3017    C$httpd.c$106$1$1
  0C:3017    Fhttpd$send_file$0$0
  0C:3019    A$httpd$1563
  0C:301C    A$httpd$1564
  0C:301E    A$httpd$1565
  0C:3020    A$httpd$1566
  0C:3022    A$httpd$1567
  0C:3024    A$httpd$1568
  0C:3026    A$httpd$1569
  0C:3028    A$httpd$1572
  0C:3028    C$httpd.c$108$2$2
  0C:302A    A$httpd$1573
  0C:302B    A$httpd$1574
  0C:302D    A$httpd$1575
  0C:302E    A$httpd$1576
  0C:302F    A$httpd$1577
  0C:3030    A$httpd$1578
  0C:3031    A$httpd$1579
  0C:3032    A$httpd$1580
  0C:3033    A$httpd$1581
  0C:3034    A$httpd$1582
  0C:3036    A$httpd$1583
  0C:3038    A$httpd$1584
  0C:303A    A$httpd$1585
  0C:303C    A$httpd$1586
  0C:303F    A$httpd$1587
  0C:3040    A$httpd$1588
  0C:3041    A$httpd$1589
  0C:3044    A$httpd$1590
  0C:3045    A$httpd$1591
  0C:3048    A$httpd$1592
  0C:304B    A$httpd$1593
  0C:304D    A$httpd$1595
  0C:3050    A$httpd$1596
  0C:3053    A$httpd$1597
  0C:3055    A$httpd$1599
  0C:3058    A$httpd$1603
  0C:3058    C$httpd.c$111$4$4
  0C:305A    A$httpd$1604
  0C:305B    A$httpd$1605
  0C:305D    A$httpd$1606
  0C:305E    A$httpd$1607
  0C:305F    A$httpd$1608
  0C:3060    A$httpd$1609
  0C:3061    A$httpd$1610
  0C:3062    A$httpd$1611
  0C:3063    A$httpd$1612
  0C:3064    A$httpd$1613
  0C:3066    A$httpd$1614
  0C:3068    A$httpd$1615
  0C:306A    A$httpd$1616
  0C:306C    A$httpd$1617
  0C:306E    A$httpd$1618
  0C:3071    A$httpd$1619
  0C:3072    A$httpd$1620
  0C:3073    A$httpd$1621
  0C:3076    A$httpd$1623
  0C:3078    A$httpd$1624
  0C:3079    A$httpd$1625
  0C:307B    A$httpd$1626
  0C:307C    A$httpd$1627
  0C:307D    A$httpd$1628
  0C:307E    A$httpd$1629
  0C:307F    A$httpd$1630
  0C:3080    A$httpd$1631
  0C:3081    A$httpd$1632
  0C:3082    A$httpd$1633
  0C:3084    A$httpd$1634
  0C:3087    A$httpd$1635
  0C:3089    A$httpd$1636
  0C:308A    A$httpd$1637
  0C:308B    A$httpd$1638
  0C:308D    A$httpd$1639
  0C:308E    A$httpd$1640
  0C:3090    A$httpd$1641
  0C:3091    A$httpd$1642
  0C:3094    A$httpd$1643
  0C:3095    A$httpd$1644
  0C:3096    A$httpd$1645
  0C:3097    A$httpd$1646
  0C:3098    A$httpd$1647
  0C:3099    A$httpd$1648
  0C:309A    A$httpd$1649
  0C:309B    A$httpd$1650
  0C:309C    A$httpd$1651
  0C:309D    A$httpd$1652
  0C:309E    A$httpd$1653
  0C:30A0    A$httpd$1654
  0C:30A2    A$httpd$1655
  0C:30A4    A$httpd$1656
  0C:30A6    A$httpd$1657
  0C:30A8    A$httpd$1658
  0C:30AA    A$httpd$1659
  0C:30AD    A$httpd$1660
  0C:30AF    A$httpd$1661
  0C:30B1    A$httpd$1662
  0C:30B3    A$httpd$1663
  0C:30B6    A$httpd$1667
  0C:30B6    C$httpd.c$112$4$4
  0C:30B8    A$httpd$1668
  0C:30B9    A$httpd$1669
  0C:30BB    A$httpd$1670
  0C:30BD    A$httpd$1671
  0C:30BE    A$httpd$1672
  0C:30C0    A$httpd$1673
  0C:30C1    A$httpd$1674
  0C:30C2    A$httpd$1675
  0C:30C3    A$httpd$1676
  0C:30C4    A$httpd$1677
  0C:30C5    A$httpd$1678
  0C:30C6    A$httpd$1679
  0C:30C7    A$httpd$1680
  0C:30C8    A$httpd$1681
  0C:30C9    A$httpd$1682
  0C:30CA    A$httpd$1683
  0C:30CB    A$httpd$1684
  0C:30CD    A$httpd$1685
  0C:30CF    A$httpd$1686
  0C:30D0    A$httpd$1687
  0C:30D2    A$httpd$1688
  0C:30D3    A$httpd$1689
  0C:30D4    A$httpd$1690
  0C:30D5    A$httpd$1691
  0C:30D6    A$httpd$1692
  0C:30D7    A$httpd$1693
  0C:30D8    A$httpd$1694
  0C:30D9    A$httpd$1695
  0C:30DB    A$httpd$1696
  0C:30DD    A$httpd$1697
  0C:30DF    A$httpd$1698
  0C:30E1    A$httpd$1699
  0C:30E3    A$httpd$1700
  0C:30E5    A$httpd$1701
  0C:30E6    A$httpd$1702
  0C:30E9    A$httpd$1703
  0C:30EA    A$httpd$1704
  0C:30EB    A$httpd$1705
  0C:30EE    A$httpd$1706
  0C:30EF    A$httpd$1707
  0C:30F0    A$httpd$1708
  0C:30F2    A$httpd$1709
  0C:30F3    A$httpd$1710
  0C:30F5    A$httpd$1711
  0C:30F7    A$httpd$1712
  0C:30F8    A$httpd$1713
  0C:30F9    A$httpd$1714
  0C:30FA    A$httpd$1715
  0C:30FB    A$httpd$1716
  0C:30FD    A$httpd$1717
  0C:30FF    A$httpd$1718
  0C:3101    A$httpd$1719
  0C:3103    A$httpd$1720
  0C:3106    A$httpd$1721
  0C:3107    A$httpd$1722
  0C:3108    A$httpd$1723
  0C:310B    A$httpd$1724
  0C:310C    A$httpd$1725
  0C:310E    A$httpd$1726
  0C:3110    A$httpd$1727
  0C:3111    A$httpd$1728
  0C:3112    A$httpd$1729
  0C:3113    A$httpd$1730
  0C:3114    A$httpd$1731
  0C:3115    A$httpd$1732
  0C:3116    A$httpd$1733
  0C:3117    A$httpd$1734
  0C:3118    A$httpd$1735
  0C:3119    A$httpd$1736
  0C:311B    A$httpd$1737
  0C:311D    A$httpd$1738
  0C:311F    A$httpd$1739
  0C:3121    A$httpd$1740
  0C:3123    A$httpd$1741
  0C:3124    A$httpd$1742
  0C:3125    A$httpd$1743
  0C:3128    A$httpd$1744
  0C:3129    A$httpd$1745
  0C:312A    A$httpd$1746
  0C:312B    A$httpd$1747
  0C:312E    A$httpd$1750
  0C:312E    C$httpd.c$113$4$4
  0C:3130    A$httpd$1751
  0C:3132    A$httpd$1752
  0C:3133    A$httpd$1753
  0C:3135    A$httpd$1754
  0C:3136    A$httpd$1755
  0C:3138    A$httpd$1756
  0C:3139    A$httpd$1757
  0C:313B    A$httpd$1758
  0C:313E    A$httpd$1759
  0C:313F    A$httpd$1760
  0C:3140    A$httpd$1761
  0C:3143    A$httpd$1762
  0C:3144    A$httpd$1763
  0C:3145    A$httpd$1764
  0C:3148    A$httpd$1765
  0C:3149    A$httpd$1766
  0C:314A    A$httpd$1767
  0C:314B    A$httpd$1768
  0C:314C    A$httpd$1769
  0C:314D    A$httpd$1770
  0C:314E    A$httpd$1771
  0C:314F    A$httpd$1772
  0C:3151    A$httpd$1773
  0C:3153    A$httpd$1774
  0C:3154    A$httpd$1775
  0C:3156    A$httpd$1776
  0C:3157    A$httpd$1777
  0C:3159    A$httpd$1778
  0C:315A    A$httpd$1779
  0C:315C    A$httpd$1780
  0C:315D    A$httpd$1781
  0C:3160    A$httpd$1782
  0C:3161    A$httpd$1783
  0C:3162    A$httpd$1784
  0C:3165    A$httpd$1785
  0C:3166    A$httpd$1786
  0C:3167    A$httpd$1787
  0C:316A    A$httpd$1790
  0C:316A    C$httpd.c$114$3$3
  0C:316C    A$httpd$1791
  0C:316E    A$httpd$1792
  0C:316F    A$httpd$1793
  0C:3170    A$httpd$1794
  0C:3171    A$httpd$1795
  0C:3172    A$httpd$1796
  0C:3174    A$httpd$1797
  0C:3175    A$httpd$1798
  0C:3177    A$httpd$1799
  0C:317A    A$httpd$1800
  0C:317C    A$httpd$1801
  0C:317E    A$httpd$1802
  0C:3181    A$httpd$1807
  0C:3181    C$httpd.c$116$2$2
  0C:3183    A$httpd$1808
  0C:3184    A$httpd$1809
  0C:3186    A$httpd$1810
  0C:3187    A$httpd$1811
  0C:3188    A$httpd$1812
  0C:3189    A$httpd$1813
  0C:318A    A$httpd$1814
  0C:318B    A$httpd$1815
  0C:318C    A$httpd$1816
  0C:318D    A$httpd$1817
  0C:318F    A$httpd$1818
  0C:3191    A$httpd$1819
  0C:3193    A$httpd$1820
  0C:3195    A$httpd$1821
  0C:3196    A$httpd$1822
  0C:3199    A$httpd$1823
  0C:319A    A$httpd$1824
  0C:319B    A$httpd$1825
  0C:319E    A$httpd$1826
  0C:31A1    A$httpd$1828
  0C:31A4    A$httpd$1829
  0C:31A6    A$httpd$1832
  0C:31A6    C$httpd.c$117$2$2
  0C:31A6    XFhttpd$send_file$0$0
  0C:31A7    A$httpd$1848
  0C:31A7    C$httpd.c$120$2$2
  0C:31A7    Fhttpd$send_part_of_file$0$0
  0C:31A9    A$httpd$1849
  0C:31AC    A$httpd$1850
  0C:31AE    A$httpd$1851
  0C:31B0    A$httpd$1852
  0C:31B2    A$httpd$1853
  0C:31B4    A$httpd$1854
  0C:31B6    A$httpd$1855
  0C:31B8    A$httpd$1858
  0C:31B8    C$httpd.c$122$2$2
  0C:31BA    A$httpd$1859
  0C:31BB    A$httpd$1860
  0C:31BD    A$httpd$1861
  0C:31BE    A$httpd$1862
  0C:31BF    A$httpd$1863
  0C:31C0    A$httpd$1864
  0C:31C1    A$httpd$1865
  0C:31C2    A$httpd$1866
  0C:31C3    A$httpd$1867
  0C:31C4    A$httpd$1868
  0C:31C6    A$httpd$1869
  0C:31C8    A$httpd$1870
  0C:31CA    A$httpd$1871
  0C:31CC    A$httpd$1872
  0C:31CF    A$httpd$1873
  0C:31D0    A$httpd$1874
  0C:31D1    A$httpd$1875
  0C:31D4    A$httpd$1876
  0C:31D5    A$httpd$1877
  0C:31D8    A$httpd$1878
  0C:31DB    A$httpd$1879
  0C:31DD    A$httpd$1881
  0C:31E0    A$httpd$1882
  0C:31E3    A$httpd$1883
  0C:31E5    A$httpd$1885
  0C:31E8    A$httpd$1889
  0C:31E8    C$httpd.c$124$3$3
  0C:31EA    A$httpd$1890
  0C:31EC    A$httpd$1891
  0C:31EE    A$httpd$1892
  0C:31F0    A$httpd$1893
  0C:31F3    A$httpd$1894
  0C:31F4    A$httpd$1895
  0C:31F5    A$httpd$1896
  0C:31F8    A$httpd$1898
  0C:31FA    A$httpd$1899
  0C:31FC    A$httpd$1900
  0C:31FE    A$httpd$1901
  0C:3200    A$httpd$1902
  0C:3201    A$httpd$1903
  0C:3203    A$httpd$1904
  0C:3205    A$httpd$1905
  0C:3206    A$httpd$1906
  0C:3208    A$httpd$1907
  0C:3209    A$httpd$1908
  0C:320A    A$httpd$1909
  0C:320B    A$httpd$1910
  0C:320C    A$httpd$1911
  0C:320D    A$httpd$1912
  0C:320E    A$httpd$1913
  0C:320F    A$httpd$1914
  0C:3210    A$httpd$1915
  0C:3211    A$httpd$1916
  0C:3212    A$httpd$1917
  0C:3213    A$httpd$1918
  0C:3215    A$httpd$1919
  0C:3216    A$httpd$1920
  0C:3218    A$httpd$1921
  0C:3219    A$httpd$1922
  0C:321A    A$httpd$1923
  0C:321B    A$httpd$1924
  0C:321C    A$httpd$1925
  0C:321D    A$httpd$1926
  0C:321E    A$httpd$1927
  0C:321F    A$httpd$1928
  0C:3221    A$httpd$1929
  0C:3223    A$httpd$1930
  0C:3225    A$httpd$1931
  0C:3227    A$httpd$1932
  0C:322A    A$httpd$1933
  0C:322B    A$httpd$1934
  0C:322C    A$httpd$1935
  0C:322F    A$httpd$1936
  0C:3230    A$httpd$1937
  0C:3231    A$httpd$1938
  0C:3234    A$httpd$1939
  0C:3235    A$httpd$1940
  0C:3237    A$httpd$1941
  0C:3238    A$httpd$1942
  0C:323A    A$httpd$1943
  0C:323C    A$httpd$1944
  0C:323D    A$httpd$1945
  0C:323E    A$httpd$1946
  0C:323F    A$httpd$1947
  0C:3240    A$httpd$1948
  0C:3242    A$httpd$1949
  0C:3244    A$httpd$1950
  0C:3246    A$httpd$1951
  0C:3248    A$httpd$1952
  0C:324B    A$httpd$1953
  0C:324C    A$httpd$1954
  0C:324D    A$httpd$1955
  0C:3250    A$httpd$1956
  0C:3251    A$httpd$1957
  0C:3254    A$httpd$1958
  0C:3255    A$httpd$1959
  0C:3256    A$httpd$1960
  0C:3257    A$httpd$1961
  0C:3258    A$httpd$1962
  0C:3259    A$httpd$1963
  0C:325A    A$httpd$1964
  0C:325B    A$httpd$1965
  0C:325C    A$httpd$1966
  0C:325F    A$httpd$1967
  0C:3260    A$httpd$1968
  0C:3261    A$httpd$1969
  0C:3262    A$httpd$1970
  0C:3263    A$httpd$1971
  0C:3264    A$httpd$1972
  0C:3266    A$httpd$1973
  0C:3268    A$httpd$1974
  0C:3269    A$httpd$1975
  0C:326B    A$httpd$1976
  0C:326C    A$httpd$1977
  0C:326E    A$httpd$1978
  0C:326F    A$httpd$1979
  0C:3271    A$httpd$1980
  0C:3273    A$httpd$1981
  0C:3275    A$httpd$1982
  0C:3277    A$httpd$1983
  0C:3279    A$httpd$1984
  0C:327B    A$httpd$1985
  0C:327D    A$httpd$1986
  0C:3280    A$httpd$1987
  0C:3282    A$httpd$1988
  0C:3284    A$httpd$1989
  0C:3286    A$httpd$1990
  0C:3288    A$httpd$1991
  0C:328A    A$httpd$1992
  0C:328C    A$httpd$1993
  0C:328E    A$httpd$1994
  0C:3290    A$httpd$1995
  0C:3292    A$httpd$1998
  0C:3292    C$httpd.c$126$2$2
  0C:3294    A$httpd$2000
  0C:3296    A$httpd$2001
  0C:3298    A$httpd$2002
  0C:329A    A$httpd$2003
  0C:329B    A$httpd$2004
  0C:329E    A$httpd$2005
  0C:329F    A$httpd$2006
  0C:32A0    A$httpd$2007
  0C:32A3    A$httpd$2008
  0C:32A6    A$httpd$2010
  0C:32A9    A$httpd$2011
  0C:32AB    A$httpd$2014
  0C:32AB    C$httpd.c$127$2$2
  0C:32AB    XFhttpd$send_part_of_file$0$0
  0C:32AC    A$httpd$2030
  0C:32AC    C$httpd.c$130$2$2
  0C:32AC    Fhttpd$next_scriptstate$0$0
  0C:32AE    A$httpd$2031
  0C:32B1    A$httpd$2032
  0C:32B3    A$httpd$2033
  0C:32B5    A$httpd$2034
  0C:32B7    A$httpd$2035
  0C:32B9    A$httpd$2036
  0C:32BB    A$httpd$2037
  0C:32BD    A$httpd$2040
  0C:32BD    C$httpd.c$133$1$1
  0C:32BF    A$httpd$2041
  0C:32C0    A$httpd$2042
  0C:32C2    A$httpd$2043
  0C:32C3    A$httpd$2044
  0C:32C4    A$httpd$2045
  0C:32C6    A$httpd$2046
  0C:32C7    A$httpd$2047
  0C:32C8    A$httpd$2048
  0C:32C9    A$httpd$2049
  0C:32CA    A$httpd$2050
  0C:32CC    A$httpd$2051
  0C:32CE    A$httpd$2052
  0C:32D0    A$httpd$2053
  0C:32D2    A$httpd$2054
  0C:32D5    A$httpd$2055
  0C:32D6    A$httpd$2056
  0C:32D7    A$httpd$2057
  0C:32DA    A$httpd$2058
  0C:32DB    A$httpd$2059
  0C:32DC    A$httpd$2060
  0C:32DF    A$httpd$2061
  0C:32E0    A$httpd$2062
  0C:32E3    A$httpd$2063
  0C:32E5    A$httpd$2064
  0C:32E6    A$httpd$2065
  0C:32E8    A$httpd$2066
  0C:32EA    A$httpd$2067
  0C:32EC    A$httpd$2068
  0C:32EE    A$httpd$2069
  0C:32F0    A$httpd$2070
  0C:32F2    A$httpd$2071
  0C:32F5    A$httpd$2072
  0C:32F7    A$httpd$2073
  0C:32F9    A$httpd$2074
  0C:32FB    A$httpd$2075
  0C:32FD    A$httpd$2076
  0C:32FF    A$httpd$2077
  0C:3301    A$httpd$2078
  0C:3303    A$httpd$2079
  0C:3305    A$httpd$2080
  0C:3306    A$httpd$2081
  0C:3308    A$httpd$2082
  0C:3309    A$httpd$2083
  0C:330A    A$httpd$2084
  0C:330B    A$httpd$2085
  0C:330C    A$httpd$2086
  0C:330D    A$httpd$2087
  0C:330E    A$httpd$2088
  0C:330F    A$httpd$2089
  0C:3311    A$httpd$2092
  0C:3311    C$httpd.c$134$1$1
  0C:3313    A$httpd$2093
  0C:3314    A$httpd$2094
  0C:3316    A$httpd$2095
  0C:3318    A$httpd$2096
  0C:3319    A$httpd$2097
  0C:331B    A$httpd$2098
  0C:331C    A$httpd$2099
  0C:331D    A$httpd$2100
  0C:331F    A$httpd$2101
  0C:3320    A$httpd$2102
  0C:3321    A$httpd$2103
  0C:3322    A$httpd$2104
  0C:3323    A$httpd$2105
  0C:3324    A$httpd$2106
  0C:3325    A$httpd$2107
  0C:3326    A$httpd$2108
  0C:3327    A$httpd$2109
  0C:3329    A$httpd$2110
  0C:332B    A$httpd$2111
  0C:332C    A$httpd$2112
  0C:332E    A$httpd$2113
  0C:332F    A$httpd$2114
  0C:3331    A$httpd$2115
  0C:3332    A$httpd$2116
  0C:3334    A$httpd$2117
  0C:3336    A$httpd$2118
  0C:3338    A$httpd$2119
  0C:3339    A$httpd$2120
  0C:333C    A$httpd$2121
  0C:333D    A$httpd$2122
  0C:333E    A$httpd$2123
  0C:3341    A$httpd$2124
  0C:3342    A$httpd$2125
  0C:3343    A$httpd$2126
  0C:3345    A$httpd$2127
  0C:3347    A$httpd$2128
  0C:3349    A$httpd$2129
  0C:334C    A$httpd$2130
  0C:334D    A$httpd$2131
  0C:334E    A$httpd$2132
  0C:3351    A$httpd$2133
  0C:3352    A$httpd$2134
  0C:3353    A$httpd$2135
  0C:3356    A$httpd$2136
  0C:3358    A$httpd$2137
  0C:335A    A$httpd$2138
  0C:335B    A$httpd$2139
  0C:335C    A$httpd$2140
  0C:335D    A$httpd$2141
  0C:335E    A$httpd$2142
  0C:335F    A$httpd$2143
  0C:3360    A$httpd$2144
  0C:3361    A$httpd$2145
  0C:3362    A$httpd$2146
  0C:3363    A$httpd$2147
  0C:3365    A$httpd$2148
  0C:3367    A$httpd$2149
  0C:3368    A$httpd$2150
  0C:3369    A$httpd$2151
  0C:336A    A$httpd$2152
  0C:336B    A$httpd$2153
  0C:336C    A$httpd$2154
  0C:336D    A$httpd$2155
  0C:336E    A$httpd$2156
  0C:336F    A$httpd$2157
  0C:3370    A$httpd$2158
  0C:3372    A$httpd$2159
  0C:3374    A$httpd$2160
  0C:3375    A$httpd$2161
  0C:3377    A$httpd$2162
  0C:3378    A$httpd$2163
  0C:337A    A$httpd$2164
  0C:337B    A$httpd$2165
  0C:337D    A$httpd$2166
  0C:337E    A$httpd$2167
  0C:3381    A$httpd$2168
  0C:3382    A$httpd$2169
  0C:3383    A$httpd$2170
  0C:3386    A$httpd$2173
  0C:3386    C$httpd.c$135$1$1
  0C:3388    A$httpd$2174
  0C:338A    A$httpd$2175
  0C:338C    A$httpd$2176
  0C:338E    A$httpd$2177
  0C:3390    A$httpd$2178
  0C:3391    A$httpd$2179
  0C:3392    A$httpd$2180
  0C:3395    A$httpd$2181
  0C:3396    A$httpd$2182
  0C:3397    A$httpd$2183
  0C:3398    A$httpd$2184
  0C:339B    A$httpd$2185
  0C:339C    A$httpd$2186
  0C:339D    A$httpd$2187
  0C:339E    A$httpd$2188
  0C:33A1    A$httpd$2189
  0C:33A4    A$httpd$2190
  0C:33A6    A$httpd$2193
  0C:33A6    C$httpd.c$136$1$1
  0C:33A6    XFhttpd$next_scriptstate$0$0
  0C:33A7    A$httpd$2211
  0C:33A7    C$httpd.c$139$1$1
  0C:33A7    Fhttpd$handle_script$0$0
  0C:33A9    A$httpd$2212
  0C:33AC    A$httpd$2213
  0C:33AE    A$httpd$2214
  0C:33B0    A$httpd$2215
  0C:33B2    A$httpd$2216
  0C:33B4    A$httpd$2217
  0C:33B6    A$httpd$2218
  0C:33B8    A$httpd$2221
  0C:33B8    C$httpd.c$143$2$2
  0C:33BA    A$httpd$2222
  0C:33BB    A$httpd$2223
  0C:33BD    A$httpd$2224
  0C:33BE    A$httpd$2225
  0C:33BF    A$httpd$2226
  0C:33C0    A$httpd$2227
  0C:33C1    A$httpd$2228
  0C:33C2    A$httpd$2229
  0C:33C3    A$httpd$2230
  0C:33C4    A$httpd$2231
  0C:33C6    A$httpd$2232
  0C:33C8    A$httpd$2233
  0C:33CA    A$httpd$2234
  0C:33CC    A$httpd$2235
  0C:33CF    A$httpd$2236
  0C:33D0    A$httpd$2237
  0C:33D1    A$httpd$2238
  0C:33D4    A$httpd$2239
  0C:33D5    A$httpd$2240
  0C:33D8    A$httpd$2241
  0C:33DB    A$httpd$2242
  0C:33DD    A$httpd$2244
  0C:33E0    A$httpd$2245
  0C:33E3    A$httpd$2246
  0C:33E6    A$httpd$2248
  0C:33E9    A$httpd$2249
  0C:33EC    A$httpd$2250
  0C:33EF    A$httpd$2252
  0C:33F2    A$httpd$2253
  0C:33F5    A$httpd$2254
  0C:33F8    A$httpd$2256
  0C:33FB    A$httpd$2260
  0C:33FB    C$httpd.c$145$3$3
  0C:33FD    A$httpd$2261
  0C:33FE    A$httpd$2262
  0C:3400    A$httpd$2263
  0C:3401    A$httpd$2264
  0C:3402    A$httpd$2265
  0C:3403    A$httpd$2266
  0C:3404    A$httpd$2267
  0C:3405    A$httpd$2268
  0C:3406    A$httpd$2269
  0C:3407    A$httpd$2270
  0C:3409    A$httpd$2271
  0C:340B    A$httpd$2272
  0C:340C    A$httpd$2273
  0C:340D    A$httpd$2274
  0C:340E    A$httpd$2275
  0C:340F    A$httpd$2276
  0C:3410    A$httpd$2277
  0C:3412    A$httpd$2278
  0C:3414    A$httpd$2279
  0C:3416    A$httpd$2280
  0C:3419    A$httpd$2281
  0C:341A    A$httpd$2282
  0C:341B    A$httpd$2283
  0C:341E    A$httpd$2284
  0C:341F    A$httpd$2285
  0C:3420    A$httpd$2286
  0C:3421    A$httpd$2287
  0C:3422    A$httpd$2288
  0C:3424    A$httpd$2289
  0C:3426    A$httpd$2290
  0C:3429    A$httpd$2291
  0C:342B    A$httpd$2292
  0C:342D    A$httpd$2293
  0C:3430    A$httpd$2297
  0C:3430    C$httpd.c$148$4$4
  0C:3432    A$httpd$2298
  0C:3433    A$httpd$2299
  0C:3435    A$httpd$2300
  0C:3436    A$httpd$2301
  0C:3437    A$httpd$2302
  0C:3438    A$httpd$2303
  0C:3439    A$httpd$2304
  0C:343A    A$httpd$2305
  0C:343B    A$httpd$2306
  0C:343C    A$httpd$2307
  0C:343E    A$httpd$2308
  0C:3440    A$httpd$2309
  0C:3442    A$httpd$2310
  0C:3444    A$httpd$2311
  0C:3447    A$httpd$2312
  0C:3448    A$httpd$2313
  0C:3449    A$httpd$2314
  0C:344C    A$httpd$2315
  0C:344D    A$httpd$2316
  0C:344E    A$httpd$2317
  0C:3451    A$httpd$2318
  0C:3452    A$httpd$2319
  0C:3454    A$httpd$2320
  0C:3456    A$httpd$2321
  0C:3458    A$httpd$2322
  0C:345B    A$httpd$2323
  0C:345C    A$httpd$2324
  0C:345D    A$httpd$2325
  0C:3460    A$httpd$2326
  0C:3461    A$httpd$2328
  0C:3463    A$httpd$2329
  0C:3466    A$httpd$2333
  0C:3466    C$httpd.c$149$2$2
  0C:3468    A$httpd$2334
  0C:3469    A$httpd$2335
  0C:346A    A$httpd$2336
  0C:346B    A$httpd$2337
  0C:346C    A$httpd$2338
  0C:346D    A$httpd$2339
  0C:346F    A$httpd$2340
  0C:3471    A$httpd$2341
  0C:3473    A$httpd$2342
  0C:3475    A$httpd$2343
  0C:3478    A$httpd$2344
  0C:3479    A$httpd$2345
  0C:347A    A$httpd$2346
  0C:347D    A$httpd$2347
  0C:347E    A$httpd$2349
  0C:3480    A$httpd$2350
  0C:3483    A$httpd$2354
  0C:3483    C$httpd.c$150$5$5
  0C:3485    A$httpd$2355
  0C:3486    A$httpd$2356
  0C:3488    A$httpd$2357
  0C:348A    A$httpd$2358
  0C:348B    A$httpd$2359
  0C:348D    A$httpd$2360
  0C:348E    A$httpd$2361
  0C:348F    A$httpd$2362
  0C:3491    A$httpd$2363
  0C:3492    A$httpd$2364
  0C:3493    A$httpd$2365
  0C:3494    A$httpd$2366
  0C:3495    A$httpd$2367
  0C:3496    A$httpd$2368
  0C:3497    A$httpd$2369
  0C:3498    A$httpd$2370
  0C:3499    A$httpd$2371
  0C:349B    A$httpd$2372
  0C:349C    A$httpd$2373
  0C:349D    A$httpd$2374
  0C:349E    A$httpd$2375
  0C:349F    A$httpd$2376
  0C:34A0    A$httpd$2377
  0C:34A2    A$httpd$2378
  0C:34A4    A$httpd$2379
  0C:34A5    A$httpd$2380
  0C:34A7    A$httpd$2381
  0C:34A8    A$httpd$2382
  0C:34AA    A$httpd$2383
  0C:34AB    A$httpd$2384
  0C:34AD    A$httpd$2385
  0C:34AE    A$httpd$2386
  0C:34B1    A$httpd$2387
  0C:34B2    A$httpd$2388
  0C:34B3    A$httpd$2389
  0C:34B6    A$httpd$2390
  0C:34B7    A$httpd$2391
  0C:34B8    A$httpd$2392
  0C:34BB    A$httpd$2395
  0C:34BB    C$httpd.c$151$5$5
  0C:34BD    A$httpd$2396
  0C:34BE    A$httpd$2397
  0C:34C0    A$httpd$2398
  0C:34C2    A$httpd$2399
  0C:34C3    A$httpd$2400
  0C:34C5    A$httpd$2401
  0C:34C6    A$httpd$2402
  0C:34C7    A$httpd$2403
  0C:34C9    A$httpd$2404
  0C:34CA    A$httpd$2405
  0C:34CB    A$httpd$2406
  0C:34CC    A$httpd$2407
  0C:34CD    A$httpd$2408
  0C:34CE    A$httpd$2409
  0C:34CF    A$httpd$2410
  0C:34D0    A$httpd$2411
  0C:34D1    A$httpd$2412
  0C:34D3    A$httpd$2413
  0C:34D4    A$httpd$2414
  0C:34D6    A$httpd$2415
  0C:34D8    A$httpd$2416
  0C:34D9    A$httpd$2417
  0C:34DB    A$httpd$2418
  0C:34DC    A$httpd$2419
  0C:34DD    A$httpd$2420
  0C:34DE    A$httpd$2421
  0C:34DF    A$httpd$2422
  0C:34E0    A$httpd$2423
  0C:34E1    A$httpd$2424
  0C:34E2    A$httpd$2425
  0C:34E3    A$httpd$2426
  0C:34E4    A$httpd$2427
  0C:34E5    A$httpd$2428
  0C:34E6    A$httpd$2429
  0C:34E8    A$httpd$2430
  0C:34EA    A$httpd$2431
  0C:34EB    A$httpd$2432
  0C:34ED    A$httpd$2433
  0C:34EE    A$httpd$2434
  0C:34EF    A$httpd$2435
  0C:34F0    A$httpd$2436
  0C:34F1    A$httpd$2437
  0C:34F2    A$httpd$2438
  0C:34F3    A$httpd$2439
  0C:34F4    A$httpd$2440
  0C:34F6    A$httpd$2441
  0C:34F8    A$httpd$2442
  0C:34FA    A$httpd$2443
  0C:34FC    A$httpd$2444
  0C:34FF    A$httpd$2445
  0C:3500    A$httpd$2446
  0C:3501    A$httpd$2447
  0C:3504    A$httpd$2448
  0C:3505    A$httpd$2449
  0C:3506    A$httpd$2450
  0C:3508    A$httpd$2451
  0C:3509    A$httpd$2452
  0C:350A    A$httpd$2453
  0C:350C    A$httpd$2454
  0C:350D    A$httpd$2455
  0C:350F    A$httpd$2456
  0C:3511    A$httpd$2457
  0C:3512    A$httpd$2458
  0C:3514    A$httpd$2459
  0C:3515    A$httpd$2460
  0C:3517    A$httpd$2461
  0C:3518    A$httpd$2462
  0C:351A    A$httpd$2463
  0C:351B    A$httpd$2464
  0C:351E    A$httpd$2465
  0C:351F    A$httpd$2466
  0C:3520    A$httpd$2467
  0C:3523    A$httpd$2470
  0C:3523    C$httpd.c$152$5$5
  0C:3524    A$httpd$2471
  0C:3527    A$httpd$2472
  0C:3528    A$httpd$2474
  0C:352A    A$httpd$2475
  0C:352C    A$httpd$2476
  0C:352E    A$httpd$2477
  0C:3531    A$httpd$2478
  0C:3532    A$httpd$2479
  0C:3535    A$httpd$2482
  0C:3535    C$httpd.c$153$6$6
  0C:3537    A$httpd$2483
  0C:3539    A$httpd$2484
  0C:353A    A$httpd$2485
  0C:353C    A$httpd$2486
  0C:353D    A$httpd$2487
  0C:353F    A$httpd$2488
  0C:3540    A$httpd$2489
  0C:3542    A$httpd$2490
  0C:3545    A$httpd$2491
  0C:3546    A$httpd$2492
  0C:3547    A$httpd$2493
  0C:354A    A$httpd$2494
  0C:354B    A$httpd$2495
  0C:354C    A$httpd$2496
  0C:354F    A$httpd$2497
  0C:3550    A$httpd$2498
  0C:3551    A$httpd$2499
  0C:3554    A$httpd$2500
  0C:3555    A$httpd$2502
  0C:3557    A$httpd$2503
  0C:3559    A$httpd$2504
  0C:355A    A$httpd$2505
  0C:355B    A$httpd$2506
  0C:355D    A$httpd$2507
  0C:355E    A$httpd$2508
  0C:355F    A$httpd$2509
  0C:3561    A$httpd$2510
  0C:3562    A$httpd$2511
  0C:3563    A$httpd$2512
  0C:3565    A$httpd$2513
  0C:3567    A$httpd$2514
  0C:3569    A$httpd$2515
  0C:356B    A$httpd$2516
  0C:356E    A$httpd$2517
  0C:3570    A$httpd$2518
  0C:3572    A$httpd$2519
  0C:3574    A$httpd$2522
  0C:3574    C$httpd.c$154$7$7
  0C:3576    A$httpd$2523
  0C:3577    A$httpd$2524
  0C:3579    A$httpd$2525
  0C:357A    A$httpd$2526
  0C:357B    A$httpd$2527
  0C:357C    A$httpd$2528
  0C:357D    A$httpd$2529
  0C:357E    A$httpd$2530
  0C:357F    A$httpd$2531
  0C:3580    A$httpd$2532
  0C:3582    A$httpd$2533
  0C:3584    A$httpd$2534
  0C:3586    A$httpd$2535
  0C:3588    A$httpd$2536
  0C:358A    A$httpd$2537
  0C:358D    A$httpd$2538
  0C:358E    A$httpd$2539
  0C:358F    A$httpd$2540
  0C:3592    A$httpd$2542
  0C:3594    A$httpd$2543
  0C:3595    A$httpd$2544
  0C:3597    A$httpd$2545
  0C:3598    A$httpd$2546
  0C:359A    A$httpd$2547
  0C:359B    A$httpd$2548
  0C:359D    A$httpd$2549
  0C:35A0    A$httpd$2550
  0C:35A2    A$httpd$2551
  0C:35A4    A$httpd$2552
  0C:35A7    A$httpd$2554
  0C:35AA    A$httpd$2555
  0C:35AD    A$httpd$2559
  0C:35AD    C$httpd.c$156$6$9
  0C:35AF    A$httpd$2560
  0C:35B0    A$httpd$2561
  0C:35B2    A$httpd$2562
  0C:35B3    A$httpd$2563
  0C:35B4    A$httpd$2564
  0C:35B5    A$httpd$2565
  0C:35B6    A$httpd$2566
  0C:35B7    A$httpd$2567
  0C:35B8    A$httpd$2568
  0C:35B9    A$httpd$2569
  0C:35BB    A$httpd$2570
  0C:35BD    A$httpd$2571
  0C:35BF    A$httpd$2572
  0C:35C1    A$httpd$2573
  0C:35C3    A$httpd$2574
  0C:35C6    A$httpd$2575
  0C:35C7    A$httpd$2576
  0C:35C8    A$httpd$2577
  0C:35CB    A$httpd$2579
  0C:35CD    A$httpd$2580
  0C:35CE    A$httpd$2581
  0C:35D0    A$httpd$2582
  0C:35D1    A$httpd$2583
  0C:35D2    A$httpd$2584
  0C:35D4    A$httpd$2585
  0C:35D5    A$httpd$2586
  0C:35D6    A$httpd$2587
  0C:35D7    A$httpd$2588
  0C:35D8    A$httpd$2589
  0C:35DA    A$httpd$2590
  0C:35DC    A$httpd$2591
  0C:35DE    A$httpd$2592
  0C:35E0    A$httpd$2593
  0C:35E3    A$httpd$2594
  0C:35E4    A$httpd$2595
  0C:35E5    A$httpd$2596
  0C:35E8    A$httpd$2597
  0C:35E9    A$httpd$2598
  0C:35EA    A$httpd$2599
  0C:35ED    A$httpd$2600
  0C:35EE    A$httpd$2601
  0C:35F0    A$httpd$2602
  0C:35F2    A$httpd$2603
  0C:35F4    A$httpd$2604
  0C:35F6    A$httpd$2605
  0C:35F8    A$httpd$2606
  0C:35FA    A$httpd$2607
  0C:35FD    A$httpd$2608
  0C:35FF    A$httpd$2609
  0C:3601    A$httpd$2610
  0C:3603    A$httpd$2611
  0C:3605    A$httpd$2612
  0C:3607    A$httpd$2613
  0C:3609    A$httpd$2614
  0C:360B    A$httpd$2615
  0C:360D    A$httpd$2616
  0C:3610    A$httpd$2617
  0C:3611    A$httpd$2618
  0C:3612    A$httpd$2619
  0C:3615    A$httpd$2620
  0C:3616    A$httpd$2621
  0C:3617    A$httpd$2622
  0C:361A    A$httpd$2623
  0C:361B    A$httpd$2624
  0C:361D    A$httpd$2625
  0C:361F    A$httpd$2626
  0C:3621    A$httpd$2627
  0C:3623    A$httpd$2628
  0C:3625    A$httpd$2629
  0C:3627    A$httpd$2630
  0C:3629    A$httpd$2631
  0C:362B    A$httpd$2632
  0C:362D    A$httpd$2633
  0C:362F    A$httpd$2634
  0C:3631    A$httpd$2635
  0C:3632    A$httpd$2636
  0C:3634    A$httpd$2637
  0C:3635    A$httpd$2638
  0C:3637    A$httpd$2639
  0C:3638    A$httpd$2640
  0C:363A    A$httpd$2641
  0C:363B    A$httpd$2643
  0C:363D    A$httpd$2644
  0C:363F    A$httpd$2645
  0C:3641    A$httpd$2646
  0C:3643    A$httpd$2647
  0C:3645    A$httpd$2648
  0C:3646    A$httpd$2649
  0C:3648    A$httpd$2650
  0C:364A    A$httpd$2651
  0C:364D    A$httpd$2655
  0C:364D    C$httpd.c$159$5$5
  0C:364F    A$httpd$2656
  0C:3650    A$httpd$2657
  0C:3652    A$httpd$2658
  0C:3653    A$httpd$2659
  0C:3655    A$httpd$2660
  0C:3656    A$httpd$2661
  0C:3658    A$httpd$2662
  0C:365B    A$httpd$2665
  0C:365B    C$httpd.c$163$5$5
  0C:365D    A$httpd$2666
  0C:365E    A$httpd$2667
  0C:3660    A$httpd$2668
  0C:3661    A$httpd$2669
  0C:3662    A$httpd$2670
  0C:3663    A$httpd$2671
  0C:3664    A$httpd$2672
  0C:3665    A$httpd$2673
  0C:3666    A$httpd$2674
  0C:3667    A$httpd$2675
  0C:3669    A$httpd$2676
  0C:366B    A$httpd$2677
  0C:366C    A$httpd$2678
  0C:366E    A$httpd$2679
  0C:366F    A$httpd$2680
  0C:3670    A$httpd$2681
  0C:3672    A$httpd$2682
  0C:3673    A$httpd$2683
  0C:3674    A$httpd$2684
  0C:3675    A$httpd$2685
  0C:3676    A$httpd$2686
  0C:3678    A$httpd$2687
  0C:367A    A$httpd$2688
  0C:367C    A$httpd$2689
  0C:367E    A$httpd$2690
  0C:3681    A$httpd$2691
  0C:3682    A$httpd$2692
  0C:3683    A$httpd$2693
  0C:3686    A$httpd$2694
  0C:3687    A$httpd$2695
  0C:3688    A$httpd$2696
  0C:368B    A$httpd$2697
  0C:368C    A$httpd$2698
  0C:368E    A$httpd$2699
  0C:3690    A$httpd$2700
  0C:3692    A$httpd$2701
  0C:3693    A$httpd$2702
  0C:3696    A$httpd$2703
  0C:3697    A$httpd$2704
  0C:3698    A$httpd$2705
  0C:369B    A$httpd$2706
  0C:369C    A$httpd$2707
  0C:369D    A$httpd$2708
  0C:36A0    A$httpd$2711
  0C:36A0    C$httpd.c$164$5$5
  0C:36A2    A$httpd$2712
  0C:36A3    A$httpd$2713
  0C:36A5    A$httpd$2714
  0C:36A6    A$httpd$2715
  0C:36A7    A$httpd$2716
  0C:36A8    A$httpd$2717
  0C:36A9    A$httpd$2718
  0C:36AA    A$httpd$2719
  0C:36AB    A$httpd$2720
  0C:36AC    A$httpd$2721
  0C:36AE    A$httpd$2722
  0C:36B0    A$httpd$2723
  0C:36B1    A$httpd$2724
  0C:36B2    A$httpd$2725
  0C:36B3    A$httpd$2726
  0C:36B4    A$httpd$2727
  0C:36B5    A$httpd$2728
  0C:36B7    A$httpd$2729
  0C:36B8    A$httpd$2730
  0C:36BA    A$httpd$2731
  0C:36BB    A$httpd$2732
  0C:36BC    A$httpd$2733
  0C:36BE    A$httpd$2734
  0C:36BF    A$httpd$2735
  0C:36C0    A$httpd$2736
  0C:36C1    A$httpd$2737
  0C:36C2    A$httpd$2738
  0C:36C4    A$httpd$2739
  0C:36C6    A$httpd$2740
  0C:36C8    A$httpd$2741
  0C:36CA    A$httpd$2742
  0C:36CD    A$httpd$2743
  0C:36CE    A$httpd$2744
  0C:36CF    A$httpd$2745
  0C:36D2    A$httpd$2746
  0C:36D3    A$httpd$2747
  0C:36D5    A$httpd$2748
  0C:36D7    A$httpd$2749
  0C:36D9    A$httpd$2750
  0C:36DA    A$httpd$2751
  0C:36DD    A$httpd$2752
  0C:36DE    A$httpd$2753
  0C:36DF    A$httpd$2754
  0C:36E2    A$httpd$2755
  0C:36E5    A$httpd$2759
  0C:36E5    C$httpd.c$169$5$12
  0C:36E7    A$httpd$2760
  0C:36E8    A$httpd$2761
  0C:36EA    A$httpd$2762
  0C:36EB    A$httpd$2763
  0C:36EC    A$httpd$2764
  0C:36ED    A$httpd$2765
  0C:36EE    A$httpd$2766
  0C:36EF    A$httpd$2767
  0C:36F0    A$httpd$2768
  0C:36F1    A$httpd$2769
  0C:36F3    A$httpd$2770
  0C:36F5    A$httpd$2771
  0C:36F6    A$httpd$2772
  0C:36F7    A$httpd$2773
  0C:36F8    A$httpd$2774
  0C:36F9    A$httpd$2775
  0C:36FA    A$httpd$2776
  0C:36FC    A$httpd$2777
  0C:36FE    A$httpd$2778
  0C:3700    A$httpd$2779
  0C:3703    A$httpd$2780
  0C:3704    A$httpd$2781
  0C:3705    A$httpd$2782
  0C:3708    A$httpd$2783
  0C:3709    A$httpd$2784
  0C:370C    A$httpd$2785
  0C:370D    A$httpd$2786
  0C:370E    A$httpd$2787
  0C:370F    A$httpd$2788
  0C:3710    A$httpd$2789
  0C:3711    A$httpd$2790
  0C:3712    A$httpd$2791
  0C:3713    A$httpd$2792
  0C:3714    A$httpd$2793
  0C:3716    A$httpd$2794
  0C:3717    A$httpd$2795
  0C:3718    A$httpd$2796
  0C:3719    A$httpd$2797
  0C:371A    A$httpd$2798
  0C:371B    A$httpd$2799
  0C:371D    A$httpd$2800
  0C:371F    A$httpd$2801
  0C:3721    A$httpd$2802
  0C:3723    A$httpd$2803
  0C:3725    A$httpd$2804
  0C:3726    A$httpd$2805
  0C:3729    A$httpd$2806
  0C:372A    A$httpd$2807
  0C:372B    A$httpd$2808
  0C:372E    A$httpd$2809
  0C:372F    A$httpd$2810
  0C:3730    A$httpd$2811
  0C:3732    A$httpd$2812
  0C:3734    A$httpd$2813
  0C:3736    A$httpd$2814
  0C:3738    A$httpd$2815
  0C:3739    A$httpd$2816
  0C:373A    A$httpd$2817
  0C:373B    A$httpd$2818
  0C:373C    A$httpd$2819
  0C:373D    A$httpd$2820
  0C:373E    A$httpd$2821
  0C:373F    A$httpd$2822
  0C:3741    A$httpd$2825
  0C:3741    C$httpd.c$170$6$13
  0C:3743    A$httpd$2826
  0C:3744    A$httpd$2827
  0C:3746    A$httpd$2828
  0C:3748    A$httpd$2829
  0C:3749    A$httpd$2830
  0C:374A    A$httpd$2831
  0C:374B    A$httpd$2832
  0C:374C    A$httpd$2833
  0C:374E    A$httpd$2834
  0C:3750    A$httpd$2835
  0C:3752    A$httpd$2836
  0C:3754    A$httpd$2837
  0C:3756    A$httpd$2838
  0C:3758    A$httpd$2839
  0C:3759    A$httpd$2840
  0C:375A    A$httpd$2841
  0C:375D    A$httpd$2842
  0C:375E    A$httpd$2843
  0C:375F    A$httpd$2844
  0C:3760    A$httpd$2845
  0C:3763    A$httpd$2846
  0C:3765    A$httpd$2850
  0C:3765    C$httpd.c$172$6$14
  0C:3767    A$httpd$2851
  0C:3768    A$httpd$2852
  0C:376A    A$httpd$2853
  0C:376C    A$httpd$2854
  0C:376D    A$httpd$2855
  0C:376E    A$httpd$2856
  0C:376F    A$httpd$2857
  0C:3770    A$httpd$2858
  0C:3772    A$httpd$2859
  0C:3774    A$httpd$2860
  0C:3776    A$httpd$2861
  0C:3778    A$httpd$2862
  0C:3779    A$httpd$2863
  0C:377C    A$httpd$2864
  0C:377D    A$httpd$2865
  0C:377E    A$httpd$2866
  0C:3781    A$httpd$2870
  0C:3781    C$httpd.c$175$5$12
  0C:3783    A$httpd$2871
  0C:3784    A$httpd$2872
  0C:3786    A$httpd$2873
  0C:3788    A$httpd$2874
  0C:3789    A$httpd$2875
  0C:378B    A$httpd$2876
  0C:378C    A$httpd$2877
  0C:378D    A$httpd$2878
  0C:378E    A$httpd$2879
  0C:378F    A$httpd$2880
  0C:3790    A$httpd$2881
  0C:3791    A$httpd$2882
  0C:3792    A$httpd$2883
  0C:3793    A$httpd$2884
  0C:3794    A$httpd$2885
  0C:3795    A$httpd$2886
  0C:3796    A$httpd$2887
  0C:3798    A$httpd$2888
  0C:379A    A$httpd$2889
  0C:379B    A$httpd$2890
  0C:379D    A$httpd$2891
  0C:379E    A$httpd$2892
  0C:37A0    A$httpd$2893
  0C:37A1    A$httpd$2894
  0C:37A3    A$httpd$2895
  0C:37A6    A$httpd$2896
  0C:37A7    A$httpd$2897
  0C:37A8    A$httpd$2898
  0C:37AB    A$httpd$2899
  0C:37AC    A$httpd$2900
  0C:37AD    A$httpd$2901
  0C:37B0    A$httpd$2902
  0C:37B1    A$httpd$2903
  0C:37B3    A$httpd$2904
  0C:37B5    A$httpd$2905
  0C:37B7    A$httpd$2906
  0C:37BA    A$httpd$2907
  0C:37BB    A$httpd$2908
  0C:37BE    A$httpd$2911
  0C:37BE    C$httpd.c$176$6$15
  0C:37C0    A$httpd$2912
  0C:37C1    A$httpd$2913
  0C:37C2    A$httpd$2914
  0C:37C3    A$httpd$2915
  0C:37C4    A$httpd$2916
  0C:37C5    A$httpd$2917
  0C:37C7    A$httpd$2918
  0C:37CA    A$httpd$2919
  0C:37CC    A$httpd$2920
  0C:37CD    A$httpd$2921
  0C:37CF    A$httpd$2922
  0C:37D1    A$httpd$2923
  0C:37D3    A$httpd$2924
  0C:37D6    A$httpd$2925
  0C:37D8    A$httpd$2926
  0C:37DA    A$httpd$2927
  0C:37DC    A$httpd$2928
  0C:37DE    A$httpd$2932
  0C:37DE    C$httpd.c$178$6$16
  0C:37E1    A$httpd$2933
  0C:37E3    A$httpd$2934
  0C:37E4    A$httpd$2935
  0C:37E6    A$httpd$2936
  0C:37E8    A$httpd$2937
  0C:37EA    A$httpd$2938
  0C:37ED    A$httpd$2939
  0C:37EF    A$httpd$2940
  0C:37F1    A$httpd$2941
  0C:37F3    A$httpd$2942
  0C:37F5    A$httpd$2943
  0C:37F7    A$httpd$2944
  0C:37F9    A$httpd$2948
  0C:37F9    C$httpd.c$180$5$12
  0C:37FC    A$httpd$2949
  0C:37FF    A$httpd$2950
  0C:3802    A$httpd$2951
  0C:3805    A$httpd$2955
  0C:3805    C$httpd.c$181$5$12
  0C:3807    A$httpd$2956
  0C:3809    A$httpd$2957
  0C:380A    A$httpd$2958
  0C:380C    A$httpd$2959
  0C:380D    A$httpd$2960
  0C:380F    A$httpd$2961
  0C:3810    A$httpd$2962
  0C:3812    A$httpd$2963
  0C:3815    A$httpd$2964
  0C:3816    A$httpd$2965
  0C:3817    A$httpd$2966
  0C:381A    A$httpd$2967
  0C:381B    A$httpd$2968
  0C:381C    A$httpd$2969
  0C:381F    A$httpd$2970
  0C:3820    A$httpd$2971
  0C:3821    A$httpd$2972
  0C:3824    A$httpd$2973
  0C:3825    A$httpd$2974
  0C:3828    A$httpd$2975
  0C:3829    A$httpd$2976
  0C:382C    A$httpd$2977
  0C:382E    A$httpd$2981
  0C:382E    C$httpd.c$182$6$17
  0C:3830    A$httpd$2982
  0C:3831    A$httpd$2983
  0C:3833    A$httpd$2984
  0C:3835    A$httpd$2985
  0C:3836    A$httpd$2986
  0C:3837    A$httpd$2987
  0C:3838    A$httpd$2988
  0C:383A    A$httpd$2989
  0C:383B    A$httpd$2990
  0C:383C    A$httpd$2991
  0C:383D    A$httpd$2992
  0C:383E    A$httpd$2993
  0C:383F    A$httpd$2994
  0C:3840    A$httpd$2995
  0C:3841    A$httpd$2996
  0C:3842    A$httpd$2997
  0C:3843    A$httpd$2998
  0C:3844    A$httpd$2999
  0C:3845    A$httpd$3000
  0C:3846    A$httpd$3001
  0C:3847    A$httpd$3002
  0C:3848    A$httpd$3003
  0C:3849    A$httpd$3004
  0C:384B    A$httpd$3005
  0C:384D    A$httpd$3006
  0C:384E    A$httpd$3007
  0C:3850    A$httpd$3008
  0C:3851    A$httpd$3009
  0C:3853    A$httpd$3010
  0C:3854    A$httpd$3011
  0C:3856    A$httpd$3012
  0C:3857    A$httpd$3013
  0C:385A    A$httpd$3014
  0C:385B    A$httpd$3015
  0C:385C    A$httpd$3016
  0C:385F    A$httpd$3019
  0C:385F    C$httpd.c$183$6$17
  0C:3862    A$httpd$3020
  0C:3863    A$httpd$3021
  0C:3864    A$httpd$3022
  0C:3865    A$httpd$3023
  0C:3866    A$httpd$3024
  0C:3867    A$httpd$3025
  0C:3868    A$httpd$3026
  0C:3869    A$httpd$3027
  0C:386A    A$httpd$3028
  0C:386C    A$httpd$3029
  0C:386D    A$httpd$3030
  0C:386E    A$httpd$3031
  0C:386F    A$httpd$3032
  0C:3870    A$httpd$3033
  0C:3871    A$httpd$3034
  0C:3873    A$httpd$3035
  0C:3875    A$httpd$3036
  0C:3877    A$httpd$3037
  0C:387A    A$httpd$3038
  0C:387B    A$httpd$3039
  0C:387C    A$httpd$3040
  0C:387F    A$httpd$3041
  0C:3880    A$httpd$3042
  0C:3881    A$httpd$3043
  0C:3882    A$httpd$3044
  0C:3883    A$httpd$3045
  0C:3884    A$httpd$3046
  0C:3885    A$httpd$3047
  0C:3887    A$httpd$3050
  0C:3887    C$httpd.c$184$7$18
  0C:3889    A$httpd$3051
  0C:388B    A$httpd$3052
  0C:388C    A$httpd$3053
  0C:388E    A$httpd$3054
  0C:388F    A$httpd$3055
  0C:3891    A$httpd$3056
  0C:3892    A$httpd$3057
  0C:3894    A$httpd$3058
  0C:3895    A$httpd$3059
  0C:3898    A$httpd$3060
  0C:3899    A$httpd$3061
  0C:389A    A$httpd$3062
  0C:389D    A$httpd$3066
  0C:389D    C$httpd.c$187$5$12
  0C:389F    A$httpd$3067
  0C:38A0    A$httpd$3068
  0C:38A2    A$httpd$3069
  0C:38A3    A$httpd$3070
  0C:38A4    A$httpd$3071
  0C:38A5    A$httpd$3072
  0C:38A6    A$httpd$3073
  0C:38A7    A$httpd$3074
  0C:38A8    A$httpd$3075
  0C:38A9    A$httpd$3076
  0C:38AB    A$httpd$3077
  0C:38AD    A$httpd$3078
  0C:38AF    A$httpd$3079
  0C:38B1    A$httpd$3080
  0C:38B3    A$httpd$3081
  0C:38B6    A$httpd$3082
  0C:38B7    A$httpd$3083
  0C:38B8    A$httpd$3084
  0C:38BB    A$httpd$3086
  0C:38BD    A$httpd$3087
  0C:38BE    A$httpd$3088
  0C:38C0    A$httpd$3089
  0C:38C1    A$httpd$3090
  0C:38C3    A$httpd$3091
  0C:38C4    A$httpd$3092
  0C:38C6    A$httpd$3093
  0C:38C9    A$httpd$3094
  0C:38CB    A$httpd$3095
  0C:38CD    A$httpd$3096
  0C:38CF    A$httpd$3097
  0C:38D2    A$httpd$3101
  0C:38D2    C$httpd.c$188$5$12
  0C:38D4    A$httpd$3102
  0C:38D5    A$httpd$3103
  0C:38D7    A$httpd$3104
  0C:38D8    A$httpd$3105
  0C:38D9    A$httpd$3106
  0C:38DA    A$httpd$3107
  0C:38DB    A$httpd$3108
  0C:38DC    A$httpd$3109
  0C:38DD    A$httpd$3110
  0C:38DE    A$httpd$3111
  0C:38E0    A$httpd$3112
  0C:38E2    A$httpd$3113
  0C:38E4    A$httpd$3114
  0C:38E6    A$httpd$3115
  0C:38E8    A$httpd$3116
  0C:38EA    A$httpd$3117
  0C:38EB    A$httpd$3118
  0C:38EE    A$httpd$3119
  0C:38EF    A$httpd$3120
  0C:38F0    A$httpd$3121
  0C:38F3    A$httpd$3122
  0C:38F4    A$httpd$3123
  0C:38F5    A$httpd$3124
  0C:38F6    A$httpd$3125
  0C:38F9    A$httpd$3126
  0C:38FA    A$httpd$3127
  0C:38FB    A$httpd$3128
  0C:38FD    A$httpd$3129
  0C:38FE    A$httpd$3130
  0C:3900    A$httpd$3131
  0C:3902    A$httpd$3132
  0C:3903    A$httpd$3133
  0C:3904    A$httpd$3134
  0C:3905    A$httpd$3135
  0C:3906    A$httpd$3136
  0C:3908    A$httpd$3137
  0C:390A    A$httpd$3138
  0C:390C    A$httpd$3139
  0C:390E    A$httpd$3140
  0C:3910    A$httpd$3141
  0C:3912    A$httpd$3142
  0C:3913    A$httpd$3143
  0C:3916    A$httpd$3144
  0C:3917    A$httpd$3145
  0C:3918    A$httpd$3146
  0C:391B    A$httpd$3147
  0C:391C    A$httpd$3148
  0C:391D    A$httpd$3149
  0C:391F    A$httpd$3150
  0C:3921    A$httpd$3151
  0C:3922    A$httpd$3152
  0C:3924    A$httpd$3153
  0C:3926    A$httpd$3154
  0C:3927    A$httpd$3155
  0C:3928    A$httpd$3156
  0C:3929    A$httpd$3157
  0C:392A    A$httpd$3158
  0C:392B    A$httpd$3159
  0C:392C    A$httpd$3160
  0C:392D    A$httpd$3161
  0C:392E    A$httpd$3162
  0C:392F    A$httpd$3163
  0C:3930    A$httpd$3164
  0C:3932    A$httpd$3165
  0C:3934    A$httpd$3166
  0C:3936    A$httpd$3167
  0C:3938    A$httpd$3168
  0C:3939    A$httpd$3169
  0C:393C    A$httpd$3170
  0C:393D    A$httpd$3171
  0C:393E    A$httpd$3172
  0C:3941    A$httpd$3173
  0C:3942    A$httpd$3174
  0C:3943    A$httpd$3175
  0C:3946    A$httpd$3178
  0C:3946    C$httpd.c$189$5$12
  0C:3948    A$httpd$3179
  0C:3949    A$httpd$3180
  0C:394B    A$httpd$3181
  0C:394C    A$httpd$3182
  0C:394D    A$httpd$3183
  0C:394E    A$httpd$3184
  0C:394F    A$httpd$3185
  0C:3950    A$httpd$3186
  0C:3951    A$httpd$3187
  0C:3952    A$httpd$3188
  0C:3954    A$httpd$3189
  0C:3956    A$httpd$3190
  0C:3957    A$httpd$3191
  0C:3958    A$httpd$3192
  0C:3959    A$httpd$3193
  0C:395A    A$httpd$3194
  0C:395B    A$httpd$3195
  0C:395D    A$httpd$3196
  0C:395F    A$httpd$3197
  0C:3961    A$httpd$3198
  0C:3964    A$httpd$3199
  0C:3965    A$httpd$3200
  0C:3966    A$httpd$3201
  0C:3969    A$httpd$3202
  0C:396A    A$httpd$3203
  0C:396C    A$httpd$3204
  0C:396E    A$httpd$3205
  0C:396F    A$httpd$3206
  0C:3970    A$httpd$3207
  0C:3971    A$httpd$3208
  0C:3972    A$httpd$3209
  0C:3973    A$httpd$3210
  0C:3974    A$httpd$3211
  0C:3975    A$httpd$3212
  0C:3976    A$httpd$3213
  0C:3977    A$httpd$3214
  0C:3979    A$httpd$3215
  0C:397B    A$httpd$3216
  0C:397D    A$httpd$3217
  0C:397E    A$httpd$3218
  0C:3981    A$httpd$3219
  0C:3982    A$httpd$3220
  0C:3983    A$httpd$3221
  0C:3986    A$httpd$3222
  0C:3989    A$httpd$3226
  0C:3989    C$httpd.c$194$2$2
  0C:398B    A$httpd$3227
  0C:398C    A$httpd$3228
  0C:398E    A$httpd$3229
  0C:398F    A$httpd$3230
  0C:3990    A$httpd$3231
  0C:3991    A$httpd$3232
  0C:3992    A$httpd$3233
  0C:3993    A$httpd$3234
  0C:3994    A$httpd$3235
  0C:3995    A$httpd$3236
  0C:3997    A$httpd$3237
  0C:3999    A$httpd$3238
  0C:399B    A$httpd$3239
  0C:399D    A$httpd$3240
  0C:399E    A$httpd$3241
  0C:39A1    A$httpd$3242
  0C:39A2    A$httpd$3243
  0C:39A3    A$httpd$3244
  0C:39A6    A$httpd$3245
  0C:39A9    A$httpd$3247
  0C:39AC    A$httpd$3248
  0C:39AE    A$httpd$3251
  0C:39AE    C$httpd.c$195$2$2
  0C:39AE    XFhttpd$handle_script$0$0
  0C:39AF    A$httpd$3269
  0C:39AF    C$httpd.c$198$2$2
  0C:39AF    Fhttpd$send_headers$0$0
  0C:39B1    A$httpd$3270
  0C:39B4    A$httpd$3271
  0C:39B6    A$httpd$3272
  0C:39B8    A$httpd$3273
  0C:39BA    A$httpd$3276
  0C:39BA    C$httpd.c$202$2$2
  0C:39BC    A$httpd$3277
  0C:39BD    A$httpd$3278
  0C:39BF    A$httpd$3279
  0C:39C0    A$httpd$3280
  0C:39C1    A$httpd$3281
  0C:39C2    A$httpd$3282
  0C:39C3    A$httpd$3283
  0C:39C4    A$httpd$3284
  0C:39C5    A$httpd$3285
  0C:39C6    A$httpd$3286
  0C:39C8    A$httpd$3287
  0C:39CA    A$httpd$3288
  0C:39CC    A$httpd$3289
  0C:39CE    A$httpd$3290
  0C:39D1    A$httpd$3291
  0C:39D2    A$httpd$3292
  0C:39D3    A$httpd$3293
  0C:39D6    A$httpd$3294
  0C:39D7    A$httpd$3295
  0C:39DA    A$httpd$3296
  0C:39DD    A$httpd$3297
  0C:39DF    A$httpd$3299
  0C:39E2    A$httpd$3300
  0C:39E5    A$httpd$3301
  0C:39E7    A$httpd$3303
  0C:39EA    A$httpd$3304
  0C:39ED    A$httpd$3305
  0C:39F0    A$httpd$3307
  0C:39F3    A$httpd$3308
  0C:39F6    A$httpd$3309
  0C:39F9    A$httpd$3311
  0C:39FC    A$httpd$3312
  0C:39FF    A$httpd$3313
  0C:3A02    A$httpd$3315
  0C:3A05    A$httpd$3316
  0C:3A08    A$httpd$3317
  0C:3A0B    A$httpd$3319
  0C:3A0E    A$httpd$3320
  0C:3A11    A$httpd$3321
  0C:3A14    A$httpd$3323
  0C:3A17    A$httpd$3324
  0C:3A1A    A$httpd$3325
  0C:3A1D    A$httpd$3327
  0C:3A20    A$httpd$3328
  0C:3A23    A$httpd$3329
  0C:3A26    A$httpd$3331
  0C:3A29    A$httpd$3335
  0C:3A29    C$httpd.c$204$3$3
  0C:3A2B    A$httpd$3336
  0C:3A2D    A$httpd$3337
  0C:3A2F    A$httpd$3338
  0C:3A31    A$httpd$3339
  0C:3A34    A$httpd$3340
  0C:3A35    A$httpd$3341
  0C:3A36    A$httpd$3342
  0C:3A39    A$httpd$3344
  0C:3A3B    A$httpd$3345
  0C:3A3D    A$httpd$3346
  0C:3A3F    A$httpd$3347
  0C:3A41    A$httpd$3348
  0C:3A42    A$httpd$3349
  0C:3A44    A$httpd$3350
  0C:3A45    A$httpd$3351
  0C:3A46    A$httpd$3352
  0C:3A47    A$httpd$3353
  0C:3A48    A$httpd$3354
  0C:3A49    A$httpd$3355
  0C:3A4A    A$httpd$3356
  0C:3A4B    A$httpd$3357
  0C:3A4D    A$httpd$3358
  0C:3A4F    A$httpd$3359
  0C:3A51    A$httpd$3360
  0C:3A52    A$httpd$3361
  0C:3A54    A$httpd$3362
  0C:3A55    A$httpd$3363
  0C:3A57    A$httpd$3364
  0C:3A58    A$httpd$3365
  0C:3A5A    A$httpd$3366
  0C:3A5C    A$httpd$3367
  0C:3A5E    A$httpd$3368
  0C:3A60    A$httpd$3369
  0C:3A63    A$httpd$3370
  0C:3A65    A$httpd$3371
  0C:3A67    A$httpd$3372
  0C:3A69    A$httpd$3373
  0C:3A6B    A$httpd$3374
  0C:3A6D    A$httpd$3375
  0C:3A6F    A$httpd$3376
  0C:3A71    A$httpd$3377
  0C:3A72    A$httpd$3378
  0C:3A75    A$httpd$3379
  0C:3A76    A$httpd$3380
  0C:3A77    A$httpd$3381
  0C:3A78    A$httpd$3382
  0C:3A79    A$httpd$3383
  0C:3A7A    A$httpd$3384
  0C:3A7B    A$httpd$3385
  0C:3A7C    A$httpd$3386
  0C:3A7D    A$httpd$3387
  0C:3A7E    A$httpd$3388
  0C:3A7F    A$httpd$3389
  0C:3A82    A$httpd$3390
  0C:3A83    A$httpd$3391
  0C:3A84    A$httpd$3392
  0C:3A85    A$httpd$3393
  0C:3A86    A$httpd$3394
  0C:3A87    A$httpd$3395
  0C:3A89    A$httpd$3396
  0C:3A8B    A$httpd$3397
  0C:3A8D    A$httpd$3398
  0C:3A8F    A$httpd$3399
  0C:3A91    A$httpd$3400
  0C:3A93    A$httpd$3401
  0C:3A95    A$httpd$3402
  0C:3A97    A$httpd$3403
  0C:3A99    A$httpd$3404
  0C:3A9C    A$httpd$3405
  0C:3A9E    A$httpd$3406
  0C:3AA0    A$httpd$3407
  0C:3AA2    A$httpd$3408
  0C:3AA4    A$httpd$3409
  0C:3AA6    A$httpd$3410
  0C:3AA8    A$httpd$3411
  0C:3AAA    A$httpd$3412
  0C:3AAC    A$httpd$3413
  0C:3AAE    A$httpd$3414
  0C:3AB1    A$httpd$3418
  0C:3AB1    C$httpd.c$206$3$3
  0C:3AB3    A$httpd$3419
  0C:3AB4    A$httpd$3420
  0C:3AB6    A$httpd$3421
  0C:3AB7    A$httpd$3422
  0C:3AB8    A$httpd$3423
  0C:3AB9    A$httpd$3424
  0C:3ABA    A$httpd$3425
  0C:3ABB    A$httpd$3426
  0C:3ABC    A$httpd$3427
  0C:3ABD    A$httpd$3428
  0C:3ABF    A$httpd$3429
  0C:3AC2    A$httpd$3430
  0C:3AC4    A$httpd$3431
  0C:3AC5    A$httpd$3432
  0C:3AC7    A$httpd$3433
  0C:3AC9    A$httpd$3434
  0C:3ACB    A$httpd$3435
  0C:3ACD    A$httpd$3436
  0C:3ACF    A$httpd$3437
  0C:3AD1    A$httpd$3438
  0C:3AD4    A$httpd$3439
  0C:3AD6    A$httpd$3440
  0C:3AD8    A$httpd$3441
  0C:3ADA    A$httpd$3442
  0C:3ADC    A$httpd$3443
  0C:3ADE    A$httpd$3444
  0C:3AE0    A$httpd$3447
  0C:3AE0    C$httpd.c$207$3$3
  0C:3AE3    A$httpd$3448
  0C:3AE6    A$httpd$3449
  0C:3AE9    A$httpd$3450
  0C:3AEB    A$httpd$3452
  0C:3AEE    A$httpd$3456
  0C:3AEE    C$httpd.c$208$5$7
  0C:3AF0    A$httpd$3457
  0C:3AF2    A$httpd$3458
  0C:3AF4    A$httpd$3459
  0C:3AF6    A$httpd$3460
  0C:3AF9    A$httpd$3461
  0C:3AFA    A$httpd$3462
  0C:3AFB    A$httpd$3463
  0C:3AFE    A$httpd$3465
  0C:3B00    A$httpd$3466
  0C:3B02    A$httpd$3467
  0C:3B04    A$httpd$3468
  0C:3B06    A$httpd$3469
  0C:3B07    A$httpd$3470
  0C:3B09    A$httpd$3471
  0C:3B0A    A$httpd$3472
  0C:3B0B    A$httpd$3473
  0C:3B0C    A$httpd$3474
  0C:3B0D    A$httpd$3475
  0C:3B0E    A$httpd$3476
  0C:3B0F    A$httpd$3477
  0C:3B10    A$httpd$3478
  0C:3B12    A$httpd$3479
  0C:3B15    A$httpd$3480
  0C:3B18    A$httpd$3481
  0C:3B1A    A$httpd$3482
  0C:3B1C    A$httpd$3483
  0C:3B1E    A$httpd$3484
  0C:3B20    A$httpd$3485
  0C:3B23    A$httpd$3486
  0C:3B25    A$httpd$3487
  0C:3B27    A$httpd$3488
  0C:3B29    A$httpd$3489
  0C:3B2B    A$httpd$3490
  0C:3B2D    A$httpd$3491
  0C:3B2F    A$httpd$3492
  0C:3B32    A$httpd$3493
  0C:3B34    A$httpd$3494
  0C:3B35    A$httpd$3495
  0C:3B36    A$httpd$3496
  0C:3B38    A$httpd$3497
  0C:3B39    A$httpd$3498
  0C:3B3A    A$httpd$3499
  0C:3B3C    A$httpd$3500
  0C:3B3D    A$httpd$3501
  0C:3B40    A$httpd$3502
  0C:3B41    A$httpd$3503
  0C:3B42    A$httpd$3504
  0C:3B43    A$httpd$3505
  0C:3B44    A$httpd$3506
  0C:3B45    A$httpd$3507
  0C:3B47    A$httpd$3508
  0C:3B49    A$httpd$3509
  0C:3B4B    A$httpd$3510
  0C:3B4D    A$httpd$3511
  0C:3B4F    A$httpd$3512
  0C:3B51    A$httpd$3513
  0C:3B53    A$httpd$3514
  0C:3B55    A$httpd$3515
  0C:3B57    A$httpd$3516
  0C:3B5A    A$httpd$3517
  0C:3B5C    A$httpd$3518
  0C:3B5E    A$httpd$3519
  0C:3B60    A$httpd$3520
  0C:3B62    A$httpd$3521
  0C:3B64    A$httpd$3522
  0C:3B66    A$httpd$3523
  0C:3B68    A$httpd$3524
  0C:3B6A    A$httpd$3525
  0C:3B6D    A$httpd$3527
  0C:3B70    A$httpd$3528
  0C:3B73    A$httpd$3532
  0C:3B73    C$httpd.c$209$3$3
  0C:3B76    A$httpd$3533
  0C:3B77    A$httpd$3534
  0C:3B78    A$httpd$3535
  0C:3B79    A$httpd$3536
  0C:3B7A    A$httpd$3537
  0C:3B7B    A$httpd$3538
  0C:3B7C    A$httpd$3539
  0C:3B7D    A$httpd$3540
  0C:3B7E    A$httpd$3541
  0C:3B81    A$httpd$3542
  0C:3B83    A$httpd$3543
  0C:3B84    A$httpd$3544
  0C:3B85    A$httpd$3545
  0C:3B86    A$httpd$3546
  0C:3B87    A$httpd$3547
  0C:3B8A    A$httpd$3548
  0C:3B8D    A$httpd$3549
  0C:3B8F    A$httpd$3550
  0C:3B91    A$httpd$3551
  0C:3B93    A$httpd$3552
  0C:3B95    A$httpd$3553
  0C:3B97    A$httpd$3554
  0C:3B99    A$httpd$3555
  0C:3B9C    A$httpd$3556
  0C:3B9E    A$httpd$3557
  0C:3BA1    A$httpd$3558
  0C:3BA3    A$httpd$3559
  0C:3BA5    A$httpd$3560
  0C:3BA7    A$httpd$3561
  0C:3BA9    A$httpd$3562
  0C:3BAB    A$httpd$3563
  0C:3BAD    A$httpd$3564
  0C:3BAF    A$httpd$3565
  0C:3BB1    A$httpd$3568
  0C:3BB1    C$httpd.c$210$3$3
  0C:3BB4    A$httpd$3569
  0C:3BB5    A$httpd$3570
  0C:3BB6    A$httpd$3571
  0C:3BB7    A$httpd$3572
  0C:3BB8    A$httpd$3573
  0C:3BB9    A$httpd$3574
  0C:3BBA    A$httpd$3575
  0C:3BBB    A$httpd$3576
  0C:3BBC    A$httpd$3577
  0C:3BBF    A$httpd$3578
  0C:3BC1    A$httpd$3579
  0C:3BC2    A$httpd$3580
  0C:3BC3    A$httpd$3581
  0C:3BC4    A$httpd$3582
  0C:3BC5    A$httpd$3583
  0C:3BC8    A$httpd$3584
  0C:3BCB    A$httpd$3585
  0C:3BCD    A$httpd$3586
  0C:3BCF    A$httpd$3587
  0C:3BD1    A$httpd$3588
  0C:3BD3    A$httpd$3589
  0C:3BD5    A$httpd$3590
  0C:3BD7    A$httpd$3591
  0C:3BDA    A$httpd$3592
  0C:3BDC    A$httpd$3593
  0C:3BDF    A$httpd$3594
  0C:3BE1    A$httpd$3595
  0C:3BE3    A$httpd$3596
  0C:3BE5    A$httpd$3597
  0C:3BE7    A$httpd$3598
  0C:3BE9    A$httpd$3599
  0C:3BEB    A$httpd$3600
  0C:3BED    A$httpd$3601
  0C:3BEF    A$httpd$3602
  0C:3BF2    A$httpd$3607
  0C:3BF2    C$httpd.c$211$4$9
  0C:3BF4    A$httpd$3608
  0C:3BF6    A$httpd$3609
  0C:3BF8    A$httpd$3610
  0C:3BFA    A$httpd$3611
  0C:3BFD    A$httpd$3612
  0C:3BFE    A$httpd$3613
  0C:3BFF    A$httpd$3614
  0C:3C02    A$httpd$3616
  0C:3C04    A$httpd$3617
  0C:3C06    A$httpd$3618
  0C:3C08    A$httpd$3619
  0C:3C0A    A$httpd$3620
  0C:3C0B    A$httpd$3621
  0C:3C0D    A$httpd$3622
  0C:3C0E    A$httpd$3623
  0C:3C0F    A$httpd$3624
  0C:3C10    A$httpd$3625
  0C:3C11    A$httpd$3626
  0C:3C12    A$httpd$3627
  0C:3C13    A$httpd$3628
  0C:3C14    A$httpd$3629
  0C:3C16    A$httpd$3630
  0C:3C19    A$httpd$3631
  0C:3C1C    A$httpd$3632
  0C:3C1E    A$httpd$3633
  0C:3C20    A$httpd$3634
  0C:3C22    A$httpd$3635
  0C:3C24    A$httpd$3636
  0C:3C27    A$httpd$3637
  0C:3C29    A$httpd$3638
  0C:3C2B    A$httpd$3639
  0C:3C2D    A$httpd$3640
  0C:3C2F    A$httpd$3641
  0C:3C31    A$httpd$3642
  0C:3C33    A$httpd$3643
  0C:3C36    A$httpd$3644
  0C:3C38    A$httpd$3645
  0C:3C39    A$httpd$3646
  0C:3C3A    A$httpd$3647
  0C:3C3C    A$httpd$3648
  0C:3C3D    A$httpd$3649
  0C:3C3E    A$httpd$3650
  0C:3C40    A$httpd$3651
  0C:3C41    A$httpd$3652
  0C:3C44    A$httpd$3653
  0C:3C45    A$httpd$3654
  0C:3C46    A$httpd$3655
  0C:3C47    A$httpd$3656
  0C:3C48    A$httpd$3657
  0C:3C49    A$httpd$3658
  0C:3C4B    A$httpd$3659
  0C:3C4D    A$httpd$3660
  0C:3C4F    A$httpd$3661
  0C:3C51    A$httpd$3662
  0C:3C53    A$httpd$3663
  0C:3C55    A$httpd$3664
  0C:3C57    A$httpd$3665
  0C:3C59    A$httpd$3666
  0C:3C5B    A$httpd$3667
  0C:3C5E    A$httpd$3668
  0C:3C60    A$httpd$3669
  0C:3C62    A$httpd$3670
  0C:3C64    A$httpd$3671
  0C:3C66    A$httpd$3672
  0C:3C68    A$httpd$3673
  0C:3C6A    A$httpd$3674
  0C:3C6C    A$httpd$3675
  0C:3C6E    A$httpd$3676
  0C:3C71    A$httpd$3678
  0C:3C74    A$httpd$3679
  0C:3C77    A$httpd$3683
  0C:3C77    C$httpd.c$212$3$3
  0C:3C7A    A$httpd$3684
  0C:3C7B    A$httpd$3685
  0C:3C7C    A$httpd$3686
  0C:3C7D    A$httpd$3687
  0C:3C7E    A$httpd$3688
  0C:3C7F    A$httpd$3689
  0C:3C80    A$httpd$3690
  0C:3C81    A$httpd$3691
  0C:3C82    A$httpd$3692
  0C:3C85    A$httpd$3693
  0C:3C87    A$httpd$3694
  0C:3C88    A$httpd$3695
  0C:3C89    A$httpd$3696
  0C:3C8A    A$httpd$3697
  0C:3C8B    A$httpd$3698
  0C:3C8E    A$httpd$3699
  0C:3C91    A$httpd$3700
  0C:3C93    A$httpd$3701
  0C:3C95    A$httpd$3702
  0C:3C97    A$httpd$3703
  0C:3C99    A$httpd$3704
  0C:3C9B    A$httpd$3705
  0C:3C9D    A$httpd$3706
  0C:3CA0    A$httpd$3707
  0C:3CA2    A$httpd$3708
  0C:3CA5    A$httpd$3709
  0C:3CA7    A$httpd$3710
  0C:3CA9    A$httpd$3711
  0C:3CAB    A$httpd$3712
  0C:3CAD    A$httpd$3713
  0C:3CAF    A$httpd$3714
  0C:3CB1    A$httpd$3715
  0C:3CB3    A$httpd$3716
  0C:3CB5    A$httpd$3717
  0C:3CB8    A$httpd$3721
  0C:3CB8    C$httpd.c$213$5$13
  0C:3CBA    A$httpd$3722
  0C:3CBC    A$httpd$3723
  0C:3CBE    A$httpd$3724
  0C:3CC0    A$httpd$3725
  0C:3CC3    A$httpd$3726
  0C:3CC4    A$httpd$3727
  0C:3CC5    A$httpd$3728
  0C:3CC8    A$httpd$3730
  0C:3CCA    A$httpd$3731
  0C:3CCC    A$httpd$3732
  0C:3CCE    A$httpd$3733
  0C:3CD0    A$httpd$3734
  0C:3CD1    A$httpd$3735
  0C:3CD3    A$httpd$3736
  0C:3CD4    A$httpd$3737
  0C:3CD5    A$httpd$3738
  0C:3CD6    A$httpd$3739
  0C:3CD7    A$httpd$3740
  0C:3CD8    A$httpd$3741
  0C:3CD9    A$httpd$3742
  0C:3CDA    A$httpd$3743
  0C:3CDC    A$httpd$3744
  0C:3CDF    A$httpd$3745
  0C:3CE2    A$httpd$3746
  0C:3CE4    A$httpd$3747
  0C:3CE6    A$httpd$3748
  0C:3CE8    A$httpd$3749
  0C:3CEA    A$httpd$3750
  0C:3CED    A$httpd$3751
  0C:3CEF    A$httpd$3752
  0C:3CF1    A$httpd$3753
  0C:3CF3    A$httpd$3754
  0C:3CF5    A$httpd$3755
  0C:3CF7    A$httpd$3756
  0C:3CF9    A$httpd$3757
  0C:3CFC    A$httpd$3758
  0C:3CFE    A$httpd$3759
  0C:3CFF    A$httpd$3760
  0C:3D00    A$httpd$3761
  0C:3D02    A$httpd$3762
  0C:3D03    A$httpd$3763
  0C:3D04    A$httpd$3764
  0C:3D06    A$httpd$3765
  0C:3D07    A$httpd$3766
  0C:3D0A    A$httpd$3767
  0C:3D0B    A$httpd$3768
  0C:3D0C    A$httpd$3769
  0C:3D0D    A$httpd$3770
  0C:3D0E    A$httpd$3771
  0C:3D0F    A$httpd$3772
  0C:3D11    A$httpd$3773
  0C:3D13    A$httpd$3774
  0C:3D15    A$httpd$3775
  0C:3D17    A$httpd$3776
  0C:3D19    A$httpd$3777
  0C:3D1B    A$httpd$3778
  0C:3D1D    A$httpd$3779
  0C:3D1F    A$httpd$3780
  0C:3D21    A$httpd$3781
  0C:3D24    A$httpd$3782
  0C:3D26    A$httpd$3783
  0C:3D28    A$httpd$3784
  0C:3D2A    A$httpd$3785
  0C:3D2C    A$httpd$3786
  0C:3D2E    A$httpd$3787
  0C:3D30    A$httpd$3788
  0C:3D32    A$httpd$3789
  0C:3D34    A$httpd$3790
  0C:3D37    A$httpd$3792
  0C:3D3A    A$httpd$3793
  0C:3D3D    A$httpd$3797
  0C:3D3D    C$httpd.c$214$3$3
  0C:3D40    A$httpd$3798
  0C:3D41    A$httpd$3799
  0C:3D42    A$httpd$3800
  0C:3D43    A$httpd$3801
  0C:3D44    A$httpd$3802
  0C:3D45    A$httpd$3803
  0C:3D46    A$httpd$3804
  0C:3D47    A$httpd$3805
  0C:3D48    A$httpd$3806
  0C:3D4B    A$httpd$3807
  0C:3D4D    A$httpd$3808
  0C:3D4E    A$httpd$3809
  0C:3D4F    A$httpd$3810
  0C:3D50    A$httpd$3811
  0C:3D51    A$httpd$3812
  0C:3D54    A$httpd$3813
  0C:3D57    A$httpd$3814
  0C:3D59    A$httpd$3815
  0C:3D5B    A$httpd$3816
  0C:3D5D    A$httpd$3817
  0C:3D5F    A$httpd$3818
  0C:3D61    A$httpd$3819
  0C:3D63    A$httpd$3820
  0C:3D66    A$httpd$3821
  0C:3D68    A$httpd$3822
  0C:3D6B    A$httpd$3823
  0C:3D6D    A$httpd$3824
  0C:3D6F    A$httpd$3825
  0C:3D71    A$httpd$3826
  0C:3D73    A$httpd$3827
  0C:3D75    A$httpd$3828
  0C:3D77    A$httpd$3829
  0C:3D79    A$httpd$3830
  0C:3D7B    A$httpd$3831
  0C:3D7E    A$httpd$3835
  0C:3D7E    C$httpd.c$215$5$16
  0C:3D80    A$httpd$3836
  0C:3D82    A$httpd$3837
  0C:3D84    A$httpd$3838
  0C:3D86    A$httpd$3839
  0C:3D89    A$httpd$3840
  0C:3D8A    A$httpd$3841
  0C:3D8B    A$httpd$3842
  0C:3D8E    A$httpd$3844
  0C:3D90    A$httpd$3845
  0C:3D92    A$httpd$3846
  0C:3D94    A$httpd$3847
  0C:3D96    A$httpd$3848
  0C:3D97    A$httpd$3849
  0C:3D99    A$httpd$3850
  0C:3D9A    A$httpd$3851
  0C:3D9B    A$httpd$3852
  0C:3D9C    A$httpd$3853
  0C:3D9D    A$httpd$3854
  0C:3D9E    A$httpd$3855
  0C:3D9F    A$httpd$3856
  0C:3DA0    A$httpd$3857
  0C:3DA2    A$httpd$3858
  0C:3DA5    A$httpd$3859
  0C:3DA8    A$httpd$3860
  0C:3DAA    A$httpd$3861
  0C:3DAC    A$httpd$3862
  0C:3DAE    A$httpd$3863
  0C:3DB0    A$httpd$3864
  0C:3DB3    A$httpd$3865
  0C:3DB5    A$httpd$3866
  0C:3DB7    A$httpd$3867
  0C:3DB9    A$httpd$3868
  0C:3DBB    A$httpd$3869
  0C:3DBD    A$httpd$3870
  0C:3DBF    A$httpd$3871
  0C:3DC2    A$httpd$3872
  0C:3DC4    A$httpd$3873
  0C:3DC5    A$httpd$3874
  0C:3DC6    A$httpd$3875
  0C:3DC8    A$httpd$3876
  0C:3DC9    A$httpd$3877
  0C:3DCA    A$httpd$3878
  0C:3DCC    A$httpd$3879
  0C:3DCD    A$httpd$3880
  0C:3DD0    A$httpd$3881
  0C:3DD1    A$httpd$3882
  0C:3DD2    A$httpd$3883
  0C:3DD3    A$httpd$3884
  0C:3DD4    A$httpd$3885
  0C:3DD5    A$httpd$3886
  0C:3DD7    A$httpd$3887
  0C:3DD9    A$httpd$3888
  0C:3DDB    A$httpd$3889
  0C:3DDD    A$httpd$3890
  0C:3DDF    A$httpd$3891
  0C:3DE1    A$httpd$3892
  0C:3DE3    A$httpd$3893
  0C:3DE5    A$httpd$3894
  0C:3DE7    A$httpd$3895
  0C:3DEA    A$httpd$3896
  0C:3DEC    A$httpd$3897
  0C:3DEE    A$httpd$3898
  0C:3DF0    A$httpd$3899
  0C:3DF2    A$httpd$3900
  0C:3DF4    A$httpd$3901
  0C:3DF6    A$httpd$3902
  0C:3DF8    A$httpd$3903
  0C:3DFA    A$httpd$3904
  0C:3DFD    A$httpd$3906
  0C:3E00    A$httpd$3907
  0C:3E03    A$httpd$3911
  0C:3E03    C$httpd.c$216$3$3
  0C:3E06    A$httpd$3912
  0C:3E07    A$httpd$3913
  0C:3E08    A$httpd$3914
  0C:3E09    A$httpd$3915
  0C:3E0A    A$httpd$3916
  0C:3E0B    A$httpd$3917
  0C:3E0C    A$httpd$3918
  0C:3E0D    A$httpd$3919
  0C:3E0E    A$httpd$3920
  0C:3E11    A$httpd$3921
  0C:3E13    A$httpd$3922
  0C:3E14    A$httpd$3923
  0C:3E15    A$httpd$3924
  0C:3E16    A$httpd$3925
  0C:3E17    A$httpd$3926
  0C:3E1A    A$httpd$3927
  0C:3E1D    A$httpd$3928
  0C:3E1F    A$httpd$3929
  0C:3E21    A$httpd$3930
  0C:3E23    A$httpd$3931
  0C:3E25    A$httpd$3932
  0C:3E27    A$httpd$3933
  0C:3E29    A$httpd$3934
  0C:3E2C    A$httpd$3935
  0C:3E2E    A$httpd$3936
  0C:3E31    A$httpd$3937
  0C:3E33    A$httpd$3938
  0C:3E35    A$httpd$3939
  0C:3E37    A$httpd$3940
  0C:3E39    A$httpd$3941
  0C:3E3B    A$httpd$3942
  0C:3E3D    A$httpd$3943
  0C:3E3F    A$httpd$3944
  0C:3E41    A$httpd$3945
  0C:3E44    A$httpd$3949
  0C:3E44    C$httpd.c$217$5$19
  0C:3E46    A$httpd$3950
  0C:3E48    A$httpd$3951
  0C:3E4A    A$httpd$3952
  0C:3E4C    A$httpd$3953
  0C:3E4F    A$httpd$3954
  0C:3E50    A$httpd$3955
  0C:3E51    A$httpd$3956
  0C:3E54    A$httpd$3958
  0C:3E56    A$httpd$3959
  0C:3E58    A$httpd$3960
  0C:3E5A    A$httpd$3961
  0C:3E5C    A$httpd$3962
  0C:3E5D    A$httpd$3963
  0C:3E5F    A$httpd$3964
  0C:3E60    A$httpd$3965
  0C:3E61    A$httpd$3966
  0C:3E62    A$httpd$3967
  0C:3E63    A$httpd$3968
  0C:3E64    A$httpd$3969
  0C:3E65    A$httpd$3970
  0C:3E66    A$httpd$3971
  0C:3E68    A$httpd$3972
  0C:3E6B    A$httpd$3973
  0C:3E6E    A$httpd$3974
  0C:3E70    A$httpd$3975
  0C:3E72    A$httpd$3976
  0C:3E74    A$httpd$3977
  0C:3E76    A$httpd$3978
  0C:3E79    A$httpd$3979
  0C:3E7B    A$httpd$3980
  0C:3E7D    A$httpd$3981
  0C:3E7F    A$httpd$3982
  0C:3E81    A$httpd$3983
  0C:3E83    A$httpd$3984
  0C:3E85    A$httpd$3985
  0C:3E88    A$httpd$3986
  0C:3E8A    A$httpd$3987
  0C:3E8B    A$httpd$3988
  0C:3E8C    A$httpd$3989
  0C:3E8E    A$httpd$3990
  0C:3E8F    A$httpd$3991
  0C:3E90    A$httpd$3992
  0C:3E92    A$httpd$3993
  0C:3E93    A$httpd$3994
  0C:3E96    A$httpd$3995
  0C:3E97    A$httpd$3996
  0C:3E98    A$httpd$3997
  0C:3E99    A$httpd$3998
  0C:3E9A    A$httpd$3999
  0C:3E9B    A$httpd$4000
  0C:3E9D    A$httpd$4001
  0C:3E9F    A$httpd$4002
  0C:3EA1    A$httpd$4003
  0C:3EA3    A$httpd$4004
  0C:3EA5    A$httpd$4005
  0C:3EA7    A$httpd$4006
  0C:3EA9    A$httpd$4007
  0C:3EAB    A$httpd$4008
  0C:3EAD    A$httpd$4009
  0C:3EB0    A$httpd$4010
  0C:3EB2    A$httpd$4011
  0C:3EB4    A$httpd$4012
  0C:3EB6    A$httpd$4013
  0C:3EB8    A$httpd$4014
  0C:3EBA    A$httpd$4015
  0C:3EBC    A$httpd$4016
  0C:3EBE    A$httpd$4017
  0C:3EC0    A$httpd$4018
  0C:3EC3    A$httpd$4020
  0C:3EC6    A$httpd$4021
  0C:3EC9    A$httpd$4025
  0C:3EC9    C$httpd.c$218$3$3
  0C:3ECC    A$httpd$4026
  0C:3ECD    A$httpd$4027
  0C:3ECE    A$httpd$4028
  0C:3ECF    A$httpd$4029
  0C:3ED0    A$httpd$4030
  0C:3ED1    A$httpd$4031
  0C:3ED2    A$httpd$4032
  0C:3ED3    A$httpd$4033
  0C:3ED4    A$httpd$4034
  0C:3ED7    A$httpd$4035
  0C:3ED9    A$httpd$4036
  0C:3EDA    A$httpd$4037
  0C:3EDB    A$httpd$4038
  0C:3EDC    A$httpd$4039
  0C:3EDD    A$httpd$4040
  0C:3EE0    A$httpd$4041
  0C:3EE3    A$httpd$4042
  0C:3EE5    A$httpd$4043
  0C:3EE7    A$httpd$4044
  0C:3EE9    A$httpd$4045
  0C:3EEC    A$httpd$4046
  0C:3EEE    A$httpd$4047
  0C:3EF1    A$httpd$4048
  0C:3EF3    A$httpd$4049
  0C:3EF5    A$httpd$4050
  0C:3EF7    A$httpd$4051
  0C:3EF9    A$httpd$4052
  0C:3EFB    A$httpd$4053
  0C:3EFE    A$httpd$4057
  0C:3EFE    C$httpd.c$219$5$22
  0C:3F00    A$httpd$4058
  0C:3F02    A$httpd$4059
  0C:3F04    A$httpd$4060
  0C:3F06    A$httpd$4061
  0C:3F09    A$httpd$4062
  0C:3F0A    A$httpd$4063
  0C:3F0B    A$httpd$4064
  0C:3F0E    A$httpd$4066
  0C:3F10    A$httpd$4067
  0C:3F12    A$httpd$4068
  0C:3F14    A$httpd$4069
  0C:3F16    A$httpd$4070
  0C:3F17    A$httpd$4071
  0C:3F19    A$httpd$4072
  0C:3F1A    A$httpd$4073
  0C:3F1B    A$httpd$4074
  0C:3F1C    A$httpd$4075
  0C:3F1D    A$httpd$4076
  0C:3F1E    A$httpd$4077
  0C:3F1F    A$httpd$4078
  0C:3F20    A$httpd$4079
  0C:3F22    A$httpd$4080
  0C:3F25    A$httpd$4081
  0C:3F28    A$httpd$4082
  0C:3F2A    A$httpd$4083
  0C:3F2C    A$httpd$4084
  0C:3F2E    A$httpd$4085
  0C:3F30    A$httpd$4086
  0C:3F33    A$httpd$4087
  0C:3F35    A$httpd$4088
  0C:3F37    A$httpd$4089
  0C:3F39    A$httpd$4090
  0C:3F3B    A$httpd$4091
  0C:3F3D    A$httpd$4092
  0C:3F3F    A$httpd$4093
  0C:3F42    A$httpd$4094
  0C:3F44    A$httpd$4095
  0C:3F45    A$httpd$4096
  0C:3F46    A$httpd$4097
  0C:3F48    A$httpd$4098
  0C:3F49    A$httpd$4099
  0C:3F4A    A$httpd$4100
  0C:3F4C    A$httpd$4101
  0C:3F4D    A$httpd$4102
  0C:3F50    A$httpd$4103
  0C:3F51    A$httpd$4104
  0C:3F52    A$httpd$4105
  0C:3F53    A$httpd$4106
  0C:3F54    A$httpd$4107
  0C:3F55    A$httpd$4108
  0C:3F57    A$httpd$4109
  0C:3F59    A$httpd$4110
  0C:3F5B    A$httpd$4111
  0C:3F5D    A$httpd$4112
  0C:3F5F    A$httpd$4113
  0C:3F61    A$httpd$4114
  0C:3F63    A$httpd$4115
  0C:3F65    A$httpd$4116
  0C:3F67    A$httpd$4117
  0C:3F6A    A$httpd$4118
  0C:3F6C    A$httpd$4119
  0C:3F6E    A$httpd$4120
  0C:3F70    A$httpd$4121
  0C:3F72    A$httpd$4122
  0C:3F74    A$httpd$4123
  0C:3F76    A$httpd$4124
  0C:3F78    A$httpd$4125
  0C:3F7A    A$httpd$4126
  0C:3F7D    A$httpd$4128
  0C:3F80    A$httpd$4129
  0C:3F83    A$httpd$4133
  0C:3F83    C$httpd.c$221$4$24
  0C:3F85    A$httpd$4134
  0C:3F87    A$httpd$4135
  0C:3F89    A$httpd$4136
  0C:3F8B    A$httpd$4137
  0C:3F8E    A$httpd$4138
  0C:3F8F    A$httpd$4139
  0C:3F90    A$httpd$4140
  0C:3F93    A$httpd$4142
  0C:3F95    A$httpd$4143
  0C:3F97    A$httpd$4144
  0C:3F99    A$httpd$4145
  0C:3F9B    A$httpd$4146
  0C:3F9C    A$httpd$4147
  0C:3F9E    A$httpd$4148
  0C:3F9F    A$httpd$4149
  0C:3FA0    A$httpd$4150
  0C:3FA1    A$httpd$4151
  0C:3FA2    A$httpd$4152
  0C:3FA3    A$httpd$4153
  0C:3FA4    A$httpd$4154
  0C:3FA5    A$httpd$4155
  0C:3FA7    A$httpd$4156
  0C:3FAA    A$httpd$4157
  0C:3FAD    A$httpd$4158
  0C:3FAF    A$httpd$4159
  0C:3FB1    A$httpd$4160
  0C:3FB3    A$httpd$4161
  0C:3FB5    A$httpd$4162
  0C:3FB8    A$httpd$4163
  0C:3FBA    A$httpd$4164
  0C:3FBC    A$httpd$4165
  0C:3FBE    A$httpd$4166
  0C:3FC0    A$httpd$4167
  0C:3FC2    A$httpd$4168
  0C:3FC4    A$httpd$4169
  0C:3FC7    A$httpd$4170
  0C:3FC9    A$httpd$4171
  0C:3FCA    A$httpd$4172
  0C:3FCB    A$httpd$4173
  0C:3FCD    A$httpd$4174
  0C:3FCE    A$httpd$4175
  0C:3FCF    A$httpd$4176
  0C:3FD1    A$httpd$4177
  0C:3FD2    A$httpd$4178
  0C:3FD5    A$httpd$4179
  0C:3FD6    A$httpd$4180
  0C:3FD7    A$httpd$4181
  0C:3FD8    A$httpd$4182
  0C:3FD9    A$httpd$4183
  0C:3FDA    A$httpd$4184
  0C:3FDC    A$httpd$4185
  0C:3FDE    A$httpd$4186
  0C:3FE0    A$httpd$4187
  0C:3FE2    A$httpd$4188
  0C:3FE4    A$httpd$4189
  0C:3FE6    A$httpd$4190
  0C:3FE8    A$httpd$4191
  0C:3FEA    A$httpd$4192
  0C:3FEC    A$httpd$4193
  0C:3FEF    A$httpd$4194
  0C:3FF1    A$httpd$4195
  0C:3FF3    A$httpd$4196
  0C:3FF5    A$httpd$4197
  0C:3FF7    A$httpd$4198
  0C:3FF9    A$httpd$4199
  0C:3FFB    A$httpd$4200
  0C:3FFD    A$httpd$4201
  0C:3FFF    A$httpd$4202
  0C:4001    A$httpd$4205
  0C:4001    C$httpd.c$223$2$2
  0C:4003    A$httpd$4207
  0C:4005    A$httpd$4208
  0C:4007    A$httpd$4209
  0C:4009    A$httpd$4210
  0C:400A    A$httpd$4211
  0C:400D    A$httpd$4212
  0C:400E    A$httpd$4213
  0C:400F    A$httpd$4214
  0C:4012    A$httpd$4215
  0C:4015    A$httpd$4217
  0C:4018    A$httpd$4218
  0C:401A    A$httpd$4221
  0C:401A    C$httpd.c$224$2$2
  0C:401A    XFhttpd$send_headers$0$0
  0C:401B    A$httpd$4237
  0C:401B    C$httpd.c$227$2$2
  0C:401B    Fhttpd$handle_output$0$0
  0C:401D    A$httpd$4238
  0C:4020    A$httpd$4239
  0C:4022    A$httpd$4240
  0C:4024    A$httpd$4241
  0C:4026    A$httpd$4244
  0C:4026    C$httpd.c$231$2$2
  0C:4028    A$httpd$4245
  0C:4029    A$httpd$4246
  0C:402B    A$httpd$4247
  0C:402C    A$httpd$4248
  0C:402D    A$httpd$4249
  0C:402E    A$httpd$4250
  0C:402F    A$httpd$4251
  0C:4030    A$httpd$4252
  0C:4031    A$httpd$4253
  0C:4032    A$httpd$4254
  0C:4034    A$httpd$4255
  0C:4036    A$httpd$4256
  0C:4038    A$httpd$4257
  0C:403A    A$httpd$4258
  0C:403D    A$httpd$4259
  0C:403E    A$httpd$4260
  0C:403F    A$httpd$4261
  0C:4042    A$httpd$4262
  0C:4043    A$httpd$4263
  0C:4046    A$httpd$4264
  0C:4049    A$httpd$4265
  0C:404B    A$httpd$4267
  0C:404E    A$httpd$4268
  0C:4051    A$httpd$4269
  0C:4054    A$httpd$4271
  0C:4057    A$httpd$4272
  0C:405A    A$httpd$4273
  0C:405D    A$httpd$4275
  0C:4060    A$httpd$4276
  0C:4063    A$httpd$4277
  0C:4066    A$httpd$4279
  0C:4069    A$httpd$4280
  0C:406C    A$httpd$4281
  0C:406F    A$httpd$4283
  0C:4072    A$httpd$4284
  0C:4075    A$httpd$4285
  0C:4078    A$httpd$4287
  0C:407B    A$httpd$4288
  0C:407E    A$httpd$4289
  0C:4081    A$httpd$4291
  0C:4084    A$httpd$4292
  0C:4087    A$httpd$4293
  0C:408A    A$httpd$4295
  0C:408D    A$httpd$4299
  0C:408D    C$httpd.c$233$2$2
  0C:408F    A$httpd$4300
  0C:4091    A$httpd$4301
  0C:4093    A$httpd$4302
  0C:4095    A$httpd$4303
  0C:4096    A$httpd$4304
  0C:4098    A$httpd$4305
  0C:4099    A$httpd$4306
  0C:409A    A$httpd$4307
  0C:409B    A$httpd$4308
  0C:409C    A$httpd$4309
  0C:409D    A$httpd$4310
  0C:409E    A$httpd$4311
  0C:409F    A$httpd$4312
  0C:40A1    A$httpd$4313
  0C:40A2    A$httpd$4314
  0C:40A5    A$httpd$4315
  0C:40A6    A$httpd$4317
  0C:40A8    A$httpd$4318
  0C:40AA    A$httpd$4319
  0C:40AC    A$httpd$4320
  0C:40AF    A$httpd$4321
  0C:40B0    A$httpd$4322
  0C:40B1    A$httpd$4323
  0C:40B4    A$httpd$4324
  0C:40B5    A$httpd$4326
  0C:40B7    A$httpd$4327
  0C:40B9    A$httpd$4328
  0C:40BB    A$httpd$4329
  0C:40BD    A$httpd$4330
  0C:40C0    A$httpd$4332
  0C:40C2    A$httpd$4333
  0C:40C4    A$httpd$4334
  0C:40C6    A$httpd$4335
  0C:40C8    A$httpd$4336
  0C:40C9    A$httpd$4337
  0C:40CB    A$httpd$4338
  0C:40CC    A$httpd$4339
  0C:40CD    A$httpd$4340
  0C:40CF    A$httpd$4341
  0C:40D0    A$httpd$4342
  0C:40D1    A$httpd$4343
  0C:40D2    A$httpd$4344
  0C:40D3    A$httpd$4345
  0C:40D5    A$httpd$4346
  0C:40D7    A$httpd$4347
  0C:40D9    A$httpd$4348
  0C:40DB    A$httpd$4349
  0C:40DE    A$httpd$4350
  0C:40E0    A$httpd$4351
  0C:40E2    A$httpd$4352
  0C:40E4    A$httpd$4353
  0C:40E6    A$httpd$4354
  0C:40E9    A$httpd$4358
  0C:40E9    C$httpd.c$234$4$4
  0C:40EB    A$httpd$4359
  0C:40EC    A$httpd$4360
  0C:40EE    A$httpd$4361
  0C:40EF    A$httpd$4362
  0C:40F0    A$httpd$4363
  0C:40F1    A$httpd$4364
  0C:40F2    A$httpd$4365
  0C:40F3    A$httpd$4366
  0C:40F4    A$httpd$4367
  0C:40F5    A$httpd$4368
  0C:40F7    A$httpd$4369
  0C:40F9    A$httpd$4370
  0C:40FB    A$httpd$4371
  0C:40FD    A$httpd$4372
  0C:40FF    A$httpd$4373
  0C:4101    A$httpd$4374
  0C:4103    A$httpd$4375
  0C:4106    A$httpd$4376
  0C:4109    A$httpd$4377
  0C:410C    A$httpd$4378
  0C:410E    A$httpd$4379
  0C:4110    A$httpd$4380
  0C:4112    A$httpd$4383
  0C:4112    C$httpd.c$235$4$4
  0C:4114    A$httpd$4384
  0C:4115    A$httpd$4385
  0C:4117    A$httpd$4386
  0C:4118    A$httpd$4387
  0C:4119    A$httpd$4388
  0C:411A    A$httpd$4389
  0C:411B    A$httpd$4390
  0C:411C    A$httpd$4391
  0C:411D    A$httpd$4392
  0C:411E    A$httpd$4393
  0C:4120    A$httpd$4394
  0C:4123    A$httpd$4395
  0C:4125    A$httpd$4396
  0C:4126    A$httpd$4397
  0C:4127    A$httpd$4398
  0C:4129    A$httpd$4399
  0C:412A    A$httpd$4400
  0C:412B    A$httpd$4401
  0C:412D    A$httpd$4402
  0C:412E    A$httpd$4403
  0C:4130    A$httpd$4404
  0C:4132    A$httpd$4405
  0C:4134    A$httpd$4406
  0C:4137    A$httpd$4407
  0C:4139    A$httpd$4408
  0C:413B    A$httpd$4409
  0C:413D    A$httpd$4412
  0C:413D    C$httpd.c$236$5$5
  0C:413F    A$httpd$4413
  0C:4141    A$httpd$4414
  0C:4143    A$httpd$4415
  0C:4145    A$httpd$4416
  0C:4148    A$httpd$4417
  0C:4149    A$httpd$4418
  0C:414A    A$httpd$4419
  0C:414D    A$httpd$4421
  0C:414F    A$httpd$4422
  0C:4151    A$httpd$4423
  0C:4153    A$httpd$4424
  0C:4155    A$httpd$4425
  0C:4157    A$httpd$4426
  0C:4159    A$httpd$4427
  0C:415B    A$httpd$4428
  0C:415C    A$httpd$4429
  0C:415E    A$httpd$4430
  0C:415F    A$httpd$4431
  0C:4161    A$httpd$4432
  0C:4162    A$httpd$4433
  0C:4164    A$httpd$4434
  0C:4167    A$httpd$4435
  0C:4169    A$httpd$4436
  0C:416B    A$httpd$4437
  0C:416D    A$httpd$4438
  0C:416F    A$httpd$4439
  0C:4170    A$httpd$4440
  0C:4172    A$httpd$4441
  0C:4174    A$httpd$4442
  0C:4177    A$httpd$4446
  0C:4177    C$httpd.c$238$5$7
  0C:4179    A$httpd$4447
  0C:417A    A$httpd$4448
  0C:417C    A$httpd$4449
  0C:417D    A$httpd$4450
  0C:417E    A$httpd$4451
  0C:417F    A$httpd$4452
  0C:4180    A$httpd$4453
  0C:4181    A$httpd$4454
  0C:4182    A$httpd$4455
  0C:4183    A$httpd$4456
  0C:4185    A$httpd$4457
  0C:4187    A$httpd$4458
  0C:4189    A$httpd$4459
  0C:418B    A$httpd$4460
  0C:418D    A$httpd$4461
  0C:4190    A$httpd$4462
  0C:4191    A$httpd$4463
  0C:4192    A$httpd$4464
  0C:4195    A$httpd$4466
  0C:4197    A$httpd$4467
  0C:4198    A$httpd$4468
  0C:419A    A$httpd$4469
  0C:419B    A$httpd$4470
  0C:419D    A$httpd$4471
  0C:419E    A$httpd$4472
  0C:41A0    A$httpd$4473
  0C:41A3    A$httpd$4474
  0C:41A5    A$httpd$4475
  0C:41A7    A$httpd$4476
  0C:41AA    A$httpd$4478
  0C:41AD    A$httpd$4479
  0C:41B0    A$httpd$4485
  0C:41B0    C$httpd.c$240$3$3
  0C:41B0    C$httpd.c$243$2$2
  0C:41B2    A$httpd$4486
  0C:41B4    A$httpd$4487
  0C:41B6    A$httpd$4488
  0C:41B8    A$httpd$4489
  0C:41B9    A$httpd$4490
  0C:41BB    A$httpd$4491
  0C:41BC    A$httpd$4492
  0C:41BD    A$httpd$4493
  0C:41BE    A$httpd$4494
  0C:41BF    A$httpd$4495
  0C:41C0    A$httpd$4496
  0C:41C1    A$httpd$4497
  0C:41C2    A$httpd$4498
  0C:41C4    A$httpd$4499
  0C:41C6    A$httpd$4500
  0C:41C7    A$httpd$4501
  0C:41C9    A$httpd$4502
  0C:41CA    A$httpd$4503
  0C:41CB    A$httpd$4504
  0C:41CC    A$httpd$4505
  0C:41CD    A$httpd$4506
  0C:41CE    A$httpd$4507
  0C:41CF    A$httpd$4508
  0C:41D0    A$httpd$4509
  0C:41D2    A$httpd$4510
  0C:41D4    A$httpd$4511
  0C:41D6    A$httpd$4512
  0C:41D8    A$httpd$4513
  0C:41DA    A$httpd$4514
  0C:41DC    A$httpd$4515
  0C:41DE    A$httpd$4516
  0C:41E0    A$httpd$4517
  0C:41E2    A$httpd$4518
  0C:41E4    A$httpd$4519
  0C:41E7    A$httpd$4520
  0C:41E9    A$httpd$4521
  0C:41EB    A$httpd$4522
  0C:41ED    A$httpd$4523
  0C:41EF    A$httpd$4524
  0C:41F1    A$httpd$4525
  0C:41F3    A$httpd$4526
  0C:41F5    A$httpd$4527
  0C:41F7    A$httpd$4528
  0C:41F9    A$httpd$4529
  0C:41FB    A$httpd$4530
  0C:41FD    A$httpd$4531
  0C:41FE    A$httpd$4532
  0C:41FF    A$httpd$4533
  0C:4201    A$httpd$4534
  0C:4204    A$httpd$4538
  0C:4204    C$httpd.c$244$4$9
  0C:4206    A$httpd$4539
  0C:4207    A$httpd$4540
  0C:4209    A$httpd$4541
  0C:420A    A$httpd$4542
  0C:420B    A$httpd$4543
  0C:420C    A$httpd$4544
  0C:420D    A$httpd$4545
  0C:420E    A$httpd$4546
  0C:420F    A$httpd$4547
  0C:4210    A$httpd$4548
  0C:4212    A$httpd$4549
  0C:4214    A$httpd$4550
  0C:4216    A$httpd$4551
  0C:4218    A$httpd$4552
  0C:421A    A$httpd$4553
  0C:421C    A$httpd$4554
  0C:421E    A$httpd$4555
  0C:4221    A$httpd$4556
  0C:4224    A$httpd$4557
  0C:4227    A$httpd$4558
  0C:4229    A$httpd$4559
  0C:422B    A$httpd$4560
  0C:422D    A$httpd$4563
  0C:422D    C$httpd.c$245$4$9
  0C:422F    A$httpd$4564
  0C:4230    A$httpd$4565
  0C:4232    A$httpd$4566
  0C:4233    A$httpd$4567
  0C:4234    A$httpd$4568
  0C:4235    A$httpd$4569
  0C:4236    A$httpd$4570
  0C:4237    A$httpd$4571
  0C:4238    A$httpd$4572
  0C:4239    A$httpd$4573
  0C:423B    A$httpd$4574
  0C:423E    A$httpd$4575
  0C:4240    A$httpd$4576
  0C:4241    A$httpd$4577
  0C:4242    A$httpd$4578
  0C:4244    A$httpd$4579
  0C:4245    A$httpd$4580
  0C:4246    A$httpd$4581
  0C:4248    A$httpd$4582
  0C:4249    A$httpd$4583
  0C:424B    A$httpd$4584
  0C:424D    A$httpd$4585
  0C:424F    A$httpd$4586
  0C:4252    A$httpd$4587
  0C:4254    A$httpd$4588
  0C:4256    A$httpd$4589
  0C:4258    A$httpd$4592
  0C:4258    C$httpd.c$246$5$10
  0C:425A    A$httpd$4593
  0C:425C    A$httpd$4594
  0C:425E    A$httpd$4595
  0C:4260    A$httpd$4596
  0C:4263    A$httpd$4597
  0C:4264    A$httpd$4598
  0C:4265    A$httpd$4599
  0C:4268    A$httpd$4601
  0C:426A    A$httpd$4602
  0C:426C    A$httpd$4603
  0C:426E    A$httpd$4604
  0C:4270    A$httpd$4605
  0C:4272    A$httpd$4606
  0C:4274    A$httpd$4607
  0C:4276    A$httpd$4608
  0C:4277    A$httpd$4609
  0C:4279    A$httpd$4610
  0C:427A    A$httpd$4611
  0C:427C    A$httpd$4612
  0C:427D    A$httpd$4613
  0C:427F    A$httpd$4614
  0C:4282    A$httpd$4615
  0C:4284    A$httpd$4616
  0C:4286    A$httpd$4617
  0C:4288    A$httpd$4618
  0C:428A    A$httpd$4619
  0C:428B    A$httpd$4620
  0C:428D    A$httpd$4621
  0C:428F    A$httpd$4622
  0C:4292    A$httpd$4626
  0C:4292    C$httpd.c$248$5$12
  0C:4294    A$httpd$4627
  0C:4295    A$httpd$4628
  0C:4297    A$httpd$4629
  0C:4298    A$httpd$4630
  0C:4299    A$httpd$4631
  0C:429A    A$httpd$4632
  0C:429B    A$httpd$4633
  0C:429C    A$httpd$4634
  0C:429D    A$httpd$4635
  0C:429E    A$httpd$4636
  0C:42A0    A$httpd$4637
  0C:42A2    A$httpd$4638
  0C:42A4    A$httpd$4639
  0C:42A6    A$httpd$4640
  0C:42A8    A$httpd$4641
  0C:42AB    A$httpd$4642
  0C:42AC    A$httpd$4643
  0C:42AD    A$httpd$4644
  0C:42B0    A$httpd$4646
  0C:42B2    A$httpd$4647
  0C:42B3    A$httpd$4648
  0C:42B5    A$httpd$4649
  0C:42B6    A$httpd$4650
  0C:42B8    A$httpd$4651
  0C:42B9    A$httpd$4652
  0C:42BB    A$httpd$4653
  0C:42BE    A$httpd$4654
  0C:42C0    A$httpd$4655
  0C:42C2    A$httpd$4656
  0C:42C5    A$httpd$4658
  0C:42C8    A$httpd$4659
  0C:42CB    A$httpd$4663
  0C:42CB    C$httpd.c$251$4$14
  0C:42CD    A$httpd$4664
  0C:42CF    A$httpd$4665
  0C:42D1    A$httpd$4666
  0C:42D3    A$httpd$4667
  0C:42D6    A$httpd$4668
  0C:42D7    A$httpd$4669
  0C:42D8    A$httpd$4670
  0C:42DB    A$httpd$4672
  0C:42DD    A$httpd$4673
  0C:42DF    A$httpd$4674
  0C:42E1    A$httpd$4675
  0C:42E3    A$httpd$4676
  0C:42E5    A$httpd$4677
  0C:42E7    A$httpd$4678
  0C:42E9    A$httpd$4679
  0C:42EA    A$httpd$4680
  0C:42EC    A$httpd$4681
  0C:42ED    A$httpd$4682
  0C:42EF    A$httpd$4683
  0C:42F0    A$httpd$4684
  0C:42F2    A$httpd$4685
  0C:42F5    A$httpd$4686
  0C:42F7    A$httpd$4687
  0C:42F9    A$httpd$4688
  0C:42FB    A$httpd$4689
  0C:42FD    A$httpd$4690
  0C:42FE    A$httpd$4691
  0C:4300    A$httpd$4692
  0C:4302    A$httpd$4693
  0C:4305    A$httpd$4697
  0C:4305    C$httpd.c$253$4$14
  0C:4307    A$httpd$4698
  0C:4308    A$httpd$4699
  0C:430A    A$httpd$4700
  0C:430B    A$httpd$4701
  0C:430C    A$httpd$4702
  0C:430D    A$httpd$4703
  0C:430E    A$httpd$4704
  0C:430F    A$httpd$4705
  0C:4310    A$httpd$4706
  0C:4311    A$httpd$4707
  0C:4313    A$httpd$4708
  0C:4316    A$httpd$4709
  0C:4318    A$httpd$4710
  0C:4319    A$httpd$4711
  0C:431B    A$httpd$4712
  0C:431D    A$httpd$4713
  0C:431F    A$httpd$4714
  0C:4322    A$httpd$4715
  0C:4324    A$httpd$4716
  0C:4326    A$httpd$4717
  0C:4328    A$httpd$4720
  0C:4328    C$httpd.c$254$4$14
  0C:432B    A$httpd$4721
  0C:432E    A$httpd$4722
  0C:4331    A$httpd$4723
  0C:4333    A$httpd$4725
  0C:4336    A$httpd$4726
  0C:4338    A$httpd$4727
  0C:4339    A$httpd$4728
  0C:433A    A$httpd$4729
  0C:433C    A$httpd$4730
  0C:433D    A$httpd$4731
  0C:433E    A$httpd$4732
  0C:4340    A$httpd$4733
  0C:4341    A$httpd$4734
  0C:4344    A$httpd$4735
  0C:4346    A$httpd$4736
  0C:4347    A$httpd$4737
  0C:4348    A$httpd$4738
  0C:4349    A$httpd$4739
  0C:434A    A$httpd$4740
  0C:434C    A$httpd$4741
  0C:434E    A$httpd$4742
  0C:4350    A$httpd$4743
  0C:4353    A$httpd$4744
  0C:4355    A$httpd$4745
  0C:4358    A$httpd$4746
  0C:435A    A$httpd$4747
  0C:435C    A$httpd$4750
  0C:435C    C$httpd.c$255$5$17
  0C:435E    A$httpd$4751
  0C:435F    A$httpd$4752
  0C:4361    A$httpd$4753
  0C:4362    A$httpd$4754
  0C:4363    A$httpd$4755
  0C:4364    A$httpd$4756
  0C:4365    A$httpd$4757
  0C:4366    A$httpd$4758
  0C:4367    A$httpd$4759
  0C:4368    A$httpd$4760
  0C:436A    A$httpd$4761
  0C:436C    A$httpd$4762
  0C:436E    A$httpd$4763
  0C:4370    A$httpd$4764
  0C:4371    A$httpd$4765
  0C:4374    A$httpd$4766
  0C:4375    A$httpd$4767
  0C:4376    A$httpd$4768
  0C:4379    A$httpd$4771
  0C:4379    C$httpd.c$256$6$18
  0C:437B    A$httpd$4772
  0C:437C    A$httpd$4773
  0C:437E    A$httpd$4774
  0C:437F    A$httpd$4775
  0C:4380    A$httpd$4776
  0C:4381    A$httpd$4777
  0C:4382    A$httpd$4778
  0C:4383    A$httpd$4779
  0C:4384    A$httpd$4780
  0C:4385    A$httpd$4781
  0C:4387    A$httpd$4782
  0C:4389    A$httpd$4783
  0C:438B    A$httpd$4784
  0C:438D    A$httpd$4785
  0C:438E    A$httpd$4786
  0C:4391    A$httpd$4787
  0C:4392    A$httpd$4788
  0C:4394    A$httpd$4789
  0C:4397    A$httpd$4791
  0C:4399    A$httpd$4792
  0C:439A    A$httpd$4793
  0C:439C    A$httpd$4794
  0C:439D    A$httpd$4795
  0C:439F    A$httpd$4796
  0C:43A0    A$httpd$4797
  0C:43A2    A$httpd$4798
  0C:43A5    A$httpd$4799
  0C:43A7    A$httpd$4800
  0C:43A9    A$httpd$4801
  0C:43AB    A$httpd$4804
  0C:43AB    C$httpd.c$258$5$20
  0C:43AD    A$httpd$4806
  0C:43AF    A$httpd$4807
  0C:43B0    A$httpd$4808
  0C:43B2    A$httpd$4809
  0C:43B3    A$httpd$4810
  0C:43B4    A$httpd$4811
  0C:43B5    A$httpd$4812
  0C:43B6    A$httpd$4813
  0C:43B7    A$httpd$4814
  0C:43B8    A$httpd$4815
  0C:43B9    A$httpd$4816
  0C:43BB    A$httpd$4817
  0C:43BD    A$httpd$4818
  0C:43BF    A$httpd$4819
  0C:43C1    A$httpd$4820
  0C:43C3    A$httpd$4821
  0C:43C6    A$httpd$4822
  0C:43C7    A$httpd$4823
  0C:43C9    A$httpd$4824
  0C:43CC    A$httpd$4826
  0C:43CE    A$httpd$4827
  0C:43CF    A$httpd$4828
  0C:43D1    A$httpd$4829
  0C:43D2    A$httpd$4830
  0C:43D4    A$httpd$4831
  0C:43D5    A$httpd$4832
  0C:43D7    A$httpd$4833
  0C:43DA    A$httpd$4834
  0C:43DC    A$httpd$4835
  0C:43DE    A$httpd$4836
  0C:43E0    A$httpd$4839
  0C:43E0    C$httpd.c$262$3$3
  0C:43E2    A$httpd$4843
  0C:43E2    C$httpd.c$263$3$3
  0C:43E5    A$httpd$4844
  0C:43E7    A$httpd$4845
  0C:43E8    A$httpd$4849
  0C:43E8    C$httpd.c$264$2$2
  0C:43EA    A$httpd$4850
  0C:43EB    A$httpd$4851
  0C:43ED    A$httpd$4852
  0C:43EE    A$httpd$4853
  0C:43EF    A$httpd$4854
  0C:43F0    A$httpd$4855
  0C:43F1    A$httpd$4856
  0C:43F2    A$httpd$4857
  0C:43F3    A$httpd$4858
  0C:43F4    A$httpd$4859
  0C:43F6    A$httpd$4860
  0C:43F8    A$httpd$4861
  0C:43FA    A$httpd$4862
  0C:43FC    A$httpd$4863
  0C:43FD    A$httpd$4864
  0C:4400    A$httpd$4865
  0C:4401    A$httpd$4866
  0C:4402    A$httpd$4867
  0C:4405    A$httpd$4868
  0C:4408    A$httpd$4870
  0C:440B    A$httpd$4871
  0C:440D    A$httpd$4874
  0C:440D    C$httpd.c$265$2$2
  0C:440D    XFhttpd$handle_output$0$0
  0C:440E    A$httpd$4891
  0C:440E    C$httpd.c$267$2$2
  0C:440E    Fhttpd$check_authorization$0$0
  0C:4410    A$httpd$4892
  0C:4412    A$httpd$4893
  0C:4414    A$httpd$4894
  0C:4417    A$httpd$4895
  0C:4418    A$httpd$4896
  0C:4419    A$httpd$4897
  0C:441A    A$httpd$4898
  0C:441B    A$httpd$4899
  0C:441C    A$httpd$4900
  0C:441D    A$httpd$4901
  0C:441E    A$httpd$4904
  0C:441E    C$httpd.c$272$1$1
  0C:4421    A$httpd$4905
  0C:4422    A$httpd$4906
  0C:4424    A$httpd$4909
  0C:4424    C$httpd.c$274$2$2
  0C:4427    A$httpd$4910
  0C:4429    A$httpd$4911
  0C:442A    A$httpd$4912
  0C:442B    A$httpd$4913
  0C:442D    A$httpd$4914
  0C:442E    A$httpd$4915
  0C:442F    A$httpd$4916
  0C:4430    A$httpd$4917
  0C:4431    A$httpd$4918
  0C:4434    A$httpd$4919
  0C:4436    A$httpd$4920
  0C:4437    A$httpd$4921
  0C:4438    A$httpd$4922
  0C:4439    A$httpd$4923
  0C:443A    A$httpd$4924
  0C:443D    A$httpd$4925
  0C:4440    A$httpd$4926
  0C:4443    A$httpd$4929
  0C:4443    C$httpd.c$275$2$2
  0C:4446    A$httpd$4930
  0C:4448    A$httpd$4931
  0C:4449    A$httpd$4932
  0C:444A    A$httpd$4933
  0C:444C    A$httpd$4934
  0C:444D    A$httpd$4935
  0C:444E    A$httpd$4936
  0C:4450    A$httpd$4937
  0C:4451    A$httpd$4938
  0C:4454    A$httpd$4939
  0C:4457    A$httpd$4940
  0C:445A    A$httpd$4943
  0C:445A    C$httpd.c$276$2$2
  0C:445D    A$httpd$4944
  0C:445F    A$httpd$4945
  0C:4460    A$httpd$4946
  0C:4461    A$httpd$4947
  0C:4463    A$httpd$4948
  0C:4464    A$httpd$4949
  0C:4465    A$httpd$4950
  0C:4466    A$httpd$4951
  0C:4467    A$httpd$4952
  0C:446A    A$httpd$4953
  0C:446C    A$httpd$4954
  0C:446D    A$httpd$4955
  0C:446E    A$httpd$4956
  0C:446F    A$httpd$4957
  0C:4470    A$httpd$4958
  0C:4473    A$httpd$4959
  0C:4476    A$httpd$4960
  0C:4479    A$httpd$4963
  0C:4479    C$httpd.c$277$2$2
  0C:447C    A$httpd$4964
  0C:447E    A$httpd$4965
  0C:447F    A$httpd$4966
  0C:4480    A$httpd$4967
  0C:4482    A$httpd$4968
  0C:4483    A$httpd$4969
  0C:4484    A$httpd$4970
  0C:4485    A$httpd$4971
  0C:4486    A$httpd$4972
  0C:4489    A$httpd$4973
  0C:448C    A$httpd$4974
  0C:448F    A$httpd$4978
  0C:448F    C$httpd.c$279$1$1
  0C:4492    A$httpd$4979
  0C:4495    A$httpd$4980
  0C:4498    A$httpd$4981
  0C:449A    A$httpd$4982
  0C:449C    A$httpd$4985
  0C:449C    C$httpd.c$280$1$1
  0C:449F    A$httpd$4986
  0C:44A0    A$httpd$4987
  0C:44A1    A$httpd$4988
  0C:44A2    A$httpd$4989
  0C:44A3    A$httpd$4990
  0C:44A4    A$httpd$4991
  0C:44A5    A$httpd$4992
  0C:44A6    A$httpd$4993
  0C:44A7    A$httpd$4994
  0C:44AA    A$httpd$4995
  0C:44AC    A$httpd$4996
  0C:44AD    A$httpd$4997
  0C:44AE    A$httpd$4998
  0C:44B0    A$httpd$4999
  0C:44B1    A$httpd$5000
  0C:44B2    A$httpd$5001
  0C:44B3    A$httpd$5002
  0C:44B4    A$httpd$5003
  0C:44B7    A$httpd$5004
  0C:44B8    A$httpd$5005
  0C:44B9    A$httpd$5006
  0C:44BA    A$httpd$5007
  0C:44BB    A$httpd$5008
  0C:44BC    A$httpd$5009
  0C:44BE    A$httpd$5010
  0C:44C0    A$httpd$5011
  0C:44C2    A$httpd$5012
  0C:44C4    A$httpd$5013
  0C:44C6    A$httpd$5014
  0C:44C9    A$httpd$5015
  0C:44CB    A$httpd$5016
  0C:44CD    A$httpd$5017
  0C:44CF    A$httpd$5018
  0C:44D1    A$httpd$5019
  0C:44D2    A$httpd$5020
  0C:44D5    A$httpd$5021
  0C:44D8    A$httpd$5022
  0C:44D9    A$httpd$5024
  0C:44DA    A$httpd$5025
  0C:44DD    A$httpd$5026
  0C:44DE    A$httpd$5027
  0C:44DF    A$httpd$5028
  0C:44E0    A$httpd$5029
  0C:44E2    A$httpd$5030
  0C:44E3    A$httpd$5031
  0C:44E4    A$httpd$5034
  0C:44E4    C$httpd.c$281$1$1
  0C:44E7    A$httpd$5035
  0C:44E8    A$httpd$5036
  0C:44E9    A$httpd$5037
  0C:44EA    A$httpd$5038
  0C:44EB    A$httpd$5039
  0C:44EC    A$httpd$5040
  0C:44ED    A$httpd$5041
  0C:44EE    A$httpd$5042
  0C:44EF    A$httpd$5043
  0C:44F0    A$httpd$5044
  0C:44F1    A$httpd$5045
  0C:44F2    A$httpd$5046
  0C:44F3    A$httpd$5047
  0C:44F4    A$httpd$5048
  0C:44F5    A$httpd$5049
  0C:44F7    A$httpd$5050
  0C:44F9    A$httpd$5051
  0C:44FB    A$httpd$5052
  0C:44FD    A$httpd$5053
  0C:4500    A$httpd$5054
  0C:4501    A$httpd$5055
  0C:4503    A$httpd$5056
  0C:4505    A$httpd$5057
  0C:4508    A$httpd$5058
  0C:450A    A$httpd$5059
  0C:450C    A$httpd$5062
  0C:450C    C$httpd.c$282$1$1
  0C:450F    A$httpd$5063
  0C:4510    A$httpd$5064
  0C:4511    A$httpd$5065
  0C:4512    A$httpd$5066
  0C:4513    A$httpd$5070
  0C:4513    C$httpd.c$283$1$1
  0C:4516    A$httpd$5071
  0C:4517    A$httpd$5072
  0C:4518    A$httpd$5073
  0C:4519    A$httpd$5074
  0C:451A    A$httpd$5077
  0C:451A    C$httpd.c$284$1$1
  0C:451A    XFhttpd$check_authorization$0$0
  0C:451C    A$httpd$5078
  0C:451E    A$httpd$5079
  0C:451F    A$httpd$5104
  0C:451F    C$httpd.c$288$1$1
  0C:451F    Fhttpd$handle_input$0$0
  0C:4521    A$httpd$5105
  0C:4524    A$httpd$5106
  0C:4526    A$httpd$5107
  0C:4528    A$httpd$5108
  0C:452A    A$httpd$5109
  0C:452C    A$httpd$5110
  0C:452E    A$httpd$5111
  0C:4530    A$httpd$5114
  0C:4530    C$httpd.c$290$2$2
  0C:4532    A$httpd$5115
  0C:4533    A$httpd$5116
  0C:4535    A$httpd$5117
  0C:4536    A$httpd$5118
  0C:4537    A$httpd$5119
  0C:4538    A$httpd$5120
  0C:4539    A$httpd$5121
  0C:453A    A$httpd$5122
  0C:453B    A$httpd$5123
  0C:453C    A$httpd$5124
  0C:453E    A$httpd$5125
  0C:4540    A$httpd$5126
  0C:4542    A$httpd$5127
  0C:4544    A$httpd$5128
  0C:4547    A$httpd$5129
  0C:4548    A$httpd$5130
  0C:4549    A$httpd$5131
  0C:454C    A$httpd$5132
  0C:454D    A$httpd$5133
  0C:4550    A$httpd$5134
  0C:4553    A$httpd$5135
  0C:4555    A$httpd$5137
  0C:4558    A$httpd$5138
  0C:455B    A$httpd$5139
  0C:455D    A$httpd$5141
  0C:4560    A$httpd$5142
  0C:4563    A$httpd$5143
  0C:4566    A$httpd$5145
  0C:4569    A$httpd$5146
  0C:456C    A$httpd$5147
  0C:456F    A$httpd$5149
  0C:4572    A$httpd$5150
  0C:4575    A$httpd$5151
  0C:4578    A$httpd$5153
  0C:457B    A$httpd$5157
  0C:457B    C$httpd.c$292$3$3
  0C:457D    A$httpd$5158
  0C:457F    A$httpd$5159
  0C:4581    A$httpd$5160
  0C:4583    A$httpd$5161
  0C:4586    A$httpd$5162
  0C:4587    A$httpd$5163
  0C:4589    A$httpd$5164
  0C:458C    A$httpd$5166
  0C:458E    A$httpd$5167
  0C:4590    A$httpd$5168
  0C:4592    A$httpd$5169
  0C:4594    A$httpd$5170
  0C:4595    A$httpd$5171
  0C:4597    A$httpd$5172
  0C:4598    A$httpd$5173
  0C:4599    A$httpd$5174
  0C:459A    A$httpd$5175
  0C:459B    A$httpd$5176
  0C:459C    A$httpd$5177
  0C:459D    A$httpd$5178
  0C:459E    A$httpd$5179
  0C:45A0    A$httpd$5180
  0C:45A3    A$httpd$5181
  0C:45A5    A$httpd$5182
  0C:45A6    A$httpd$5183
  0C:45A8    A$httpd$5184
  0C:45AA    A$httpd$5185
  0C:45AC    A$httpd$5186
  0C:45AE    A$httpd$5187
  0C:45B0    A$httpd$5188
  0C:45B2    A$httpd$5189
  0C:45B4    A$httpd$5190
  0C:45B6    A$httpd$5191
  0C:45B8    A$httpd$5192
  0C:45BB    A$httpd$5193
  0C:45BD    A$httpd$5194
  0C:45BF    A$httpd$5195
  0C:45C1    A$httpd$5196
  0C:45C3    A$httpd$5197
  0C:45C5    A$httpd$5198
  0C:45C7    A$httpd$5199
  0C:45C9    A$httpd$5200
  0C:45CB    A$httpd$5201
  0C:45CD    A$httpd$5202
  0C:45D0    A$httpd$5206
  0C:45D0    C$httpd.c$295$2$2
  0C:45D2    A$httpd$5207
  0C:45D4    A$httpd$5208
  0C:45D6    A$httpd$5209
  0C:45D8    A$httpd$5210
  0C:45D9    A$httpd$5211
  0C:45DB    A$httpd$5212
  0C:45DC    A$httpd$5213
  0C:45DD    A$httpd$5214
  0C:45DE    A$httpd$5215
  0C:45DF    A$httpd$5216
  0C:45E0    A$httpd$5217
  0C:45E1    A$httpd$5218
  0C:45E2    A$httpd$5219
  0C:45E4    A$httpd$5220
  0C:45E7    A$httpd$5221
  0C:45E9    A$httpd$5222
  0C:45EA    A$httpd$5223
  0C:45EB    A$httpd$5224
  0C:45ED    A$httpd$5225
  0C:45EE    A$httpd$5226
  0C:45EF    A$httpd$5227
  0C:45F1    A$httpd$5228
  0C:45F2    A$httpd$5229
  0C:45F5    A$httpd$5230
  0C:45F7    A$httpd$5231
  0C:45F8    A$httpd$5232
  0C:45F9    A$httpd$5233
  0C:45FA    A$httpd$5234
  0C:45FB    A$httpd$5235
  0C:45FD    A$httpd$5236
  0C:45FF    A$httpd$5237
  0C:4601    A$httpd$5238
  0C:4603    A$httpd$5239
  0C:4605    A$httpd$5240
  0C:4607    A$httpd$5241
  0C:460A    A$httpd$5242
  0C:460C    A$httpd$5243
  0C:460F    A$httpd$5244
  0C:4611    A$httpd$5245
  0C:4613    A$httpd$5246
  0C:4615    A$httpd$5247
  0C:4617    A$httpd$5248
  0C:4619    A$httpd$5249
  0C:461B    A$httpd$5250
  0C:461D    A$httpd$5251
  0C:461F    A$httpd$5254
  0C:461F    C$httpd.c$296$5$7
  0C:4622    A$httpd$5255
  0C:4624    A$httpd$5256
  0C:4625    A$httpd$5257
  0C:4627    A$httpd$5258
  0C:4629    A$httpd$5259
  0C:462B    A$httpd$5260
  0C:462C    A$httpd$5261
  0C:462F    A$httpd$5262
  0C:4630    A$httpd$5263
  0C:4631    A$httpd$5264
  0C:4634    A$httpd$5265
  0C:4637    A$httpd$5266
  0C:463A    A$httpd$5270
  0C:463A    C$httpd.c$298$3$3
  0C:463C    A$httpd$5271
  0C:463E    A$httpd$5272
  0C:4640    A$httpd$5273
  0C:4642    A$httpd$5274
  0C:4645    A$httpd$5275
  0C:4646    A$httpd$5276
  0C:4648    A$httpd$5277
  0C:464B    A$httpd$5279
  0C:464D    A$httpd$5280
  0C:464F    A$httpd$5281
  0C:4651    A$httpd$5282
  0C:4653    A$httpd$5283
  0C:4654    A$httpd$5284
  0C:4656    A$httpd$5285
  0C:4657    A$httpd$5286
  0C:4658    A$httpd$5287
  0C:4659    A$httpd$5288
  0C:465A    A$httpd$5289
  0C:465B    A$httpd$5290
  0C:465C    A$httpd$5291
  0C:465D    A$httpd$5292
  0C:465F    A$httpd$5293
  0C:4662    A$httpd$5294
  0C:4664    A$httpd$5295
  0C:4665    A$httpd$5296
  0C:4667    A$httpd$5297
  0C:4669    A$httpd$5298
  0C:466B    A$httpd$5299
  0C:466D    A$httpd$5300
  0C:466F    A$httpd$5301
  0C:4671    A$httpd$5302
  0C:4673    A$httpd$5303
  0C:4675    A$httpd$5304
  0C:4677    A$httpd$5305
  0C:467A    A$httpd$5306
  0C:467C    A$httpd$5307
  0C:467E    A$httpd$5308
  0C:4680    A$httpd$5309
  0C:4682    A$httpd$5310
  0C:4684    A$httpd$5311
  0C:4686    A$httpd$5312
  0C:4688    A$httpd$5313
  0C:468A    A$httpd$5314
  0C:468C    A$httpd$5315
  0C:468F    A$httpd$5319
  0C:468F    C$httpd.c$300$2$2
  0C:4691    A$httpd$5320
  0C:4693    A$httpd$5321
  0C:4695    A$httpd$5322
  0C:4697    A$httpd$5323
  0C:4698    A$httpd$5324
  0C:469A    A$httpd$5325
  0C:469B    A$httpd$5326
  0C:469C    A$httpd$5327
  0C:469D    A$httpd$5328
  0C:469E    A$httpd$5329
  0C:469F    A$httpd$5330
  0C:46A0    A$httpd$5331
  0C:46A1    A$httpd$5332
  0C:46A3    A$httpd$5333
  0C:46A5    A$httpd$5334
  0C:46A7    A$httpd$5335
  0C:46A9    A$httpd$5336
  0C:46AC    A$httpd$5337
  0C:46AD    A$httpd$5338
  0C:46AE    A$httpd$5339
  0C:46B1    A$httpd$5340
  0C:46B2    A$httpd$5342
  0C:46B4    A$httpd$5343
  0C:46B6    A$httpd$5344
  0C:46B8    A$httpd$5345
  0C:46BA    A$httpd$5348
  0C:46BA    C$httpd.c$301$5$12
  0C:46BD    A$httpd$5349
  0C:46BF    A$httpd$5350
  0C:46C0    A$httpd$5351
  0C:46C2    A$httpd$5352
  0C:46C4    A$httpd$5353
  0C:46C6    A$httpd$5354
  0C:46C7    A$httpd$5355
  0C:46CA    A$httpd$5356
  0C:46CB    A$httpd$5357
  0C:46CC    A$httpd$5358
  0C:46CF    A$httpd$5359
  0C:46D2    A$httpd$5360
  0C:46D5    A$httpd$5364
  0C:46D5    C$httpd.c$304$2$2
  0C:46D7    A$httpd$5365
  0C:46D9    A$httpd$5366
  0C:46DB    A$httpd$5367
  0C:46DD    A$httpd$5368
  0C:46DE    A$httpd$5369
  0C:46E0    A$httpd$5370
  0C:46E1    A$httpd$5371
  0C:46E2    A$httpd$5372
  0C:46E3    A$httpd$5373
  0C:46E4    A$httpd$5374
  0C:46E5    A$httpd$5375
  0C:46E6    A$httpd$5376
  0C:46E7    A$httpd$5377
  0C:46E9    A$httpd$5378
  0C:46EB    A$httpd$5379
  0C:46ED    A$httpd$5380
  0C:46EF    A$httpd$5381
  0C:46F1    A$httpd$5382
  0C:46F3    A$httpd$5383
  0C:46F5    A$httpd$5384
  0C:46F7    A$httpd$5385
  0C:46F9    A$httpd$5386
  0C:46FB    A$httpd$5387
  0C:46FD    A$httpd$5388
  0C:46FF    A$httpd$5389
  0C:4701    A$httpd$5390
  0C:4704    A$httpd$5391
  0C:4706    A$httpd$5392
  0C:4708    A$httpd$5393
  0C:470A    A$httpd$5394
  0C:470C    A$httpd$5395
  0C:470E    A$httpd$5396
  0C:4710    A$httpd$5399
  0C:4710    C$httpd.c$306$3$3
  0C:4711    A$httpd$5400
  0C:4714    A$httpd$5401
  0C:4715    A$httpd$5403
  0C:4717    A$httpd$5404
  0C:4719    A$httpd$5405
  0C:471B    A$httpd$5406
  0C:471E    A$httpd$5407
  0C:471F    A$httpd$5408
  0C:4720    A$httpd$5409
  0C:4723    A$httpd$5410
  0C:4724    A$httpd$5412
  0C:4726    A$httpd$5413
  0C:4728    A$httpd$5414
  0C:472A    A$httpd$5415
  0C:472C    A$httpd$5418
  0C:472C    C$httpd.c$307$2$2
  0C:472E    A$httpd$5419
  0C:4730    A$httpd$5420
  0C:4732    A$httpd$5421
  0C:4734    A$httpd$5422
  0C:4735    A$httpd$5423
  0C:4737    A$httpd$5424
  0C:4738    A$httpd$5425
  0C:4739    A$httpd$5426
  0C:473A    A$httpd$5427
  0C:473B    A$httpd$5428
  0C:473C    A$httpd$5429
  0C:473D    A$httpd$5430
  0C:473E    A$httpd$5431
  0C:4740    A$httpd$5432
  0C:4743    A$httpd$5433
  0C:4745    A$httpd$5434
  0C:4746    A$httpd$5435
  0C:4747    A$httpd$5436
  0C:4749    A$httpd$5437
  0C:474A    A$httpd$5438
  0C:474B    A$httpd$5439
  0C:474D    A$httpd$5440
  0C:474E    A$httpd$5441
  0C:4751    A$httpd$5442
  0C:4753    A$httpd$5443
  0C:4754    A$httpd$5444
  0C:4755    A$httpd$5445
  0C:4756    A$httpd$5446
  0C:4757    A$httpd$5447
  0C:4759    A$httpd$5448
  0C:475B    A$httpd$5449
  0C:475D    A$httpd$5450
  0C:475F    A$httpd$5451
  0C:4761    A$httpd$5452
  0C:4763    A$httpd$5453
  0C:4766    A$httpd$5454
  0C:4768    A$httpd$5455
  0C:476A    A$httpd$5456
  0C:476C    A$httpd$5457
  0C:476E    A$httpd$5458
  0C:4770    A$httpd$5459
  0C:4772    A$httpd$5460
  0C:4775    A$httpd$5464
  0C:4775    C$httpd.c$309$2$2
  0C:4777    A$httpd$5465
  0C:4779    A$httpd$5466
  0C:477B    A$httpd$5467
  0C:477D    A$httpd$5468
  0C:477E    A$httpd$5469
  0C:4780    A$httpd$5470
  0C:4782    A$httpd$5471
  0C:4783    A$httpd$5472
  0C:4785    A$httpd$5473
  0C:4786    A$httpd$5474
  0C:4787    A$httpd$5475
  0C:4788    A$httpd$5476
  0C:4789    A$httpd$5477
  0C:478A    A$httpd$5478
  0C:478B    A$httpd$5479
  0C:478C    A$httpd$5480
  0C:478D    A$httpd$5481
  0C:478E    A$httpd$5482
  0C:478F    A$httpd$5483
  0C:4790    A$httpd$5484
  0C:4792    A$httpd$5485
  0C:4793    A$httpd$5486
  0C:4795    A$httpd$5487
  0C:4796    A$httpd$5488
  0C:4797    A$httpd$5489
  0C:4798    A$httpd$5490
  0C:4799    A$httpd$5491
  0C:479A    A$httpd$5492
  0C:479B    A$httpd$5493
  0C:479C    A$httpd$5494
  0C:479E    A$httpd$5495
  0C:47A0    A$httpd$5496
  0C:47A2    A$httpd$5497
  0C:47A4    A$httpd$5498
  0C:47A6    A$httpd$5499
  0C:47A8    A$httpd$5500
  0C:47AA    A$httpd$5501
  0C:47AC    A$httpd$5502
  0C:47AE    A$httpd$5503
  0C:47B0    A$httpd$5504
  0C:47B3    A$httpd$5505
  0C:47B5    A$httpd$5506
  0C:47B6    A$httpd$5507
  0C:47B8    A$httpd$5508
  0C:47B9    A$httpd$5509
  0C:47BA    A$httpd$5510
  0C:47BB    A$httpd$5511
  0C:47BC    A$httpd$5512
  0C:47BD    A$httpd$5513
  0C:47BE    A$httpd$5514
  0C:47BF    A$httpd$5515
  0C:47C0    A$httpd$5516
  0C:47C1    A$httpd$5517
  0C:47C2    A$httpd$5518
  0C:47C3    A$httpd$5519
  0C:47C5    A$httpd$5520
  0C:47C7    A$httpd$5521
  0C:47C9    A$httpd$5522
  0C:47CB    A$httpd$5523
  0C:47CC    A$httpd$5524
  0C:47CF    A$httpd$5527
  0C:47CF    C$httpd.c$310$4$15
  0C:47D1    A$httpd$5528
  0C:47D2    A$httpd$5529
  0C:47D4    A$httpd$5530
  0C:47D5    A$httpd$5531
  0C:47D6    A$httpd$5532
  0C:47D7    A$httpd$5533
  0C:47D8    A$httpd$5534
  0C:47D9    A$httpd$5535
  0C:47DA    A$httpd$5536
  0C:47DB    A$httpd$5537
  0C:47DD    A$httpd$5538
  0C:47DF    A$httpd$5539
  0C:47E1    A$httpd$5540
  0C:47E2    A$httpd$5541
  0C:47E5    A$httpd$5542
  0C:47E6    A$httpd$5543
  0C:47E7    A$httpd$5544
  0C:47E8    A$httpd$5545
  0C:47E9    A$httpd$5546
  0C:47EA    A$httpd$5547
  0C:47EB    A$httpd$5548
  0C:47EC    A$httpd$5549
  0C:47ED    A$httpd$5550
  0C:47EE    A$httpd$5551
  0C:47EF    A$httpd$5552
  0C:47F2    A$httpd$5553
  0C:47F4    A$httpd$5554
  0C:47F5    A$httpd$5555
  0C:47F6    A$httpd$5556
  0C:47F7    A$httpd$5557
  0C:47F8    A$httpd$5558
  0C:47FA    A$httpd$5559
  0C:47FC    A$httpd$5560
  0C:47FE    A$httpd$5561
  0C:4801    A$httpd$5562
  0C:4803    A$httpd$5563
  0C:4805    A$httpd$5564
  0C:4807    A$httpd$5567
  0C:4809    A$httpd$5568
  0C:480B    A$httpd$5569
  0C:480D    A$httpd$5575
  0C:480D    C$httpd.c$310$3$3
  0C:480D    C$httpd.c$314$3$3
  0C:480F    A$httpd$5576
  0C:4810    A$httpd$5577
  0C:4812    A$httpd$5578
  0C:4813    A$httpd$5579
  0C:4814    A$httpd$5580
  0C:4815    A$httpd$5581
  0C:4816    A$httpd$5582
  0C:4817    A$httpd$5583
  0C:4818    A$httpd$5584
  0C:4819    A$httpd$5585
  0C:481B    A$httpd$5586
  0C:481C    A$httpd$5587
  0C:481F    A$httpd$5588
  0C:4820    A$httpd$5590
  0C:4822    A$httpd$5591
  0C:4824    A$httpd$5592
  0C:4826    A$httpd$5593
  0C:4829    A$httpd$5594
  0C:482A    A$httpd$5595
  0C:482D    A$httpd$5596
  0C:482F    A$httpd$5598
  0C:4832    A$httpd$5603
  0C:4832    C$httpd.c$316$6$18
  0C:4834    A$httpd$5604
  0C:4836    A$httpd$5605
  0C:4838    A$httpd$5606
  0C:483A    A$httpd$5607
  0C:483D    A$httpd$5608
  0C:483E    A$httpd$5609
  0C:4840    A$httpd$5610
  0C:4843    A$httpd$5612
  0C:4845    A$httpd$5613
  0C:4846    A$httpd$5614
  0C:4848    A$httpd$5615
  0C:4849    A$httpd$5616
  0C:484A    A$httpd$5617
  0C:484B    A$httpd$5618
  0C:484C    A$httpd$5619
  0C:484D    A$httpd$5620
  0C:484E    A$httpd$5621
  0C:484F    A$httpd$5622
  0C:4851    A$httpd$5623
  0C:4854    A$httpd$5624
  0C:4856    A$httpd$5625
  0C:4857    A$httpd$5626
  0C:4859    A$httpd$5627
  0C:485B    A$httpd$5628
  0C:485D    A$httpd$5629
  0C:485F    A$httpd$5630
  0C:4861    A$httpd$5631
  0C:4863    A$httpd$5632
  0C:4865    A$httpd$5633
  0C:4867    A$httpd$5634
  0C:4869    A$httpd$5635
  0C:486C    A$httpd$5636
  0C:486E    A$httpd$5637
  0C:4870    A$httpd$5638
  0C:4872    A$httpd$5639
  0C:4874    A$httpd$5640
  0C:4876    A$httpd$5641
  0C:4878    A$httpd$5642
  0C:487B    A$httpd$5646
  0C:487B    C$httpd.c$318$5$17
  0C:487D    A$httpd$5647
  0C:487E    A$httpd$5648
  0C:4880    A$httpd$5649
  0C:4881    A$httpd$5650
  0C:4882    A$httpd$5651
  0C:4883    A$httpd$5652
  0C:4884    A$httpd$5653
  0C:4885    A$httpd$5654
  0C:4886    A$httpd$5655
  0C:4887    A$httpd$5656
  0C:4889    A$httpd$5657
  0C:488B    A$httpd$5658
  0C:488D    A$httpd$5659
  0C:488F    A$httpd$5660
  0C:4892    A$httpd$5661
  0C:4893    A$httpd$5662
  0C:4896    A$httpd$5663
  0C:4899    A$httpd$5665
  0C:489C    A$httpd$5666
  0C:489F    A$httpd$5670
  0C:489F    C$httpd.c$320$5$17
  0C:48A1    A$httpd$5671
  0C:48A2    A$httpd$5672
  0C:48A4    A$httpd$5673
  0C:48A5    A$httpd$5674
  0C:48A6    A$httpd$5675
  0C:48A7    A$httpd$5676
  0C:48A8    A$httpd$5677
  0C:48A9    A$httpd$5678
  0C:48AA    A$httpd$5679
  0C:48AB    A$httpd$5680
  0C:48AD    A$httpd$5681
  0C:48B0    A$httpd$5682
  0C:48B2    A$httpd$5683
  0C:48B3    A$httpd$5684
  0C:48B4    A$httpd$5685
  0C:48B6    A$httpd$5686
  0C:48B7    A$httpd$5687
  0C:48B8    A$httpd$5688
  0C:48BA    A$httpd$5689
  0C:48BB    A$httpd$5690
  0C:48BE    A$httpd$5691
  0C:48C0    A$httpd$5692
  0C:48C1    A$httpd$5693
  0C:48C2    A$httpd$5694
  0C:48C3    A$httpd$5695
  0C:48C4    A$httpd$5696
  0C:48C6    A$httpd$5697
  0C:48C8    A$httpd$5698
  0C:48CA    A$httpd$5699
  0C:48CC    A$httpd$5700
  0C:48CE    A$httpd$5701
  0C:48D0    A$httpd$5702
  0C:48D3    A$httpd$5703
  0C:48D5    A$httpd$5704
  0C:48D8    A$httpd$5705
  0C:48DA    A$httpd$5706
  0C:48DC    A$httpd$5707
  0C:48DE    A$httpd$5708
  0C:48E0    A$httpd$5709
  0C:48E2    A$httpd$5712
  0C:48E2    C$httpd.c$321$2$2
  0C:48E4    A$httpd$5713
  0C:48E6    A$httpd$5714
  0C:48E8    A$httpd$5715
  0C:48EA    A$httpd$5716
  0C:48EB    A$httpd$5717
  0C:48ED    A$httpd$5718
  0C:48EE    A$httpd$5719
  0C:48EF    A$httpd$5720
  0C:48F1    A$httpd$5721
  0C:48F2    A$httpd$5722
  0C:48F3    A$httpd$5723
  0C:48F4    A$httpd$5724
  0C:48F5    A$httpd$5725
  0C:48F7    A$httpd$5726
  0C:48F9    A$httpd$5727
  0C:48FA    A$httpd$5728
  0C:48FC    A$httpd$5729
  0C:48FD    A$httpd$5730
  0C:48FE    A$httpd$5731
  0C:48FF    A$httpd$5732
  0C:4900    A$httpd$5733
  0C:4901    A$httpd$5734
  0C:4902    A$httpd$5735
  0C:4903    A$httpd$5736
  0C:4905    A$httpd$5737
  0C:4907    A$httpd$5738
  0C:4908    A$httpd$5739
  0C:4909    A$httpd$5740
  0C:490A    A$httpd$5741
  0C:490B    A$httpd$5742
  0C:490C    A$httpd$5743
  0C:490E    A$httpd$5744
  0C:4910    A$httpd$5745
  0C:4912    A$httpd$5746
  0C:4914    A$httpd$5747
  0C:4916    A$httpd$5748
  0C:4918    A$httpd$5749
  0C:491A    A$httpd$5750
  0C:491D    A$httpd$5751
  0C:491F    A$httpd$5752
  0C:4921    A$httpd$5753
  0C:4923    A$httpd$5754
  0C:4925    A$httpd$5755
  0C:4927    A$httpd$5756
  0C:4929    A$httpd$5757
  0C:492B    A$httpd$5758
  0C:492D    A$httpd$5759
  0C:492F    A$httpd$5760
  0C:4930    A$httpd$5761
  0C:4933    A$httpd$5762
  0C:4934    A$httpd$5763
  0C:4935    A$httpd$5764
  0C:4938    A$httpd$5767
  0C:493A    A$httpd$5768
  0C:493C    A$httpd$5769
  0C:493E    A$httpd$5775
  0C:493E    C$httpd.c$321$5$17
  0C:493E    C$httpd.c$322$5$17
  0C:4940    A$httpd$5776
  0C:4941    A$httpd$5777
  0C:4943    A$httpd$5778
  0C:4944    A$httpd$5779
  0C:4945    A$httpd$5780
  0C:4946    A$httpd$5781
  0C:4947    A$httpd$5782
  0C:4948    A$httpd$5783
  0C:4949    A$httpd$5784
  0C:494A    A$httpd$5785
  0C:494C    A$httpd$5786
  0C:494F    A$httpd$5787
  0C:4951    A$httpd$5788
  0C:4952    A$httpd$5789
  0C:4953    A$httpd$5790
  0C:4955    A$httpd$5791
  0C:4956    A$httpd$5792
  0C:4957    A$httpd$5793
  0C:4959    A$httpd$5794
  0C:495A    A$httpd$5795
  0C:495D    A$httpd$5796
  0C:495F    A$httpd$5797
  0C:4960    A$httpd$5798
  0C:4961    A$httpd$5799
  0C:4962    A$httpd$5800
  0C:4963    A$httpd$5801
  0C:4965    A$httpd$5802
  0C:4967    A$httpd$5803
  0C:4969    A$httpd$5804
  0C:496B    A$httpd$5805
  0C:496D    A$httpd$5806
  0C:496F    A$httpd$5807
  0C:4972    A$httpd$5808
  0C:4974    A$httpd$5809
  0C:4977    A$httpd$5810
  0C:4979    A$httpd$5811
  0C:497B    A$httpd$5812
  0C:497D    A$httpd$5813
  0C:497F    A$httpd$5814
  0C:4981    A$httpd$5815
  0C:4984    A$httpd$5819
  0C:4984    C$httpd.c$323$2$2
  0C:4986    A$httpd$5820
  0C:4988    A$httpd$5821
  0C:498A    A$httpd$5822
  0C:498C    A$httpd$5823
  0C:498D    A$httpd$5824
  0C:498F    A$httpd$5825
  0C:4990    A$httpd$5826
  0C:4991    A$httpd$5827
  0C:4993    A$httpd$5828
  0C:4994    A$httpd$5829
  0C:4995    A$httpd$5830
  0C:4996    A$httpd$5831
  0C:4997    A$httpd$5832
  0C:4999    A$httpd$5833
  0C:499B    A$httpd$5834
  0C:499C    A$httpd$5835
  0C:499E    A$httpd$5836
  0C:499F    A$httpd$5837
  0C:49A0    A$httpd$5838
  0C:49A1    A$httpd$5839
  0C:49A2    A$httpd$5840
  0C:49A3    A$httpd$5841
  0C:49A4    A$httpd$5842
  0C:49A5    A$httpd$5843
  0C:49A7    A$httpd$5844
  0C:49A9    A$httpd$5845
  0C:49AA    A$httpd$5846
  0C:49AB    A$httpd$5847
  0C:49AC    A$httpd$5848
  0C:49AD    A$httpd$5849
  0C:49AE    A$httpd$5850
  0C:49B0    A$httpd$5851
  0C:49B2    A$httpd$5852
  0C:49B4    A$httpd$5853
  0C:49B6    A$httpd$5854
  0C:49B8    A$httpd$5855
  0C:49BA    A$httpd$5856
  0C:49BC    A$httpd$5857
  0C:49BF    A$httpd$5858
  0C:49C1    A$httpd$5859
  0C:49C3    A$httpd$5860
  0C:49C5    A$httpd$5861
  0C:49C7    A$httpd$5862
  0C:49C9    A$httpd$5863
  0C:49CB    A$httpd$5864
  0C:49CD    A$httpd$5865
  0C:49CF    A$httpd$5866
  0C:49D0    A$httpd$5867
  0C:49D3    A$httpd$5868
  0C:49D5    A$httpd$5869
  0C:49D7    A$httpd$5870
  0C:49D9    A$httpd$5871
  0C:49DC    A$httpd$5875
  0C:49DC    C$httpd.c$328$3$3
  0C:49DE    A$httpd$5876
  0C:49DF    A$httpd$5877
  0C:49E1    A$httpd$5878
  0C:49E2    A$httpd$5879
  0C:49E3    A$httpd$5880
  0C:49E4    A$httpd$5881
  0C:49E5    A$httpd$5882
  0C:49E6    A$httpd$5883
  0C:49E7    A$httpd$5884
  0C:49E8    A$httpd$5885
  0C:49EA    A$httpd$5886
  0C:49EC    A$httpd$5887
  0C:49EE    A$httpd$5888
  0C:49F0    A$httpd$5889
  0C:49F2    A$httpd$5890
  0C:49F5    A$httpd$5896
  0C:49F5    C$httpd.c$330$3$3
  0C:49F5    C$httpd.c$331$5$21
  0C:49F7    A$httpd$5897
  0C:49F9    A$httpd$5898
  0C:49FB    A$httpd$5899
  0C:49FD    A$httpd$5900
  0C:4A00    A$httpd$5901
  0C:4A01    A$httpd$5902
  0C:4A03    A$httpd$5903
  0C:4A06    A$httpd$5905
  0C:4A08    A$httpd$5906
  0C:4A09    A$httpd$5907
  0C:4A0B    A$httpd$5908
  0C:4A0C    A$httpd$5909
  0C:4A0D    A$httpd$5910
  0C:4A0E    A$httpd$5911
  0C:4A0F    A$httpd$5912
  0C:4A10    A$httpd$5913
  0C:4A11    A$httpd$5914
  0C:4A12    A$httpd$5915
  0C:4A14    A$httpd$5916
  0C:4A17    A$httpd$5917
  0C:4A19    A$httpd$5918
  0C:4A1A    A$httpd$5919
  0C:4A1C    A$httpd$5920
  0C:4A1E    A$httpd$5921
  0C:4A20    A$httpd$5922
  0C:4A22    A$httpd$5923
  0C:4A24    A$httpd$5924
  0C:4A26    A$httpd$5925
  0C:4A28    A$httpd$5926
  0C:4A2A    A$httpd$5927
  0C:4A2C    A$httpd$5928
  0C:4A2F    A$httpd$5929
  0C:4A31    A$httpd$5930
  0C:4A33    A$httpd$5931
  0C:4A35    A$httpd$5932
  0C:4A37    A$httpd$5933
  0C:4A39    A$httpd$5934
  0C:4A3B    A$httpd$5935
  0C:4A3E    A$httpd$5939
  0C:4A3E    C$httpd.c$333$4$20
  0C:4A40    A$httpd$5940
  0C:4A41    A$httpd$5941
  0C:4A43    A$httpd$5942
  0C:4A44    A$httpd$5943
  0C:4A45    A$httpd$5944
  0C:4A46    A$httpd$5945
  0C:4A47    A$httpd$5946
  0C:4A48    A$httpd$5947
  0C:4A49    A$httpd$5948
  0C:4A4A    A$httpd$5949
  0C:4A4C    A$httpd$5950
  0C:4A4F    A$httpd$5951
  0C:4A51    A$httpd$5952
  0C:4A52    A$httpd$5953
  0C:4A53    A$httpd$5954
  0C:4A55    A$httpd$5955
  0C:4A56    A$httpd$5956
  0C:4A57    A$httpd$5957
  0C:4A59    A$httpd$5958
  0C:4A5A    A$httpd$5959
  0C:4A5D    A$httpd$5960
  0C:4A5F    A$httpd$5961
  0C:4A60    A$httpd$5962
  0C:4A61    A$httpd$5963
  0C:4A62    A$httpd$5964
  0C:4A63    A$httpd$5965
  0C:4A65    A$httpd$5966
  0C:4A67    A$httpd$5967
  0C:4A69    A$httpd$5968
  0C:4A6B    A$httpd$5969
  0C:4A6D    A$httpd$5970
  0C:4A6F    A$httpd$5971
  0C:4A72    A$httpd$5972
  0C:4A74    A$httpd$5973
  0C:4A77    A$httpd$5974
  0C:4A79    A$httpd$5975
  0C:4A7B    A$httpd$5976
  0C:4A7D    A$httpd$5977
  0C:4A7F    A$httpd$5978
  0C:4A81    A$httpd$5979
  0C:4A84    A$httpd$5983
  0C:4A84    C$httpd.c$334$2$2
  0C:4A86    A$httpd$5984
  0C:4A88    A$httpd$5985
  0C:4A8A    A$httpd$5986
  0C:4A8C    A$httpd$5987
  0C:4A8D    A$httpd$5988
  0C:4A8F    A$httpd$5989
  0C:4A90    A$httpd$5990
  0C:4A91    A$httpd$5991
  0C:4A92    A$httpd$5992
  0C:4A93    A$httpd$5993
  0C:4A94    A$httpd$5994
  0C:4A95    A$httpd$5995
  0C:4A96    A$httpd$5996
  0C:4A98    A$httpd$5997
  0C:4A9A    A$httpd$5998
  0C:4A9B    A$httpd$5999
  0C:4A9D    A$httpd$6000
  0C:4A9E    A$httpd$6001
  0C:4A9F    A$httpd$6002
  0C:4AA0    A$httpd$6003
  0C:4AA1    A$httpd$6004
  0C:4AA2    A$httpd$6005
  0C:4AA3    A$httpd$6006
  0C:4AA4    A$httpd$6007
  0C:4AA6    A$httpd$6008
  0C:4AA8    A$httpd$6009
  0C:4AAA    A$httpd$6010
  0C:4AAC    A$httpd$6011
  0C:4AAE    A$httpd$6012
  0C:4AB0    A$httpd$6013
  0C:4AB2    A$httpd$6014
  0C:4AB4    A$httpd$6015
  0C:4AB6    A$httpd$6016
  0C:4AB8    A$httpd$6017
  0C:4ABA    A$httpd$6018
  0C:4ABD    A$httpd$6019
  0C:4ABF    A$httpd$6020
  0C:4AC1    A$httpd$6021
  0C:4AC3    A$httpd$6022
  0C:4AC5    A$httpd$6023
  0C:4AC7    A$httpd$6024
  0C:4AC8    A$httpd$6025
  0C:4ACA    A$httpd$6026
  0C:4ACB    A$httpd$6027
  0C:4ACC    A$httpd$6028
  0C:4ACD    A$httpd$6029
  0C:4ACE    A$httpd$6030
  0C:4ACF    A$httpd$6031
  0C:4AD1    A$httpd$6032
  0C:4AD3    A$httpd$6033
  0C:4AD5    A$httpd$6034
  0C:4AD6    A$httpd$6035
  0C:4AD9    A$httpd$6036
  0C:4ADB    A$httpd$6037
  0C:4ADD    A$httpd$6038
  0C:4ADF    A$httpd$6039
  0C:4AE2    A$httpd$6043
  0C:4AE2    C$httpd.c$339$2$2
  0C:4AE4    A$httpd$6044
  0C:4AE6    A$httpd$6045
  0C:4AE8    A$httpd$6046
  0C:4AE9    A$httpd$6047
  0C:4AEC    A$httpd$6048
  0C:4AED    A$httpd$6049
  0C:4AEE    A$httpd$6050
  0C:4AF1    A$httpd$6051
  0C:4AF4    A$httpd$6053
  0C:4AF7    A$httpd$6054
  0C:4AF9    A$httpd$6057
  0C:4AF9    C$httpd.c$340$2$2
  0C:4AF9    XFhttpd$handle_input$0$0
  0C:4AFA    A$httpd$6072
  0C:4AFA    C$httpd.c$343$2$2
  0C:4AFA    C$httpd.c$345$1$1
  0C:4AFA    Fhttpd$handle_connection$0$0
  0C:4AFC    A$httpd$6073
  0C:4AFE    A$httpd$6074
  0C:4B00    A$httpd$6075
  0C:4B02    A$httpd$6076
  0C:4B04    A$httpd$6077
  0C:4B06    A$httpd$6078
  0C:4B09    A$httpd$6079
  0C:4B0B    A$httpd$6080
  0C:4B0D    A$httpd$6081
  0C:4B0F    A$httpd$6084
  0C:4B0F    C$httpd.c$346$1$1
  0C:4B11    A$httpd$6085
  0C:4B12    A$httpd$6086
  0C:4B13    A$httpd$6087
  0C:4B14    A$httpd$6088
  0C:4B15    A$httpd$6089
  0C:4B16    A$httpd$6090
  0C:4B18    A$httpd$6091
  0C:4B1A    A$httpd$6092
  0C:4B1C    A$httpd$6093
  0C:4B1E    A$httpd$6094
  0C:4B21    A$httpd$6095
  0C:4B22    A$httpd$6096
  0C:4B25    A$httpd$6099
  0C:4B25    C$httpd.c$347$2$2
  0C:4B27    A$httpd$6100
  0C:4B29    A$httpd$6101
  0C:4B2B    A$httpd$6104
  0C:4B2B    C$httpd.c$349$2$1
  0C:4B2B    XFhttpd$handle_connection$0$0
  0C:4B2E    A$httpd$6106
  0C:4B2F    A$httpd$6123
  0C:4B2F    C$httpd.c$352$2$1
  0C:4B2F    C$httpd.c$354$1$1
  0C:4B2F    G$httpd_appcall$0$0
  0C:4B2F    _httpd_appcall
  0C:4B32    A$httpd$6124
  0C:4B33    A$httpd$6125
  0C:4B35    A$httpd$6126
  0C:4B36    A$httpd$6127
  0C:4B37    A$httpd$6128
  0C:4B39    A$httpd$6129
  0C:4B3A    A$httpd$6130
  0C:4B3B    A$httpd$6131
  0C:4B3D    A$httpd$6132
  0C:4B3F    A$httpd$6133
  0C:4B41    A$httpd$6134
  0C:4B43    A$httpd$6135
  0C:4B44    A$httpd$6136
  0C:4B46    A$httpd$6137
  0C:4B48    A$httpd$6138
  0C:4B4B    A$httpd$6141
  0C:4B4B    C$httpd.c$356$1$1
  0C:4B4E    A$httpd$6142
  0C:4B4F    A$httpd$6143
  0C:4B50    A$httpd$6144
  0C:4B53    A$httpd$6145
  0C:4B54    A$httpd$6147
  0C:4B55    A$httpd$6148
  0C:4B58    A$httpd$6149
  0C:4B59    A$httpd$6151
  0C:4B5A    A$httpd$6152
  0C:4B5D    A$httpd$6153
  0C:4B5E    A$httpd$6157
  0C:4B5E    C$httpd.c$357$1$1
  0C:4B5F    A$httpd$6158
  0C:4B62    A$httpd$6159
  0C:4B65    A$httpd$6163
  0C:4B65    C$httpd.c$358$2$3
  0C:4B67    A$httpd$6164
  0C:4B69    A$httpd$6165
  0C:4B6B    A$httpd$6166
  0C:4B6D    A$httpd$6167
  0C:4B6F    A$httpd$6168
  0C:4B70    A$httpd$6169
  0C:4B71    A$httpd$6170
  0C:4B73    A$httpd$6171
  0C:4B74    A$httpd$6172
  0C:4B76    A$httpd$6173
  0C:4B79    A$httpd$6174
  0C:4B7B    A$httpd$6175
  0C:4B7D    A$httpd$6176
  0C:4B7E    A$httpd$6177
  0C:4B7F    A$httpd$6178
  0C:4B81    A$httpd$6179
  0C:4B82    A$httpd$6180
  0C:4B83    A$httpd$6181
  0C:4B84    A$httpd$6182
  0C:4B86    A$httpd$6183
  0C:4B87    A$httpd$6184
  0C:4B8A    A$httpd$6185
  0C:4B8C    A$httpd$6186
  0C:4B8D    A$httpd$6187
  0C:4B8E    A$httpd$6188
  0C:4B8F    A$httpd$6189
  0C:4B90    A$httpd$6190
  0C:4B92    A$httpd$6191
  0C:4B94    A$httpd$6192
  0C:4B96    A$httpd$6193
  0C:4B98    A$httpd$6194
  0C:4B9A    A$httpd$6195
  0C:4B9C    A$httpd$6196
  0C:4B9E    A$httpd$6197
  0C:4BA0    A$httpd$6198
  0C:4BA2    A$httpd$6199
  0C:4BA5    A$httpd$6200
  0C:4BA7    A$httpd$6201
  0C:4BA9    A$httpd$6202
  0C:4BAB    A$httpd$6205
  0C:4BAB    C$httpd.c$359$2$3
  0C:4BAD    A$httpd$6206
  0C:4BAE    A$httpd$6207
  0C:4BAF    A$httpd$6208
  0C:4BB0    A$httpd$6209
  0C:4BB1    A$httpd$6210
  0C:4BB2    A$httpd$6211
  0C:4BB4    A$httpd$6212
  0C:4BB7    A$httpd$6213
  0C:4BB9    A$httpd$6214
  0C:4BBA    A$httpd$6215
  0C:4BBB    A$httpd$6216
  0C:4BBC    A$httpd$6217
  0C:4BBD    A$httpd$6218
  0C:4BBE    A$httpd$6219
  0C:4BBF    A$httpd$6220
  0C:4BC0    A$httpd$6221
  0C:4BC1    A$httpd$6222
  0C:4BC2    A$httpd$6223
  0C:4BC5    A$httpd$6224
  0C:4BC7    A$httpd$6225
  0C:4BC8    A$httpd$6226
  0C:4BC9    A$httpd$6227
  0C:4BCA    A$httpd$6228
  0C:4BCB    A$httpd$6229
  0C:4BCD    A$httpd$6230
  0C:4BCF    A$httpd$6231
  0C:4BD1    A$httpd$6232
  0C:4BD3    A$httpd$6233
  0C:4BD5    A$httpd$6234
  0C:4BD7    A$httpd$6235
  0C:4BD9    A$httpd$6236
  0C:4BDB    A$httpd$6237
  0C:4BDD    A$httpd$6238
  0C:4BE0    A$httpd$6239
  0C:4BE2    A$httpd$6240
  0C:4BE4    A$httpd$6241
  0C:4BE6    A$httpd$6244
  0C:4BE6    C$httpd.c$360$2$3
  0C:4BE8    A$httpd$6245
  0C:4BE9    A$httpd$6246
  0C:4BEA    A$httpd$6247
  0C:4BEB    A$httpd$6248
  0C:4BEC    A$httpd$6249
  0C:4BED    A$httpd$6250
  0C:4BEF    A$httpd$6251
  0C:4BF1    A$httpd$6252
  0C:4BF3    A$httpd$6253
  0C:4BF5    A$httpd$6254
  0C:4BF6    A$httpd$6255
  0C:4BF9    A$httpd$6256
  0C:4BFA    A$httpd$6257
  0C:4BFB    A$httpd$6258
  0C:4BFE    A$httpd$6261
  0C:4BFE    C$httpd.c$361$2$3
  0C:4C00    A$httpd$6262
  0C:4C01    A$httpd$6263
  0C:4C02    A$httpd$6264
  0C:4C03    A$httpd$6265
  0C:4C04    A$httpd$6266
  0C:4C05    A$httpd$6267
  0C:4C07    A$httpd$6268
  0C:4C09    A$httpd$6269
  0C:4C0B    A$httpd$6270
  0C:4C0D    A$httpd$6271
  0C:4C0E    A$httpd$6272
  0C:4C11    A$httpd$6275
  0C:4C11    C$httpd.c$363$2$3
  0C:4C13    A$httpd$6276
  0C:4C15    A$httpd$6277
  0C:4C17    A$httpd$6278
  0C:4C18    A$httpd$6279
  0C:4C1B    A$httpd$6282
  0C:4C1B    C$httpd.c$364$2$3
  0C:4C1D    A$httpd$6283
  0C:4C1E    A$httpd$6284
  0C:4C1F    A$httpd$6285
  0C:4C21    A$httpd$6286
  0C:4C22    A$httpd$6287
  0C:4C23    A$httpd$6288
  0C:4C25    A$httpd$6289
  0C:4C27    A$httpd$6290
  0C:4C29    A$httpd$6291
  0C:4C2B    A$httpd$6292
  0C:4C2C    A$httpd$6293
  0C:4C2F    A$httpd$6294
  0C:4C30    A$httpd$6295
  0C:4C31    A$httpd$6296
  0C:4C34    A$httpd$6299
  0C:4C34    C$httpd.c$365$2$3
  0C:4C36    A$httpd$6300
  0C:4C37    A$httpd$6301
  0C:4C38    A$httpd$6302
  0C:4C3A    A$httpd$6303
  0C:4C3B    A$httpd$6304
  0C:4C3C    A$httpd$6305
  0C:4C3E    A$httpd$6306
  0C:4C40    A$httpd$6307
  0C:4C42    A$httpd$6308
  0C:4C44    A$httpd$6309
  0C:4C45    A$httpd$6310
  0C:4C48    A$httpd$6313
  0C:4C48    C$httpd.c$366$2$3
  0C:4C4A    A$httpd$6314
  0C:4C4C    A$httpd$6315
  0C:4C4E    A$httpd$6316
  0C:4C51    A$httpd$6320
  0C:4C51    C$httpd.c$367$1$1
  0C:4C52    A$httpd$6321
  0C:4C55    A$httpd$6322
  0C:4C56    A$httpd$6323
  0C:4C59    A$httpd$6324
  0C:4C5A    A$httpd$6325
  0C:4C5D    A$httpd$6326
  0C:4C5F    A$httpd$6330
  0C:4C5F    C$httpd.c$368$2$4
  0C:4C60    A$httpd$6331
  0C:4C63    A$httpd$6334
  0C:4C63    C$httpd.c$369$3$5
  0C:4C66    A$httpd$6335
  0C:4C69    A$httpd$6336
  0C:4C6C    A$httpd$6337
  0C:4C6F    A$httpd$6338
  0C:4C70    A$httpd$6339
  0C:4C71    A$httpd$6340
  0C:4C74    A$httpd$6341
  0C:4C77    A$httpd$6342
  0C:4C7A    A$httpd$6343
  0C:4C7B    A$httpd$6344
  0C:4C7E    A$httpd$6347
  0C:4C7E    C$httpd.c$370$3$5
  0C:4C81    A$httpd$6349
  0C:4C83    A$httpd$6352
  0C:4C83    C$httpd.c$371$4$6
  0C:4C86    A$httpd$6353
  0C:4C88    A$httpd$6354
  0C:4C89    A$httpd$6355
  0C:4C8B    A$httpd$6359
  0C:4C8B    C$httpd.c$374$3$7
  0C:4C8E    A$httpd$6360
  0C:4C91    A$httpd$6361
  0C:4C94    A$httpd$6362
  0C:4C95    A$httpd$6363
  0C:4C98    A$httpd$6367
  0C:4C98    C$httpd.c$376$2$4
  0C:4C9B    A$httpd$6368
  0C:4C9E    A$httpd$6369
  0C:4CA1    A$httpd$6370
  0C:4CA4    A$httpd$6374
  0C:4CA4    C$httpd.c$378$2$8
  0C:4CA7    A$httpd$6375
  0C:4CA9    A$httpd$6376
  0C:4CAA    A$httpd$6379
  0C:4CAA    C$httpd.c$380$1$1
  0C:4CAA    XG$httpd_appcall$0$0
  0C:4CAB    A$httpd$6394
  0C:4CAB    C$httpd.c$389$1$1
  0C:4CAB    C$httpd.c$395$1$1
  0C:4CAB    G$httpd_init$0$0
  0C:4CAB    _httpd_init
  0C:4CAE    A$httpd$6395
  0C:4CAF    A$httpd$6396
  0C:4CB0    A$httpd$6397
  0C:4CB1    A$httpd$6398
  0C:4CB2    A$httpd$6399
  0C:4CB3    A$httpd$6400
  0C:4CB5    A$httpd$6401
  0C:4CB7    A$httpd$6402
  0C:4CB9    A$httpd$6403
  0C:4CBB    A$httpd$6404
  0C:4CBD    A$httpd$6405
  0C:4CC0    A$httpd$6406
  0C:4CC2    A$httpd$6407
  0C:4CC4    A$httpd$6410
  0C:4CC4    C$httpd.c$393$1$1
  0C:4CC6    A$httpd$6411
  0C:4CC8    A$httpd$6412
  0C:4CCA    A$httpd$6413
  0C:4CCC    A$httpd$6414
  0C:4CCD    A$httpd$6415
  0C:4CCF    A$httpd$6416
  0C:4CD2    A$httpd$6417
  0C:4CD5    A$httpd$6418
  0C:4CD7    A$httpd$6419
  0C:4CD9    A$httpd$6420
  0C:4CDB    A$httpd$6421
  0C:4CDD    A$httpd$6424
  0C:4CDD    C$httpd.c$398$1$1
  0C:4CDE    A$httpd$6425
  0C:4CE0    A$httpd$6428
  0C:4CE0    C$httpd.c$405$2$3
  0C:4CE3    A$httpd$6429
  0C:4CE4    A$httpd$6430
  0C:4CE5    A$httpd$6431
  0C:4CE6    A$httpd$6432
  0C:4CE7    A$httpd$6433
  0C:4CE8    A$httpd$6434
  0C:4CEA    A$httpd$6435
  0C:4CEC    A$httpd$6436
  0C:4CEE    A$httpd$6437
  0C:4CF0    A$httpd$6438
  0C:4CF2    A$httpd$6439
  0C:4CF5    A$httpd$6440
  0C:4CF7    A$httpd$6441
  0C:4CF9    A$httpd$6442
  0C:4CFB    A$httpd$6443
  0C:4CFD    A$httpd$6446
  0C:4CFD    C$httpd.c$407$1$1
  0C:4CFD    XG$httpd_init$0$0
  0C:4D00    A$httpd$6448
  0C:4D01    A$adc$1331
  0C:4D01    C$adc.c$54$0$0
  0C:4D01    G$ADC_ISR$0$0
  0C:4D01    _ADC_ISR
  0C:4D03    A$adc$1332
  0C:4D05    A$adc$1333
  0C:4D07    A$adc$1334
  0C:4D09    A$adc$1335
  0C:4D0B    A$adc$1336
  0C:4D0D    A$adc$1337
  0C:4D0F    A$adc$1338
  0C:4D11    A$adc$1339
  0C:4D13    A$adc$1340
  0C:4D15    A$adc$1341
  0C:4D17    A$adc$1342
  0C:4D19    A$adc$1343
  0C:4D1B    A$adc$1344
  0C:4D1D    A$adc$1345
  0C:4D20    A$adc$1348
  0C:4D20    C$adc.c$56$1$1
  0C:4D22    A$adc$1349
  0C:4D25    A$adc$1350
  0C:4D26    A$adc$1351
  0C:4D28    A$adc$1352
  0C:4D29    A$adc$1353
  0C:4D2A    A$adc$1354
  0C:4D2C    A$adc$1355
  0C:4D2D    A$adc$1356
  0C:4D2F    A$adc$1357
  0C:4D30    A$adc$1358
  0C:4D32    A$adc$1359
  0C:4D33    A$adc$1360
  0C:4D34    A$adc$1361
  0C:4D36    A$adc$1362
  0C:4D37    A$adc$1363
  0C:4D39    A$adc$1366
  0C:4D39    C$adc.c$58$1$1
  0C:4D3B    A$adc$1367
  0C:4D3D    A$adc$1368
  0C:4D3F    A$adc$1369
  0C:4D41    A$adc$1370
  0C:4D43    A$adc$1371
  0C:4D44    A$adc$1372
  0C:4D45    A$adc$1373
  0C:4D47    A$adc$1374
  0C:4D48    A$adc$1375
  0C:4D49    A$adc$1376
  0C:4D4B    A$adc$1379
  0C:4D4B    C$adc.c$60$1$1
  0C:4D4C    A$adc$1380
  0C:4D4E    A$adc$1381
  0C:4D50    A$adc$1382
  0C:4D52    A$adc$1383
  0C:4D54    A$adc$1386
  0C:4D54    C$adc.c$64$1$1
  0C:4D56    A$adc$1387
  0C:4D58    A$adc$1388
  0C:4D5A    A$adc$1391
  0C:4D5A    C$adc.c$65$1$1
  0C:4D5C    A$adc$1392
  0C:4D5E    A$adc$1393
  0C:4D60    A$adc$1394
  0C:4D62    A$adc$1395
  0C:4D64    A$adc$1396
  0C:4D66    A$adc$1397
  0C:4D68    A$adc$1398
  0C:4D6A    A$adc$1399
  0C:4D6C    A$adc$1400
  0C:4D6E    A$adc$1401
  0C:4D71    A$adc$1402
  0C:4D74    A$adc$1403
  0C:4D77    A$adc$1404
  0C:4D79    A$adc$1405
  0C:4D7B    A$adc$1406
  0C:4D7D    A$adc$1410
  0C:4D7D    C$adc.c$67$1$1
  0C:4D7F    A$adc$1411
  0C:4D82    A$adc$1412
  0C:4D83    A$adc$1413
  0C:4D85    A$adc$1414
  0C:4D86    A$adc$1415
  0C:4D87    A$adc$1416
  0C:4D89    A$adc$1417
  0C:4D8A    A$adc$1418
  0C:4D8C    A$adc$1419
  0C:4D8D    A$adc$1420
  0C:4D8E    A$adc$1421
  0C:4D8F    A$adc$1422
  0C:4D90    A$adc$1423
  0C:4D91    A$adc$1424
  0C:4D93    A$adc$1425
  0C:4D95    A$adc$1426
  0C:4D96    A$adc$1427
  0C:4D98    A$adc$1428
  0C:4D99    A$adc$1429
  0C:4D9A    A$adc$1430
  0C:4D9C    A$adc$1431
  0C:4D9E    A$adc$1432
  0C:4D9F    A$adc$1433
  0C:4DA0    A$adc$1434
  0C:4DA2    A$adc$1435
  0C:4DA3    A$adc$1438
  0C:4DA3    C$adc.c$68$1$1
  0C:4DA5    A$adc$1439
  0C:4DA7    A$adc$1440
  0C:4DA9    A$adc$1441
  0C:4DAA    A$adc$1442
  0C:4DAB    A$adc$1443
  0C:4DAD    A$adc$1444
  0C:4DAE    A$adc$1447
  0C:4DAE    C$adc.c$71$1$1
  0C:4DB0    A$adc$1448
  0C:4DB1    A$adc$1449
  0C:4DB2    A$adc$1450
  0C:4DB3    A$adc$1451
  0C:4DB4    A$adc$1452
  0C:4DB5    A$adc$1453
  0C:4DB7    A$adc$1454
  0C:4DB9    A$adc$1455
  0C:4DBA    A$adc$1456
  0C:4DBB    A$adc$1457
  0C:4DBC    A$adc$1458
  0C:4DBE    A$adc$1459
  0C:4DC0    A$adc$1460
  0C:4DC1    A$adc$1461
  0C:4DC2    A$adc$1462
  0C:4DC5    A$adc$1465
  0C:4DC5    C$adc.c$72$1$1
  0C:4DC7    A$adc$1466
  0C:4DC9    A$adc$1467
  0C:4DCA    A$adc$1468
  0C:4DCB    A$adc$1472
  0C:4DCB    C$adc.c$75$1$1
  0C:4DCD    A$adc$1473
  0C:4DCE    A$adc$1474
  0C:4DCF    A$adc$1475
  0C:4DD0    A$adc$1476
  0C:4DD1    A$adc$1477
  0C:4DD2    A$adc$1478
  0C:4DD4    A$adc$1479
  0C:4DD6    A$adc$1480
  0C:4DD7    A$adc$1481
  0C:4DD8    A$adc$1482
  0C:4DDB    A$adc$1483
  0C:4DDD    A$adc$1485
  0C:4DE0    A$adc$1489
  0C:4DE0    C$adc.c$77$2$2
  0C:4DE2    A$adc$1490
  0C:4DE3    A$adc$1491
  0C:4DE4    A$adc$1492
  0C:4DE5    A$adc$1493
  0C:4DE6    A$adc$1494
  0C:4DE7    A$adc$1495
  0C:4DE9    A$adc$1496
  0C:4DEB    A$adc$1497
  0C:4DEC    A$adc$1498
  0C:4DED    A$adc$1499
  0C:4DEE    A$adc$1500
  0C:4DF0    A$adc$1501
  0C:4DF2    A$adc$1502
  0C:4DF3    A$adc$1503
  0C:4DF4    A$adc$1504
  0C:4DF7    A$adc$1507
  0C:4DF7    C$adc.c$78$2$2
  0C:4DF9    A$adc$1508
  0C:4DFB    A$adc$1509
  0C:4DFC    A$adc$1510
  0C:4DFD    A$adc$1514
  0C:4DFD    C$adc.c$80$2$2
  0C:4DFF    A$adc$1515
  0C:4E01    A$adc$1516
  0C:4E02    A$adc$1517
  0C:4E04    A$adc$1520
  0C:4E04    C$adc.c$83$3$3
  0C:4E06    A$adc$1521
  0C:4E07    A$adc$1522
  0C:4E09    A$adc$1523
  0C:4E0A    A$adc$1524
  0C:4E0B    A$adc$1525
  0C:4E0D    A$adc$1526
  0C:4E10    A$adc$1530
  0C:4E10    C$adc.c$84$1$1
  0C:4E12    A$adc$1531
  0C:4E14    A$adc$1532
  0C:4E16    A$adc$1533
  0C:4E18    A$adc$1534
  0C:4E1A    A$adc$1535
  0C:4E1C    A$adc$1536
  0C:4E1D    A$adc$1537
  0C:4E1F    A$adc$1538
  0C:4E21    A$adc$1539
  0C:4E22    A$adc$1540
  0C:4E23    A$adc$1541
  0C:4E24    A$adc$1542
  0C:4E25    A$adc$1543
  0C:4E26    A$adc$1544
  0C:4E27    A$adc$1545
  0C:4E28    A$adc$1546
  0C:4E29    A$adc$1547
  0C:4E2A    A$adc$1548
  0C:4E2C    A$adc$1549
  0C:4E2E    A$adc$1550
  0C:4E2F    A$adc$1551
  0C:4E31    A$adc$1552
  0C:4E33    A$adc$1553
  0C:4E34    A$adc$1554
  0C:4E36    A$adc$1555
  0C:4E38    A$adc$1556
  0C:4E39    A$adc$1557
  0C:4E3B    A$adc$1558
  0C:4E3D    A$adc$1561
  0C:4E3D    C$adc.c$85$3$3
  0C:4E3F    A$adc$1562
  0C:4E41    A$adc$1563
  0C:4E44    A$adc$1564
  0C:4E46    A$adc$1565
  0C:4E48    A$adc$1567
  0C:4E49    A$adc$1569
  0C:4E4B    A$adc$1570
  0C:4E4D    A$adc$1571
  0C:4E4F    A$adc$1574
  0C:4E4F    C$adc.c$86$3$3
  0C:4E52    A$adc$1576
  0C:4E55    A$adc$1581
  0C:4E55    C$adc.c$83$2$3
  0C:4E55    C$adc.c$88$2$2
  0C:4E57    A$adc$1582
  0C:4E59    A$adc$1583
  0C:4E5A    A$adc$1584
  0C:4E5B    A$adc$1585
  0C:4E5E    A$adc$1586
  0C:4E60    A$adc$1587
  0C:4E61    A$adc$1588
  0C:4E62    A$adc$1589
  0C:4E64    A$adc$1590
  0C:4E65    A$adc$1591
  0C:4E66    A$adc$1592
  0C:4E68    A$adc$1593
  0C:4E6A    A$adc$1594
  0C:4E6C    A$adc$1595
  0C:4E6E    A$adc$1596
  0C:4E70    A$adc$1597
  0C:4E72    A$adc$1598
  0C:4E74    A$adc$1599
  0C:4E76    A$adc$1600
  0C:4E78    A$adc$1601
  0C:4E79    A$adc$1602
  0C:4E7A    A$adc$1603
  0C:4E7C    A$adc$1604
  0C:4E7E    A$adc$1605
  0C:4E80    A$adc$1606
  0C:4E83    A$adc$1607
  0C:4E85    A$adc$1608
  0C:4E86    A$adc$1609
  0C:4E87    A$adc$1610
  0C:4E89    A$adc$1611
  0C:4E8A    A$adc$1612
  0C:4E8B    A$adc$1613
  0C:4E8D    A$adc$1614
  0C:4E8F    A$adc$1615
  0C:4E91    A$adc$1616
  0C:4E93    A$adc$1617
  0C:4E95    A$adc$1618
  0C:4E97    A$adc$1619
  0C:4E99    A$adc$1620
  0C:4E9C    A$adc$1621
  0C:4E9E    A$adc$1623
  0C:4EA0    A$adc$1624
  0C:4EA2    A$adc$1625
  0C:4EA4    A$adc$1626
  0C:4EA5    A$adc$1627
  0C:4EA6    A$adc$1628
  0C:4EA7    A$adc$1629
  0C:4EA8    A$adc$1630
  0C:4EA9    A$adc$1631
  0C:4EAB    A$adc$1635
  0C:4EAB    C$adc.c$91$2$4
  0C:4EAC    A$adc$1636
  0C:4EAE    A$adc$1637
  0C:4EB0    A$adc$1638
  0C:4EB1    A$adc$1639
  0C:4EB2    A$adc$1642
  0C:4EB2    C$adc.c$94$2$4
  0C:4EB4    A$adc$1643
  0C:4EB6    A$adc$1644
  0C:4EB7    A$adc$1645
  0C:4EB8    A$adc$1646
  0C:4EBA    A$adc$1647
  0C:4EBB    A$adc$1648
  0C:4EBC    A$adc$1649
  0C:4EBE    A$adc$1650
  0C:4EBF    A$adc$1654
  0C:4EBF    C$adc.c$98$1$1
  0C:4EC2    A$adc$1655
  0C:4EC4    A$adc$1656
  0C:4EC5    A$adc$1659
  0C:4EC5    C$adc.c$101$1$1
  0C:4EC7    A$adc$1660
  0C:4EC9    A$adc$1661
  0C:4ECC    A$adc$1664
  0C:4ECC    C$adc.c$102$1$1
  0C:4ECF    A$adc$1668
  0C:4ECF    C$adc.c$105$1$1
  0C:4ED1    A$adc$1669
  0C:4ED4    A$adc$1670
  0C:4ED5    A$adc$1671
  0C:4ED7    A$adc$1672
  0C:4ED8    A$adc$1673
  0C:4ED9    A$adc$1674
  0C:4EDB    A$adc$1675
  0C:4EDC    A$adc$1676
  0C:4EDE    A$adc$1677
  0C:4EE0    A$adc$1678
  0C:4EE1    A$adc$1679
  0C:4EE2    A$adc$1680
  0C:4EE3    A$adc$1681
  0C:4EE4    A$adc$1682
  0C:4EE5    A$adc$1683
  0C:4EE7    A$adc$1686
  0C:4EE7    C$adc.c$106$1$1
  0C:4EE9    A$adc$1687
  0C:4EEB    A$adc$1688
  0C:4EED    A$adc$1689
  0C:4EEF    A$adc$1690
  0C:4EF1    A$adc$1691
  0C:4EF3    A$adc$1692
  0C:4EF5    A$adc$1693
  0C:4EF7    A$adc$1694
  0C:4EF9    A$adc$1695
  0C:4EFB    A$adc$1696
  0C:4EFD    A$adc$1697
  0C:4EFF    A$adc$1698
  0C:4F01    A$adc$1699
  0C:4F03    A$adc$1700
  0C:4F05    A$adc$1703
  0C:4F05    C$adc.c$107$1$1
  0C:4F05    XG$ADC_ISR$0$0
  0C:4F06    A$adc$1724
  0C:4F06    C$adc.c$115$1$1
  0C:4F06    G$adc_get_average$0$0
  0C:4F06    _adc_get_average
  0C:4F08    A$adc$1725
  0C:4F0B    A$adc$1726
  0C:4F0C    A$adc$1729
  0C:4F0C    C$adc.c$117$1$1
  0C:4F0F    A$adc$1730
  0C:4F10    A$adc$1731
  0C:4F13    A$adc$1732
  0C:4F14    A$adc$1733
  0C:4F16    A$adc$1734
  0C:4F17    A$adc$1735
  0C:4F18    A$adc$1736
  0C:4F1A    A$adc$1737
  0C:4F1B    A$adc$1738
  0C:4F1D    A$adc$1739
  0C:4F1E    A$adc$1740
  0C:4F20    A$adc$1741
  0C:4F21    A$adc$1742
  0C:4F22    A$adc$1743
  0C:4F24    A$adc$1744
  0C:4F25    A$adc$1745
  0C:4F26    A$adc$1746
  0C:4F29    A$adc$1747
  0C:4F2B    A$adc$1751
  0C:4F2B    C$adc.c$118$1$1
  0C:4F2E    A$adc$1752
  0C:4F2F    A$adc$1756
  0C:4F2F    C$adc.c$120$1$1
  0C:4F31    A$adc$1757
  0C:4F33    A$adc$1758
  0C:4F34    A$adc$1759
  0C:4F35    A$adc$1760
  0C:4F36    A$adc$1761
  0C:4F37    A$adc$1762
  0C:4F38    A$adc$1763
  0C:4F39    A$adc$1766
  0C:4F39    C$adc.c$121$1$1
  0C:4F39    XG$adc_get_average$0$0
  0C:4F3B    A$adc$1767
  0C:4F3D    A$adc$1768
  0C:4F3E    A$adc$1781
  0C:4F3E    C$adc.c$128$1$1
  0C:4F3E    G$adc_get_last_sample$0$0
  0C:4F3E    _adc_get_last_sample
  0C:4F40    A$adc$1782
  0C:4F43    A$adc$1783
  0C:4F44    A$adc$1786
  0C:4F44    C$adc.c$130$1$1
  0C:4F47    A$adc$1787
  0C:4F48    A$adc$1788
  0C:4F4B    A$adc$1789
  0C:4F4C    A$adc$1790
  0C:4F4E    A$adc$1791
  0C:4F50    A$adc$1792
  0C:4F51    A$adc$1793
  0C:4F53    A$adc$1794
  0C:4F55    A$adc$1795
  0C:4F56    A$adc$1796
  0C:4F57    A$adc$1797
  0C:4F58    A$adc$1798
  0C:4F59    A$adc$1801
  0C:4F59    C$adc.c$131$1$1
  0C:4F59    XG$adc_get_last_sample$0$0
  0C:4F5B    A$adc$1802
  0C:4F5D    A$adc$1803
  0C:4F5E    A$adc$1820
  0C:4F5E    C$adc.c$136$1$1
  0C:4F5E    G$get_temperature$0$0
  0C:4F5E    _get_temperature
  0C:4F60    A$adc$1821
  0C:4F63    A$adc$1822
  0C:4F64    A$adc$1825
  0C:4F64    C$adc.c$138$1$1
  0C:4F67    A$adc$1826
  0C:4F68    A$adc$1827
  0C:4F69    A$adc$1828
  0C:4F6B    A$adc$1829
  0C:4F6D    A$adc$1830
  0C:4F70    A$adc$1831
  0C:4F72    A$adc$1832
  0C:4F74    A$adc$1833
  0C:4F76    A$adc$1836
  0C:4F76    C$adc.c$139$1$1
  0C:4F78    A$adc$1837
  0C:4F7A    A$adc$1838
  0C:4F7C    A$adc$1839
  0C:4F7F    A$adc$1840
  0C:4F81    A$adc$1841
  0C:4F83    A$adc$1844
  0C:4F83    C$adc.c$140$1$1
  0C:4F84    A$adc$1845
  0C:4F86    A$adc$1846
  0C:4F87    A$adc$1847
  0C:4F88    A$adc$1848
  0C:4F8A    A$adc$1849
  0C:4F8B    A$adc$1852
  0C:4F8B    C$adc.c$141$1$1
  0C:4F8E    A$adc$1853
  0C:4F8F    A$adc$1854
  0C:4F90    A$adc$1855
  0C:4F91    A$adc$1856
  0C:4F92    A$adc$1857
  0C:4F93    A$adc$1858
  0C:4F96    A$adc$1859
  0C:4F99    A$adc$1860
  0C:4F9B    A$adc$1861
  0C:4F9D    A$adc$1862
  0C:4FA0    A$adc$1863
  0C:4FA2    A$adc$1864
  0C:4FA3    A$adc$1865
  0C:4FA4    A$adc$1866
  0C:4FA5    A$adc$1867
  0C:4FA6    A$adc$1870
  0C:4FA6    C$adc.c$143$1$1
  0C:4FA8    A$adc$1871
  0C:4FAA    A$adc$1874
  0C:4FAA    C$adc.c$144$1$1
  0C:4FAA    XG$get_temperature$0$0
  0C:4FAD    A$adc$1887
  0C:4FAD    C$adc.c$158$1$1
  0C:4FAD    G$Timer3_Init$0$0
  0C:4FAD    _Timer3_Init
  0C:4FAF    A$adc$1888
  0C:4FB1    A$adc$1889
  0C:4FB4    A$adc$1890
  0C:4FB5    A$adc$1891
  0C:4FB6    A$adc$1892
  0C:4FB7    A$adc$1893
  0C:4FB8    A$adc$1896
  0C:4FB8    C$adc.c$162$1$1
  0C:4FBB    A$adc$1899
  0C:4FBB    C$adc.c$163$1$1
  0C:4FBE    A$adc$1902
  0C:4FBE    C$adc.c$165$1$1
  0C:4FC1    A$adc$1905
  0C:4FC1    C$adc.c$167$1$1
  0C:4FC4    A$adc$1906
  0C:4FC5    A$adc$1907
  0C:4FC6    A$adc$1908
  0C:4FC7    A$adc$1909
  0C:4FC8    A$adc$1910
  0C:4FC9    A$adc$1911
  0C:4FCB    A$adc$1912
  0C:4FCC    A$adc$1913
  0C:4FCD    A$adc$1914
  0C:4FCE    A$adc$1915
  0C:4FD0    A$adc$1918
  0C:4FD0    C$adc.c$168$1$1
  0C:4FD1    A$adc$1919
  0C:4FD2    A$adc$1920
  0C:4FD3    A$adc$1921
  0C:4FD4    A$adc$1922
  0C:4FD5    A$adc$1923
  0C:4FD6    A$adc$1924
  0C:4FD8    A$adc$1927
  0C:4FD8    C$adc.c$170$1$1
  0C:4FDB    A$adc$1930
  0C:4FDB    C$adc.c$171$1$1
  0C:4FDE    A$adc$1933
  0C:4FDE    C$adc.c$174$1$1
  0C:4FE1    A$adc$1936
  0C:4FE1    C$adc.c$176$1$1
  0C:4FE1    XG$Timer3_Init$0$0
  0C:4FE2    A$adc$1950
  0C:4FE2    C$adc.c$178$1$1
  0C:4FE2    C$adc.c$180$1$1
  0C:4FE2    G$adc_init$0$0
  0C:4FE2    _adc_init
  0C:4FE5    A$adc$1953
  0C:4FE5    C$adc.c$182$1$1
  0C:4FE8    A$adc$1954
  0C:4FE9    A$adc$1955
  0C:4FEA    A$adc$1956
  0C:4FED    A$adc$1957
  0C:4FEF    A$adc$1958
  0C:4FF0    A$adc$1959
  0C:4FF1    A$adc$1960
  0C:4FF3    A$adc$1961
  0C:4FF4    A$adc$1962
  0C:4FF7    A$adc$1963
  0C:4FFA    A$adc$1964
  0C:4FFD    A$adc$1967
  0C:4FFD    C$adc.c$185$1$1
  0C:5000    A$adc$1968
  0C:5001    A$adc$1969
  0C:5002    A$adc$1972
  0C:5002    C$adc.c$186$1$1
  0C:5005    A$adc$1973
  0C:5007    A$adc$1974
  0C:5008    A$adc$1977
  0C:5008    C$adc.c$187$1$1
  0C:500B    A$adc$1978
  0C:500D    A$adc$1979
  0C:500E    A$adc$1982
  0C:500E    C$adc.c$193$1$1
  0C:5011    A$adc$1985
  0C:5011    C$adc.c$194$1$1
  0C:5014    A$adc$1988
  0C:5014    C$adc.c$195$1$1
  0C:5017    A$adc$1991
  0C:5017    C$adc.c$197$1$1
  0C:501A    A$adc$1992
  0C:501D    A$adc$1995
  0C:501D    C$adc.c$199$1$1
  0C:5020    A$adc$1998
  0C:5020    C$adc.c$201$1$1
  0C:5023    A$adc$2001
  0C:5023    C$adc.c$202$1$1
  0C:5023    XG$adc_init$0$0
  0C:5024    A$dm9000$1309
  0C:5024    C$dm9000.c$74$0$0
  0C:5024    G$write_nicreg$0$0
  0C:5024    _write_nicreg
  0C:5026    A$dm9000$1310
  0C:5029    A$dm9000$1311
  0C:502A    A$dm9000$1314
  0C:502A    C$dm9000.c$76$1$1
  0C:502C    A$dm9000$1317
  0C:502C    C$dm9000.c$78$1$1
  0C:502F    A$dm9000$1318
  0C:5030    A$dm9000$1319
  0C:5033    A$dm9000$1320
  0C:5034    A$dm9000$1323
  0C:5034    C$dm9000.c$79$1$1
  0C:5037    A$dm9000$1324
  0C:5038    A$dm9000$1325
  0C:503B    A$dm9000$1326
  0C:503C    A$dm9000$1329
  0C:503C    C$dm9000.c$81$1$1
  0C:503E    A$dm9000$1332
  0C:503E    C$dm9000.c$82$1$1
  0C:503E    XG$write_nicreg$0$0
  0C:503F    A$dm9000$1345
  0C:503F    C$dm9000.c$87$1$1
  0C:503F    G$write_nicdata$0$0
  0C:503F    _write_nicdata
  0C:5041    A$dm9000$1346
  0C:5044    A$dm9000$1347
  0C:5045    A$dm9000$1350
  0C:5045    C$dm9000.c$89$1$1
  0C:5048    A$dm9000$1351
  0C:5049    A$dm9000$1352
  0C:504C    A$dm9000$1353
  0C:504D    A$dm9000$1356
  0C:504D    C$dm9000.c$90$1$1
  0C:504D    XG$write_nicdata$0$0
  0C:504E    A$dm9000$1369
  0C:504E    C$dm9000.c$95$1$1
  0C:504E    G$set_nicreg$0$0
  0C:504E    _set_nicreg
  0C:5050    A$dm9000$1370
  0C:5053    A$dm9000$1371
  0C:5054    A$dm9000$1374
  0C:5054    C$dm9000.c$97$1$1
  0C:5057    A$dm9000$1375
  0C:5058    A$dm9000$1376
  0C:505B    A$dm9000$1377
  0C:505C    A$dm9000$1380
  0C:505C    C$dm9000.c$98$1$1
  0C:505C    XG$set_nicreg$0$0
  0C:505D    A$dm9000$1394
  0C:505D    C$dm9000.c$104$1$1
  0C:505D    G$PHY_write$0$0
  0C:505D    _PHY_write
  0C:505F    A$dm9000$1395
  0C:5062    A$dm9000$1396
  0C:5063    A$dm9000$1399
  0C:5063    C$dm9000.c$106$1$1
  0C:5065    A$dm9000$1402
  0C:5065    C$dm9000.c$108$1$1
  0C:5068    A$dm9000$1403
  0C:506A    A$dm9000$1404
  0C:506B    A$dm9000$1405
  0C:506E    A$dm9000$1406
  0C:5071    A$dm9000$1409
  0C:5071    C$dm9000.c$109$1$1
  0C:5074    A$dm9000$1410
  0C:5075    A$dm9000$1411
  0C:5076    A$dm9000$1412
  0C:5078    A$dm9000$1413
  0C:5079    A$dm9000$1414
  0C:507C    A$dm9000$1415
  0C:507E    A$dm9000$1416
  0C:5080    A$dm9000$1417
  0C:5082    A$dm9000$1418
  0C:5083    A$dm9000$1419
  0C:5086    A$dm9000$1420
  0C:5089    A$dm9000$1423
  0C:5089    C$dm9000.c$110$1$1
  0C:508C    A$dm9000$1424
  0C:508D    A$dm9000$1425
  0C:508E    A$dm9000$1426
  0C:508F    A$dm9000$1427
  0C:5090    A$dm9000$1428
  0C:5091    A$dm9000$1429
  0C:5094    A$dm9000$1430
  0C:5095    A$dm9000$1431
  0C:5098    A$dm9000$1432
  0C:509A    A$dm9000$1433
  0C:509C    A$dm9000$1434
  0C:509F    A$dm9000$1435
  0C:50A1    A$dm9000$1436
  0C:50A3    A$dm9000$1439
  0C:50A3    C$dm9000.c$111$1$1
  0C:50A6    A$dm9000$1440
  0C:50A7    A$dm9000$1441
  0C:50A8    A$dm9000$1442
  0C:50AB    A$dm9000$1443
  0C:50AE    A$dm9000$1446
  0C:50AE    C$dm9000.c$112$1$1
  0C:50B1    A$dm9000$1447
  0C:50B2    A$dm9000$1448
  0C:50B3    A$dm9000$1449
  0C:50B6    A$dm9000$1450
  0C:50B9    A$dm9000$1453
  0C:50B9    C$dm9000.c$114$1$1
  0C:50BB    A$dm9000$1456
  0C:50BB    C$dm9000.c$115$1$1
  0C:50BB    XG$PHY_write$0$0
  0C:50BC    A$dm9000$1470
  0C:50BC    C$dm9000.c$120$1$1
  0C:50BC    G$read_nicreg$0$0
  0C:50BC    _read_nicreg
  0C:50BE    A$dm9000$1471
  0C:50C1    A$dm9000$1472
  0C:50C2    A$dm9000$1475
  0C:50C2    C$dm9000.c$124$1$1
  0C:50C4    A$dm9000$1478
  0C:50C4    C$dm9000.c$126$1$1
  0C:50C7    A$dm9000$1479
  0C:50C8    A$dm9000$1480
  0C:50CB    A$dm9000$1481
  0C:50CC    A$dm9000$1484
  0C:50CC    C$dm9000.c$127$1$1
  0C:50CF    A$dm9000$1485
  0C:50D0    A$dm9000$1486
  0C:50D1    A$dm9000$1489
  0C:50D1    C$dm9000.c$129$1$1
  0C:50D3    A$dm9000$1492
  0C:50D3    C$dm9000.c$131$1$1
  0C:50D5    A$dm9000$1495
  0C:50D5    C$dm9000.c$133$1$1
  0C:50D5    XG$read_nicreg$0$0
  0C:50D6    A$dm9000$1509
  0C:50D6    C$dm9000.c$138$1$1
  0C:50D6    C$dm9000.c$140$1$1
  0C:50D6    G$read_nicdata$0$0
  0C:50D6    _read_nicdata
  0C:50D9    A$dm9000$1510
  0C:50DA    A$dm9000$1513
  0C:50DA    C$dm9000.c$141$1$1
  0C:50DA    XG$read_nicdata$0$0
  0C:50DC    A$dm9000$1514
  0C:50DD    A$dm9000$1528
  0C:50DD    C$dm9000.c$146$1$1
  0C:50DD    Fdm9000$_wait_ms$0$0
  0C:50DF    A$dm9000$1529
  0C:50E1    A$dm9000$1530
  0C:50E4    A$dm9000$1531
  0C:50E5    A$dm9000$1532
  0C:50E6    A$dm9000$1533
  0C:50E7    A$dm9000$1534
  0C:50E8    A$dm9000$1535
  0C:50EB    A$dm9000$1536
  0C:50EC    A$dm9000$1537
  0C:50ED    A$dm9000$1538
  0C:50EE    A$dm9000$1539
  0C:50EF    A$dm9000$1540
  0C:50F0    A$dm9000$1544
  0C:50F1    A$dm9000$1545
  0C:50F2    A$dm9000$1546
  0C:50F4    A$dm9000$1547
  0C:50F6    A$dm9000$1548
  0C:50F8    A$dm9000$1550
  0C:50FA    A$dm9000$1552
  0C:50FB    A$dm9000$1553
  0C:50FD    A$dm9000$1556
  0C:50FD    C$dm9000.c$151$1$1
  0C:50FF    A$dm9000$1557
  0C:5101    A$dm9000$1559
  0C:5102    A$dm9000$1560
  0C:5103    A$dm9000$1561
  0C:5105    A$dm9000$1562
  0C:5107    A$dm9000$1563
  0C:5109    A$dm9000$1565
  0C:510B    A$dm9000$1567
  0C:510C    A$dm9000$1568
  0C:510E    A$dm9000$1569
  0C:510F    A$dm9000$1570
  0C:5112    A$dm9000$1571
  0C:5113    A$dm9000$1572
  0C:5115    A$dm9000$1576
  0C:5115    C$dm9000.c$150$1$1
  0C:5116    A$dm9000$1577
  0C:5119    A$dm9000$1578
  0C:511A    A$dm9000$1580
  0C:511D    A$dm9000$1581
  0C:511E    A$dm9000$1582
  0C:511F    A$dm9000$1583
  0C:5120    A$dm9000$1584
  0C:5121    A$dm9000$1585
  0C:5122    A$dm9000$1586
  0C:5124    A$dm9000$1588
  0C:5127    A$dm9000$1589
  0C:5128    A$dm9000$1590
  0C:5129    A$dm9000$1591
  0C:512A    A$dm9000$1592
  0C:512B    A$dm9000$1593
  0C:512C    A$dm9000$1596
  0C:512C    C$dm9000.c$153$1$1
  0C:512C    XFdm9000$_wait_ms$0$0
  0C:512D    A$dm9000$1610
  0C:512D    C$dm9000.c$162$1$1
  0C:512D    C$dm9000.c$169$1$1
  0C:512D    G$InitDM9000$0$0
  0C:512D    _InitDM9000
  0C:5130    A$dm9000$1611
  0C:5132    A$dm9000$1612
  0C:5133    A$dm9000$1613
  0C:5136    A$dm9000$1614
  0C:5139    A$dm9000$1617
  0C:5139    C$dm9000.c$170$1$1
  0C:513C    A$dm9000$1618
  0C:513E    A$dm9000$1619
  0C:513F    A$dm9000$1620
  0C:5142    A$dm9000$1621
  0C:5145    A$dm9000$1624
  0C:5145    C$dm9000.c$171$1$1
  0C:5148    A$dm9000$1625
  0C:514B    A$dm9000$1628
  0C:514B    C$dm9000.c$178$1$1
  0C:514E    A$dm9000$1629
  0C:5150    A$dm9000$1630
  0C:5151    A$dm9000$1631
  0C:5154    A$dm9000$1632
  0C:5157    A$dm9000$1635
  0C:5157    C$dm9000.c$179$1$1
  0C:515A    A$dm9000$1636
  0C:515D    A$dm9000$1639
  0C:515D    C$dm9000.c$180$1$1
  0C:5160    A$dm9000$1640
  0C:5161    A$dm9000$1641
  0C:5162    A$dm9000$1642
  0C:5165    A$dm9000$1643
  0C:5168    A$dm9000$1646
  0C:5168    C$dm9000.c$181$1$1
  0C:516B    A$dm9000$1647
  0C:516E    A$dm9000$1650
  0C:516E    C$dm9000.c$183$1$1
  0C:5171    A$dm9000$1651
  0C:5173    A$dm9000$1652
  0C:5174    A$dm9000$1653
  0C:5177    A$dm9000$1654
  0C:517A    A$dm9000$1657
  0C:517A    C$dm9000.c$184$1$1
  0C:517D    A$dm9000$1658
  0C:5180    A$dm9000$1661
  0C:5180    C$dm9000.c$185$1$1
  0C:5183    A$dm9000$1662
  0C:5184    A$dm9000$1663
  0C:5185    A$dm9000$1664
  0C:5188    A$dm9000$1665
  0C:518B    A$dm9000$1668
  0C:518B    C$dm9000.c$186$1$1
  0C:518E    A$dm9000$1669
  0C:5191    A$dm9000$1672
  0C:5191    C$dm9000.c$191$1$1
  0C:5194    A$dm9000$1673
  0C:5197    A$dm9000$1676
  0C:5197    C$dm9000.c$197$1$1
  0C:519A    A$dm9000$1677
  0C:519C    A$dm9000$1678
  0C:519D    A$dm9000$1679
  0C:519E    A$dm9000$1680
  0C:51A1    A$dm9000$1681
  0C:51A4    A$dm9000$1684
  0C:51A4    C$dm9000.c$198$1$1
  0C:51A7    A$dm9000$1685
  0C:51A9    A$dm9000$1686
  0C:51AA    A$dm9000$1687
  0C:51AB    A$dm9000$1688
  0C:51AE    A$dm9000$1689
  0C:51B1    A$dm9000$1692
  0C:51B1    C$dm9000.c$199$1$1
  0C:51B4    A$dm9000$1693
  0C:51B6    A$dm9000$1694
  0C:51B7    A$dm9000$1695
  0C:51B8    A$dm9000$1696
  0C:51BB    A$dm9000$1697
  0C:51BE    A$dm9000$1700
  0C:51BE    C$dm9000.c$200$1$1
  0C:51C1    A$dm9000$1701
  0C:51C3    A$dm9000$1702
  0C:51C4    A$dm9000$1703
  0C:51C5    A$dm9000$1704
  0C:51C8    A$dm9000$1705
  0C:51CB    A$dm9000$1708
  0C:51CB    C$dm9000.c$201$1$1
  0C:51CE    A$dm9000$1709
  0C:51D0    A$dm9000$1710
  0C:51D1    A$dm9000$1711
  0C:51D2    A$dm9000$1712
  0C:51D5    A$dm9000$1713
  0C:51D8    A$dm9000$1716
  0C:51D8    C$dm9000.c$202$1$1
  0C:51DB    A$dm9000$1717
  0C:51DD    A$dm9000$1718
  0C:51DE    A$dm9000$1719
  0C:51DF    A$dm9000$1720
  0C:51E2    A$dm9000$1721
  0C:51E5    A$dm9000$1724
  0C:51E5    C$dm9000.c$205$1$1
  0C:51E8    A$dm9000$1725
  0C:51EA    A$dm9000$1726
  0C:51EB    A$dm9000$1727
  0C:51EE    A$dm9000$1728
  0C:51F1    A$dm9000$1731
  0C:51F1    C$dm9000.c$206$1$1
  0C:51F4    A$dm9000$1732
  0C:51F6    A$dm9000$1733
  0C:51F7    A$dm9000$1734
  0C:51FA    A$dm9000$1735
  0C:51FD    A$dm9000$1738
  0C:51FD    C$dm9000.c$207$1$1
  0C:5200    A$dm9000$1739
  0C:5202    A$dm9000$1740
  0C:5203    A$dm9000$1741
  0C:5206    A$dm9000$1742
  0C:5209    A$dm9000$1745
  0C:5209    C$dm9000.c$208$1$1
  0C:520C    A$dm9000$1746
  0C:520E    A$dm9000$1747
  0C:520F    A$dm9000$1748
  0C:5212    A$dm9000$1749
  0C:5215    A$dm9000$1752
  0C:5215    C$dm9000.c$209$1$1
  0C:5218    A$dm9000$1753
  0C:521A    A$dm9000$1754
  0C:521B    A$dm9000$1755
  0C:521E    A$dm9000$1756
  0C:5221    A$dm9000$1759
  0C:5221    C$dm9000.c$210$1$1
  0C:5224    A$dm9000$1760
  0C:5226    A$dm9000$1761
  0C:5227    A$dm9000$1762
  0C:522A    A$dm9000$1763
  0C:522D    A$dm9000$1766
  0C:522D    C$dm9000.c$211$1$1
  0C:5230    A$dm9000$1767
  0C:5232    A$dm9000$1768
  0C:5233    A$dm9000$1769
  0C:5236    A$dm9000$1770
  0C:5239    A$dm9000$1773
  0C:5239    C$dm9000.c$212$1$1
  0C:523C    A$dm9000$1774
  0C:523E    A$dm9000$1775
  0C:523F    A$dm9000$1776
  0C:5242    A$dm9000$1777
  0C:5245    A$dm9000$1780
  0C:5245    C$dm9000.c$223$1$1
  0C:5248    A$dm9000$1781
  0C:524A    A$dm9000$1782
  0C:524B    A$dm9000$1783
  0C:524E    A$dm9000$1784
  0C:5251    A$dm9000$1787
  0C:5251    C$dm9000.c$238$1$1
  0C:5254    A$dm9000$1788
  0C:5256    A$dm9000$1789
  0C:5257    A$dm9000$1790
  0C:525A    A$dm9000$1791
  0C:525D    A$dm9000$1794
  0C:525D    C$dm9000.c$243$1$1
  0C:5260    A$dm9000$1795
  0C:5263    A$dm9000$1796
  0C:5265    A$dm9000$1797
  0C:5267    A$dm9000$1798
  0C:526A    A$dm9000$1799
  0C:526C    A$dm9000$1800
  0C:526E    A$dm9000$1801
  0C:5271    A$dm9000$1802
  0C:5273    A$dm9000$1803
  0C:5275    A$dm9000$1804
  0C:5277    A$dm9000$1805
  0C:5279    A$dm9000$1806
  0C:527B    A$dm9000$1807
  0C:527C    A$dm9000$1808
  0C:527D    A$dm9000$1809
  0C:527E    A$dm9000$1810
  0C:527F    A$dm9000$1811
  0C:5280    A$dm9000$1812
  0C:5281    A$dm9000$1813
  0C:5284    A$dm9000$1814
  0C:5287    A$dm9000$1815
  0C:5289    A$dm9000$1819
  0C:5289    C$dm9000.c$244$1$1
  0C:528C    A$dm9000$1820
  0C:528D    A$dm9000$1824
  0C:528D    C$dm9000.c$246$1$1
  0C:5290    A$dm9000$1825
  0C:5293    A$dm9000$1826
  0C:5295    A$dm9000$1827
  0C:5297    A$dm9000$1828
  0C:529A    A$dm9000$1829
  0C:529C    A$dm9000$1830
  0C:529E    A$dm9000$1831
  0C:52A1    A$dm9000$1832
  0C:52A3    A$dm9000$1833
  0C:52A5    A$dm9000$1834
  0C:52A7    A$dm9000$1835
  0C:52A9    A$dm9000$1836
  0C:52AB    A$dm9000$1837
  0C:52AC    A$dm9000$1838
  0C:52AD    A$dm9000$1839
  0C:52AE    A$dm9000$1840
  0C:52AF    A$dm9000$1841
  0C:52B0    A$dm9000$1842
  0C:52B1    A$dm9000$1843
  0C:52B4    A$dm9000$1844
  0C:52B7    A$dm9000$1845
  0C:52B9    A$dm9000$1849
  0C:52B9    C$dm9000.c$247$1$1
  0C:52BC    A$dm9000$1850
  0C:52BD    A$dm9000$1854
  0C:52BD    C$dm9000.c$249$1$1
  0C:52BF    A$dm9000$1855
  0C:52C0    A$dm9000$1856
  0C:52C1    A$dm9000$1857
  0C:52C2    A$dm9000$1858
  0C:52C3    A$dm9000$1861
  0C:52C3    C$dm9000.c$251$1$1
  0C:52C6    A$dm9000$1864
  0C:52C6    C$dm9000.c$252$1$1
  0C:52C6    XG$InitDM9000$0$0
  0C:52C7    A$dm9000$1881
  0C:52C7    C$dm9000.c$265$1$1
  0C:52C7    C$dm9000.c$274$1$1
  0C:52C7    G$DM9000_receive$0$0
  0C:52C7    _DM9000_receive
  0C:52CA    A$dm9000$1882
  0C:52CD    A$dm9000$1885
  0C:52CD    C$dm9000.c$276$1$1
  0C:52D0    A$dm9000$1886
  0C:52D2    A$dm9000$1887
  0C:52D3    A$dm9000$1888
  0C:52D4    A$dm9000$1889
  0C:52D7    A$dm9000$1890
  0C:52DA    A$dm9000$1894
  0C:52DA    C$dm9000.c$281$2$2
  0C:52DD    A$dm9000$1895
  0C:52E0    A$dm9000$1898
  0C:52E0    C$dm9000.c$285$2$2
  0C:52E3    A$dm9000$1899
  0C:52E6    A$dm9000$1902
  0C:52E6    C$dm9000.c$288$2$2
  0C:52E9    A$dm9000$1903
  0C:52EB    A$dm9000$1904
  0C:52ED    A$dm9000$1905
  0C:52EF    A$dm9000$1906
  0C:52F1    A$dm9000$1907
  0C:52F4    A$dm9000$1908
  0C:52F6    A$dm9000$1909
  0C:52F8    A$dm9000$1910
  0C:52FA    A$dm9000$1911
  0C:52FC    A$dm9000$1912
  0C:52FE    A$dm9000$1913
  0C:52FF    A$dm9000$1914
  0C:5300    A$dm9000$1915
  0C:5301    A$dm9000$1916
  0C:5302    A$dm9000$1917
  0C:5303    A$dm9000$1918
  0C:5304    A$dm9000$1919
  0C:5306    A$dm9000$1920
  0C:5308    A$dm9000$1921
  0C:5309    A$dm9000$1922
  0C:530B    A$dm9000$1925
  0C:530B    C$dm9000.c$291$1$1
  0C:530D    A$dm9000$1926
  0C:530F    A$dm9000$1928
  0C:5311    A$dm9000$1929
  0C:5313    A$dm9000$1930
  0C:5315    A$dm9000$1931
  0C:5316    A$dm9000$1932
  0C:5317    A$dm9000$1933
  0C:5318    A$dm9000$1934
  0C:5319    A$dm9000$1935
  0C:531A    A$dm9000$1936
  0C:531B    A$dm9000$1937
  0C:531D    A$dm9000$1940
  0C:531D    C$dm9000.c$293$3$3
  0C:531E    A$dm9000$1941
  0C:5320    A$dm9000$1942
  0C:5321    A$dm9000$1943
  0C:5322    A$dm9000$1944
  0C:5324    A$dm9000$1945
  0C:5325    A$dm9000$1946
  0C:5327    A$dm9000$1947
  0C:5329    A$dm9000$1948
  0C:532B    A$dm9000$1949
  0C:532D    A$dm9000$1950
  0C:5330    A$dm9000$1951
  0C:5332    A$dm9000$1952
  0C:5334    A$dm9000$1953
  0C:5336    A$dm9000$1954
  0C:5338    A$dm9000$1955
  0C:533A    A$dm9000$1956
  0C:533C    A$dm9000$1957
  0C:533E    A$dm9000$1958
  0C:533F    A$dm9000$1959
  0C:5340    A$dm9000$1962
  0C:5340    C$dm9000.c$291$2$2
  0C:5341    A$dm9000$1963
  0C:5344    A$dm9000$1964
  0C:5345    A$dm9000$1965
  0C:5347    A$dm9000$1969
  0C:5347    C$dm9000.c$295$2$2
  0C:534A    A$dm9000$1970
  0C:534C    A$dm9000$1971
  0C:534D    A$dm9000$1972
  0C:5350    A$dm9000$1973
  0C:5353    A$dm9000$1976
  0C:5353    C$dm9000.c$296$2$2
  0C:5355    A$dm9000$1977
  0C:5357    A$dm9000$1978
  0C:5358    A$dm9000$1979
  0C:535A    A$dm9000$1980
  0C:535B    A$dm9000$1984
  0C:535B    C$dm9000.c$299$1$1
  0C:535C    A$dm9000$1985
  0C:535E    A$dm9000$1988
  0C:535E    C$dm9000.c$301$2$4
  0C:5361    A$dm9000$1989
  0C:5363    A$dm9000$1990
  0C:5364    A$dm9000$1991
  0C:5367    A$dm9000$1992
  0C:536A    A$dm9000$1995
  0C:536A    C$dm9000.c$302$2$4
  0C:536D    A$dm9000$1996
  0C:536F    A$dm9000$1997
  0C:5370    A$dm9000$1998
  0C:5373    A$dm9000$1999
  0C:5376    A$dm9000$2002
  0C:5376    C$dm9000.c$303$2$4
  0C:5379    A$dm9000$2003
  0C:537A    A$dm9000$2004
  0C:537B    A$dm9000$2005
  0C:537E    A$dm9000$2006
  0C:5381    A$dm9000$2009
  0C:5381    C$dm9000.c$305$2$4
  0C:5384    A$dm9000$2012
  0C:5384    C$dm9000.c$306$2$4
  0C:5387    A$dm9000$2013
  0C:5388    A$dm9000$2017
  0C:5388    C$dm9000.c$308$1$1
  0C:538B    A$dm9000$2018
  0C:538D    A$dm9000$2019
  0C:538E    A$dm9000$2020
  0C:5391    A$dm9000$2021
  0C:5394    A$dm9000$2024
  0C:5394    C$dm9000.c$310$1$1
  0C:5397    A$dm9000$2027
  0C:5397    C$dm9000.c$311$1$1
  0C:5397    XG$DM9000_receive$0$0
  0C:5398    A$dm9000$2043
  0C:5398    C$dm9000.c$328$1$1
  0C:5398    C$dm9000.c$330$1$1
  0C:5398    C$dm9000.c$331$1$1
  0C:5398    G$tcpip_output$0$0
  0C:5398    XG$tcpip_output$0$0
  0C:5398    _tcpip_output
  0C:539B    A$dm9000$2062
  0C:539B    C$dm9000.c$332$1$1
  0C:539B    C$dm9000.c$339$1$1
  0C:539B    G$DM9000_transmit$0$0
  0C:539B    _DM9000_transmit
  0C:539E    A$dm9000$2063
  0C:53A1    A$dm9000$2064
  0C:53A3    A$dm9000$2065
  0C:53A6    A$dm9000$2068
  0C:53A6    C$dm9000.c$343$1$1
  0C:53A9    A$dm9000$2069
  0C:53AB    A$dm9000$2070
  0C:53AC    A$dm9000$2071
  0C:53AF    A$dm9000$2072
  0C:53B2    A$dm9000$2075
  0C:53B2    C$dm9000.c$346$1$1
  0C:53B5    A$dm9000$2076
  0C:53B8    A$dm9000$2081
  0C:53B8    C$dm9000.c$350$1$1
  0C:53B8    C$dm9000.c$356$1$1
  0C:53BB    A$dm9000$2082
  0C:53BC    A$dm9000$2083
  0C:53BD    A$dm9000$2084
  0C:53C0    A$dm9000$2087
  0C:53C0    C$dm9000.c$357$1$1
  0C:53C3    A$dm9000$2088
  0C:53C4    A$dm9000$2089
  0C:53C5    A$dm9000$2090
  0C:53C7    A$dm9000$2091
  0C:53C9    A$dm9000$2092
  0C:53CB    A$dm9000$2093
  0C:53CC    A$dm9000$2094
  0C:53CD    A$dm9000$2095
  0C:53CF    A$dm9000$2096
  0C:53D0    A$dm9000$2097
  0C:53D2    A$dm9000$2098
  0C:53D3    A$dm9000$2099
  0C:53D4    A$dm9000$2100
  0C:53D5    A$dm9000$2101
  0C:53D7    A$dm9000$2102
  0C:53D8    A$dm9000$2103
  0C:53D9    A$dm9000$2104
  0C:53DA    A$dm9000$2105
  0C:53DC    A$dm9000$2106
  0C:53DD    A$dm9000$2107
  0C:53DE    A$dm9000$2108
  0C:53DF    A$dm9000$2109
  0C:53E0    A$dm9000$2110
  0C:53E1    A$dm9000$2111
  0C:53E3    A$dm9000$2115
  0C:53E3    C$dm9000.c$358$1$1
  0C:53E6    A$dm9000$2118
  0C:53E6    C$dm9000.c$359$1$1
  0C:53E8    A$dm9000$2119
  0C:53EA    A$dm9000$2120
  0C:53EC    A$dm9000$2124
  0C:53EC    C$dm9000.c$360$1$1
  0C:53EF    A$dm9000$2127
  0C:53EF    C$dm9000.c$361$1$1
  0C:53F1    A$dm9000$2128
  0C:53F3    A$dm9000$2129
  0C:53F5    A$dm9000$2133
  0C:53F5    C$dm9000.c$363$1$1
  0C:53F7    A$dm9000$2134
  0C:53F9    A$dm9000$2138
  0C:53FB    A$dm9000$2139
  0C:53FD    A$dm9000$2140
  0C:53FF    A$dm9000$2141
  0C:5401    A$dm9000$2142
  0C:5402    A$dm9000$2143
  0C:5403    A$dm9000$2144
  0C:5404    A$dm9000$2145
  0C:5405    A$dm9000$2147
  0C:5407    A$dm9000$2148
  0C:5408    A$dm9000$2149
  0C:5409    A$dm9000$2150
  0C:540A    A$dm9000$2151
  0C:540B    A$dm9000$2152
  0C:540C    A$dm9000$2153
  0C:540D    A$dm9000$2154
  0C:540F    A$dm9000$2157
  0C:540F    C$dm9000.c$367$2$2
  0C:5411    A$dm9000$2158
  0C:5413    A$dm9000$2159
  0C:5415    A$dm9000$2160
  0C:5418    A$dm9000$2161
  0C:5419    A$dm9000$2162
  0C:541A    A$dm9000$2163
  0C:541C    A$dm9000$2164
  0C:541E    A$dm9000$2165
  0C:5420    A$dm9000$2166
  0C:5422    A$dm9000$2167
  0C:5424    A$dm9000$2168
  0C:5426    A$dm9000$2169
  0C:5428    A$dm9000$2170
  0C:542A    A$dm9000$2171
  0C:542D    A$dm9000$2172
  0C:542F    A$dm9000$2173
  0C:5431    A$dm9000$2174
  0C:5433    A$dm9000$2175
  0C:5435    A$dm9000$2176
  0C:5437    A$dm9000$2179
  0C:5437    C$dm9000.c$365$1$1
  0C:5439    A$dm9000$2180
  0C:543A    A$dm9000$2181
  0C:543D    A$dm9000$2182
  0C:543E    A$dm9000$2183
  0C:543F    A$dm9000$2184
  0C:5441    A$dm9000$2186
  0C:5443    A$dm9000$2187
  0C:5445    A$dm9000$2188
  0C:5446    A$dm9000$2189
  0C:5448    A$dm9000$2192
  0C:5448    C$dm9000.c$372$1$1
  0C:544B    A$dm9000$2193
  0C:544C    A$dm9000$2194
  0C:544D    A$dm9000$2195
  0C:544E    A$dm9000$2196
  0C:544F    A$dm9000$2197
  0C:5450    A$dm9000$2198
  0C:5452    A$dm9000$2199
  0C:5453    A$dm9000$2200
  0C:5454    A$dm9000$2201
  0C:5455    A$dm9000$2202
  0C:5456    A$dm9000$2203
  0C:5457    A$dm9000$2204
  0C:5458    A$dm9000$2205
  0C:545A    A$dm9000$2206
  0C:545D    A$dm9000$2207
  0C:5460    A$dm9000$2208
  0C:5462    A$dm9000$2212
  0C:5465    A$dm9000$2213
  0C:5466    A$dm9000$2214
  0C:5467    A$dm9000$2215
  0C:5468    A$dm9000$2216
  0C:5469    A$dm9000$2217
  0C:546A    A$dm9000$2218
  0C:546B    A$dm9000$2219
  0C:546C    A$dm9000$2220
  0C:546D    A$dm9000$2221
  0C:546F    A$dm9000$2222
  0C:5471    A$dm9000$2223
  0C:5473    A$dm9000$2224
  0C:5475    A$dm9000$2225
  0C:5477    A$dm9000$2226
  0C:5478    A$dm9000$2227
  0C:547A    A$dm9000$2229
  0C:547D    A$dm9000$2230
  0C:547E    A$dm9000$2231
  0C:547F    A$dm9000$2232
  0C:5480    A$dm9000$2233
  0C:5481    A$dm9000$2234
  0C:5482    A$dm9000$2235
  0C:5483    A$dm9000$2236
  0C:5484    A$dm9000$2237
  0C:5485    A$dm9000$2238
  0C:5486    A$dm9000$2239
  0C:5487    A$dm9000$2240
  0C:5489    A$dm9000$2243
  0C:5489    C$dm9000.c$376$3$4
  0C:548C    A$dm9000$2244
  0C:548F    A$dm9000$2245
  0C:5492    A$dm9000$2246
  0C:5495    A$dm9000$2247
  0C:5496    A$dm9000$2248
  0C:5497    A$dm9000$2249
  0C:549A    A$dm9000$2250
  0C:549D    A$dm9000$2251
  0C:549F    A$dm9000$2252
  0C:54A1    A$dm9000$2253
  0C:54A3    A$dm9000$2254
  0C:54A6    A$dm9000$2255
  0C:54A8    A$dm9000$2256
  0C:54AA    A$dm9000$2259
  0C:54AA    C$dm9000.c$374$2$3
  0C:54AB    A$dm9000$2260
  0C:54AE    A$dm9000$2261
  0C:54AF    A$dm9000$2262
  0C:54B1    A$dm9000$2264
  0C:54B3    A$dm9000$2265
  0C:54B5    A$dm9000$2269
  0C:54B5    C$dm9000.c$382$1$1
  0C:54B8    A$dm9000$2270
  0C:54B9    A$dm9000$2271
  0C:54BA    A$dm9000$2272
  0C:54BD    A$dm9000$2273
  0C:54BF    A$dm9000$2274
  0C:54C1    A$dm9000$2275
  0C:54C4    A$dm9000$2276
  0C:54C6    A$dm9000$2277
  0C:54C8    A$dm9000$2280
  0C:54C8    C$dm9000.c$384$1$1
  0C:54CB    A$dm9000$2281
  0C:54CC    A$dm9000$2282
  0C:54CD    A$dm9000$2283
  0C:54D0    A$dm9000$2284
  0C:54D3    A$dm9000$2287
  0C:54D3    C$dm9000.c$388$1$1
  0C:54D6    A$dm9000$2288
  0C:54D8    A$dm9000$2289
  0C:54D9    A$dm9000$2290
  0C:54DC    A$dm9000$2293
  0C:54DC    C$dm9000.c$389$1$1
  0C:54DC    XG$DM9000_transmit$0$0
  0C:54DF    A$fan_heater$1261
  0C:54DF    C$fan_heater.c$37$0$0
  0C:54DF    G$start_power_counter$0$0
  0C:54DF    _start_power_counter
  0C:54E1    A$fan_heater$1262
  0C:54E3    A$fan_heater$1263
  0C:54E5    A$fan_heater$1266
  0C:54E5    C$fan_heater.c$41$1$1
  0C:54E7    A$fan_heater$1267
  0C:54E9    A$fan_heater$1268
  0C:54EB    A$fan_heater$1269
  0C:54EE    A$fan_heater$1270
  0C:54F0    A$fan_heater$1271
  0C:54F2    A$fan_heater$1272
  0C:54F4    A$fan_heater$1273
  0C:54F5    A$fan_heater$1274
  0C:54F7    A$fan_heater$1275
  0C:54F9    A$fan_heater$1276
  0C:54FB    A$fan_heater$1277
  0C:54FD    A$fan_heater$1278
  0C:54FF    A$fan_heater$1279
  0C:5501    A$fan_heater$1280
  0C:5502    A$fan_heater$1281
  0C:5505    A$fan_heater$1282
  0C:5506    A$fan_heater$1283
  0C:5507    A$fan_heater$1284
  0C:550A    A$fan_heater$1285
  0C:550B    A$fan_heater$1286
  0C:550C    A$fan_heater$1287
  0C:550F    A$fan_heater$1288
  0C:5510    A$fan_heater$1289
  0C:5511    A$fan_heater$1292
  0C:5511    C$fan_heater.c$42$1$1
  0C:5511    XG$start_power_counter$0$0
  0C:5514    A$fan_heater$1308
  0C:5514    C$fan_heater.c$44$1$1
  0C:5514    G$stop_power_counter$0$0
  0C:5514    _stop_power_counter
  0C:5516    A$fan_heater$1309
  0C:5518    A$fan_heater$1310
  0C:551A    A$fan_heater$1311
  0C:551C    A$fan_heater$1312
  0C:551E    A$fan_heater$1313
  0C:5520    A$fan_heater$1314
  0C:5522    A$fan_heater$1315
  0C:5524    A$fan_heater$1318
  0C:5524    C$fan_heater.c$48$1$1
  0C:5526    A$fan_heater$1319
  0C:5528    A$fan_heater$1320
  0C:5529    A$fan_heater$1321
  0C:552B    A$fan_heater$1322
  0C:552C    A$fan_heater$1323
  0C:552D    A$fan_heater$1324
  0C:552E    A$fan_heater$1325
  0C:552F    A$fan_heater$1326
  0C:5530    A$fan_heater$1327
  0C:5531    A$fan_heater$1328
  0C:5532    A$fan_heater$1329
  0C:5534    A$fan_heater$1330
  0C:5536    A$fan_heater$1331
  0C:5538    A$fan_heater$1332
  0C:5539    A$fan_heater$1333
  0C:553B    A$fan_heater$1334
  0C:553C    A$fan_heater$1335
  0C:553E    A$fan_heater$1336
  0C:553F    A$fan_heater$1337
  0C:5541    A$fan_heater$1338
  0C:5543    A$fan_heater$1339
  0C:5544    A$fan_heater$1340
  0C:5547    A$fan_heater$1341
  0C:5548    A$fan_heater$1342
  0C:5549    A$fan_heater$1343
  0C:554C    A$fan_heater$1344
  0C:554D    A$fan_heater$1345
  0C:554E    A$fan_heater$1346
  0C:554F    A$fan_heater$1347
  0C:5552    A$fan_heater$1348
  0C:5553    A$fan_heater$1349
  0C:5554    A$fan_heater$1350
  0C:5555    A$fan_heater$1351
  0C:5558    A$fan_heater$1352
  0C:5559    A$fan_heater$1353
  0C:555A    A$fan_heater$1354
  0C:555C    A$fan_heater$1355
  0C:555E    A$fan_heater$1356
  0C:5560    A$fan_heater$1357
  0C:5563    A$fan_heater$1358
  0C:5565    A$fan_heater$1359
  0C:5567    A$fan_heater$1360
  0C:5569    A$fan_heater$1361
  0C:556A    A$fan_heater$1362
  0C:556C    A$fan_heater$1363
  0C:556E    A$fan_heater$1364
  0C:556F    A$fan_heater$1365
  0C:5571    A$fan_heater$1366
  0C:5572    A$fan_heater$1367
  0C:5574    A$fan_heater$1368
  0C:5575    A$fan_heater$1369
  0C:5576    A$fan_heater$1370
  0C:5578    A$fan_heater$1371
  0C:557A    A$fan_heater$1372
  0C:557C    A$fan_heater$1373
  0C:557E    A$fan_heater$1374
  0C:5580    A$fan_heater$1375
  0C:5582    A$fan_heater$1376
  0C:5585    A$fan_heater$1377
  0C:5586    A$fan_heater$1378
  0C:5587    A$fan_heater$1379
  0C:558A    A$fan_heater$1380
  0C:558B    A$fan_heater$1381
  0C:558C    A$fan_heater$1382
  0C:558F    A$fan_heater$1383
  0C:5590    A$fan_heater$1384
  0C:5591    A$fan_heater$1385
  0C:5594    A$fan_heater$1386
  0C:5595    A$fan_heater$1387
  0C:5597    A$fan_heater$1388
  0C:5599    A$fan_heater$1389
  0C:559A    A$fan_heater$1390
  0C:559B    A$fan_heater$1391
  0C:559C    A$fan_heater$1392
  0C:559D    A$fan_heater$1393
  0C:559E    A$fan_heater$1394
  0C:559F    A$fan_heater$1395
  0C:55A0    A$fan_heater$1396
  0C:55A1    A$fan_heater$1397
  0C:55A2    A$fan_heater$1398
  0C:55A3    A$fan_heater$1399
  0C:55A4    A$fan_heater$1400
  0C:55A5    A$fan_heater$1401
  0C:55A6    A$fan_heater$1402
  0C:55A7    A$fan_heater$1403
  0C:55A8    A$fan_heater$1404
  0C:55A9    A$fan_heater$1405
  0C:55AA    A$fan_heater$1406
  0C:55AC    A$fan_heater$1407
  0C:55AD    A$fan_heater$1408
  0C:55AE    A$fan_heater$1409
  0C:55AF    A$fan_heater$1410
  0C:55B0    A$fan_heater$1411
  0C:55B1    A$fan_heater$1412
  0C:55B2    A$fan_heater$1413
  0C:55B3    A$fan_heater$1414
  0C:55B4    A$fan_heater$1415
  0C:55B5    A$fan_heater$1416
  0C:55B6    A$fan_heater$1417
  0C:55B7    A$fan_heater$1418
  0C:55B8    A$fan_heater$1419
  0C:55B9    A$fan_heater$1420
  0C:55BA    A$fan_heater$1421
  0C:55BB    A$fan_heater$1422
  0C:55BC    A$fan_heater$1423
  0C:55BE    A$fan_heater$1424
  0C:55C0    A$fan_heater$1425
  0C:55C1    A$fan_heater$1426
  0C:55C3    A$fan_heater$1427
  0C:55C4    A$fan_heater$1428
  0C:55C6    A$fan_heater$1429
  0C:55C7    A$fan_heater$1430
  0C:55C9    A$fan_heater$1431
  0C:55CA    A$fan_heater$1432
  0C:55CD    A$fan_heater$1433
  0C:55CE    A$fan_heater$1434
  0C:55CF    A$fan_heater$1435
  0C:55D2    A$fan_heater$1436
  0C:55D3    A$fan_heater$1437
  0C:55D4    A$fan_heater$1438
  0C:55D7    A$fan_heater$1439
  0C:55D8    A$fan_heater$1440
  0C:55D9    A$fan_heater$1441
  0C:55DC    A$fan_heater$1442
  0C:55DF    A$fan_heater$1443
  0C:55E1    A$fan_heater$1446
  0C:55E1    C$fan_heater.c$49$1$1
  0C:55E1    XG$stop_power_counter$0$0
  0C:55E2    A$fan_heater$1460
  0C:55E2    C$fan_heater.c$51$1$1
  0C:55E2    G$set_heater$0$0
  0C:55E2    _set_heater
  0C:55E4    A$fan_heater$1461
  0C:55E7    A$fan_heater$1462
  0C:55E9    A$fan_heater$1463
  0C:55EB    A$fan_heater$1464
  0C:55ED    A$fan_heater$1467
  0C:55ED    C$fan_heater.c$53$1$1
  0C:55EF    A$fan_heater$1468
  0C:55F0    A$fan_heater$1469
  0C:55F1    A$fan_heater$1470
  0C:55F2    A$fan_heater$1471
  0C:55F3    A$fan_heater$1472
  0C:55F4    A$fan_heater$1473
  0C:55F6    A$fan_heater$1474
  0C:55F8    A$fan_heater$1475
  0C:55FA    A$fan_heater$1476
  0C:55FC    A$fan_heater$1477
  0C:55FE    A$fan_heater$1478
  0C:55FF    A$fan_heater$1479
  0C:5600    A$fan_heater$1480
  0C:5601    A$fan_heater$1481
  0C:5602    A$fan_heater$1482
  0C:5605    A$fan_heater$1485
  0C:5605    C$fan_heater.c$54$1$1
  0C:5607    A$fan_heater$1486
  0C:5608    A$fan_heater$1487
  0C:5609    A$fan_heater$1488
  0C:560A    A$fan_heater$1489
  0C:560D    A$fan_heater$1492
  0C:560D    C$fan_heater.c$55$2$2
  0C:560F    A$fan_heater$1495
  0C:560F    C$fan_heater.c$56$2$2
  0C:5611    A$fan_heater$1496
  0C:5612    A$fan_heater$1497
  0C:5613    A$fan_heater$1498
  0C:5614    A$fan_heater$1499
  0C:5615    A$fan_heater$1500
  0C:5616    A$fan_heater$1501
  0C:5618    A$fan_heater$1502
  0C:561A    A$fan_heater$1503
  0C:561C    A$fan_heater$1504
  0C:561E    A$fan_heater$1505
  0C:5621    A$fan_heater$1506
  0C:5623    A$fan_heater$1510
  0C:5623    C$fan_heater.c$58$2$3
  0C:5625    A$fan_heater$1513
  0C:5625    C$fan_heater.c$59$2$3
  0C:5627    A$fan_heater$1514
  0C:5628    A$fan_heater$1515
  0C:5629    A$fan_heater$1516
  0C:562A    A$fan_heater$1517
  0C:562B    A$fan_heater$1518
  0C:562C    A$fan_heater$1519
  0C:562E    A$fan_heater$1520
  0C:5630    A$fan_heater$1521
  0C:5632    A$fan_heater$1522
  0C:5635    A$fan_heater$1524
  0C:5637    A$fan_heater$1527
  0C:5637    C$fan_heater.c$61$1$1
  0C:5637    XG$set_heater$0$0
  0C:5638    A$fan_heater$1541
  0C:5638    C$fan_heater.c$63$1$1
  0C:5638    G$set_fan$0$0
  0C:5638    _set_fan
  0C:563A    A$fan_heater$1542
  0C:563D    A$fan_heater$1543
  0C:563F    A$fan_heater$1544
  0C:5641    A$fan_heater$1545
  0C:5643    A$fan_heater$1548
  0C:5643    C$fan_heater.c$65$1$1
  0C:5645    A$fan_heater$1549
  0C:5646    A$fan_heater$1550
  0C:5647    A$fan_heater$1551
  0C:5648    A$fan_heater$1552
  0C:5649    A$fan_heater$1553
  0C:564A    A$fan_heater$1554
  0C:564C    A$fan_heater$1555
  0C:564E    A$fan_heater$1556
  0C:5650    A$fan_heater$1557
  0C:5652    A$fan_heater$1558
  0C:5654    A$fan_heater$1559
  0C:5655    A$fan_heater$1560
  0C:5656    A$fan_heater$1561
  0C:5657    A$fan_heater$1562
  0C:5658    A$fan_heater$1563
  0C:565B    A$fan_heater$1566
  0C:565B    C$fan_heater.c$66$1$1
  0C:565D    A$fan_heater$1567
  0C:565E    A$fan_heater$1568
  0C:565F    A$fan_heater$1569
  0C:5660    A$fan_heater$1570
  0C:5663    A$fan_heater$1573
  0C:5663    C$fan_heater.c$67$2$2
  0C:5665    A$fan_heater$1576
  0C:5665    C$fan_heater.c$68$2$2
  0C:5667    A$fan_heater$1577
  0C:5668    A$fan_heater$1578
  0C:5669    A$fan_heater$1579
  0C:566A    A$fan_heater$1580
  0C:566B    A$fan_heater$1581
  0C:566C    A$fan_heater$1582
  0C:566E    A$fan_heater$1583
  0C:5670    A$fan_heater$1584
  0C:5672    A$fan_heater$1585
  0C:5674    A$fan_heater$1586
  0C:5677    A$fan_heater$1587
  0C:5679    A$fan_heater$1591
  0C:5679    C$fan_heater.c$70$2$3
  0C:567B    A$fan_heater$1594
  0C:567B    C$fan_heater.c$71$2$3
  0C:567D    A$fan_heater$1595
  0C:567E    A$fan_heater$1596
  0C:567F    A$fan_heater$1597
  0C:5680    A$fan_heater$1598
  0C:5681    A$fan_heater$1599
  0C:5682    A$fan_heater$1600
  0C:5684    A$fan_heater$1601
  0C:5686    A$fan_heater$1602
  0C:5688    A$fan_heater$1603
  0C:568B    A$fan_heater$1605
  0C:568D    A$fan_heater$1608
  0C:568D    C$fan_heater.c$73$1$1
  0C:568D    XG$set_fan$0$0
  0C:568E    A$CUart$1270
  0C:568E    C$CUart.c$63$0$0
  0C:568E    G$CUart_init$0$0
  0C:568E    _CUart_init
  0C:5690    A$CUart$1271
  0C:5693    A$CUart$1272
  0C:5695    A$CUart$1275
  0C:5695    C$CUart.c$65$1$1
  0C:5697    A$CUart$1276
  0C:5698    A$CUart$1277
  0C:5699    A$CUart$1278
  0C:569A    A$CUart$1279
  0C:569D    A$CUart$1282
  0C:569D    C$CUart.c$67$2$2
  0C:56A0    A$CUart$1285
  0C:56A0    C$CUart.c$69$2$2
  0C:56A1    A$CUart$1286
  0C:56A3    A$CUart$1287
  0C:56A6    A$CUart$1289
  0C:56A8    A$CUart$1293
  0C:56A8    C$CUart.c$70$2$2
  0C:56AB    A$CUart$1294
  0C:56AD    A$CUart$1298
  0C:56AD    C$CUart.c$71$2$2
  0C:56B0    A$CUart$1301
  0C:56B0    C$CUart.c$72$2$2
  0C:56B1    A$CUart$1302
  0C:56B2    A$CUart$1303
  0C:56B5    A$CUart$1304
  0C:56B6    A$CUart$1305
  0C:56B8    A$CUart$1308
  0C:56B8    C$CUart.c$73$2$2
  0C:56BB    A$CUart$1311
  0C:56BB    C$CUart.c$74$2$2
  0C:56BD    A$CUart$1314
  0C:56BD    C$CUart.c$77$2$2
  0C:56C0    A$CUart$1317
  0C:56C0    C$CUart.c$78$2$2
  0C:56C3    A$CUart$1320
  0C:56C3    C$CUart.c$79$2$2
  0C:56C6    A$CUart$1323
  0C:56C6    C$CUart.c$84$2$2
  0C:56C8    A$CUart$1326
  0C:56C8    C$CUart.c$86$2$2
  0C:56CB    A$CUart$1329
  0C:56CB    C$CUart.c$88$2$2
  0C:56CE    A$CUart$1330
  0C:56D0    A$CUart$1334
  0C:56D0    C$CUart.c$91$2$3
  0C:56D2    A$CUart$1335
  0C:56D3    A$CUart$1336
  0C:56D4    A$CUart$1337
  0C:56D5    A$CUart$1338
  0C:56D8    A$CUart$1341
  0C:56D8    C$CUart.c$92$3$4
  0C:56DB    A$CUart$1344
  0C:56DB    C$CUart.c$93$3$4
  0C:56DE    A$CUart$1347
  0C:56DE    C$CUart.c$94$3$4
  0C:56E1    A$CUart$1350
  0C:56E1    C$CUart.c$95$3$4
  0C:56E4    A$CUart$1353
  0C:56E4    C$CUart.c$96$3$4
  0C:56E7    A$CUart$1356
  0C:56E7    C$CUart.c$97$3$4
  0C:56E9    A$CUart$1359
  0C:56E9    C$CUart.c$99$3$4
  0C:56EC    A$CUart$1362
  0C:56EC    C$CUart.c$100$3$4
  0C:56EF    A$CUart$1365
  0C:56EF    C$CUart.c$101$3$4
  0C:56F2    A$CUart$1368
  0C:56F2    C$CUart.c$103$3$4
  0C:56F4    A$CUart$1371
  0C:56F4    C$CUart.c$104$3$4
  0C:56F7    A$CUart$1374
  0C:56F7    C$CUart.c$105$3$4
  0C:56FA    A$CUart$1375
  0C:56FC    A$CUart$1379
  0C:56FC    C$CUart.c$111$1$1
  0C:56FF    A$CUart$1381
  0C:5701    A$CUart$1384
  0C:5701    C$CUart.c$112$1$1
  0C:5701    XG$CUart_init$0$0
  0C:5702    A$CUart$1397
  0C:5702    C$CUart.c$120$1$1
  0C:5702    G$putchar$0$0
  0C:5702    _putchar
  0C:5704    A$CUart$1398
  0C:5707    A$CUart$1399
  0C:5708    A$CUart$1402
  0C:5708    C$CUart.c$123$1$1
  0C:570B    A$CUart$1406
  0C:570B    C$CUart.c$125$1$1
  0C:570E    A$CUart$1409
  0C:570E    C$CUart.c$126$1$1
  0C:5711    A$CUart$1410
  0C:5712    A$CUart$1411
  0C:5714    A$CUart$1414
  0C:5714    C$CUart.c$127$1$1
  0C:5716    A$CUart$1417
  0C:5716    C$CUart.c$129$1$1
  0C:5719    A$CUart$1420
  0C:5719    C$CUart.c$131$1$1
  0C:5719    XG$putchar$0$0
  0C:571A    A$clock-arch$110
  0C:571A    C$clock_arch.c$45$0$0
  0C:571A    C$clock_arch.c$47$1$1
  0C:571A    G$clock_time$0$0
  0C:571A    _clock_time
  0C:571D    A$clock-arch$113
  0C:571D    C$clock_arch.c$48$1$1
  0C:571D    XG$clock_time$0$0
  0C:571E    A$config$1269
  0C:571E    C$config.c$42$0$0
  0C:571E    C$config.c$45$1$0
  0C:571E    C$config.c$48$1$1
  0C:571E    G$config$0$0
  0C:571E    _config
  0C:5721    A$config$1270
  0C:5723    A$config$1271
  0C:5724    A$config$1272
  0C:5725    A$config$1273
  0C:5726    A$config$1274
  0C:5729    A$config$1277
  0C:5729    C$config.c$49$1$1
  0C:572C    A$config$1278
  0C:572D    A$config$1279
  0C:572E    A$config$1280
  0C:5730    A$config$1284
  0C:5730    C$config.c$50$1$1
  0C:5731    A$config$1285
  0C:5734    A$config$1288
  0C:5734    C$config.c$51$1$1
  0C:5737    A$config$1289
  0C:5738    A$config$1290
  0C:5739    A$config$1291
  0C:573C    A$config$1292
  0C:573D    A$config$1293
  0C:573E    A$config$1297
  0C:573E    C$config.c$54$1$1
  0C:5741    A$config$1300
  0C:5741    C$config.c$55$1$1
  0C:5744    A$config$1303
  0C:5744    C$config.c$63$1$1
  0C:5747    A$config$1306
  0C:5747    C$config.c$64$1$1
  0C:574A    A$config$1309
  0C:574A    C$config.c$80$1$1
  0C:574D    A$config$1312
  0C:574D    C$config.c$81$1$1
  0C:5750    A$config$1315
  0C:5750    C$config.c$82$1$1
  0C:5753    A$config$1318
  0C:5753    C$config.c$121$1$1
  0C:5756    A$config$1321
  0C:5756    C$config.c$122$1$1
  0C:5759    A$config$1324
  0C:5759    C$config.c$123$1$1
  0C:575C    A$config$1327
  0C:575C    C$config.c$129$1$1
  0C:575F    A$config$1330
  0C:575F    C$config.c$130$1$1
  0C:5762    A$config$1333
  0C:5762    C$config.c$131$1$1
  0C:5765    A$config$1336
  0C:5765    C$config.c$132$1$1
  0C:5768    A$config$1339
  0C:5768    C$config.c$133$1$1
  0C:576B    A$config$1342
  0C:576B    C$config.c$139$1$1
  0C:576E    A$config$1345
  0C:576E    C$config.c$140$1$1
  0C:5771    A$config$1348
  0C:5771    C$config.c$150$1$1
  0C:5774    A$config$1351
  0C:5774    C$config.c$152$1$1
  0C:5777    A$config$1354
  0C:5777    C$config.c$153$1$1
  0C:577A    A$config$1357
  0C:577A    C$config.c$154$1$1
  0C:577D    A$config$1360
  0C:577D    C$config.c$163$1$1
  0C:5780    A$config$1363
  0C:5780    C$config.c$164$1$1
  0C:5783    A$config$1366
  0C:5783    C$config.c$165$1$1
  0C:5783    XG$config$0$0
  0C:5784    A$Flash_02x$1282
  0C:5784    C$Flash_02x.c$44$0$0
  0C:5784    C$Flash_02x.c$46$1$1
  0C:5784    FFlash_02x$enter_flash_write$0$0
  0C:5786    A$Flash_02x$1285
  0C:5786    C$Flash_02x.c$48$1$1
  0C:5789    A$Flash_02x$1288
  0C:5789    C$Flash_02x.c$49$1$1
  0C:578C    A$Flash_02x$1291
  0C:578C    C$Flash_02x.c$50$1$1
  0C:578F    A$Flash_02x$1294
  0C:578F    C$Flash_02x.c$51$1$1
  0C:578F    XFFlash_02x$enter_flash_write$0$0
  0C:5790    A$Flash_02x$1310
  0C:5790    C$Flash_02x.c$53$1$1
  0C:5790    C$Flash_02x.c$55$1$1
  0C:5790    C$Flash_02x.c$56$1$1
  0C:5790    FFlash_02x$exit_flash_write$0$0
  0C:5793    A$Flash_02x$1313
  0C:5793    C$Flash_02x.c$57$1$1
  0C:5796    A$Flash_02x$1316
  0C:5796    C$Flash_02x.c$59$1$1
  0C:5798    A$Flash_02x$1319
  0C:5798    C$Flash_02x.c$60$1$1
  0C:5798    XFFlash_02x$exit_flash_write$0$0
  0C:5799    A$Flash_02x$1334
  0C:5799    C$Flash_02x.c$62$1$1
  0C:5799    C$Flash_02x.c$66$1$1
  0C:5799    FFlash_02x$erase_config_area$0$0
  0C:579B    A$Flash_02x$1337
  0C:579B    C$Flash_02x.c$68$1$1
  0C:579E    A$Flash_02x$1340
  0C:579E    C$Flash_02x.c$69$1$1
  0C:57A1    A$Flash_02x$1343
  0C:57A1    C$Flash_02x.c$70$1$1
  0C:57A4    A$Flash_02x$1346
  0C:57A4    C$Flash_02x.c$72$1$1
  0C:57A5    A$Flash_02x$1347
  0C:57A7    A$Flash_02x$1348
  0C:57A9    A$Flash_02x$1349
  0C:57AA    A$Flash_02x$1354
  0C:57AA    C$Flash_02x.c$74$1$1
  0C:57AA    C$Flash_02x.c$75$1$1
  0C:57AD    A$Flash_02x$1357
  0C:57AD    C$Flash_02x.c$76$1$1
  0C:57B0    A$Flash_02x$1360
  0C:57B0    C$Flash_02x.c$78$1$1
  0C:57B2    A$Flash_02x$1363
  0C:57B2    C$Flash_02x.c$79$1$1
  0C:57B2    XFFlash_02x$erase_config_area$0$0
  0C:57B3    A$Flash_02x$1378
  0C:57B3    C$Flash_02x.c$81$1$1
  0C:57B3    G$read_flash$0$0
  0C:57B3    _read_flash
  0C:57B5    A$Flash_02x$1379
  0C:57B8    A$Flash_02x$1380
  0C:57B9    A$Flash_02x$1383
  0C:57B9    C$Flash_02x.c$86$1$1
  0C:57BB    A$Flash_02x$1386
  0C:57BB    C$Flash_02x.c$88$1$1
  0C:57BE    A$Flash_02x$1387
  0C:57BF    A$Flash_02x$1388
  0C:57C0    A$Flash_02x$1389
  0C:57C2    A$Flash_02x$1392
  0C:57C2    C$Flash_02x.c$90$1$1
  0C:57C5    A$Flash_02x$1395
  0C:57C5    C$Flash_02x.c$91$1$1
  0C:57C7    A$Flash_02x$1396
  0C:57C9    A$Flash_02x$1397
  0C:57CA    A$Flash_02x$1398
  0C:57CB    A$Flash_02x$1399
  0C:57CC    A$Flash_02x$1402
  0C:57CC    C$Flash_02x.c$92$1$1
  0C:57CF    A$Flash_02x$1405
  0C:57CF    C$Flash_02x.c$94$1$1
  0C:57D1    A$Flash_02x$1408
  0C:57D1    C$Flash_02x.c$96$1$1
  0C:57D3    A$Flash_02x$1411
  0C:57D3    C$Flash_02x.c$97$1$1
  0C:57D3    XG$read_flash$0$0
  0C:57D4    A$Flash_02x$1429
  0C:57D4    C$Flash_02x.c$100$1$1
  0C:57D4    C$Flash_02x.c$104$1$1
  0C:57D4    G$write_config_to_flash$0$0
  0C:57D4    _write_config_to_flash
  0C:57D7    A$Flash_02x$1430
  0C:57D9    A$Flash_02x$1431
  0C:57DA    A$Flash_02x$1432
  0C:57DB    A$Flash_02x$1433
  0C:57DD    A$Flash_02x$1434
  0C:57DE    A$Flash_02x$1437
  0C:57DE    C$Flash_02x.c$116$1$1
  0C:57E1    A$Flash_02x$1440
  0C:57E1    C$Flash_02x.c$117$1$1
  0C:57E4    A$Flash_02x$1443
  0C:57E7    A$Flash_02x$1444
  0C:57E8    A$Flash_02x$1445
  0C:57E9    A$Flash_02x$1446
  0C:57EA    A$Flash_02x$1447
  0C:57EB    A$Flash_02x$1448
  0C:57EC    A$Flash_02x$1449
  0C:57EE    A$Flash_02x$1450
  0C:57F0    A$Flash_02x$1451
  0C:57F2    A$Flash_02x$1452
  0C:57F3    A$Flash_02x$1453
  0C:57F4    A$Flash_02x$1454
  0C:57F5    A$Flash_02x$1455
  0C:57F6    A$Flash_02x$1457
  0C:57F8    A$Flash_02x$1458
  0C:57F9    A$Flash_02x$1459
  0C:57FA    A$Flash_02x$1460
  0C:57FC    A$Flash_02x$1461
  0C:57FD    A$Flash_02x$1462
  0C:57FE    A$Flash_02x$1463
  0C:5800    A$Flash_02x$1464
  0C:5802    A$Flash_02x$1467
  0C:5802    C$Flash_02x.c$122$2$2
  0C:5804    A$Flash_02x$1468
  0C:5806    A$Flash_02x$1469
  0C:5807    A$Flash_02x$1470
  0C:5808    A$Flash_02x$1471
  0C:5809    A$Flash_02x$1472
  0C:580B    A$Flash_02x$1473
  0C:580D    A$Flash_02x$1474
  0C:580F    A$Flash_02x$1475
  0C:5811    A$Flash_02x$1476
  0C:5812    A$Flash_02x$1477
  0C:5813    A$Flash_02x$1478
  0C:5814    A$Flash_02x$1479
  0C:5816    A$Flash_02x$1480
  0C:5818    A$Flash_02x$1483
  0C:5818    C$Flash_02x.c$123$2$2
  0C:581B    A$Flash_02x$1486
  0C:581B    C$Flash_02x.c$120$1$1
  0C:581D    A$Flash_02x$1487
  0C:581E    A$Flash_02x$1488
  0C:5821    A$Flash_02x$1489
  0C:5822    A$Flash_02x$1490
  0C:5823    A$Flash_02x$1491
  0C:5825    A$Flash_02x$1495
  0C:5825    C$Flash_02x.c$126$1$1
  0C:5828    A$Flash_02x$1498
  0C:5828    C$Flash_02x.c$129$1$1
  0C:582B    A$Flash_02x$1499
  0C:582E    A$Flash_02x$1500
  0C:5830    A$Flash_02x$1501
  0C:5832    A$Flash_02x$1504
  0C:5832    C$Flash_02x.c$131$1$1
  0C:5834    A$Flash_02x$1505
  0C:5835    A$Flash_02x$1506
  0C:5836    A$Flash_02x$1507
  0C:5837    A$Flash_02x$1508
  0C:5839    A$Flash_02x$1509
  0C:583A    A$Flash_02x$1510
  0C:583B    A$Flash_02x$1511
  0C:583D    A$Flash_02x$1512
  0C:583F    A$Flash_02x$1515
  0C:583F    C$Flash_02x.c$132$1$1
  0C:583F    XG$write_config_to_flash$0$0
  0C:5842    A$Flash_02x$1529
  0C:5842    C$Flash_02x.c$134$1$1
  0C:5842    FFlash_02x$write_new_verification_word$0$0
  0C:5844    A$Flash_02x$1530
  0C:5846    A$Flash_02x$1531
  0C:5849    A$Flash_02x$1532
  0C:584A    A$Flash_02x$1533
  0C:584B    A$Flash_02x$1534
  0C:584C    A$Flash_02x$1535
  0C:584D    A$Flash_02x$1538
  0C:584D    C$Flash_02x.c$138$1$1
  0C:5850    A$Flash_02x$1541
  0C:5850    C$Flash_02x.c$140$1$1
  0C:5852    A$Flash_02x$1542
  0C:5854    A$Flash_02x$1543
  0C:5857    A$Flash_02x$1544
  0C:5858    A$Flash_02x$1545
  0C:5859    A$Flash_02x$1546
  0C:585A    A$Flash_02x$1547
  0C:585B    A$Flash_02x$1548
  0C:585C    A$Flash_02x$1549
  0C:585E    A$Flash_02x$1550
  0C:5860    A$Flash_02x$1551
  0C:5862    A$Flash_02x$1552
  0C:5863    A$Flash_02x$1553
  0C:5864    A$Flash_02x$1556
  0C:5864    C$Flash_02x.c$141$1$1
  0C:5867    A$Flash_02x$1557
  0C:5868    A$Flash_02x$1558
  0C:586A    A$Flash_02x$1559
  0C:586B    A$Flash_02x$1560
  0C:586C    A$Flash_02x$1565
  0C:586C    C$Flash_02x.c$143$1$1
  0C:586C    C$Flash_02x.c$144$1$1
  0C:586C    XFFlash_02x$write_new_verification_word$0$0
  0C:586F    A$Flash_02x$1581
  0C:586F    C$Flash_02x.c$151$1$1
  0C:586F    FFlash_02x$flash_chksum$0$0
  0C:5871    A$Flash_02x$1582
  0C:5874    A$Flash_02x$1583
  0C:5875    A$Flash_02x$1586
  0C:5875    C$Flash_02x.c$154$1$1
  0C:5878    A$Flash_02x$1587
  0C:5879    A$Flash_02x$1588
  0C:587A    A$Flash_02x$1589
  0C:587B    A$Flash_02x$1590
  0C:587C    A$Flash_02x$1593
  0C:587C    C$Flash_02x.c$157$1$1
  0C:587F    A$Flash_02x$1594
  0C:5880    A$Flash_02x$1595
  0C:5881    A$Flash_02x$1596
  0C:5883    A$Flash_02x$1599
  0C:5883    C$Flash_02x.c$159$2$2
  0C:5886    A$Flash_02x$1600
  0C:5888    A$Flash_02x$1604
  0C:5888    C$Flash_02x.c$160$2$2
  0C:588B    A$Flash_02x$1605
  0C:588D    A$Flash_02x$1606
  0C:588E    A$Flash_02x$1607
  0C:588F    A$Flash_02x$1608
  0C:5890    A$Flash_02x$1609
  0C:5891    A$Flash_02x$1614
  0C:5891    C$Flash_02x.c$161$2$2
  0C:5891    C$Flash_02x.c$163$2$2
  0C:5893    A$Flash_02x$1618
  0C:5893    C$Flash_02x.c$164$2$2
  0C:5896    A$Flash_02x$1619
  0C:5898    A$Flash_02x$1620
  0C:5899    A$Flash_02x$1621
  0C:589A    A$Flash_02x$1622
  0C:589B    A$Flash_02x$1623
  0C:589C    A$Flash_02x$1628
  0C:589C    C$Flash_02x.c$165$2$2
  0C:589C    C$Flash_02x.c$167$2$2
  0C:589E    A$Flash_02x$1632
  0C:589E    C$Flash_02x.c$168$2$2
  0C:58A1    A$Flash_02x$1633
  0C:58A3    A$Flash_02x$1634
  0C:58A4    A$Flash_02x$1635
  0C:58A5    A$Flash_02x$1636
  0C:58A6    A$Flash_02x$1637
  0C:58A7    A$Flash_02x$1641
  0C:58AA    A$Flash_02x$1642
  0C:58AB    A$Flash_02x$1643
  0C:58AC    A$Flash_02x$1644
  0C:58AD    A$Flash_02x$1645
  0C:58AE    A$Flash_02x$1646
  0C:58AF    A$Flash_02x$1647
  0C:58B1    A$Flash_02x$1648
  0C:58B3    A$Flash_02x$1650
  0C:58B4    A$Flash_02x$1651
  0C:58B5    A$Flash_02x$1652
  0C:58B6    A$Flash_02x$1653
  0C:58B7    A$Flash_02x$1654
  0C:58B9    A$Flash_02x$1655
  0C:58BB    A$Flash_02x$1656
  0C:58BE    A$Flash_02x$1657
  0C:58C0    A$Flash_02x$1658
  0C:58C2    A$Flash_02x$1661
  0C:58C2    C$Flash_02x.c$175$2$3
  0C:58C4    A$Flash_02x$1662
  0C:58C6    A$Flash_02x$1663
  0C:58C8    A$Flash_02x$1664
  0C:58CA    A$Flash_02x$1665
  0C:58CC    A$Flash_02x$1666
  0C:58CE    A$Flash_02x$1667
  0C:58D1    A$Flash_02x$1668
  0C:58D3    A$Flash_02x$1669
  0C:58D5    A$Flash_02x$1670
  0C:58D7    A$Flash_02x$1671
  0C:58D9    A$Flash_02x$1672
  0C:58DB    A$Flash_02x$1673
  0C:58DC    A$Flash_02x$1674
  0C:58DE    A$Flash_02x$1675
  0C:58E0    A$Flash_02x$1676
  0C:58E2    A$Flash_02x$1677
  0C:58E4    A$Flash_02x$1678
  0C:58E6    A$Flash_02x$1679
  0C:58E9    A$Flash_02x$1680
  0C:58EB    A$Flash_02x$1681
  0C:58ED    A$Flash_02x$1682
  0C:58EF    A$Flash_02x$1683
  0C:58F1    A$Flash_02x$1684
  0C:58F3    A$Flash_02x$1685
  0C:58F5    A$Flash_02x$1686
  0C:58F7    A$Flash_02x$1687
  0C:58F9    A$Flash_02x$1688
  0C:58FA    A$Flash_02x$1689
  0C:58FB    A$Flash_02x$1690
  0C:58FC    A$Flash_02x$1691
  0C:58FD    A$Flash_02x$1692
  0C:58FE    A$Flash_02x$1693
  0C:58FF    A$Flash_02x$1694
  0C:5902    A$Flash_02x$1695
  0C:5903    A$Flash_02x$1696
  0C:5904    A$Flash_02x$1697
  0C:5905    A$Flash_02x$1698
  0C:5906    A$Flash_02x$1699
  0C:5907    A$Flash_02x$1700
  0C:590A    A$Flash_02x$1701
  0C:590B    A$Flash_02x$1702
  0C:590C    A$Flash_02x$1703
  0C:590D    A$Flash_02x$1704
  0C:590E    A$Flash_02x$1705
  0C:590F    A$Flash_02x$1706
  0C:5910    A$Flash_02x$1707
  0C:5911    A$Flash_02x$1710
  0C:5911    C$Flash_02x.c$173$1$1
  0C:5913    A$Flash_02x$1711
  0C:5914    A$Flash_02x$1712
  0C:5915    A$Flash_02x$1713
  0C:5916    A$Flash_02x$1714
  0C:5917    A$Flash_02x$1715
  0C:5918    A$Flash_02x$1716
  0C:591A    A$Flash_02x$1720
  0C:591A    C$Flash_02x.c$178$1$1
  0C:591D    A$Flash_02x$1721
  0C:591E    A$Flash_02x$1722
  0C:591F    A$Flash_02x$1723
  0C:5920    A$Flash_02x$1724
  0C:5921    A$Flash_02x$1727
  0C:5921    C$Flash_02x.c$179$1$1
  0C:5921    XFFlash_02x$flash_chksum$0$0
  0C:5923    A$Flash_02x$1728
  0C:5925    A$Flash_02x$1729
  0C:5926    A$Flash_02x$1744
  0C:5926    C$Flash_02x.c$194$1$1
  0C:5926    C$Flash_02x.c$200$1$1
  0C:5926    G$validate_config_flash$0$0
  0C:5926    _validate_config_flash
  0C:5929    A$Flash_02x$1745
  0C:592C    A$Flash_02x$1746
  0C:592E    A$Flash_02x$1747
  0C:5930    A$Flash_02x$1750
  0C:5930    C$Flash_02x.c$201$1$1
  0C:5933    A$Flash_02x$1753
  0C:5933    C$Flash_02x.c$205$1$1
  0C:5936    A$Flash_02x$1754
  0C:5939    A$Flash_02x$1755
  0C:593B    A$Flash_02x$1759
  0C:593B    C$Flash_02x.c$210$2$2
  0C:593E    A$Flash_02x$1762
  0C:593E    C$Flash_02x.c$211$2$2
  0C:5941    A$Flash_02x$1765
  0C:5941    C$Flash_02x.c$214$2$2
  0C:5944    A$Flash_02x$1768
  0C:5944    C$Flash_02x.c$215$2$2
  0C:5947    A$Flash_02x$1772
  0C:5947    C$Flash_02x.c$218$1$1
  0C:594A    A$Flash_02x$1775
  0C:594A    C$Flash_02x.c$219$1$1
  0C:594A    XG$validate_config_flash$0$0
  0C:594B    A$parameters$1270
  0C:594B    C$parameters.c$82$0$0
  0C:594B    G$load_sys_config$0$0
  0C:594B    _load_sys_config
  0C:594D    A$parameters$1272
  0C:5950    A$parameters$1274
  0C:5952    A$parameters$1277
  0C:5952    C$parameters.c$90$2$2
  0C:5954    A$parameters$1278
  0C:5956    A$parameters$1279
  0C:5958    A$parameters$1280
  0C:5959    A$parameters$1281
  0C:595A    A$parameters$1282
  0C:595B    A$parameters$1283
  0C:595C    A$parameters$1284
  0C:595D    A$parameters$1285
  0C:595E    A$parameters$1286
  0C:5960    A$parameters$1287
  0C:5962    A$parameters$1288
  0C:5964    A$parameters$1289
  0C:5966    A$parameters$1290
  0C:5968    A$parameters$1291
  0C:596B    A$parameters$1292
  0C:596D    A$parameters$1293
  0C:596F    A$parameters$1294
  0C:5971    A$parameters$1295
  0C:5973    A$parameters$1296
  0C:5975    A$parameters$1297
  0C:5977    A$parameters$1298
  0C:5979    A$parameters$1299
  0C:597B    A$parameters$1300
  0C:597C    A$parameters$1301
  0C:597F    A$parameters$1304
  0C:597F    C$parameters.c$88$1$1
  0C:5980    A$parameters$1307
  0C:5980    C$parameters.c$93$1$1
  0C:5982    A$parameters$1309
  0C:5985    A$parameters$1310
  0C:5986    A$parameters$1311
  0C:5987    A$parameters$1312
  0C:5989    A$parameters$1313
  0C:598B    A$parameters$1314
  0C:598E    A$parameters$1315
  0C:598F    A$parameters$1316
  0C:5990    A$parameters$1317
  0C:5992    A$parameters$1318
  0C:5994    A$parameters$1319
  0C:5997    A$parameters$1320
  0C:5998    A$parameters$1321
  0C:5999    A$parameters$1322
  0C:599B    A$parameters$1323
  0C:599D    A$parameters$1324
  0C:59A0    A$parameters$1325
  0C:59A1    A$parameters$1326
  0C:59A2    A$parameters$1327
  0C:59A4    A$parameters$1328
  0C:59A6    A$parameters$1329
  0C:59A9    A$parameters$1330
  0C:59AA    A$parameters$1331
  0C:59AB    A$parameters$1332
  0C:59AD    A$parameters$1333
  0C:59AF    A$parameters$1334
  0C:59B2    A$parameters$1335
  0C:59B3    A$parameters$1336
  0C:59B4    A$parameters$1337
  0C:59B6    A$parameters$1338
  0C:59B8    A$parameters$1341
  0C:59B8    C$parameters.c$95$1$1
  0C:59BB    A$parameters$1342
  0C:59BC    A$parameters$1343
  0C:59BD    A$parameters$1344
  0C:59BF    A$parameters$1345
  0C:59C1    A$parameters$1348
  0C:59C1    C$parameters.c$97$2$4
  0C:59C4    A$parameters$1349
  0C:59C5    A$parameters$1350
  0C:59C6    A$parameters$1351
  0C:59C7    A$parameters$1352
  0C:59C8    A$parameters$1353
  0C:59C9    A$parameters$1354
  0C:59CC    A$parameters$1355
  0C:59CD    A$parameters$1356
  0C:59CE    A$parameters$1357
  0C:59CF    A$parameters$1358
  0C:59D0    A$parameters$1359
  0C:59D1    A$parameters$1360
  0C:59D4    A$parameters$1361
  0C:59D7    A$parameters$1362
  0C:59DA    A$parameters$1363
  0C:59DB    A$parameters$1364
  0C:59DC    A$parameters$1365
  0C:59DF    A$parameters$1366
  0C:59E0    A$parameters$1367
  0C:59E3    A$parameters$1368
  0C:59E6    A$parameters$1369
  0C:59E7    A$parameters$1370
  0C:59EA    A$parameters$1371
  0C:59EB    A$parameters$1372
  0C:59EC    A$parameters$1373
  0C:59EF    A$parameters$1376
  0C:59EF    C$parameters.c$98$2$5
  0C:59F2    A$parameters$1377
  0C:59F3    A$parameters$1378
  0C:59F4    A$parameters$1379
  0C:59F5    A$parameters$1380
  0C:59F6    A$parameters$1381
  0C:59F7    A$parameters$1382
  0C:59FA    A$parameters$1383
  0C:59FB    A$parameters$1384
  0C:59FC    A$parameters$1385
  0C:59FD    A$parameters$1386
  0C:59FE    A$parameters$1387
  0C:59FF    A$parameters$1388
  0C:5A02    A$parameters$1389
  0C:5A05    A$parameters$1390
  0C:5A08    A$parameters$1391
  0C:5A09    A$parameters$1392
  0C:5A0A    A$parameters$1393
  0C:5A0D    A$parameters$1394
  0C:5A0E    A$parameters$1395
  0C:5A11    A$parameters$1396
  0C:5A14    A$parameters$1397
  0C:5A15    A$parameters$1398
  0C:5A18    A$parameters$1399
  0C:5A19    A$parameters$1400
  0C:5A1A    A$parameters$1401
  0C:5A1D    A$parameters$1404
  0C:5A1D    C$parameters.c$99$2$6
  0C:5A20    A$parameters$1405
  0C:5A21    A$parameters$1406
  0C:5A22    A$parameters$1407
  0C:5A23    A$parameters$1408
  0C:5A24    A$parameters$1409
  0C:5A25    A$parameters$1410
  0C:5A28    A$parameters$1411
  0C:5A29    A$parameters$1412
  0C:5A2A    A$parameters$1413
  0C:5A2B    A$parameters$1414
  0C:5A2C    A$parameters$1415
  0C:5A2D    A$parameters$1416
  0C:5A30    A$parameters$1417
  0C:5A33    A$parameters$1418
  0C:5A36    A$parameters$1419
  0C:5A37    A$parameters$1420
  0C:5A38    A$parameters$1421
  0C:5A3B    A$parameters$1422
  0C:5A3C    A$parameters$1423
  0C:5A3F    A$parameters$1424
  0C:5A42    A$parameters$1425
  0C:5A43    A$parameters$1426
  0C:5A46    A$parameters$1427
  0C:5A47    A$parameters$1428
  0C:5A48    A$parameters$1431
  0C:5A48    C$parameters.c$100$1$1
  0C:5A48    XG$load_sys_config$0$0
  0C:5A4B    A$parameters$1445
  0C:5A4B    C$parameters.c$105$1$1
  0C:5A4B    C$parameters.c$107$1$1
  0C:5A4B    G$load_default_config$0$0
  0C:5A4B    _load_default_config
  0C:5A4E    A$parameters$1446
  0C:5A50    A$parameters$1447
  0C:5A51    A$parameters$1448
  0C:5A52    A$parameters$1449
  0C:5A54    A$parameters$1450
  0C:5A55    A$parameters$1451
  0C:5A56    A$parameters$1452
  0C:5A58    A$parameters$1453
  0C:5A59    A$parameters$1454
  0C:5A5C    A$parameters$1455
  0C:5A5E    A$parameters$1456
  0C:5A5F    A$parameters$1457
  0C:5A60    A$parameters$1458
  0C:5A61    A$parameters$1459
  0C:5A62    A$parameters$1460
  0C:5A65    A$parameters$1461
  0C:5A68    A$parameters$1464
  0C:5A68    C$parameters.c$108$1$1
  0C:5A68    XG$load_default_config$0$0
  0C:5A6B    A$parameters$1477
  0C:5A6B    C$parameters.c$110$1$1
  0C:5A6B    G$sys_getethaddr$0$0
  0C:5A6B    _sys_getethaddr
  0C:5A6D    A$parameters$1478
  0C:5A6F    A$parameters$1479
  0C:5A71    A$parameters$1480
  0C:5A74    A$parameters$1481
  0C:5A75    A$parameters$1482
  0C:5A76    A$parameters$1483
  0C:5A77    A$parameters$1484
  0C:5A78    A$parameters$1485
  0C:5A79    A$parameters$1486
  0C:5A7A    A$parameters$1487
  0C:5A7B    A$parameters$1490
  0C:5A7B    C$parameters.c$113$1$1
  0C:5A7E    A$parameters$1491
  0C:5A7F    A$parameters$1492
  0C:5A80    A$parameters$1493
  0C:5A81    A$parameters$1494
  0C:5A82    A$parameters$1495
  0C:5A83    A$parameters$1496
  0C:5A84    A$parameters$1497
  0C:5A85    A$parameters$1498
  0C:5A86    A$parameters$1499
  0C:5A89    A$parameters$1500
  0C:5A8B    A$parameters$1501
  0C:5A8C    A$parameters$1502
  0C:5A8D    A$parameters$1503
  0C:5A8F    A$parameters$1504
  0C:5A90    A$parameters$1505
  0C:5A91    A$parameters$1506
  0C:5A92    A$parameters$1507
  0C:5A93    A$parameters$1508
  0C:5A96    A$parameters$1509
  0C:5A98    A$parameters$1510
  0C:5A99    A$parameters$1511
  0C:5A9A    A$parameters$1512
  0C:5A9B    A$parameters$1513
  0C:5A9C    A$parameters$1514
  0C:5A9E    A$parameters$1515
  0C:5AA0    A$parameters$1516
  0C:5AA2    A$parameters$1519
  0C:5AA2    C$parameters.c$114$1$1
  0C:5AA2    XG$sys_getethaddr$0$0
  0C:5AA5    A$main$1383
  0C:5AA5    C$main.c$100$0$0
  0C:5AA5    C$main.c$107$1$1
  0C:5AA5    G$main$0$0
  0C:5AA5    _main
  0C:5AA8    A$main$1386
  0C:5AA8    C$main.c$109$1$1
  0C:5AAA    A$main$1387
  0C:5AAC    A$main$1388
  0C:5AAD    A$main$1389
  0C:5AAE    A$main$1390
  0C:5AAF    A$main$1393
  0C:5AAF    C$main.c$110$1$1
  0C:5AB1    A$main$1394
  0C:5AB3    A$main$1395
  0C:5AB4    A$main$1396
  0C:5AB6    A$main$1399
  0C:5AB6    C$main.c$111$1$1
  0C:5AB8    A$main$1400
  0C:5ABA    A$main$1401
  0C:5ABB    A$main$1402
  0C:5ABC    A$main$1403
  0C:5ABD    A$main$1406
  0C:5ABD    C$main.c$113$1$1
  0C:5AC0    A$main$1409
  0C:5AC0    C$main.c$114$1$1
  0C:5AC3    A$main$1412
  0C:5AC3    C$main.c$116$1$1
  0C:5AC5    A$main$1413
  0C:5AC7    A$main$1416
  0C:5AC7    C$main.c$118$1$1
  0C:5ACA    A$main$1419
  0C:5ACA    C$main.c$120$1$1
  0C:5ACD    A$main$1422
  0C:5ACD    C$main.c$123$1$1
  0C:5ACF    A$main$1423
  0C:5AD1    A$main$1424
  0C:5AD4    A$main$1425
  0C:5AD7    A$main$1426
  0C:5AD9    A$main$1427
  0C:5ADB    A$main$1428
  0C:5ADC    A$main$1429
  0C:5ADF    A$main$1432
  0C:5ADF    C$main.c$124$2$2
  0C:5AE2    A$main$1433
  0C:5AE4    A$main$1434
  0C:5AE5    A$main$1435
  0C:5AE8    A$main$1436
  0C:5AEB    A$main$1438
  0C:5AED    A$main$1442
  0C:5AED    C$main.c$128$1$1
  0C:5AF0    A$main$1443
  0C:5AF2    A$main$1444
  0C:5AF4    A$main$1447
  0C:5AF4    C$main.c$129$1$1
  0C:5AF7    A$main$1451
  0C:5AF7    C$main.c$131$1$1
  0C:5AF9    A$main$1452
  0C:5AFB    A$main$1453
  0C:5AFD    A$main$1454
  0C:5B00    A$main$1457
  0C:5B00    C$main.c$132$1$1
  0C:5B03    A$main$1460
  0C:5B03    C$main.c$133$1$1
  0C:5B06    A$main$1463
  0C:5B06    C$main.c$134$1$1
  0C:5B08    A$main$1464
  0C:5B0A    A$main$1465
  0C:5B0C    A$main$1466
  0C:5B0F    A$main$1469
  0C:5B0F    C$main.c$137$2$3
  0C:5B12    A$main$1470
  0C:5B13    A$main$1471
  0C:5B14    A$main$1472
  0C:5B16    A$main$1473
  0C:5B19    A$main$1474
  0C:5B1A    A$main$1475
  0C:5B1C    A$main$1476
  0C:5B1E    A$main$1477
  0C:5B1F    A$main$1478
  0C:5B21    A$main$1479
  0C:5B23    A$main$1480
  0C:5B25    A$main$1481
  0C:5B27    A$main$1482
  0C:5B29    A$main$1483
  0C:5B2A    A$main$1484
  0C:5B2C    A$main$1485
  0C:5B2D    A$main$1486
  0C:5B2F    A$main$1487
  0C:5B32    A$main$1488
  0C:5B33    A$main$1489
  0C:5B34    A$main$1490
  0C:5B35    A$main$1491
  0C:5B36    A$main$1492
  0C:5B37    A$main$1493
  0C:5B3A    A$main$1494
  0C:5B3B    A$main$1495
  0C:5B3C    A$main$1496
  0C:5B3E    A$main$1497
  0C:5B41    A$main$1498
  0C:5B42    A$main$1499
  0C:5B44    A$main$1500
  0C:5B46    A$main$1501
  0C:5B47    A$main$1502
  0C:5B49    A$main$1503
  0C:5B4B    A$main$1504
  0C:5B4D    A$main$1505
  0C:5B4F    A$main$1506
  0C:5B51    A$main$1507
  0C:5B52    A$main$1508
  0C:5B54    A$main$1509
  0C:5B55    A$main$1510
  0C:5B57    A$main$1511
  0C:5B5A    A$main$1512
  0C:5B5D    A$main$1513
  0C:5B5E    A$main$1514
  0C:5B61    A$main$1515
  0C:5B62    A$main$1516
  0C:5B63    A$main$1517
  0C:5B66    A$main$1522
  0C:5B66    C$main.c$143$1$1
  0C:5B66    C$main.c$144$1$1
  0C:5B69    A$main$1523
  0C:5B6B    A$main$1524
  0C:5B6C    A$main$1525
  0C:5B6D    A$main$1526
  0C:5B6F    A$main$1527
  0C:5B70    A$main$1528
  0C:5B71    A$main$1529
  0C:5B72    A$main$1530
  0C:5B73    A$main$1531
  0C:5B76    A$main$1532
  0C:5B79    A$main$1533
  0C:5B7C    A$main$1536
  0C:5B7C    C$main.c$146$1$1
  0C:5B7E    A$main$1539
  0C:5B7E    C$main.c$147$1$1
  0C:5B80    A$main$1542
  0C:5B80    C$main.c$149$1$1
  0C:5B83    A$main$1545
  0C:5B83    C$main.c$150$1$1
  0C:5B85    A$main$1546
  0C:5B87    A$main$1547
  0C:5B89    A$main$1548
  0C:5B8C    A$main$1551
  0C:5B8C    C$main.c$152$1$1
  0C:5B8E    A$main$1554
  0C:5B8E    C$main.c$154$1$1
  0C:5B91    A$main$1555
  0C:5B92    A$main$1556
  0C:5B93    A$main$1557
  0C:5B94    A$main$1558
  0C:5B95    A$main$1561
  0C:5B95    C$main.c$159$1$1
  0C:5B97    A$main$1562
  0C:5B99    A$main$1563
  0C:5B9B    A$main$1564
  0C:5B9D    A$main$1565
  0C:5B9F    A$main$1566
  0C:5BA1    A$main$1567
  0C:5BA4    A$main$1568
  0C:5BA6    A$main$1569
  0C:5BA8    A$main$1570
  0C:5BAA    A$main$1573
  0C:5BAA    C$main.c$160$1$1
  0C:5BAC    A$main$1574
  0C:5BAE    A$main$1575
  0C:5BB0    A$main$1576
  0C:5BB2    A$main$1577
  0C:5BB4    A$main$1578
  0C:5BB6    A$main$1579
  0C:5BB9    A$main$1580
  0C:5BBB    A$main$1581
  0C:5BBD    A$main$1582
  0C:5BBF    A$main$1585
  0C:5BBF    C$main.c$161$1$1
  0C:5BC1    A$main$1586
  0C:5BC3    A$main$1587
  0C:5BC5    A$main$1588
  0C:5BC7    A$main$1589
  0C:5BC9    A$main$1590
  0C:5BCB    A$main$1591
  0C:5BCE    A$main$1592
  0C:5BD0    A$main$1593
  0C:5BD2    A$main$1594
  0C:5BD4    A$main$1597
  0C:5BD4    C$main.c$162$1$1
  0C:5BD6    A$main$1598
  0C:5BD8    A$main$1599
  0C:5BDA    A$main$1600
  0C:5BDC    A$main$1601
  0C:5BDE    A$main$1602
  0C:5BE0    A$main$1603
  0C:5BE3    A$main$1604
  0C:5BE5    A$main$1605
  0C:5BE7    A$main$1606
  0C:5BE9    A$main$1609
  0C:5BE9    C$main.c$164$1$1
  0C:5BEB    A$main$1610
  0C:5BED    A$main$1611
  0C:5BEF    A$main$1612
  0C:5BF1    A$main$1613
  0C:5BF3    A$main$1614
  0C:5BF5    A$main$1615
  0C:5BF7    A$main$1616
  0C:5BF9    A$main$1617
  0C:5BFB    A$main$1618
  0C:5BFD    A$main$1619
  0C:5BFF    A$main$1620
  0C:5C01    A$main$1621
  0C:5C03    A$main$1622
  0C:5C05    A$main$1623
  0C:5C07    A$main$1624
  0C:5C09    A$main$1625
  0C:5C0B    A$main$1626
  0C:5C0D    A$main$1627
  0C:5C0F    A$main$1628
  0C:5C11    A$main$1629
  0C:5C13    A$main$1630
  0C:5C16    A$main$1631
  0C:5C18    A$main$1632
  0C:5C1A    A$main$1633
  0C:5C1C    A$main$1636
  0C:5C1C    C$main.c$166$1$1
  0C:5C1E    A$main$1637
  0C:5C20    A$main$1638
  0C:5C22    A$main$1639
  0C:5C24    A$main$1640
  0C:5C26    A$main$1641
  0C:5C28    A$main$1642
  0C:5C2A    A$main$1643
  0C:5C2C    A$main$1644
  0C:5C2E    A$main$1645
  0C:5C30    A$main$1646
  0C:5C32    A$main$1647
  0C:5C34    A$main$1648
  0C:5C36    A$main$1649
  0C:5C38    A$main$1650
  0C:5C3A    A$main$1651
  0C:5C3C    A$main$1652
  0C:5C3E    A$main$1653
  0C:5C40    A$main$1654
  0C:5C42    A$main$1655
  0C:5C44    A$main$1656
  0C:5C46    A$main$1657
  0C:5C49    A$main$1658
  0C:5C4B    A$main$1659
  0C:5C4D    A$main$1660
  0C:5C4F    A$main$1663
  0C:5C4F    C$main.c$169$1$1
  0C:5C52    A$main$1664
  0C:5C53    A$main$1665
  0C:5C54    A$main$1666
  0C:5C55    A$main$1667
  0C:5C56    A$main$1668
  0C:5C57    A$main$1669
  0C:5C59    A$main$1670
  0C:5C5B    A$main$1671
  0C:5C5D    A$main$1672
  0C:5C5F    A$main$1673
  0C:5C61    A$main$1674
  0C:5C64    A$main$1675
  0C:5C66    A$main$1676
  0C:5C69    A$main$1677
  0C:5C6A    A$main$1678
  0C:5C6C    A$main$1679
  0C:5C6F    A$main$1680
  0C:5C70    A$main$1681
  0C:5C71    A$main$1682
  0C:5C72    A$main$1683
  0C:5C73    A$main$1684
  0C:5C74    A$main$1685
  0C:5C76    A$main$1686
  0C:5C78    A$main$1687
  0C:5C7A    A$main$1688
  0C:5C7C    A$main$1689
  0C:5C7E    A$main$1690
  0C:5C80    A$main$1691
  0C:5C82    A$main$1692
  0C:5C85    A$main$1693
  0C:5C87    A$main$1694
  0C:5C89    A$main$1695
  0C:5C8B    A$main$1696
  0C:5C8D    A$main$1697
  0C:5C8F    A$main$1698
  0C:5C91    A$main$1699
  0C:5C93    A$main$1700
  0C:5C95    A$main$1701
  0C:5C97    A$main$1702
  0C:5C99    A$main$1703
  0C:5C9B    A$main$1704
  0C:5C9E    A$main$1705
  0C:5CA0    A$main$1706
  0C:5CA2    A$main$1707
  0C:5CA4    A$main$1710
  0C:5CA4    C$main.c$172$1$1
  0C:5CA7    A$main$1711
  0C:5CA8    A$main$1712
  0C:5CA9    A$main$1713
  0C:5CAA    A$main$1714
  0C:5CAB    A$main$1715
  0C:5CAC    A$main$1716
  0C:5CAE    A$main$1717
  0C:5CB0    A$main$1718
  0C:5CB2    A$main$1719
  0C:5CB4    A$main$1720
  0C:5CB6    A$main$1721
  0C:5CB9    A$main$1722
  0C:5CBB    A$main$1723
  0C:5CBE    A$main$1724
  0C:5CBF    A$main$1725
  0C:5CC1    A$main$1726
  0C:5CC4    A$main$1727
  0C:5CC5    A$main$1728
  0C:5CC6    A$main$1729
  0C:5CC7    A$main$1730
  0C:5CC8    A$main$1731
  0C:5CC9    A$main$1732
  0C:5CCB    A$main$1733
  0C:5CCD    A$main$1734
  0C:5CCF    A$main$1735
  0C:5CD1    A$main$1736
  0C:5CD3    A$main$1737
  0C:5CD5    A$main$1738
  0C:5CD7    A$main$1739
  0C:5CDA    A$main$1740
  0C:5CDC    A$main$1741
  0C:5CDE    A$main$1742
  0C:5CE0    A$main$1743
  0C:5CE2    A$main$1744
  0C:5CE4    A$main$1745
  0C:5CE6    A$main$1746
  0C:5CE8    A$main$1747
  0C:5CEA    A$main$1748
  0C:5CEC    A$main$1749
  0C:5CEE    A$main$1750
  0C:5CF0    A$main$1751
  0C:5CF3    A$main$1752
  0C:5CF5    A$main$1753
  0C:5CF7    A$main$1754
  0C:5CF9    A$main$1757
  0C:5CF9    C$main.c$176$1$1
  0C:5CFC    A$main$1758
  0C:5CFD    A$main$1759
  0C:5CFE    A$main$1760
  0C:5CFF    A$main$1761
  0C:5D00    A$main$1762
  0C:5D01    A$main$1763
  0C:5D03    A$main$1764
  0C:5D05    A$main$1765
  0C:5D07    A$main$1766
  0C:5D09    A$main$1767
  0C:5D0B    A$main$1768
  0C:5D0E    A$main$1769
  0C:5D10    A$main$1770
  0C:5D13    A$main$1771
  0C:5D14    A$main$1772
  0C:5D16    A$main$1773
  0C:5D19    A$main$1774
  0C:5D1A    A$main$1775
  0C:5D1B    A$main$1776
  0C:5D1C    A$main$1777
  0C:5D1D    A$main$1778
  0C:5D1E    A$main$1779
  0C:5D20    A$main$1780
  0C:5D22    A$main$1781
  0C:5D24    A$main$1782
  0C:5D26    A$main$1783
  0C:5D28    A$main$1784
  0C:5D2A    A$main$1785
  0C:5D2C    A$main$1786
  0C:5D2F    A$main$1787
  0C:5D31    A$main$1788
  0C:5D33    A$main$1789
  0C:5D35    A$main$1790
  0C:5D37    A$main$1791
  0C:5D39    A$main$1792
  0C:5D3B    A$main$1793
  0C:5D3D    A$main$1794
  0C:5D3F    A$main$1795
  0C:5D41    A$main$1796
  0C:5D43    A$main$1797
  0C:5D45    A$main$1798
  0C:5D48    A$main$1799
  0C:5D4A    A$main$1800
  0C:5D4C    A$main$1801
  0C:5D4E    A$main$1804
  0C:5D4E    C$main.c$179$1$1
  0C:5D51    A$main$1805
  0C:5D52    A$main$1806
  0C:5D53    A$main$1807
  0C:5D54    A$main$1808
  0C:5D55    A$main$1809
  0C:5D56    A$main$1810
  0C:5D58    A$main$1811
  0C:5D5A    A$main$1812
  0C:5D5C    A$main$1813
  0C:5D5E    A$main$1814
  0C:5D60    A$main$1815
  0C:5D63    A$main$1816
  0C:5D65    A$main$1817
  0C:5D68    A$main$1818
  0C:5D69    A$main$1819
  0C:5D6B    A$main$1820
  0C:5D6E    A$main$1821
  0C:5D6F    A$main$1822
  0C:5D70    A$main$1823
  0C:5D71    A$main$1824
  0C:5D72    A$main$1825
  0C:5D73    A$main$1826
  0C:5D75    A$main$1827
  0C:5D77    A$main$1828
  0C:5D79    A$main$1829
  0C:5D7B    A$main$1830
  0C:5D7D    A$main$1831
  0C:5D7F    A$main$1832
  0C:5D81    A$main$1833
  0C:5D84    A$main$1834
  0C:5D86    A$main$1835
  0C:5D88    A$main$1836
  0C:5D8A    A$main$1837
  0C:5D8C    A$main$1838
  0C:5D8E    A$main$1839
  0C:5D90    A$main$1840
  0C:5D92    A$main$1841
  0C:5D94    A$main$1842
  0C:5D96    A$main$1843
  0C:5D98    A$main$1844
  0C:5D9A    A$main$1845
  0C:5D9D    A$main$1846
  0C:5D9F    A$main$1847
  0C:5DA1    A$main$1848
  0C:5DA3    A$main$1851
  0C:5DA3    C$main.c$183$1$1
  0C:5DA6    A$main$1852
  0C:5DA7    A$main$1853
  0C:5DA8    A$main$1854
  0C:5DA9    A$main$1855
  0C:5DAA    A$main$1856
  0C:5DAB    A$main$1857
  0C:5DAD    A$main$1858
  0C:5DAF    A$main$1859
  0C:5DB1    A$main$1860
  0C:5DB3    A$main$1861
  0C:5DB5    A$main$1862
  0C:5DB8    A$main$1863
  0C:5DBA    A$main$1864
  0C:5DBD    A$main$1865
  0C:5DBE    A$main$1866
  0C:5DC0    A$main$1867
  0C:5DC3    A$main$1868
  0C:5DC4    A$main$1869
  0C:5DC5    A$main$1870
  0C:5DC6    A$main$1871
  0C:5DC7    A$main$1872
  0C:5DC8    A$main$1873
  0C:5DCA    A$main$1874
  0C:5DCC    A$main$1875
  0C:5DCE    A$main$1876
  0C:5DD0    A$main$1877
  0C:5DD2    A$main$1878
  0C:5DD4    A$main$1879
  0C:5DD6    A$main$1880
  0C:5DD9    A$main$1881
  0C:5DDB    A$main$1882
  0C:5DDD    A$main$1883
  0C:5DDF    A$main$1884
  0C:5DE1    A$main$1885
  0C:5DE3    A$main$1886
  0C:5DE5    A$main$1887
  0C:5DE7    A$main$1888
  0C:5DE9    A$main$1889
  0C:5DEB    A$main$1890
  0C:5DED    A$main$1891
  0C:5DEF    A$main$1892
  0C:5DF2    A$main$1893
  0C:5DF4    A$main$1894
  0C:5DF6    A$main$1895
  0C:5DF8    A$main$1898
  0C:5DF8    C$main.c$186$1$1
  0C:5DFB    A$main$1899
  0C:5DFC    A$main$1900
  0C:5DFD    A$main$1901
  0C:5DFE    A$main$1902
  0C:5DFF    A$main$1903
  0C:5E00    A$main$1904
  0C:5E02    A$main$1905
  0C:5E04    A$main$1906
  0C:5E06    A$main$1907
  0C:5E08    A$main$1908
  0C:5E0A    A$main$1909
  0C:5E0D    A$main$1910
  0C:5E0F    A$main$1911
  0C:5E12    A$main$1912
  0C:5E13    A$main$1913
  0C:5E15    A$main$1914
  0C:5E18    A$main$1915
  0C:5E19    A$main$1916
  0C:5E1A    A$main$1917
  0C:5E1B    A$main$1918
  0C:5E1C    A$main$1919
  0C:5E1D    A$main$1920
  0C:5E1F    A$main$1921
  0C:5E21    A$main$1922
  0C:5E23    A$main$1923
  0C:5E25    A$main$1924
  0C:5E27    A$main$1925
  0C:5E29    A$main$1926
  0C:5E2B    A$main$1927
  0C:5E2E    A$main$1928
  0C:5E30    A$main$1929
  0C:5E32    A$main$1930
  0C:5E34    A$main$1931
  0C:5E36    A$main$1932
  0C:5E38    A$main$1933
  0C:5E3A    A$main$1934
  0C:5E3C    A$main$1935
  0C:5E3E    A$main$1936
  0C:5E40    A$main$1937
  0C:5E42    A$main$1938
  0C:5E44    A$main$1939
  0C:5E47    A$main$1940
  0C:5E49    A$main$1941
  0C:5E4B    A$main$1942
  0C:5E4D    A$main$1945
  0C:5E4D    C$main.c$191$1$1
  0C:5E4F    A$main$1946
  0C:5E51    A$main$1947
  0C:5E53    A$main$1948
  0C:5E56    A$main$1951
  0C:5E56    C$main.c$192$1$1
  0C:5E58    A$main$1952
  0C:5E5A    A$main$1953
  0C:5E5C    A$main$1954
  0C:5E5F    A$main$1957
  0C:5E5F    C$main.c$194$1$1
  0C:5E62    A$main$1960
  0C:5E62    C$main.c$196$1$1
  0C:5E64    A$main$1961
  0C:5E66    A$main$1962
  0C:5E68    A$main$1963
  0C:5E6A    A$main$1964
  0C:5E6C    A$main$1965
  0C:5E6E    A$main$1966
  0C:5E70    A$main$1967
  0C:5E72    A$main$1968
  0C:5E74    A$main$1969
  0C:5E76    A$main$1970
  0C:5E79    A$main$1971
  0C:5E7B    A$main$1972
  0C:5E7D    A$main$1973
  0C:5E7F    A$main$1979
  0C:5E7F    C$main.c$198$1$1
  0C:5E7F    C$main.c$203$2$4
  0C:5E82    A$main$1980
  0C:5E84    A$main$1981
  0C:5E86    A$main$1982
  0C:5E89    A$main$1983
  0C:5E8A    A$main$1984
  0C:5E8B    A$main$1985
  0C:5E8C    A$main$1986
  0C:5E8D    A$main$1987
  0C:5E8E    A$main$1990
  0C:5E8E    C$main.c$206$2$4
  0C:5E8F    A$main$1991
  0C:5E90    A$main$1992
  0C:5E92    A$main$1993
  0C:5E95    A$main$1999
  0C:5E95    C$main.c$209$3$5
  0C:5E95    C$main.c$211$4$6
  0C:5E98    A$main$2000
  0C:5E9B    A$main$2004
  0C:5E9B    C$main.c$216$1$1
  0C:5E9D    A$main$2005
  0C:5E9F    A$main$2007
  0C:5EA0    A$main$2008
  0C:5EA1    A$main$2009
  0C:5EA3    A$main$2010
  0C:5EA4    A$main$2011
  0C:5EA6    A$main$2012
  0C:5EA8    A$main$2013
  0C:5EAB    A$main$2017
  0C:5EAB    C$main.c$218$6$8
  0C:5EAE    A$main$2018
  0C:5EAF    A$main$2019
  0C:5EB0    A$main$2020
  0C:5EB1    A$main$2021
  0C:5EB2    A$main$2022
  0C:5EB3    A$main$2023
  0C:5EB6    A$main$2024
  0C:5EB8    A$main$2025
  0C:5EBA    A$main$2026
  0C:5EBD    A$main$2027
  0C:5EBF    A$main$2028
  0C:5EC1    A$main$2029
  0C:5EC2    A$main$2030
  0C:5EC4    A$main$2031
  0C:5EC5    A$main$2032
  0C:5EC6    A$main$2033
  0C:5EC8    A$main$2034
  0C:5EC9    A$main$2035
  0C:5ECC    A$main$2036
  0C:5ECD    A$main$2037
  0C:5ECE    A$main$2038
  0C:5ECF    A$main$2039
  0C:5ED0    A$main$2040
  0C:5ED1    A$main$2041
  0C:5ED2    A$main$2042
  0C:5ED3    A$main$2043
  0C:5ED4    A$main$2044
  0C:5ED7    A$main$2045
  0C:5ED9    A$main$2046
  0C:5EDB    A$main$2047
  0C:5EDD    A$main$2048
  0C:5EE0    A$main$2049
  0C:5EE2    A$main$2050
  0C:5EE4    A$main$2053
  0C:5EE4    C$main.c$222$5$7
  0C:5EE7    A$main$2054
  0C:5EE8    A$main$2055
  0C:5EE9    A$main$2056
  0C:5EEA    A$main$2057
  0C:5EEB    A$main$2058
  0C:5EEC    A$main$2059
  0C:5EED    A$main$2060
  0C:5EEF    A$main$2063
  0C:5EEF    C$main.c$232$6$9
  0C:5EF1    A$main$2064
  0C:5EF3    A$main$2065
  0C:5EF5    A$main$2066
  0C:5EF7    A$main$2067
  0C:5EF9    A$main$2068
  0C:5EFC    A$main$2071
  0C:5EFC    C$main.c$234$6$9
  0C:5EFF    A$main$2072
  0C:5F02    A$main$2073
  0C:5F05    A$main$2074
  0C:5F06    A$main$2075
  0C:5F07    A$main$2076
  0C:5F0A    A$main$2077
  0C:5F0B    A$main$2078
  0C:5F0E    A$main$2079
  0C:5F10    A$main$2080
  0C:5F12    A$main$2081
  0C:5F14    A$main$2082
  0C:5F16    A$main$2083
  0C:5F18    A$main$2084
  0C:5F1B    A$main$2085
  0C:5F1D    A$main$2086
  0C:5F1F    A$main$2087
  0C:5F21    A$main$2088
  0C:5F23    A$main$2089
  0C:5F25    A$main$2090
  0C:5F27    A$main$2091
  0C:5F28    A$main$2092
  0C:5F2B    A$main$2093
  0C:5F2C    A$main$2094
  0C:5F2F    A$main$2095
  0C:5F31    A$main$2099
  0C:5F31    C$main.c$235$7$10
  0C:5F33    A$main$2100
  0C:5F35    A$main$2101
  0C:5F38    A$main$2102
  0C:5F3A    A$main$2103
  0C:5F3C    A$main$2107
  0C:5F3C    C$main.c$240$6$9
  0C:5F3E    A$main$2108
  0C:5F40    A$main$2109
  0C:5F43    A$main$2110
  0C:5F45    A$main$2111
  0C:5F47    A$main$2115
  0C:5F47    C$main.c$216$4$6
  0C:5F48    A$main$2116
  0C:5F4B    A$main$2117
  0C:5F4C    A$main$2119
  0C:5F4F    A$main$2125
  0C:5F4F    C$main.c$264$3$5
  0C:5F4F    C$main.c$267$4$12
  0C:5F52    A$main$2126
  0C:5F55    A$main$2130
  0C:5F55    C$main.c$268$4$12
  0C:5F57    A$main$2131
  0C:5F59    A$main$2132
  0C:5F5B    A$main$2133
  0C:5F5E    A$main$2134
  0C:5F61    A$main$2138
  0C:5F61    C$main.c$272$3$13
  0C:5F64    A$main$2139
  0C:5F67    A$main$2140
  0C:5F6A    A$main$2141
  0C:5F6B    A$main$2142
  0C:5F6C    A$main$2143
  0C:5F6F    A$main$2144
  0C:5F70    A$main$2145
  0C:5F73    A$main$2146
  0C:5F75    A$main$2147
  0C:5F77    A$main$2148
  0C:5F79    A$main$2149
  0C:5F7B    A$main$2150
  0C:5F7D    A$main$2151
  0C:5F80    A$main$2152
  0C:5F82    A$main$2153
  0C:5F84    A$main$2154
  0C:5F86    A$main$2155
  0C:5F88    A$main$2156
  0C:5F89    A$main$2157
  0C:5F8C    A$main$2158
  0C:5F8D    A$main$2159
  0C:5F90    A$main$2162
  0C:5F90    C$main.c$277$4$14
  0C:5F93    A$main$2163
  0C:5F95    A$main$2164
  0C:5F97    A$main$2165
  0C:5F99    A$main$2166
  0C:5F9C    A$main$2169
  0C:5F9C    C$main.c$281$4$14
  0C:5F9F    A$main$2170
  0C:5FA0    A$main$2171
  0C:5FA1    A$main$2172
  0C:5FA2    A$main$2173
  0C:5FA3    A$main$2174
  0C:5FA4    A$main$2175
  0C:5FA5    A$main$2176
  0C:5FA7    A$main$2179
  0C:5FA7    C$main.c$283$5$15
  0C:5FA9    A$main$2180
  0C:5FAB    A$main$2181
  0C:5FAD    A$main$2182
  0C:5FB0    A$main$2185
  0C:5FB0    C$main.c$285$5$15
  0C:5FB3    A$main$2188
  0C:5FB3    C$main.c$287$5$15
  0C:5FB6    A$main$2189
  0C:5FB8    A$main$2193
  0C:5FB8    C$main.c$293$4$16
  0C:5FBB    A$main$2194
  0C:5FBE    A$main$2195
  0C:5FC1    A$main$2196
  0C:5FC2    A$main$2197
  0C:5FC3    A$main$2198
  0C:5FC6    A$main$2199
  0C:5FC7    A$main$2200
  0C:5FCA    A$main$2201
  0C:5FCC    A$main$2202
  0C:5FCE    A$main$2203
  0C:5FD0    A$main$2204
  0C:5FD2    A$main$2205
  0C:5FD4    A$main$2206
  0C:5FD7    A$main$2207
  0C:5FD9    A$main$2208
  0C:5FDB    A$main$2209
  0C:5FDD    A$main$2210
  0C:5FDF    A$main$2211
  0C:5FE0    A$main$2212
  0C:5FE3    A$main$2213
  0C:5FE4    A$main$2214
  0C:5FE7    A$main$2217
  0C:5FE7    C$main.c$297$5$17
  0C:5FE9    A$main$2218
  0C:5FEB    A$main$2219
  0C:5FED    A$main$2220
  0C:5FF0    A$main$2223
  0C:5FF0    C$main.c$301$5$17
  0C:5FF3    A$main$2224
  0C:5FF4    A$main$2225
  0C:5FF5    A$main$2226
  0C:5FF6    A$main$2227
  0C:5FF7    A$main$2228
  0C:5FF8    A$main$2229
  0C:5FF9    A$main$2230
  0C:5FFB    A$main$2233
  0C:5FFB    C$main.c$306$6$18
  0C:5FFE    A$main$2239
  0C:5FFE    C$main.c$313$2$4
  0C:5FFE    C$main.c$315$3$19
  0C:6001    A$main$2240
  0C:6003    A$main$2244
  0C:6003    C$main.c$316$3$19
  0C:6005    A$main$2245
  0C:6006    A$main$2246
  0C:6008    A$main$2247
  0C:6009    A$main$2250
  0C:6009    C$main.c$317$3$19
  0C:600B    A$main$2251
  0C:600E    A$main$2252
  0C:600F    A$main$2253
  0C:6010    A$main$2254
  0C:6013    A$main$2255
  0C:6016    A$main$2259
  0C:6016    C$main.c$320$2$4
  0C:6019    A$main$2262
  0C:6019    C$main.c$323$2$4
  0C:601C    A$main$2263
  0C:601F    A$main$2264
  0C:6021    A$main$2265
  0C:6023    A$main$2266
  0C:6025    A$main$2267
  0C:6028    A$main$2270
  0C:6028    C$main.c$324$2$4
  0C:602B    A$main$2273
  0C:602B    C$main.c$325$2$4
  0C:602E    A$main$2274
  0C:6031    A$main$2275
  0C:6033    A$main$2276
  0C:6035    A$main$2277
  0C:6037    A$main$2278
  0C:603A    A$main$2281
  0C:603A    C$main.c$326$2$4
  0C:603D    A$main$2284
  0C:603D    C$main.c$327$2$4
  0C:6040    A$main$2285
  0C:6043    A$main$2286
  0C:6045    A$main$2287
  0C:6047    A$main$2288
  0C:6049    A$main$2289
  0C:604C    A$main$2292
  0C:604C    C$main.c$328$2$4
  0C:604F    A$main$2295
  0C:604F    C$main.c$329$2$4
  0C:6052    A$main$2296
  0C:6055    A$main$2297
  0C:6057    A$main$2298
  0C:6059    A$main$2299
  0C:605B    A$main$2300
  0C:605E    A$main$2303
  0C:605E    C$main.c$330$2$4
  0C:6061    A$main$2306
  0C:6061    C$main.c$331$2$4
  0C:6064    A$main$2307
  0C:6067    A$main$2308
  0C:6069    A$main$2309
  0C:606B    A$main$2310
  0C:606D    A$main$2311
  0C:6070    A$main$2314
  0C:6070    C$main.c$332$2$4
  0C:6073    A$main$2317
  0C:6073    C$main.c$335$1$1
  0C:6073    XG$main$0$0
  0C:6076    A$main$2330
  0C:6076    C$main.c$340$1$1
  0C:6076    G$smtp_done$0$0
  0C:6076    _smtp_done
  0C:6078    A$main$2331
  0C:607B    A$main$2332
  0C:607C    A$main$2335
  0C:607C    C$main.c$342$1$1
  0C:607F    A$main$2336
  0C:6080    A$main$2337
  0C:6081    A$main$2338
  0C:6083    A$main$2341
  0C:6083    C$main.c$343$2$2
  0C:6085    A$main$2342
  0C:6087    A$main$2343
  0C:6089    A$main$2344
  0C:608B    A$main$2345
  0C:608D    A$main$2346
  0C:608F    A$main$2347
  0C:6091    A$main$2348
  0C:6093    A$main$2349
  0C:6095    A$main$2350
  0C:6098    A$main$2351
  0C:609A    A$main$2352
  0C:609C    A$main$2353
  0C:609E    A$main$2356
  0C:609E    C$main.c$360$2$2
  0C:60A0    A$main$2357
  0C:60A1    A$main$2361
  0C:60A1    C$main.c$363$2$3
  0C:60A3    A$main$2364
  0C:60A3    C$main.c$365$1$1
  0C:60A3    XG$smtp_done$0$0
  0C:60A4    A$main$2378
  0C:60A4    C$main.c$369$1$1
  0C:60A4    C$main.c$371$1$1
  0C:60A4    G$cleanup$0$0
  0C:60A4    _cleanup
  0C:60A6    A$main$2381
  0C:60A6    C$main.c$372$1$1
  0C:60A9    A$main$2384
  0C:60A9    C$main.c$373$1$1
  0C:60A9    XG$cleanup$0$0
  0C:60AA    A$main$2398
  0C:60AA    C$main.c$381$1$1
  0C:60AA    C$main.c$384$1$1
  0C:60AA    G$Timer0_Init$0$0
  0C:60AA    _Timer0_Init
  0C:60AD    A$main$2401
  0C:60AD    C$main.c$386$1$1
  0C:60B0    A$main$2404
  0C:60B0    C$main.c$388$1$1
  0C:60B3    A$main$2407
  0C:60B3    C$main.c$389$1$1
  0C:60B6    A$main$2410
  0C:60B6    C$main.c$390$1$1
  0C:60B9    A$main$2413
  0C:60B9    C$main.c$391$1$1
  0C:60BC    A$main$2416
  0C:60BC    C$main.c$392$1$1
  0C:60BE    A$main$2419
  0C:60BE    C$main.c$393$1$1
  0C:60C0    A$main$2422
  0C:60C0    C$main.c$394$1$1
  0C:60C2    A$main$2425
  0C:60C2    C$main.c$396$1$1
  0C:60C5    A$main$2428
  0C:60C5    C$main.c$398$1$1
  0C:60C5    XG$Timer0_Init$0$0
  0C:60C6    A$main$2443
  0C:60C6    C$main.c$400$1$1
  0C:60C6    C$main.c$404$1$1
  0C:60C6    G$get_timebase$0$0
  0C:60C6    _get_timebase
  0C:60C8    A$main$2446
  0C:60C8    C$main.c$406$1$1
  0C:60CA    A$main$2449
  0C:60CA    C$main.c$408$1$1
  0C:60CC    A$main$2450
  0C:60CE    A$main$2451
  0C:60CF    A$main$2452
  0C:60D1    A$main$2453
  0C:60D2    A$main$2454
  0C:60D4    A$main$2455
  0C:60D5    A$main$2456
  0C:60D7    A$main$2457
  0C:60D9    A$main$2458
  0C:60DB    A$main$2459
  0C:60DD    A$main$2460
  0C:60DE    A$main$2463
  0C:60DE    C$main.c$409$1$1
  0C:60DE    XG$get_timebase$0$0
  0C:60DF    A$main$2483
  0C:60DF    C$main.c$415$1$1
  0C:60DF    G$Timer0_ISR$0$0
  0C:60DF    _Timer0_ISR
  0C:60E1    A$main$2484
  0C:60E3    A$main$2485
  0C:60E5    A$main$2486
  0C:60E7    A$main$2487
  0C:60EA    A$main$2488
  0C:60EB    A$main$2489
  0C:60EE    A$main$2490
  0C:60EF    A$main$2492
  0C:60F1    A$main$2495
  0C:60F1    C$main.c$417$1$1
  0C:60F4    A$main$2498
  0C:60F4    C$main.c$418$1$1
  0C:60F7    A$main$2501
  0C:60F7    C$main.c$420$1$1
  0C:60F9    A$main$2502
  0C:60FA    A$main$2503
  0C:60FD    A$main$2504
  0C:60FE    A$main$2505
  0C:60FF    A$main$2509
  0C:60FF    C$main.c$421$1$1
  0C:6101    A$main$2510
  0C:6102    A$main$2511
  0C:6103    A$main$2512
  0C:6104    A$main$2513
  0C:6106    A$main$2516
  0C:6106    C$main.c$423$2$2
  0C:6108    A$main$2517
  0C:610A    A$main$2518
  0C:610B    A$main$2519
  0C:610C    A$main$2520
  0C:610D    A$main$2523
  0C:610D    C$main.c$424$2$2
  0C:610F    A$main$2527
  0C:610F    C$main.c$427$1$1
  0C:6111    A$main$2528
  0C:6112    A$main$2529
  0C:6115    A$main$2530
  0C:6116    A$main$2531
  0C:6117    A$main$2535
  0C:6117    C$main.c$428$1$1
  0C:6119    A$main$2536
  0C:611A    A$main$2537
  0C:611B    A$main$2538
  0C:611C    A$main$2539
  0C:611E    A$main$2542
  0C:611E    C$main.c$430$2$3
  0C:6120    A$main$2543
  0C:6122    A$main$2544
  0C:6123    A$main$2545
  0C:6125    A$main$2548
  0C:6125    C$main.c$431$2$3
  0C:6127    A$main$2552
  0C:6127    C$main.c$434$1$1
  0C:6129    A$main$2553
  0C:612A    A$main$2554
  0C:612D    A$main$2555
  0C:612E    A$main$2556
  0C:612F    A$main$2560
  0C:612F    C$main.c$435$1$1
  0C:6131    A$main$2561
  0C:6132    A$main$2562
  0C:6133    A$main$2563
  0C:6134    A$main$2564
  0C:6136    A$main$2567
  0C:6136    C$main.c$437$2$4
  0C:6138    A$main$2568
  0C:613A    A$main$2569
  0C:613B    A$main$2570
  0C:613C    A$main$2571
  0C:613D    A$main$2574
  0C:613D    C$main.c$438$2$4
  0C:613F    A$main$2578
  0C:6141    A$main$2579
  0C:6143    A$main$2581
  0C:6145    A$main$2582
  0C:6148    A$main$2584
  0C:614A    A$main$2585
  0C:614D    A$main$2589
  0C:614D    C$main.c$443$2$5
  0C:614F    A$main$2590
  0C:6150    A$main$2591
  0C:6152    A$main$2592
  0C:6153    A$main$2593
  0C:6154    A$main$2594
  0C:6156    A$main$2595
  0C:6157    A$main$2596
  0C:6159    A$main$2597
  0C:615B    A$main$2598
  0C:615C    A$main$2599
  0C:615E    A$main$2602
  0C:615E    C$main.c$444$1$1
  0C:6160    A$main$2603
  0C:6162    A$main$2604
  0C:6164    A$main$2605
  0C:6165    A$main$2606
  0C:6167    A$main$2607
  0C:6169    A$main$2608
  0C:616B    A$main$2609
  0C:616C    A$main$2610
  0C:616D    A$main$2611
  0C:616F    A$main$2612
  0C:6170    A$main$2613
  0C:6172    A$main$2614
  0C:6174    A$main$2615
  0C:6175    A$main$2616
  0C:6176    A$main$2617
  0C:6177    A$main$2618
  0C:6178    A$main$2619
  0C:6179    A$main$2620
  0C:617A    A$main$2621
  0C:617B    A$main$2622
  0C:617C    A$main$2623
  0C:617D    A$main$2624
  0C:617E    A$main$2625
  0C:617F    A$main$2626
  0C:6180    A$main$2627
  0C:6183    A$main$2628
  0C:6184    A$main$2629
  0C:6187    A$main$2630
  0C:6188    A$main$2631
  0C:618B    A$main$2632
  0C:618C    A$main$2634
  0C:618E    A$main$2635
  0C:6190    A$main$2636
  0C:6191    A$main$2637
  0C:6192    A$main$2638
  0C:6193    A$main$2639
  0C:6194    A$main$2640
  0C:6195    A$main$2641
  0C:6196    A$main$2642
  0C:6197    A$main$2643
  0C:6198    A$main$2644
  0C:6199    A$main$2645
  0C:619A    A$main$2646
  0C:619B    A$main$2649
  0C:619B    C$main.c$445$1$1
  0C:619C    A$main$2650
  0C:619D    A$main$2651
  0C:619E    A$main$2652
  0C:619F    A$main$2653
  0C:61A1    A$main$2654
  0C:61A3    A$main$2655
  0C:61A5    A$main$2658
  0C:61A5    C$main.c$446$4$7
  0C:61A7    A$main$2659
  0C:61A8    A$main$2660
  0C:61AA    A$main$2661
  0C:61AC    A$main$2662
  0C:61AE    A$main$2663
  0C:61AF    A$main$2664
  0C:61B1    A$main$2665
  0C:61B3    A$main$2666
  0C:61B4    A$main$2667
  0C:61B5    A$main$2668
  0C:61B6    A$main$2669
  0C:61B7    A$main$2670
  0C:61B8    A$main$2671
  0C:61B9    A$main$2672
  0C:61BB    A$main$2675
  0C:61BB    C$main.c$447$5$8
  0C:61BD    A$main$2676
  0C:61BF    A$main$2677
  0C:61C1    A$main$2678
  0C:61C2    A$main$2681
  0C:61C2    C$main.c$448$5$8
  0C:61C4    A$main$2682
  0C:61C6    A$main$2686
  0C:61C6    C$main.c$450$4$7
  0C:61C8    A$main$2687
  0C:61CA    A$main$2688
  0C:61CC    A$main$2689
  0C:61CD    A$main$2693
  0C:61CD    C$main.c$442$1$1
  0C:61CF    A$main$2694
  0C:61D0    A$main$2695
  0C:61D3    A$main$2699
  0C:61D3    C$main.c$454$1$1
  0C:61D5    A$main$2700
  0C:61D6    A$main$2701
  0C:61D9    A$main$2702
  0C:61DA    A$main$2703
  0C:61DB    A$main$2704
  0C:61DE    A$main$2705
  0C:61DF    A$main$2706
  0C:61E0    A$main$2707
  0C:61E3    A$main$2708
  0C:61E4    A$main$2709
  0C:61E5    A$main$2713
  0C:61E5    C$main.c$456$1$1
  0C:61E7    A$main$2714
  0C:61E9    A$main$2715
  0C:61EB    A$main$2716
  0C:61ED    A$main$2717
  0C:61EF    A$main$2718
  0C:61F1    A$main$2719
  0C:61F3    A$main$2722
  0C:61F3    C$main.c$457$1$1
  0C:61F3    XG$Timer0_ISR$0$0
  0C:61F4    A$uip_app_registration$1272
  0C:61F4    C$uip_app_registration.c$87$0$0
  0C:61F4    C$uip_app_registration.c$92$1$0
  0C:61F4    G$uip_app_list_init$0$0
  0C:61F4    _uip_app_list_init
  0C:61F7    A$uip_app_registration$1273
  0C:61F9    A$uip_app_registration$1274
  0C:61FA    A$uip_app_registration$1275
  0C:61FB    A$uip_app_registration$1276
  0C:61FC    A$uip_app_registration$1277
  0C:61FD    A$uip_app_registration$1281
  0C:61FD    C$uip_app_registration.c$93$2$2
  0C:6200    A$uip_app_registration$1282
  0C:6201    A$uip_app_registration$1283
  0C:6202    A$uip_app_registration$1284
  0C:6203    A$uip_app_registration$1285
  0C:6204    A$uip_app_registration$1286
  0C:6205    A$uip_app_registration$1287
  0C:6206    A$uip_app_registration$1288
  0C:6209    A$uip_app_registration$1289
  0C:620A    A$uip_app_registration$1291
  0C:620D    A$uip_app_registration$1292
  0C:620E    A$uip_app_registration$1293
  0C:620F    A$uip_app_registration$1294
  0C:6210    A$uip_app_registration$1295
  0C:6211    A$uip_app_registration$1296
  0C:6212    A$uip_app_registration$1297
  0C:6215    A$uip_app_registration$1298
  0C:6217    A$uip_app_registration$1299
  0C:6219    A$uip_app_registration$1300
  0C:621C    A$uip_app_registration$1301
  0C:621E    A$uip_app_registration$1302
  0C:6220    A$uip_app_registration$1303
  0C:6222    A$uip_app_registration$1304
  0C:6224    A$uip_app_registration$1305
  0C:6225    A$uip_app_registration$1306
  0C:6227    A$uip_app_registration$1307
  0C:6229    A$uip_app_registration$1308
  0C:622A    A$uip_app_registration$1309
  0C:622C    A$uip_app_registration$1310
  0C:622E    A$uip_app_registration$1311
  0C:622F    A$uip_app_registration$1312
  0C:6230    A$uip_app_registration$1313
  0C:6231    A$uip_app_registration$1314
  0C:6232    A$uip_app_registration$1315
  0C:6235    A$uip_app_registration$1316
  0C:6236    A$uip_app_registration$1317
  0C:6237    A$uip_app_registration$1318
  0C:6238    A$uip_app_registration$1319
  0C:6239    A$uip_app_registration$1320
  0C:623A    A$uip_app_registration$1323
  0C:623A    C$uip_app_registration.c$92$2$2
  0C:623D    A$uip_app_registration$1324
  0C:623E    A$uip_app_registration$1325
  0C:623F    A$uip_app_registration$1326
  0C:6240    A$uip_app_registration$1327
  0C:6241    A$uip_app_registration$1328
  0C:6242    A$uip_app_registration$1329
  0C:6243    A$uip_app_registration$1330
  0C:6245    A$uip_app_registration$1333
  0C:6245    C$uip_app_registration.c$95$2$2
  0C:6245    XG$uip_app_list_init$0$0
  0C:6246    A$uip_app_registration$1353
  0C:6246    C$uip_app_registration.c$144$2$2
  0C:6246    G$uip_app_register$0$0
  0C:6246    _uip_app_register
  0C:6248    A$uip_app_registration$1354
  0C:624A    A$uip_app_registration$1355
  0C:624C    A$uip_app_registration$1356
  0C:624E    A$uip_app_registration$1357
  0C:6250    A$uip_app_registration$1358
  0C:6252    A$uip_app_registration$1359
  0C:6254    A$uip_app_registration$1362
  0C:6254    C$uip_app_registration.c$150$1$1
  0C:6256    A$uip_app_registration$1363
  0C:6258    A$uip_app_registration$1366
  0C:6258    C$uip_app_registration.c$152$1$1
  0C:625B    A$uip_app_registration$1367
  0C:625E    A$uip_app_registration$1370
  0C:625E    C$uip_app_registration.c$153$2$2
  0C:6261    A$uip_app_registration$1371
  0C:6264    A$uip_app_registration$1375
  0C:6264    C$uip_app_registration.c$156$1$1
  0C:6266    A$uip_app_registration$1376
  0C:6267    A$uip_app_registration$1377
  0C:6268    A$uip_app_registration$1378
  0C:6269    A$uip_app_registration$1379
  0C:626A    A$uip_app_registration$1380
  0C:626C    A$uip_app_registration$1381
  0C:626E    A$uip_app_registration$1382
  0C:626F    A$uip_app_registration$1383
  0C:6270    A$uip_app_registration$1384
  0C:6271    A$uip_app_registration$1385
  0C:6274    A$uip_app_registration$1386
  0C:6276    A$uip_app_registration$1390
  0C:6276    C$uip_app_registration.c$157$2$3
  0C:6279    A$uip_app_registration$1391
  0C:627C    A$uip_app_registration$1395
  0C:627C    C$uip_app_registration.c$160$1$1
  0C:627E    A$uip_app_registration$1396
  0C:6280    A$uip_app_registration$1397
  0C:6281    A$uip_app_registration$1398
  0C:6282    A$uip_app_registration$1399
  0C:6284    A$uip_app_registration$1400
  0C:6286    A$uip_app_registration$1401
  0C:6288    A$uip_app_registration$1402
  0C:6289    A$uip_app_registration$1403
  0C:628C    A$uip_app_registration$1404
  0C:628E    A$uip_app_registration$1408
  0C:628E    C$uip_app_registration.c$161$2$4
  0C:6291    A$uip_app_registration$1409
  0C:6294    A$uip_app_registration$1413
  0C:6296    A$uip_app_registration$1414
  0C:6298    A$uip_app_registration$1415
  0C:629A    A$uip_app_registration$1416
  0C:629B    A$uip_app_registration$1417
  0C:629C    A$uip_app_registration$1418
  0C:629D    A$uip_app_registration$1419
  0C:629E    A$uip_app_registration$1420
  0C:629F    A$uip_app_registration$1422
  0C:62A0    A$uip_app_registration$1423
  0C:62A1    A$uip_app_registration$1424
  0C:62A3    A$uip_app_registration$1425
  0C:62A4    A$uip_app_registration$1426
  0C:62A6    A$uip_app_registration$1427
  0C:62A8    A$uip_app_registration$1428
  0C:62AB    A$uip_app_registration$1432
  0C:62AB    C$uip_app_registration.c$165$2$5
  0C:62AD    A$uip_app_registration$1433
  0C:62AE    A$uip_app_registration$1434
  0C:62AF    A$uip_app_registration$1435
  0C:62B1    A$uip_app_registration$1436
  0C:62B3    A$uip_app_registration$1437
  0C:62B4    A$uip_app_registration$1438
  0C:62B5    A$uip_app_registration$1439
  0C:62B7    A$uip_app_registration$1440
  0C:62B9    A$uip_app_registration$1441
  0C:62BB    A$uip_app_registration$1442
  0C:62BC    A$uip_app_registration$1443
  0C:62BD    A$uip_app_registration$1444
  0C:62BE    A$uip_app_registration$1445
  0C:62BF    A$uip_app_registration$1446
  0C:62C0    A$uip_app_registration$1447
  0C:62C1    A$uip_app_registration$1448
  0C:62C2    A$uip_app_registration$1449
  0C:62C3    A$uip_app_registration$1450
  0C:62C4    A$uip_app_registration$1451
  0C:62C6    A$uip_app_registration$1452
  0C:62C7    A$uip_app_registration$1453
  0C:62C8    A$uip_app_registration$1454
  0C:62C9    A$uip_app_registration$1455
  0C:62CC    A$uip_app_registration$1456
  0C:62CD    A$uip_app_registration$1457
  0C:62D0    A$uip_app_registration$1460
  0C:62D0    C$uip_app_registration.c$166$3$6
  0C:62D2    A$uip_app_registration$1461
  0C:62D4    A$uip_app_registration$1462
  0C:62D7    A$uip_app_registration$1466
  0C:62D7    C$uip_app_registration.c$168$3$7
  0C:62D9    A$uip_app_registration$1467
  0C:62DA    A$uip_app_registration$1468
  0C:62DB    A$uip_app_registration$1469
  0C:62DC    A$uip_app_registration$1470
  0C:62DD    A$uip_app_registration$1471
  0C:62E0    A$uip_app_registration$1472
  0C:62E1    A$uip_app_registration$1473
  0C:62E2    A$uip_app_registration$1474
  0C:62E5    A$uip_app_registration$1475
  0C:62E7    A$uip_app_registration$1477
  0C:62E9    A$uip_app_registration$1481
  0C:62E9    C$uip_app_registration.c$169$4$8
  0C:62EC    A$uip_app_registration$1482
  0C:62EF    A$uip_app_registration$1486
  0C:62EF    C$uip_app_registration.c$172$1$1
  0C:62F1    A$uip_app_registration$1487
  0C:62F3    A$uip_app_registration$1488
  0C:62F5    A$uip_app_registration$1489
  0C:62F6    A$uip_app_registration$1490
  0C:62F8    A$uip_app_registration$1491
  0C:62F9    A$uip_app_registration$1492
  0C:62FA    A$uip_app_registration$1493
  0C:62FB    A$uip_app_registration$1494
  0C:62FC    A$uip_app_registration$1495
  0C:62FE    A$uip_app_registration$1496
  0C:62FF    A$uip_app_registration$1497
  0C:6300    A$uip_app_registration$1498
  0C:6301    A$uip_app_registration$1499
  0C:6303    A$uip_app_registration$1500
  0C:6304    A$uip_app_registration$1501
  0C:6305    A$uip_app_registration$1502
  0C:6307    A$uip_app_registration$1503
  0C:6308    A$uip_app_registration$1504
  0C:6309    A$uip_app_registration$1505
  0C:630A    A$uip_app_registration$1506
  0C:630C    A$uip_app_registration$1507
  0C:630D    A$uip_app_registration$1508
  0C:630F    A$uip_app_registration$1509
  0C:6310    A$uip_app_registration$1510
  0C:6311    A$uip_app_registration$1511
  0C:6312    A$uip_app_registration$1512
  0C:6313    A$uip_app_registration$1513
  0C:6315    A$uip_app_registration$1514
  0C:6316    A$uip_app_registration$1515
  0C:6317    A$uip_app_registration$1516
  0C:6318    A$uip_app_registration$1517
  0C:6319    A$uip_app_registration$1518
  0C:631C    A$uip_app_registration$1519
  0C:631E    A$uip_app_registration$1520
  0C:6320    A$uip_app_registration$1522
  0C:6321    A$uip_app_registration$1524
  0C:6323    A$uip_app_registration$1525
  0C:6325    A$uip_app_registration$1526
  0C:6327    A$uip_app_registration$1529
  0C:6327    C$uip_app_registration.c$173$1$1
  0C:6329    A$uip_app_registration$1530
  0C:632B    A$uip_app_registration$1531
  0C:632D    A$uip_app_registration$1532
  0C:632E    A$uip_app_registration$1533
  0C:632F    A$uip_app_registration$1534
  0C:6330    A$uip_app_registration$1535
  0C:6332    A$uip_app_registration$1536
  0C:6333    A$uip_app_registration$1537
  0C:6335    A$uip_app_registration$1538
  0C:6336    A$uip_app_registration$1539
  0C:6337    A$uip_app_registration$1540
  0C:6338    A$uip_app_registration$1541
  0C:6339    A$uip_app_registration$1542
  0C:633A    A$uip_app_registration$1543
  0C:633B    A$uip_app_registration$1544
  0C:633C    A$uip_app_registration$1545
  0C:633D    A$uip_app_registration$1546
  0C:633F    A$uip_app_registration$1547
  0C:6341    A$uip_app_registration$1548
  0C:6342    A$uip_app_registration$1549
  0C:6343    A$uip_app_registration$1550
  0C:6346    A$uip_app_registration$1551
  0C:6347    A$uip_app_registration$1552
  0C:6348    A$uip_app_registration$1553
  0C:634B    A$uip_app_registration$1554
  0C:634D    A$uip_app_registration$1555
  0C:634F    A$uip_app_registration$1557
  0C:6350    A$uip_app_registration$1559
  0C:6352    A$uip_app_registration$1560
  0C:6354    A$uip_app_registration$1561
  0C:6356    A$uip_app_registration$1564
  0C:6356    C$uip_app_registration.c$174$1$1
  0C:6358    A$uip_app_registration$1565
  0C:635A    A$uip_app_registration$1566
  0C:635C    A$uip_app_registration$1567
  0C:635D    A$uip_app_registration$1568
  0C:635E    A$uip_app_registration$1569
  0C:635F    A$uip_app_registration$1570
  0C:6361    A$uip_app_registration$1571
  0C:6362    A$uip_app_registration$1572
  0C:6364    A$uip_app_registration$1573
  0C:6365    A$uip_app_registration$1574
  0C:6366    A$uip_app_registration$1575
  0C:6367    A$uip_app_registration$1576
  0C:6368    A$uip_app_registration$1577
  0C:6369    A$uip_app_registration$1578
  0C:636A    A$uip_app_registration$1579
  0C:636B    A$uip_app_registration$1580
  0C:636D    A$uip_app_registration$1581
  0C:636F    A$uip_app_registration$1582
  0C:6370    A$uip_app_registration$1583
  0C:6371    A$uip_app_registration$1584
  0C:6374    A$uip_app_registration$1585
  0C:6376    A$uip_app_registration$1586
  0C:6378    A$uip_app_registration$1588
  0C:6379    A$uip_app_registration$1590
  0C:637B    A$uip_app_registration$1591
  0C:637D    A$uip_app_registration$1592
  0C:637F    A$uip_app_registration$1595
  0C:637F    C$uip_app_registration.c$175$4$9
  0C:6382    A$uip_app_registration$1596
  0C:6385    A$uip_app_registration$1600
  0C:6385    C$uip_app_registration.c$164$1$1
  0C:6387    A$uip_app_registration$1601
  0C:6388    A$uip_app_registration$1602
  0C:638A    A$uip_app_registration$1603
  0C:638B    A$uip_app_registration$1604
  0C:638C    A$uip_app_registration$1605
  0C:638D    A$uip_app_registration$1606
  0C:638E    A$uip_app_registration$1607
  0C:638F    A$uip_app_registration$1608
  0C:6390    A$uip_app_registration$1609
  0C:6391    A$uip_app_registration$1610
  0C:6394    A$uip_app_registration$1611
  0C:6395    A$uip_app_registration$1613
  0C:6398    A$uip_app_registration$1617
  0C:6398    C$uip_app_registration.c$180$1$1
  0C:6399    A$uip_app_registration$1618
  0C:639A    A$uip_app_registration$1619
  0C:639C    A$uip_app_registration$1620
  0C:639D    A$uip_app_registration$1621
  0C:639F    A$uip_app_registration$1622
  0C:63A1    A$uip_app_registration$1625
  0C:63A1    C$uip_app_registration.c$181$2$10
  0C:63A4    A$uip_app_registration$1626
  0C:63A5    A$uip_app_registration$1627
  0C:63A6    A$uip_app_registration$1628
  0C:63A7    A$uip_app_registration$1629
  0C:63A8    A$uip_app_registration$1630
  0C:63A9    A$uip_app_registration$1631
  0C:63AC    A$uip_app_registration$1632
  0C:63AE    A$uip_app_registration$1633
  0C:63B0    A$uip_app_registration$1634
  0C:63B3    A$uip_app_registration$1635
  0C:63B5    A$uip_app_registration$1636
  0C:63B7    A$uip_app_registration$1637
  0C:63B9    A$uip_app_registration$1638
  0C:63BB    A$uip_app_registration$1639
  0C:63BC    A$uip_app_registration$1640
  0C:63BE    A$uip_app_registration$1641
  0C:63C0    A$uip_app_registration$1642
  0C:63C1    A$uip_app_registration$1643
  0C:63C3    A$uip_app_registration$1644
  0C:63C5    A$uip_app_registration$1645
  0C:63C6    A$uip_app_registration$1646
  0C:63C7    A$uip_app_registration$1647
  0C:63C8    A$uip_app_registration$1648
  0C:63C9    A$uip_app_registration$1649
  0C:63CA    A$uip_app_registration$1652
  0C:63CA    C$uip_app_registration.c$182$2$10
  0C:63CB    A$uip_app_registration$1653
  0C:63CD    A$uip_app_registration$1654
  0C:63CE    A$uip_app_registration$1655
  0C:63CF    A$uip_app_registration$1656
  0C:63D1    A$uip_app_registration$1657
  0C:63D2    A$uip_app_registration$1658
  0C:63D4    A$uip_app_registration$1659
  0C:63D6    A$uip_app_registration$1660
  0C:63D7    A$uip_app_registration$1661
  0C:63D8    A$uip_app_registration$1662
  0C:63DA    A$uip_app_registration$1663
  0C:63DB    A$uip_app_registration$1664
  0C:63DC    A$uip_app_registration$1665
  0C:63DD    A$uip_app_registration$1666
  0C:63DE    A$uip_app_registration$1667
  0C:63DF    A$uip_app_registration$1670
  0C:63DF    C$uip_app_registration.c$183$2$10
  0C:63E1    A$uip_app_registration$1671
  0C:63E3    A$uip_app_registration$1672
  0C:63E4    A$uip_app_registration$1673
  0C:63E5    A$uip_app_registration$1674
  0C:63E6    A$uip_app_registration$1675
  0C:63E8    A$uip_app_registration$1676
  0C:63EA    A$uip_app_registration$1677
  0C:63EB    A$uip_app_registration$1678
  0C:63EC    A$uip_app_registration$1679
  0C:63ED    A$uip_app_registration$1680
  0C:63EE    A$uip_app_registration$1681
  0C:63EF    A$uip_app_registration$1682
  0C:63F0    A$uip_app_registration$1683
  0C:63F1    A$uip_app_registration$1686
  0C:63F1    C$uip_app_registration.c$184$2$10
  0C:63F3    A$uip_app_registration$1687
  0C:63F5    A$uip_app_registration$1688
  0C:63F6    A$uip_app_registration$1689
  0C:63F7    A$uip_app_registration$1690
  0C:63F8    A$uip_app_registration$1691
  0C:63F9    A$uip_app_registration$1692
  0C:63FA    A$uip_app_registration$1693
  0C:63FC    A$uip_app_registration$1694
  0C:63FE    A$uip_app_registration$1695
  0C:63FF    A$uip_app_registration$1696
  0C:6400    A$uip_app_registration$1697
  0C:6401    A$uip_app_registration$1700
  0C:6401    C$uip_app_registration.c$185$2$10
  0C:6404    A$uip_app_registration$1701
  0C:6406    A$uip_app_registration$1705
  0C:6406    C$uip_app_registration.c$187$2$11
  0C:6409    A$uip_app_registration$1707
  0C:640C    A$uip_app_registration$1708
  0C:640E    A$uip_app_registration$1711
  0C:640E    C$uip_app_registration.c$189$1$1
  0C:640E    XG$uip_app_register$0$0
  0C:640F    A$uip_app_registration$1726
  0C:640F    C$uip_app_registration.c$208$1$1
  0C:640F    G$uip_app_unregister$0$0
  0C:640F    _uip_app_unregister
  0C:6411    A$uip_app_registration$1727
  0C:6414    A$uip_app_registration$1728
  0C:6416    A$uip_app_registration$1729
  0C:6418    A$uip_app_registration$1730
  0C:641A    A$uip_app_registration$1731
  0C:641C    A$uip_app_registration$1734
  0C:641C    C$uip_app_registration.c$213$1$1
  0C:641F    A$uip_app_registration$1735
  0C:6422    A$uip_app_registration$1738
  0C:6422    C$uip_app_registration.c$214$2$2
  0C:6425    A$uip_app_registration$1741
  0C:6427    A$uip_app_registration$1743
  0C:6429    A$uip_app_registration$1744
  0C:642B    A$uip_app_registration$1745
  0C:642D    A$uip_app_registration$1746
  0C:642F    A$uip_app_registration$1748
  0C:6430    A$uip_app_registration$1749
  0C:6431    A$uip_app_registration$1750
  0C:6433    A$uip_app_registration$1751
  0C:6434    A$uip_app_registration$1752
  0C:6436    A$uip_app_registration$1753
  0C:6438    A$uip_app_registration$1756
  0C:6438    C$uip_app_registration.c$218$1$1
  0C:643A    A$uip_app_registration$1757
  0C:643C    A$uip_app_registration$1758
  0C:643E    A$uip_app_registration$1759
  0C:643F    A$uip_app_registration$1760
  0C:6440    A$uip_app_registration$1761
  0C:6442    A$uip_app_registration$1762
  0C:6443    A$uip_app_registration$1763
  0C:6444    A$uip_app_registration$1764
  0C:6446    A$uip_app_registration$1765
  0C:6447    A$uip_app_registration$1766
  0C:6448    A$uip_app_registration$1767
  0C:644A    A$uip_app_registration$1768
  0C:644B    A$uip_app_registration$1769
  0C:644D    A$uip_app_registration$1770
  0C:644E    A$uip_app_registration$1771
  0C:6450    A$uip_app_registration$1772
  0C:6451    A$uip_app_registration$1773
  0C:6452    A$uip_app_registration$1774
  0C:6453    A$uip_app_registration$1775
  0C:6454    A$uip_app_registration$1776
  0C:6455    A$uip_app_registration$1777
  0C:6456    A$uip_app_registration$1778
  0C:6459    A$uip_app_registration$1779
  0C:645A    A$uip_app_registration$1780
  0C:645D    A$uip_app_registration$1781
  0C:645F    A$uip_app_registration$1782
  0C:6461    A$uip_app_registration$1784
  0C:6462    A$uip_app_registration$1786
  0C:6464    A$uip_app_registration$1787
  0C:6466    A$uip_app_registration$1788
  0C:6468    A$uip_app_registration$1791
  0C:6468    C$uip_app_registration.c$219$3$4
  0C:646A    A$uip_app_registration$1792
  0C:646B    A$uip_app_registration$1793
  0C:646D    A$uip_app_registration$1794
  0C:646E    A$uip_app_registration$1795
  0C:6470    A$uip_app_registration$1796
  0C:6471    A$uip_app_registration$1797
  0C:6472    A$uip_app_registration$1798
  0C:6473    A$uip_app_registration$1799
  0C:6474    A$uip_app_registration$1802
  0C:6474    C$uip_app_registration.c$220$3$4
  0C:6477    A$uip_app_registration$1803
  0C:6479    A$uip_app_registration$1807
  0C:6479    C$uip_app_registration.c$217$1$1
  0C:647B    A$uip_app_registration$1808
  0C:647C    A$uip_app_registration$1809
  0C:647D    A$uip_app_registration$1810
  0C:647E    A$uip_app_registration$1811
  0C:647F    A$uip_app_registration$1812
  0C:6480    A$uip_app_registration$1813
  0C:6481    A$uip_app_registration$1814
  0C:6484    A$uip_app_registration$1815
  0C:6485    A$uip_app_registration$1816
  0C:6487    A$uip_app_registration$1820
  0C:6487    C$uip_app_registration.c$224$1$1
  0C:648A    A$uip_app_registration$1822
  0C:648D    A$uip_app_registration$1823
  0C:648F    A$uip_app_registration$1826
  0C:648F    C$uip_app_registration.c$225$1$1
  0C:648F    XG$uip_app_unregister$0$0
  0C:6490    A$uip_app_registration$1842
  0C:6490    C$uip_app_registration.c$242$1$1
  0C:6490    C$uip_app_registration.c$247$2$2
  0C:6490    G$uip_tcp_app_exec$0$0
  0C:6490    _uip_tcp_app_exec
  0C:6492    A$uip_app_registration$1843
  0C:6494    A$uip_app_registration$1845
  0C:6495    A$uip_app_registration$1846
  0C:6496    A$uip_app_registration$1847
  0C:6498    A$uip_app_registration$1848
  0C:6499    A$uip_app_registration$1849
  0C:649B    A$uip_app_registration$1850
  0C:649D    A$uip_app_registration$1851
  0C:649E    A$uip_app_registration$1855
  0C:649E    C$uip_app_registration.c$248$1$1
  0C:64A1    A$uip_app_registration$1856
  0C:64A2    A$uip_app_registration$1857
  0C:64A3    A$uip_app_registration$1858
  0C:64A4    A$uip_app_registration$1859
  0C:64A5    A$uip_app_registration$1860
  0C:64A6    A$uip_app_registration$1861
  0C:64A9    A$uip_app_registration$1862
  0C:64AB    A$uip_app_registration$1863
  0C:64AD    A$uip_app_registration$1864
  0C:64B0    A$uip_app_registration$1865
  0C:64B2    A$uip_app_registration$1866
  0C:64B4    A$uip_app_registration$1867
  0C:64B6    A$uip_app_registration$1868
  0C:64B8    A$uip_app_registration$1869
  0C:64B9    A$uip_app_registration$1870
  0C:64BB    A$uip_app_registration$1871
  0C:64BC    A$uip_app_registration$1872
  0C:64BD    A$uip_app_registration$1873
  0C:64BF    A$uip_app_registration$1874
  0C:64C0    A$uip_app_registration$1875
  0C:64C2    A$uip_app_registration$1876
  0C:64C4    A$uip_app_registration$1877
  0C:64C5    A$uip_app_registration$1878
  0C:64C6    A$uip_app_registration$1879
  0C:64C7    A$uip_app_registration$1880
  0C:64C8    A$uip_app_registration$1881
  0C:64C9    A$uip_app_registration$1882
  0C:64CA    A$uip_app_registration$1883
  0C:64CB    A$uip_app_registration$1884
  0C:64CE    A$uip_app_registration$1885
  0C:64D0    A$uip_app_registration$1887
  0C:64D3    A$uip_app_registration$1891
  0C:64D3    C$uip_app_registration.c$249$1$1
  0C:64D5    A$uip_app_registration$1892
  0C:64D7    A$uip_app_registration$1893
  0C:64D9    A$uip_app_registration$1894
  0C:64DB    A$uip_app_registration$1895
  0C:64DC    A$uip_app_registration$1896
  0C:64DD    A$uip_app_registration$1897
  0C:64DE    A$uip_app_registration$1898
  0C:64DF    A$uip_app_registration$1899
  0C:64E1    A$uip_app_registration$1900
  0C:64E2    A$uip_app_registration$1901
  0C:64E3    A$uip_app_registration$1902
  0C:64E5    A$uip_app_registration$1903
  0C:64E8    A$uip_app_registration$1904
  0C:64E9    A$uip_app_registration$1905
  0C:64EA    A$uip_app_registration$1906
  0C:64EB    A$uip_app_registration$1907
  0C:64EC    A$uip_app_registration$1908
  0C:64ED    A$uip_app_registration$1909
  0C:64EE    A$uip_app_registration$1910
  0C:64EF    A$uip_app_registration$1911
  0C:64F0    A$uip_app_registration$1912
  0C:64F2    A$uip_app_registration$1913
  0C:64F3    A$uip_app_registration$1914
  0C:64F4    A$uip_app_registration$1915
  0C:64F5    A$uip_app_registration$1916
  0C:64F6    A$uip_app_registration$1917
  0C:64F7    A$uip_app_registration$1918
  0C:64F9    A$uip_app_registration$1919
  0C:64FB    A$uip_app_registration$1920
  0C:64FD    A$uip_app_registration$1921
  0C:6500    A$uip_app_registration$1922
  0C:6501    A$uip_app_registration$1923
  0C:6502    A$uip_app_registration$1924
  0C:6505    A$uip_app_registration$1925
  0C:6506    A$uip_app_registration$1926
  0C:6507    A$uip_app_registration$1927
  0C:650A    A$uip_app_registration$1928
  0C:650B    A$uip_app_registration$1929
  0C:650E    A$uip_app_registration$1930
  0C:6510    A$uip_app_registration$1931
  0C:6512    A$uip_app_registration$1933
  0C:6513    A$uip_app_registration$1935
  0C:6515    A$uip_app_registration$1936
  0C:6517    A$uip_app_registration$1937
  0C:6519    A$uip_app_registration$1938
  0C:651C    A$uip_app_registration$1942
  0C:651C    C$uip_app_registration.c$250$3$3
  0C:651E    A$uip_app_registration$1943
  0C:651F    A$uip_app_registration$1944
  0C:6520    A$uip_app_registration$1945
  0C:6521    A$uip_app_registration$1946
  0C:6522    A$uip_app_registration$1947
  0C:6523    A$uip_app_registration$1948
  0C:6525    A$uip_app_registration$1949
  0C:6527    A$uip_app_registration$1950
  0C:6528    A$uip_app_registration$1951
  0C:652A    A$uip_app_registration$1952
  0C:652D    A$uip_app_registration$1956
  0C:652D    C$uip_app_registration.c$251$3$3
  0C:652E    A$uip_app_registration$1957
  0C:6530    A$uip_app_registration$1958
  0C:6532    A$uip_app_registration$1959
  0C:6533    A$uip_app_registration$1960
  0C:6535    A$uip_app_registration$1961
  0C:6537    A$uip_app_registration$1962
  0C:6538    A$uip_app_registration$1963
  0C:6539    A$uip_app_registration$1964
  0C:653A    A$uip_app_registration$1965
  0C:653B    A$uip_app_registration$1966
  0C:653C    A$uip_app_registration$1967
  0C:653F    A$uip_app_registration$1968
  0C:6542    A$uip_app_registration$1969
  0C:6545    A$uip_app_registration$1973
  0C:6545    C$uip_app_registration.c$252$4$4
  0C:6547    A$uip_app_registration$1974
  0C:6549    A$uip_app_registration$1975
  0C:654B    A$uip_app_registration$1976
  0C:654D    A$uip_app_registration$1977
  0C:654F    A$uip_app_registration$1978
  0C:6551    A$uip_app_registration$1979
  0C:6554    A$uip_app_registration$1980
  0C:6556    A$uip_app_registration$1981
  0C:6558    A$uip_app_registration$1982
  0C:655A    A$uip_app_registration$1983
  0C:655C    A$uip_app_registration$1984
  0C:655F    A$uip_app_registration$1988
  0C:655F    C$uip_app_registration.c$255$1$1
  0C:6561    A$uip_app_registration$1989
  0C:6563    A$uip_app_registration$1990
  0C:6565    A$uip_app_registration$1991
  0C:6567    A$uip_app_registration$1992
  0C:6568    A$uip_app_registration$1993
  0C:6569    A$uip_app_registration$1994
  0C:656A    A$uip_app_registration$1995
  0C:656B    A$uip_app_registration$1996
  0C:656D    A$uip_app_registration$1997
  0C:656E    A$uip_app_registration$1998
  0C:656F    A$uip_app_registration$1999
  0C:6571    A$uip_app_registration$2000
  0C:6574    A$uip_app_registration$2001
  0C:6575    A$uip_app_registration$2002
  0C:6576    A$uip_app_registration$2003
  0C:6577    A$uip_app_registration$2004
  0C:6578    A$uip_app_registration$2005
  0C:6579    A$uip_app_registration$2006
  0C:657A    A$uip_app_registration$2007
  0C:657B    A$uip_app_registration$2008
  0C:657C    A$uip_app_registration$2009
  0C:657E    A$uip_app_registration$2010
  0C:657F    A$uip_app_registration$2011
  0C:6580    A$uip_app_registration$2012
  0C:6581    A$uip_app_registration$2013
  0C:6582    A$uip_app_registration$2014
  0C:6583    A$uip_app_registration$2015
  0C:6585    A$uip_app_registration$2016
  0C:6587    A$uip_app_registration$2017
  0C:6589    A$uip_app_registration$2018
  0C:658C    A$uip_app_registration$2019
  0C:658D    A$uip_app_registration$2020
  0C:658E    A$uip_app_registration$2021
  0C:6591    A$uip_app_registration$2022
  0C:6592    A$uip_app_registration$2023
  0C:6593    A$uip_app_registration$2024
  0C:6596    A$uip_app_registration$2025
  0C:6597    A$uip_app_registration$2026
  0C:659A    A$uip_app_registration$2027
  0C:659C    A$uip_app_registration$2028
  0C:659E    A$uip_app_registration$2030
  0C:659F    A$uip_app_registration$2032
  0C:65A1    A$uip_app_registration$2033
  0C:65A3    A$uip_app_registration$2034
  0C:65A5    A$uip_app_registration$2037
  0C:65A5    C$uip_app_registration.c$256$3$5
  0C:65A7    A$uip_app_registration$2038
  0C:65A8    A$uip_app_registration$2039
  0C:65A9    A$uip_app_registration$2040
  0C:65AA    A$uip_app_registration$2041
  0C:65AB    A$uip_app_registration$2042
  0C:65AC    A$uip_app_registration$2043
  0C:65AE    A$uip_app_registration$2044
  0C:65B0    A$uip_app_registration$2045
  0C:65B1    A$uip_app_registration$2046
  0C:65B3    A$uip_app_registration$2049
  0C:65B3    C$uip_app_registration.c$257$3$5
  0C:65B4    A$uip_app_registration$2050
  0C:65B6    A$uip_app_registration$2051
  0C:65B8    A$uip_app_registration$2052
  0C:65B9    A$uip_app_registration$2053
  0C:65BB    A$uip_app_registration$2054
  0C:65BD    A$uip_app_registration$2055
  0C:65BE    A$uip_app_registration$2056
  0C:65BF    A$uip_app_registration$2057
  0C:65C0    A$uip_app_registration$2058
  0C:65C1    A$uip_app_registration$2059
  0C:65C2    A$uip_app_registration$2060
  0C:65C5    A$uip_app_registration$2061
  0C:65C8    A$uip_app_registration$2062
  0C:65CA    A$uip_app_registration$2066
  0C:65CA    C$uip_app_registration.c$258$4$6
  0C:65CC    A$uip_app_registration$2067
  0C:65CE    A$uip_app_registration$2068
  0C:65D0    A$uip_app_registration$2069
  0C:65D2    A$uip_app_registration$2070
  0C:65D4    A$uip_app_registration$2071
  0C:65D6    A$uip_app_registration$2072
  0C:65D9    A$uip_app_registration$2073
  0C:65DB    A$uip_app_registration$2074
  0C:65DD    A$uip_app_registration$2075
  0C:65DF    A$uip_app_registration$2076
  0C:65E1    A$uip_app_registration$2080
  0C:65E1    C$uip_app_registration.c$247$1$1
  0C:65E2    A$uip_app_registration$2081
  0C:65E5    A$uip_app_registration$2082
  0C:65E6    A$uip_app_registration$2086
  0C:65E6    C$uip_app_registration.c$262$1$1
  0C:65E6    XG$uip_tcp_app_exec$0$0
  0C:65E9    _strcpy
  0C:6642    __divslong
  0C:670A    __divulong
  0C:6815    _strncmp
  0C:68C5    _strrchr
  0C:6974    _isspace
  0C:69A3    _memcpy
  0C:6A19    _memset
  0C:6A41    _isdigit
  0C:6A5E    _atoi
  0C:6B8E    _strcat
  0C:6BF9    _strncpy
  0C:6CBB    __gptrput
  0C:6CD4    _strchr
  0C:6D3E    _abs
  0C:6D6A    __mulint
  0C:6D8A    __modsint
  0C:6DF8    __mullong
  0C:6DF8    __mullong_dummy
  0C:6E64    __moduint
  0C:6F11    _strncat
  0C:7005    __divsint
  0C:707D    __divuint
  0C:7170    _vsprintf
  0C:71D1    _sprintf
  0C:7239    _vprintf
  0C:7278    _printf
  0C:738C    __print_format
  0C:7AAB    _strlen
  0C:7AC3    __gptrget
  0C:7ADF    __sdcc_external_startup

Hexadecimal

Area                               Addr   Size   Decimal Bytes (Attributes)
--------------------------------   ----   ----   ------- ----- ------------
APP_BANK                           38000   185F =   6239. bytes (REL,CON,CODE)

      Value  Global
   --------  --------------------------------
  0C:38000    A$adcd$1290
  0C:38000    C$adcd.c$86$0$0
  0C:38000    C$adcd.c$88$1$1
  0C:38000    G$init_adcd$0$0
  0C:38000    _init_adcd
  0C:38002    A$adcd$1293
  0C:38002    C$adcd.c$89$1$1
  0C:38004    A$adcd$1296
  0C:38004    C$adcd.c$91$1$1
  0C:38007    A$adcd$1297
  0C:38009    A$adcd$1298
  0C:3800A    A$adcd$1299
  0C:3800B    A$adcd$1300
  0C:3800D    A$adcd$1301
  0C:3800E    A$adcd$1302
  0C:3800F    A$adcd$1303
  0C:38010    A$adcd$1304
  0C:38011    A$adcd$1307
  0C:38011    C$adcd.c$92$1$1
  0C:38014    A$adcd$1308
  0C:38016    A$adcd$1309
  0C:38017    A$adcd$1310
  0C:38018    A$adcd$1311
  0C:3801A    A$adcd$1312
  0C:3801B    A$adcd$1313
  0C:3801C    A$adcd$1316
  0C:3801C    C$adcd.c$94$1$1
  0C:3801D    A$adcd$1317
  0C:3801E    A$adcd$1318
  0C:38021    A$adcd$1319
  0C:38022    A$adcd$1320
  0C:38023    A$adcd$1321
  0C:38024    A$adcd$1324
  0C:38024    C$adcd.c$95$1$1
  0C:38027    A$adcd$1325
  0C:38028    A$adcd$1326
  0C:38029    A$adcd$1327
  0C:3802A    A$adcd$1328
  0C:3802B    A$adcd$1331
  0C:3802B    C$adcd.c$97$1$1
  0C:3802E    A$adcd$1332
  0C:3802F    A$adcd$1333
  0C:38030    A$adcd$1336
  0C:38030    C$adcd.c$99$1$1
  0C:38031    A$adcd$1337
  0C:38033    A$adcd$1338
  0C:38036    A$adcd$1339
  0C:38039    A$adcd$1340
  0C:3803C    A$adcd$1341
  0C:3803E    A$adcd$1344
  0C:3803E    C$adcd.c$100$1$1
  0C:3803F    A$adcd$1345
  0C:38041    A$adcd$1346
  0C:38044    A$adcd$1347
  0C:38047    A$adcd$1348
  0C:3804A    A$adcd$1349
  0C:3804C    A$adcd$1352
  0C:3804C    C$adcd.c$101$1$1
  0C:3804C    XG$init_adcd$0$0
  0C:3804F    A$adcd$1366
  0C:3804F    C$adcd.c$107$1$1
  0C:3804F    C$adcd.c$109$1$1
  0C:3804F    G$get_active_sensor$0$0
  0C:3804F    _get_active_sensor
  0C:38052    A$adcd$1367
  0C:38053    A$adcd$1368
  0C:38054    A$adcd$1369
  0C:38056    A$adcd$1372
  0C:38056    C$adcd.c$110$1$1
  0C:38056    XG$get_active_sensor$0$0
  0C:38059    A$adcd$1396
  0C:38059    C$adcd.c$115$1$1
  0C:38059    G$handle_adcd$0$0
  0C:38059    _handle_adcd
  0C:3805B    A$adcd$1397
  0C:3805E    A$adcd$1398
  0C:38060    A$adcd$1399
  0C:38062    A$adcd$1400
  0C:38064    A$adcd$1401
  0C:38066    A$adcd$1402
  0C:38068    A$adcd$1403
  0C:3806A    A$adcd$1406
  0C:3806A    C$adcd.c$117$2$2
  0C:3806C    A$adcd$1407
  0C:3806D    A$adcd$1408
  0C:3806F    A$adcd$1409
  0C:38070    A$adcd$1410
  0C:38072    A$adcd$1411
  0C:38073    A$adcd$1412
  0C:38075    A$adcd$1413
  0C:38078    A$adcd$1414
  0C:38079    A$adcd$1415
  0C:3807A    A$adcd$1416
  0C:3807D    A$adcd$1417
  0C:3807E    A$adcd$1418
  0C:38081    A$adcd$1419
  0C:38084    A$adcd$1420
  0C:38086    A$adcd$1422
  0C:38089    A$adcd$1423
  0C:3808C    A$adcd$1424
  0C:3808E    A$adcd$1426
  0C:38091    A$adcd$1427
  0C:38094    A$adcd$1428
  0C:38097    A$adcd$1430
  0C:3809A    A$adcd$1431
  0C:3809D    A$adcd$1432
  0C:380A0    A$adcd$1434
  0C:380A3    A$adcd$1435
  0C:380A6    A$adcd$1436
  0C:380A9    A$adcd$1438
  0C:380AC    A$adcd$1439
  0C:380AF    A$adcd$1440
  0C:380B2    A$adcd$1442
  0C:380B5    A$adcd$1446
  0C:380B5    C$adcd.c$120$3$3
  0C:380B7    A$adcd$1447
  0C:380B8    A$adcd$1448
  0C:380BA    A$adcd$1449
  0C:380BB    A$adcd$1450
  0C:380BC    A$adcd$1451
  0C:380BD    A$adcd$1452
  0C:380BE    A$adcd$1453
  0C:380BF    A$adcd$1454
  0C:380C0    A$adcd$1455
  0C:380C1    A$adcd$1456
  0C:380C3    A$adcd$1457
  0C:380C5    A$adcd$1458
  0C:380C7    A$adcd$1459
  0C:380C9    A$adcd$1460
  0C:380CB    A$adcd$1461
  0C:380CD    A$adcd$1462
  0C:380CF    A$adcd$1463
  0C:380D2    A$adcd$1464
  0C:380D4    A$adcd$1465
  0C:380D6    A$adcd$1466
  0C:380D8    A$adcd$1467
  0C:380DA    A$adcd$1468
  0C:380DC    A$adcd$1469
  0C:380DE    A$adcd$1470
  0C:380E0    A$adcd$1471
  0C:380E1    A$adcd$1472
  0C:380E4    A$adcd$1478
  0C:380E4    C$adcd.c$125$4$4
  0C:380E4    C$adcd.c$128$4$4
  0C:380E6    A$adcd$1481
  0C:380E6    C$adcd.c$131$5$5
  0C:380E8    A$adcd$1482
  0C:380E9    A$adcd$1483
  0C:380EB    A$adcd$1484
  0C:380EC    A$adcd$1485
  0C:380EE    A$adcd$1486
  0C:380EF    A$adcd$1487
  0C:380F1    A$adcd$1488
  0C:380F3    A$adcd$1489
  0C:380F6    A$adcd$1490
  0C:380F7    A$adcd$1491
  0C:380F8    A$adcd$1492
  0C:380FB    A$adcd$1494
  0C:380FE    A$adcd$1495
  0C:380FF    A$adcd$1496
  0C:38101    A$adcd$1497
  0C:38103    A$adcd$1498
  0C:38106    A$adcd$1502
  0C:38106    C$adcd.c$133$5$7
  0C:38108    A$adcd$1503
  0C:38109    A$adcd$1504
  0C:3810B    A$adcd$1505
  0C:3810C    A$adcd$1506
  0C:3810E    A$adcd$1507
  0C:3810F    A$adcd$1508
  0C:38111    A$adcd$1509
  0C:38113    A$adcd$1510
  0C:38116    A$adcd$1511
  0C:38117    A$adcd$1512
  0C:38118    A$adcd$1513
  0C:3811B    A$adcd$1515
  0C:3811E    A$adcd$1516
  0C:3811F    A$adcd$1517
  0C:38121    A$adcd$1518
  0C:38124    A$adcd$1520
  0C:38126    A$adcd$1521
  0C:38127    A$adcd$1522
  0C:38129    A$adcd$1523
  0C:3812A    A$adcd$1524
  0C:3812B    A$adcd$1525
  0C:3812C    A$adcd$1526
  0C:3812D    A$adcd$1527
  0C:3812E    A$adcd$1528
  0C:3812F    A$adcd$1529
  0C:38130    A$adcd$1530
  0C:38132    A$adcd$1531
  0C:38135    A$adcd$1532
  0C:38137    A$adcd$1533
  0C:38139    A$adcd$1534
  0C:3813B    A$adcd$1535
  0C:3813E    A$adcd$1536
  0C:38140    A$adcd$1537
  0C:38142    A$adcd$1538
  0C:38144    A$adcd$1539
  0C:38146    A$adcd$1540
  0C:38148    A$adcd$1541
  0C:3814A    A$adcd$1542
  0C:3814C    A$adcd$1543
  0C:3814E    A$adcd$1544
  0C:3814F    A$adcd$1545
  0C:38152    A$adcd$1546
  0C:38153    A$adcd$1547
  0C:38154    A$adcd$1548
  0C:38157    A$adcd$1549
  0C:3815A    A$adcd$1550
  0C:3815B    A$adcd$1551
  0C:3815C    A$adcd$1552
  0C:3815D    A$adcd$1553
  0C:3815E    A$adcd$1554
  0C:3815F    A$adcd$1555
  0C:38160    A$adcd$1556
  0C:38161    A$adcd$1557
  0C:38162    A$adcd$1558
  0C:38163    A$adcd$1559
  0C:38165    A$adcd$1560
  0C:38167    A$adcd$1561
  0C:3816A    A$adcd$1562
  0C:3816C    A$adcd$1563
  0C:3816E    A$adcd$1564
  0C:38170    A$adcd$1565
  0C:38171    A$adcd$1566
  0C:38173    A$adcd$1567
  0C:38174    A$adcd$1568
  0C:38175    A$adcd$1569
  0C:38176    A$adcd$1570
  0C:38177    A$adcd$1571
  0C:38178    A$adcd$1572
  0C:38179    A$adcd$1573
  0C:3817A    A$adcd$1574
  0C:3817C    A$adcd$1575
  0C:3817F    A$adcd$1576
  0C:38181    A$adcd$1577
  0C:38183    A$adcd$1578
  0C:38185    A$adcd$1579
  0C:38188    A$adcd$1580
  0C:3818A    A$adcd$1581
  0C:3818C    A$adcd$1582
  0C:3818E    A$adcd$1583
  0C:38190    A$adcd$1584
  0C:38192    A$adcd$1585
  0C:38194    A$adcd$1586
  0C:38196    A$adcd$1587
  0C:38198    A$adcd$1588
  0C:38199    A$adcd$1589
  0C:3819C    A$adcd$1590
  0C:3819D    A$adcd$1591
  0C:3819E    A$adcd$1592
  0C:381A1    A$adcd$1593
  0C:381A4    A$adcd$1594
  0C:381A5    A$adcd$1595
  0C:381A6    A$adcd$1596
  0C:381A7    A$adcd$1597
  0C:381A8    A$adcd$1598
  0C:381A9    A$adcd$1599
  0C:381AA    A$adcd$1600
  0C:381AB    A$adcd$1601
  0C:381AC    A$adcd$1602
  0C:381AD    A$adcd$1603
  0C:381AF    A$adcd$1604
  0C:381B1    A$adcd$1605
  0C:381B4    A$adcd$1606
  0C:381B6    A$adcd$1607
  0C:381B8    A$adcd$1608
  0C:381BB    A$adcd$1609
  0C:381BE    A$adcd$1613
  0C:381BE    C$adcd.c$138$4$4
  0C:381C1    A$adcd$1614
  0C:381C2    A$adcd$1615
  0C:381C4    A$adcd$1616
  0C:381C7    A$adcd$1620
  0C:381C7    C$adcd.c$141$4$4
  0C:381C9    A$adcd$1621
  0C:381CA    A$adcd$1622
  0C:381CC    A$adcd$1623
  0C:381CD    A$adcd$1624
  0C:381CE    A$adcd$1625
  0C:381CF    A$adcd$1626
  0C:381D0    A$adcd$1627
  0C:381D1    A$adcd$1628
  0C:381D2    A$adcd$1629
  0C:381D3    A$adcd$1630
  0C:381D5    A$adcd$1631
  0C:381D7    A$adcd$1632
  0C:381D9    A$adcd$1633
  0C:381DB    A$adcd$1634
  0C:381DE    A$adcd$1635
  0C:381DF    A$adcd$1636
  0C:381E0    A$adcd$1637
  0C:381E3    A$adcd$1638
  0C:381E4    A$adcd$1639
  0C:381E7    A$adcd$1640
  0C:381E8    A$adcd$1641
  0C:381E9    A$adcd$1642
  0C:381EA    A$adcd$1643
  0C:381EB    A$adcd$1644
  0C:381EC    A$adcd$1645
  0C:381ED    A$adcd$1646
  0C:381EE    A$adcd$1647
  0C:381EF    A$adcd$1648
  0C:381F0    A$adcd$1649
  0C:381F2    A$adcd$1650
  0C:381F4    A$adcd$1651
  0C:381F7    A$adcd$1652
  0C:381F9    A$adcd$1653
  0C:381FB    A$adcd$1656
  0C:381FB    C$adcd.c$142$5$9
  0C:381FD    A$adcd$1657
  0C:381FE    A$adcd$1658
  0C:38200    A$adcd$1659
  0C:38201    A$adcd$1660
  0C:38202    A$adcd$1661
  0C:38203    A$adcd$1662
  0C:38204    A$adcd$1663
  0C:38205    A$adcd$1664
  0C:38206    A$adcd$1665
  0C:38207    A$adcd$1666
  0C:38209    A$adcd$1667
  0C:3820B    A$adcd$1668
  0C:3820D    A$adcd$1669
  0C:3820F    A$adcd$1670
  0C:38210    A$adcd$1671
  0C:38213    A$adcd$1674
  0C:38213    C$adcd.c$143$5$9
  0C:38215    A$adcd$1675
  0C:38216    A$adcd$1676
  0C:38218    A$adcd$1677
  0C:38219    A$adcd$1678
  0C:3821A    A$adcd$1679
  0C:3821B    A$adcd$1680
  0C:3821C    A$adcd$1681
  0C:3821D    A$adcd$1682
  0C:3821E    A$adcd$1683
  0C:3821F    A$adcd$1684
  0C:38221    A$adcd$1685
  0C:38223    A$adcd$1686
  0C:38225    A$adcd$1687
  0C:38227    A$adcd$1688
  0C:38228    A$adcd$1689
  0C:3822B    A$adcd$1690
  0C:3822C    A$adcd$1691
  0C:3822D    A$adcd$1692
  0C:38230    A$adcd$1696
  0C:38230    C$adcd.c$145$4$4
  0C:38232    A$adcd$1697
  0C:38233    A$adcd$1698
  0C:38235    A$adcd$1699
  0C:38236    A$adcd$1700
  0C:38237    A$adcd$1701
  0C:38238    A$adcd$1702
  0C:38239    A$adcd$1703
  0C:3823A    A$adcd$1704
  0C:3823B    A$adcd$1705
  0C:3823C    A$adcd$1706
  0C:3823E    A$adcd$1707
  0C:38240    A$adcd$1708
  0C:38242    A$adcd$1709
  0C:38244    A$adcd$1710
  0C:38247    A$adcd$1711
  0C:38248    A$adcd$1712
  0C:38249    A$adcd$1713
  0C:3824C    A$adcd$1714
  0C:3824D    A$adcd$1715
  0C:38250    A$adcd$1716
  0C:38251    A$adcd$1717
  0C:38252    A$adcd$1718
  0C:38253    A$adcd$1719
  0C:38254    A$adcd$1720
  0C:38255    A$adcd$1721
  0C:38256    A$adcd$1722
  0C:38257    A$adcd$1723
  0C:38258    A$adcd$1724
  0C:38259    A$adcd$1725
  0C:3825B    A$adcd$1726
  0C:3825D    A$adcd$1727
  0C:38260    A$adcd$1728
  0C:38262    A$adcd$1729
  0C:38264    A$adcd$1732
  0C:38264    C$adcd.c$146$5$10
  0C:38266    A$adcd$1733
  0C:38267    A$adcd$1734
  0C:38269    A$adcd$1735
  0C:3826A    A$adcd$1736
  0C:3826B    A$adcd$1737
  0C:3826C    A$adcd$1738
  0C:3826D    A$adcd$1739
  0C:3826E    A$adcd$1740
  0C:3826F    A$adcd$1741
  0C:38270    A$adcd$1742
  0C:38272    A$adcd$1743
  0C:38274    A$adcd$1744
  0C:38276    A$adcd$1745
  0C:38278    A$adcd$1746
  0C:3827A    A$adcd$1747
  0C:3827D    A$adcd$1750
  0C:3827D    C$adcd.c$147$5$10
  0C:3827F    A$adcd$1751
  0C:38280    A$adcd$1752
  0C:38282    A$adcd$1753
  0C:38283    A$adcd$1754
  0C:38284    A$adcd$1755
  0C:38285    A$adcd$1756
  0C:38286    A$adcd$1757
  0C:38287    A$adcd$1758
  0C:38288    A$adcd$1759
  0C:38289    A$adcd$1760
  0C:3828B    A$adcd$1761
  0C:3828D    A$adcd$1762
  0C:3828F    A$adcd$1763
  0C:38291    A$adcd$1764
  0C:38292    A$adcd$1765
  0C:38295    A$adcd$1766
  0C:38296    A$adcd$1767
  0C:38297    A$adcd$1768
  0C:3829A    A$adcd$1772
  0C:3829A    C$adcd.c$151$4$4
  0C:3829C    A$adcd$1773
  0C:3829D    A$adcd$1774
  0C:3829F    A$adcd$1775
  0C:382A0    A$adcd$1776
  0C:382A1    A$adcd$1777
  0C:382A2    A$adcd$1778
  0C:382A3    A$adcd$1779
  0C:382A4    A$adcd$1780
  0C:382A5    A$adcd$1781
  0C:382A6    A$adcd$1782
  0C:382A8    A$adcd$1783
  0C:382AA    A$adcd$1784
  0C:382AC    A$adcd$1785
  0C:382AE    A$adcd$1786
  0C:382B1    A$adcd$1787
  0C:382B2    A$adcd$1788
  0C:382B5    A$adcd$1789
  0C:382B7    A$adcd$1790
  0C:382B8    A$adcd$1791
  0C:382B9    A$adcd$1792
  0C:382BB    A$adcd$1793
  0C:382BC    A$adcd$1794
  0C:382BD    A$adcd$1795
  0C:382BE    A$adcd$1796
  0C:382BF    A$adcd$1797
  0C:382C0    A$adcd$1798
  0C:382C1    A$adcd$1799
  0C:382C4    A$adcd$1800
  0C:382C5    A$adcd$1801
  0C:382C6    A$adcd$1802
  0C:382C7    A$adcd$1803
  0C:382C8    A$adcd$1804
  0C:382CA    A$adcd$1805
  0C:382CC    A$adcd$1806
  0C:382CE    A$adcd$1807
  0C:382D0    A$adcd$1808
  0C:382D3    A$adcd$1811
  0C:382D3    C$adcd.c$154$5$11
  0C:382D5    A$adcd$1812
  0C:382D6    A$adcd$1813
  0C:382D8    A$adcd$1814
  0C:382D9    A$adcd$1815
  0C:382DB    A$adcd$1816
  0C:382DC    A$adcd$1817
  0C:382DE    A$adcd$1818
  0C:382E0    A$adcd$1819
  0C:382E3    A$adcd$1820
  0C:382E4    A$adcd$1821
  0C:382E5    A$adcd$1822
  0C:382E8    A$adcd$1824
  0C:382EB    A$adcd$1825
  0C:382EC    A$adcd$1826
  0C:382EE    A$adcd$1827
  0C:382F1    A$adcd$1829
  0C:382F3    A$adcd$1830
  0C:382F4    A$adcd$1831
  0C:382F6    A$adcd$1832
  0C:382F7    A$adcd$1833
  0C:382F8    A$adcd$1834
  0C:382F9    A$adcd$1835
  0C:382FA    A$adcd$1836
  0C:382FB    A$adcd$1837
  0C:382FC    A$adcd$1838
  0C:382FD    A$adcd$1839
  0C:382FF    A$adcd$1840
  0C:38301    A$adcd$1841
  0C:38302    A$adcd$1842
  0C:38304    A$adcd$1843
  0C:38305    A$adcd$1844
  0C:38306    A$adcd$1845
  0C:38307    A$adcd$1846
  0C:38308    A$adcd$1847
  0C:38309    A$adcd$1848
  0C:3830A    A$adcd$1849
  0C:3830B    A$adcd$1850
  0C:3830D    A$adcd$1851
  0C:3830F    A$adcd$1852
  0C:38311    A$adcd$1853
  0C:38313    A$adcd$1854
  0C:38316    A$adcd$1855
  0C:38318    A$adcd$1856
  0C:3831A    A$adcd$1857
  0C:3831C    A$adcd$1858
  0C:3831E    A$adcd$1859
  0C:38321    A$adcd$1860
  0C:38323    A$adcd$1861
  0C:38325    A$adcd$1862
  0C:38327    A$adcd$1863
  0C:38329    A$adcd$1864
  0C:3832B    A$adcd$1865
  0C:3832D    A$adcd$1866
  0C:3832F    A$adcd$1867
  0C:38331    A$adcd$1868
  0C:38332    A$adcd$1869
  0C:38335    A$adcd$1870
  0C:38336    A$adcd$1871
  0C:38337    A$adcd$1872
  0C:3833A    A$adcd$1873
  0C:3833D    A$adcd$1874
  0C:3833E    A$adcd$1875
  0C:3833F    A$adcd$1876
  0C:38340    A$adcd$1877
  0C:38341    A$adcd$1878
  0C:38342    A$adcd$1879
  0C:38343    A$adcd$1880
  0C:38344    A$adcd$1881
  0C:38345    A$adcd$1882
  0C:38346    A$adcd$1883
  0C:38348    A$adcd$1884
  0C:3834A    A$adcd$1885
  0C:3834D    A$adcd$1886
  0C:3834F    A$adcd$1887
  0C:38351    A$adcd$1888
  0C:38353    A$adcd$1889
  0C:38354    A$adcd$1890
  0C:38356    A$adcd$1891
  0C:38357    A$adcd$1892
  0C:38358    A$adcd$1893
  0C:38359    A$adcd$1894
  0C:3835A    A$adcd$1895
  0C:3835B    A$adcd$1896
  0C:3835C    A$adcd$1897
  0C:3835D    A$adcd$1898
  0C:3835F    A$adcd$1899
  0C:38361    A$adcd$1900
  0C:38363    A$adcd$1901
  0C:38365    A$adcd$1902
  0C:38368    A$adcd$1903
  0C:3836A    A$adcd$1904
  0C:3836C    A$adcd$1905
  0C:3836E    A$adcd$1906
  0C:38370    A$adcd$1907
  0C:38373    A$adcd$1908
  0C:38375    A$adcd$1909
  0C:38377    A$adcd$1910
  0C:38379    A$adcd$1911
  0C:3837A    A$adcd$1912
  0C:3837B    A$adcd$1913
  0C:3837C    A$adcd$1914
  0C:3837D    A$adcd$1915
  0C:3837E    A$adcd$1916
  0C:38380    A$adcd$1917
  0C:38383    A$adcd$1918
  0C:38386    A$adcd$1922
  0C:38386    C$adcd.c$158$4$4
  0C:38388    A$adcd$1923
  0C:38389    A$adcd$1924
  0C:3838B    A$adcd$1925
  0C:3838C    A$adcd$1926
  0C:3838D    A$adcd$1927
  0C:3838E    A$adcd$1928
  0C:3838F    A$adcd$1929
  0C:38390    A$adcd$1930
  0C:38391    A$adcd$1931
  0C:38392    A$adcd$1932
  0C:38394    A$adcd$1933
  0C:38396    A$adcd$1934
  0C:38398    A$adcd$1935
  0C:3839A    A$adcd$1936
  0C:3839D    A$adcd$1937
  0C:3839F    A$adcd$1938
  0C:383A1    A$adcd$1939
  0C:383A3    A$adcd$1940
  0C:383A5    A$adcd$1941
  0C:383A7    A$adcd$1942
  0C:383A9    A$adcd$1943
  0C:383AB    A$adcd$1944
  0C:383AE    A$adcd$1945
  0C:383B0    A$adcd$1946
  0C:383B2    A$adcd$1947
  0C:383B4    A$adcd$1950
  0C:383B4    C$adcd.c$161$4$4
  0C:383B7    A$adcd$1951
  0C:383B8    A$adcd$1952
  0C:383BA    A$adcd$1953
  0C:383BD    A$adcd$1955
  0C:383BF    A$adcd$1956
  0C:383C1    A$adcd$1957
  0C:383C3    A$adcd$1958
  0C:383C6    A$adcd$1959
  0C:383C8    A$adcd$1960
  0C:383CA    A$adcd$1961
  0C:383CC    A$adcd$1962
  0C:383CE    A$adcd$1963
  0C:383D1    A$adcd$1964
  0C:383D3    A$adcd$1965
  0C:383D5    A$adcd$1966
  0C:383D7    A$adcd$1967
  0C:383D8    A$adcd$1968
  0C:383D9    A$adcd$1969
  0C:383DA    A$adcd$1970
  0C:383DB    A$adcd$1971
  0C:383DC    A$adcd$1972
  0C:383DE    A$adcd$1973
  0C:383E1    A$adcd$1977
  0C:383E1    C$adcd.c$165$4$4
  0C:383E3    A$adcd$1978
  0C:383E5    A$adcd$1979
  0C:383E7    A$adcd$1980
  0C:383E8    A$adcd$1981
  0C:383EA    A$adcd$1982
  0C:383EB    A$adcd$1983
  0C:383ED    A$adcd$1984
  0C:383EE    A$adcd$1985
  0C:383F0    A$adcd$1986
  0C:383F3    A$adcd$1987
  0C:383F5    A$adcd$1990
  0C:383F5    C$adcd.c$167$4$4
  0C:383F7    A$adcd$1994
  0C:383F7    C$adcd.c$175$4$4
  0C:383F9    A$adcd$1995
  0C:383FA    A$adcd$1996
  0C:383FC    A$adcd$1997
  0C:383FD    A$adcd$1998
  0C:383FF    A$adcd$1999
  0C:38400    A$adcd$2000
  0C:38402    A$adcd$2001
  0C:38404    A$adcd$2002
  0C:38407    A$adcd$2003
  0C:38408    A$adcd$2004
  0C:38409    A$adcd$2005
  0C:3840C    A$adcd$2007
  0C:3840F    A$adcd$2008
  0C:38410    A$adcd$2009
  0C:38412    A$adcd$2010
  0C:38414    A$adcd$2011
  0C:38415    A$adcd$2012
  0C:38417    A$adcd$2013
  0C:38418    A$adcd$2014
  0C:38419    A$adcd$2015
  0C:3841A    A$adcd$2016
  0C:3841B    A$adcd$2017
  0C:3841C    A$adcd$2018
  0C:3841D    A$adcd$2019
  0C:3841E    A$adcd$2020
  0C:38420    A$adcd$2021
  0C:38422    A$adcd$2022
  0C:38424    A$adcd$2023
  0C:38426    A$adcd$2024
  0C:38429    A$adcd$2025
  0C:3842B    A$adcd$2026
  0C:3842E    A$adcd$2027
  0C:38430    A$adcd$2028
  0C:38432    A$adcd$2029
  0C:38435    A$adcd$2030
  0C:38436    A$adcd$2031
  0C:38437    A$adcd$2032
  0C:38438    A$adcd$2033
  0C:38439    A$adcd$2034
  0C:3843A    A$adcd$2035
  0C:3843D    A$adcd$2036
  0C:3843E    A$adcd$2037
  0C:3843F    A$adcd$2038
  0C:38440    A$adcd$2039
  0C:38441    A$adcd$2040
  0C:38442    A$adcd$2041
  0C:38443    A$adcd$2042
  0C:38444    A$adcd$2043
  0C:38445    A$adcd$2044
  0C:38446    A$adcd$2045
  0C:38447    A$adcd$2046
  0C:38448    A$adcd$2047
  0C:38449    A$adcd$2048
  0C:3844A    A$adcd$2049
  0C:3844B    A$adcd$2050
  0C:3844C    A$adcd$2051
  0C:3844E    A$adcd$2052
  0C:38450    A$adcd$2053
  0C:38453    A$adcd$2054
  0C:38455    A$adcd$2055
  0C:38457    A$adcd$2056
  0C:3845A    A$adcd$2057
  0C:3845D    A$adcd$2061
  0C:3845D    C$adcd.c$178$4$4
  0C:38460    A$adcd$2062
  0C:38461    A$adcd$2065
  0C:38461    C$adcd.c$179$5$15
  0C:38463    A$adcd$2066
  0C:38465    A$adcd$2067
  0C:38467    A$adcd$2068
  0C:38468    A$adcd$2069
  0C:3846A    A$adcd$2070
  0C:3846B    A$adcd$2071
  0C:3846D    A$adcd$2072
  0C:3846E    A$adcd$2073
  0C:38470    A$adcd$2074
  0C:38473    A$adcd$2075
  0C:38475    A$adcd$2078
  0C:38475    C$adcd.c$180$5$15
  0C:38478    A$adcd$2082
  0C:38478    C$adcd.c$184$4$4
  0C:3847A    A$adcd$2083
  0C:3847B    A$adcd$2084
  0C:3847D    A$adcd$2085
  0C:3847E    A$adcd$2086
  0C:3847F    A$adcd$2087
  0C:38480    A$adcd$2088
  0C:38481    A$adcd$2089
  0C:38482    A$adcd$2090
  0C:38483    A$adcd$2091
  0C:38484    A$adcd$2092
  0C:38486    A$adcd$2093
  0C:38488    A$adcd$2094
  0C:3848A    A$adcd$2095
  0C:3848C    A$adcd$2096
  0C:3848F    A$adcd$2097
  0C:38490    A$adcd$2098
  0C:38493    A$adcd$2099
  0C:38495    A$adcd$2100
  0C:38496    A$adcd$2101
  0C:38497    A$adcd$2102
  0C:38499    A$adcd$2103
  0C:3849A    A$adcd$2104
  0C:3849B    A$adcd$2105
  0C:3849C    A$adcd$2106
  0C:3849D    A$adcd$2107
  0C:3849E    A$adcd$2108
  0C:3849F    A$adcd$2109
  0C:384A2    A$adcd$2110
  0C:384A3    A$adcd$2111
  0C:384A4    A$adcd$2112
  0C:384A5    A$adcd$2113
  0C:384A6    A$adcd$2114
  0C:384A8    A$adcd$2115
  0C:384AA    A$adcd$2116
  0C:384AC    A$adcd$2117
  0C:384AE    A$adcd$2118
  0C:384B1    A$adcd$2121
  0C:384B1    C$adcd.c$187$5$16
  0C:384B3    A$adcd$2122
  0C:384B4    A$adcd$2123
  0C:384B6    A$adcd$2124
  0C:384B7    A$adcd$2125
  0C:384B9    A$adcd$2126
  0C:384BA    A$adcd$2127
  0C:384BC    A$adcd$2128
  0C:384BE    A$adcd$2129
  0C:384C1    A$adcd$2130
  0C:384C2    A$adcd$2131
  0C:384C3    A$adcd$2132
  0C:384C6    A$adcd$2134
  0C:384C9    A$adcd$2135
  0C:384CA    A$adcd$2136
  0C:384CC    A$adcd$2137
  0C:384CF    A$adcd$2139
  0C:384D1    A$adcd$2140
  0C:384D2    A$adcd$2141
  0C:384D4    A$adcd$2142
  0C:384D6    A$adcd$2143
  0C:384D7    A$adcd$2144
  0C:384D9    A$adcd$2145
  0C:384DA    A$adcd$2146
  0C:384DB    A$adcd$2147
  0C:384DC    A$adcd$2148
  0C:384DD    A$adcd$2149
  0C:384DE    A$adcd$2150
  0C:384DF    A$adcd$2151
  0C:384E0    A$adcd$2152
  0C:384E1    A$adcd$2153
  0C:384E2    A$adcd$2154
  0C:384E3    A$adcd$2155
  0C:384E4    A$adcd$2156
  0C:384E6    A$adcd$2157
  0C:384E7    A$adcd$2158
  0C:384E9    A$adcd$2159
  0C:384EA    A$adcd$2160
  0C:384EB    A$adcd$2161
  0C:384EC    A$adcd$2162
  0C:384ED    A$adcd$2163
  0C:384EE    A$adcd$2164
  0C:384EF    A$adcd$2165
  0C:384F0    A$adcd$2166
  0C:384F2    A$adcd$2167
  0C:384F4    A$adcd$2168
  0C:384F6    A$adcd$2169
  0C:384F8    A$adcd$2170
  0C:384FB    A$adcd$2171
  0C:384FD    A$adcd$2172
  0C:38500    A$adcd$2173
  0C:38502    A$adcd$2174
  0C:38504    A$adcd$2175
  0C:38506    A$adcd$2176
  0C:38508    A$adcd$2177
  0C:38509    A$adcd$2178
  0C:3850B    A$adcd$2179
  0C:3850C    A$adcd$2180
  0C:3850E    A$adcd$2181
  0C:3850F    A$adcd$2182
  0C:38511    A$adcd$2183
  0C:38512    A$adcd$2184
  0C:38515    A$adcd$2185
  0C:38516    A$adcd$2186
  0C:38517    A$adcd$2187
  0C:3851A    A$adcd$2188
  0C:3851D    A$adcd$2189
  0C:3851E    A$adcd$2190
  0C:3851F    A$adcd$2191
  0C:38520    A$adcd$2192
  0C:38521    A$adcd$2193
  0C:38522    A$adcd$2194
  0C:38525    A$adcd$2195
  0C:38526    A$adcd$2196
  0C:38527    A$adcd$2197
  0C:38528    A$adcd$2198
  0C:38529    A$adcd$2199
  0C:3852A    A$adcd$2200
  0C:3852B    A$adcd$2201
  0C:3852C    A$adcd$2202
  0C:3852D    A$adcd$2203
  0C:3852E    A$adcd$2204
  0C:3852F    A$adcd$2205
  0C:38530    A$adcd$2206
  0C:38531    A$adcd$2207
  0C:38532    A$adcd$2208
  0C:38533    A$adcd$2209
  0C:38534    A$adcd$2210
  0C:38536    A$adcd$2211
  0C:38538    A$adcd$2212
  0C:3853B    A$adcd$2213
  0C:3853D    A$adcd$2214
  0C:3853F    A$adcd$2215
  0C:38541    A$adcd$2216
  0C:38542    A$adcd$2217
  0C:38544    A$adcd$2218
  0C:38545    A$adcd$2219
  0C:38546    A$adcd$2220
  0C:38547    A$adcd$2221
  0C:38548    A$adcd$2222
  0C:38549    A$adcd$2223
  0C:3854A    A$adcd$2224
  0C:3854B    A$adcd$2225
  0C:3854D    A$adcd$2226
  0C:3854F    A$adcd$2227
  0C:38551    A$adcd$2228
  0C:38553    A$adcd$2229
  0C:38556    A$adcd$2230
  0C:38558    A$adcd$2231
  0C:3855A    A$adcd$2232
  0C:3855C    A$adcd$2233
  0C:3855E    A$adcd$2234
  0C:38561    A$adcd$2235
  0C:38563    A$adcd$2236
  0C:38565    A$adcd$2237
  0C:38567    A$adcd$2238
  0C:38568    A$adcd$2239
  0C:38569    A$adcd$2240
  0C:3856A    A$adcd$2241
  0C:3856B    A$adcd$2242
  0C:3856C    A$adcd$2243
  0C:3856E    A$adcd$2244
  0C:38571    A$adcd$2245
  0C:38574    A$adcd$2249
  0C:38574    C$adcd.c$191$4$4
  0C:38576    A$adcd$2250
  0C:38577    A$adcd$2251
  0C:38579    A$adcd$2252
  0C:3857A    A$adcd$2253
  0C:3857B    A$adcd$2254
  0C:3857C    A$adcd$2255
  0C:3857D    A$adcd$2256
  0C:3857E    A$adcd$2257
  0C:3857F    A$adcd$2258
  0C:38580    A$adcd$2259
  0C:38582    A$adcd$2260
  0C:38584    A$adcd$2261
  0C:38586    A$adcd$2262
  0C:38588    A$adcd$2263
  0C:3858B    A$adcd$2264
  0C:3858D    A$adcd$2265
  0C:3858F    A$adcd$2266
  0C:38591    A$adcd$2267
  0C:38593    A$adcd$2268
  0C:38595    A$adcd$2269
  0C:38597    A$adcd$2270
  0C:38599    A$adcd$2271
  0C:3859C    A$adcd$2272
  0C:3859E    A$adcd$2273
  0C:385A0    A$adcd$2274
  0C:385A2    A$adcd$2277
  0C:385A2    C$adcd.c$193$4$4
  0C:385A5    A$adcd$2278
  0C:385A6    A$adcd$2281
  0C:385A6    C$adcd.c$194$5$18
  0C:385A8    A$adcd$2282
  0C:385AA    A$adcd$2283
  0C:385AC    A$adcd$2284
  0C:385AD    A$adcd$2285
  0C:385AF    A$adcd$2286
  0C:385B0    A$adcd$2287
  0C:385B2    A$adcd$2288
  0C:385B3    A$adcd$2289
  0C:385B5    A$adcd$2290
  0C:385B8    A$adcd$2291
  0C:385BA    A$adcd$2294
  0C:385BA    C$adcd.c$195$5$18
  0C:385BD    A$adcd$2298
  0C:385BD    C$adcd.c$198$4$4
  0C:385BF    A$adcd$2299
  0C:385C1    A$adcd$2300
  0C:385C3    A$adcd$2301
  0C:385C6    A$adcd$2302
  0C:385C8    A$adcd$2303
  0C:385CA    A$adcd$2304
  0C:385CC    A$adcd$2305
  0C:385CE    A$adcd$2306
  0C:385D1    A$adcd$2307
  0C:385D3    A$adcd$2308
  0C:385D5    A$adcd$2309
  0C:385D7    A$adcd$2310
  0C:385D8    A$adcd$2311
  0C:385D9    A$adcd$2312
  0C:385DA    A$adcd$2313
  0C:385DB    A$adcd$2314
  0C:385DC    A$adcd$2315
  0C:385DE    A$adcd$2316
  0C:385E1    A$adcd$2320
  0C:385E1    C$adcd.c$202$4$4
  0C:385E2    A$adcd$2321
  0C:385E4    A$adcd$2322
  0C:385E6    A$adcd$2323
  0C:385E7    A$adcd$2324
  0C:385E9    A$adcd$2325
  0C:385EA    A$adcd$2326
  0C:385EC    A$adcd$2327
  0C:385ED    A$adcd$2328
  0C:385EF    A$adcd$2329
  0C:385F2    A$adcd$2330
  0C:385F4    A$adcd$2333
  0C:385F4    C$adcd.c$204$4$4
  0C:385F7    A$adcd$2336
  0C:385F7    C$adcd.c$205$4$4
  0C:385F8    A$adcd$2337
  0C:385F9    A$adcd$2338
  0C:385FC    A$adcd$2339
  0C:385FD    A$adcd$2340
  0C:38600    A$adcd$2341
  0C:38602    A$adcd$2342
  0C:38604    A$adcd$2343
  0C:38606    A$adcd$2344
  0C:38609    A$adcd$2345
  0C:3860C    A$adcd$2349
  0C:3860C    C$adcd.c$207$2$2
  0C:3860E    A$adcd$2350
  0C:3860F    A$adcd$2351
  0C:38611    A$adcd$2352
  0C:38612    A$adcd$2353
  0C:38614    A$adcd$2354
  0C:38615    A$adcd$2355
  0C:38617    A$adcd$2356
  0C:38618    A$adcd$2357
  0C:3861B    A$adcd$2358
  0C:3861C    A$adcd$2359
  0C:3861D    A$adcd$2360
  0C:38620    A$adcd$2361
  0C:38623    A$adcd$2363
  0C:38626    A$adcd$2364
  0C:38628    A$adcd$2367
  0C:38628    C$adcd.c$208$2$2
  0C:38628    XG$handle_adcd$0$0
  0C:3862B    A$adcd$2391
  0C:3862B    C$adcd.c$213$2$2
  0C:3862B    G$handle_fan$0$0
  0C:3862B    _handle_fan
  0C:3862D    A$adcd$2392
  0C:38630    A$adcd$2393
  0C:38632    A$adcd$2394
  0C:38634    A$adcd$2395
  0C:38636    A$adcd$2396
  0C:38638    A$adcd$2397
  0C:3863A    A$adcd$2398
  0C:3863C    A$adcd$2401
  0C:3863C    C$adcd.c$215$2$2
  0C:3863E    A$adcd$2402
  0C:3863F    A$adcd$2403
  0C:38641    A$adcd$2404
  0C:38642    A$adcd$2405
  0C:38644    A$adcd$2406
  0C:38645    A$adcd$2407
  0C:38647    A$adcd$2408
  0C:3864A    A$adcd$2409
  0C:3864B    A$adcd$2410
  0C:3864C    A$adcd$2411
  0C:3864F    A$adcd$2412
  0C:38650    A$adcd$2413
  0C:38653    A$adcd$2414
  0C:38656    A$adcd$2415
  0C:38658    A$adcd$2417
  0C:3865B    A$adcd$2418
  0C:3865E    A$adcd$2419
  0C:38660    A$adcd$2421
  0C:38663    A$adcd$2422
  0C:38666    A$adcd$2423
  0C:38669    A$adcd$2425
  0C:3866C    A$adcd$2426
  0C:3866F    A$adcd$2427
  0C:38672    A$adcd$2429
  0C:38675    A$adcd$2430
  0C:38678    A$adcd$2431
  0C:3867B    A$adcd$2433
  0C:3867E    A$adcd$2434
  0C:38681    A$adcd$2435
  0C:38684    A$adcd$2437
  0C:38687    A$adcd$2441
  0C:38687    C$adcd.c$218$3$3
  0C:38689    A$adcd$2442
  0C:3868A    A$adcd$2443
  0C:3868C    A$adcd$2444
  0C:3868D    A$adcd$2445
  0C:3868E    A$adcd$2446
  0C:3868F    A$adcd$2447
  0C:38690    A$adcd$2448
  0C:38691    A$adcd$2449
  0C:38692    A$adcd$2450
  0C:38693    A$adcd$2451
  0C:38695    A$adcd$2452
  0C:38697    A$adcd$2453
  0C:38699    A$adcd$2454
  0C:3869B    A$adcd$2455
  0C:3869D    A$adcd$2456
  0C:3869F    A$adcd$2457
  0C:386A1    A$adcd$2458
  0C:386A4    A$adcd$2459
  0C:386A6    A$adcd$2460
  0C:386A8    A$adcd$2461
  0C:386AA    A$adcd$2462
  0C:386AC    A$adcd$2463
  0C:386AE    A$adcd$2464
  0C:386B0    A$adcd$2465
  0C:386B2    A$adcd$2466
  0C:386B3    A$adcd$2467
  0C:386B6    A$adcd$2473
  0C:386B6    C$adcd.c$223$4$4
  0C:386B6    C$adcd.c$225$4$4
  0C:386B8    A$adcd$2476
  0C:386B8    C$adcd.c$228$5$5
  0C:386BA    A$adcd$2477
  0C:386BB    A$adcd$2478
  0C:386BD    A$adcd$2479
  0C:386BE    A$adcd$2480
  0C:386C0    A$adcd$2481
  0C:386C1    A$adcd$2482
  0C:386C3    A$adcd$2483
  0C:386C5    A$adcd$2484
  0C:386C8    A$adcd$2485
  0C:386C9    A$adcd$2486
  0C:386CA    A$adcd$2487
  0C:386CD    A$adcd$2489
  0C:386D0    A$adcd$2490
  0C:386D1    A$adcd$2491
  0C:386D3    A$adcd$2492
  0C:386D5    A$adcd$2493
  0C:386D8    A$adcd$2497
  0C:386D8    C$adcd.c$230$5$7
  0C:386DA    A$adcd$2498
  0C:386DB    A$adcd$2499
  0C:386DD    A$adcd$2500
  0C:386DE    A$adcd$2501
  0C:386E0    A$adcd$2502
  0C:386E1    A$adcd$2503
  0C:386E3    A$adcd$2504
  0C:386E5    A$adcd$2505
  0C:386E8    A$adcd$2506
  0C:386E9    A$adcd$2507
  0C:386EA    A$adcd$2508
  0C:386ED    A$adcd$2510
  0C:386F0    A$adcd$2511
  0C:386F1    A$adcd$2512
  0C:386F3    A$adcd$2513
  0C:386F6    A$adcd$2515
  0C:386F8    A$adcd$2516
  0C:386F9    A$adcd$2517
  0C:386FB    A$adcd$2518
  0C:386FC    A$adcd$2519
  0C:386FD    A$adcd$2520
  0C:386FE    A$adcd$2521
  0C:386FF    A$adcd$2522
  0C:38700    A$adcd$2523
  0C:38701    A$adcd$2524
  0C:38702    A$adcd$2525
  0C:38704    A$adcd$2526
  0C:38707    A$adcd$2527
  0C:38709    A$adcd$2528
  0C:3870B    A$adcd$2529
  0C:3870D    A$adcd$2530
  0C:38710    A$adcd$2531
  0C:38712    A$adcd$2532
  0C:38714    A$adcd$2533
  0C:38716    A$adcd$2534
  0C:38718    A$adcd$2535
  0C:3871A    A$adcd$2536
  0C:3871C    A$adcd$2537
  0C:3871E    A$adcd$2538
  0C:38720    A$adcd$2539
  0C:38721    A$adcd$2540
  0C:38724    A$adcd$2541
  0C:38725    A$adcd$2542
  0C:38726    A$adcd$2543
  0C:38729    A$adcd$2544
  0C:3872C    A$adcd$2545
  0C:3872D    A$adcd$2546
  0C:3872E    A$adcd$2547
  0C:3872F    A$adcd$2548
  0C:38730    A$adcd$2549
  0C:38731    A$adcd$2550
  0C:38732    A$adcd$2551
  0C:38733    A$adcd$2552
  0C:38734    A$adcd$2553
  0C:38735    A$adcd$2554
  0C:38737    A$adcd$2555
  0C:38739    A$adcd$2556
  0C:3873C    A$adcd$2557
  0C:3873E    A$adcd$2558
  0C:38740    A$adcd$2559
  0C:38742    A$adcd$2560
  0C:38743    A$adcd$2561
  0C:38745    A$adcd$2562
  0C:38746    A$adcd$2563
  0C:38747    A$adcd$2564
  0C:38748    A$adcd$2565
  0C:38749    A$adcd$2566
  0C:3874A    A$adcd$2567
  0C:3874B    A$adcd$2568
  0C:3874C    A$adcd$2569
  0C:3874E    A$adcd$2570
  0C:38751    A$adcd$2571
  0C:38753    A$adcd$2572
  0C:38755    A$adcd$2573
  0C:38757    A$adcd$2574
  0C:3875A    A$adcd$2575
  0C:3875C    A$adcd$2576
  0C:3875E    A$adcd$2577
  0C:38760    A$adcd$2578
  0C:38762    A$adcd$2579
  0C:38764    A$adcd$2580
  0C:38766    A$adcd$2581
  0C:38768    A$adcd$2582
  0C:3876A    A$adcd$2583
  0C:3876B    A$adcd$2584
  0C:3876E    A$adcd$2585
  0C:3876F    A$adcd$2586
  0C:38770    A$adcd$2587
  0C:38773    A$adcd$2588
  0C:38776    A$adcd$2589
  0C:38777    A$adcd$2590
  0C:38778    A$adcd$2591
  0C:38779    A$adcd$2592
  0C:3877A    A$adcd$2593
  0C:3877B    A$adcd$2594
  0C:3877C    A$adcd$2595
  0C:3877D    A$adcd$2596
  0C:3877E    A$adcd$2597
  0C:3877F    A$adcd$2598
  0C:38781    A$adcd$2599
  0C:38783    A$adcd$2600
  0C:38786    A$adcd$2601
  0C:38788    A$adcd$2602
  0C:3878A    A$adcd$2603
  0C:3878D    A$adcd$2604
  0C:38790    A$adcd$2608
  0C:38790    C$adcd.c$234$4$4
  0C:38793    A$adcd$2609
  0C:38794    A$adcd$2610
  0C:38796    A$adcd$2611
  0C:38799    A$adcd$2615
  0C:38799    C$adcd.c$237$4$4
  0C:3879B    A$adcd$2616
  0C:3879C    A$adcd$2617
  0C:3879E    A$adcd$2618
  0C:3879F    A$adcd$2619
  0C:387A0    A$adcd$2620
  0C:387A1    A$adcd$2621
  0C:387A2    A$adcd$2622
  0C:387A3    A$adcd$2623
  0C:387A4    A$adcd$2624
  0C:387A5    A$adcd$2625
  0C:387A7    A$adcd$2626
  0C:387A9    A$adcd$2627
  0C:387AB    A$adcd$2628
  0C:387AD    A$adcd$2629
  0C:387B0    A$adcd$2630
  0C:387B1    A$adcd$2631
  0C:387B2    A$adcd$2632
  0C:387B5    A$adcd$2633
  0C:387B6    A$adcd$2634
  0C:387B9    A$adcd$2635
  0C:387BA    A$adcd$2636
  0C:387BB    A$adcd$2637
  0C:387BC    A$adcd$2638
  0C:387BD    A$adcd$2639
  0C:387BE    A$adcd$2640
  0C:387BF    A$adcd$2641
  0C:387C0    A$adcd$2642
  0C:387C1    A$adcd$2643
  0C:387C2    A$adcd$2644
  0C:387C4    A$adcd$2645
  0C:387C6    A$adcd$2646
  0C:387C9    A$adcd$2647
  0C:387CB    A$adcd$2648
  0C:387CD    A$adcd$2651
  0C:387CD    C$adcd.c$238$5$9
  0C:387CF    A$adcd$2652
  0C:387D0    A$adcd$2653
  0C:387D2    A$adcd$2654
  0C:387D3    A$adcd$2655
  0C:387D4    A$adcd$2656
  0C:387D5    A$adcd$2657
  0C:387D6    A$adcd$2658
  0C:387D7    A$adcd$2659
  0C:387D8    A$adcd$2660
  0C:387D9    A$adcd$2661
  0C:387DB    A$adcd$2662
  0C:387DD    A$adcd$2663
  0C:387DF    A$adcd$2664
  0C:387E1    A$adcd$2665
  0C:387E2    A$adcd$2666
  0C:387E5    A$adcd$2669
  0C:387E5    C$adcd.c$239$5$9
  0C:387E7    A$adcd$2670
  0C:387E8    A$adcd$2671
  0C:387EA    A$adcd$2672
  0C:387EB    A$adcd$2673
  0C:387EC    A$adcd$2674
  0C:387ED    A$adcd$2675
  0C:387EE    A$adcd$2676
  0C:387EF    A$adcd$2677
  0C:387F0    A$adcd$2678
  0C:387F1    A$adcd$2679
  0C:387F3    A$adcd$2680
  0C:387F5    A$adcd$2681
  0C:387F7    A$adcd$2682
  0C:387F9    A$adcd$2683
  0C:387FA    A$adcd$2684
  0C:387FD    A$adcd$2685
  0C:387FE    A$adcd$2686
  0C:387FF    A$adcd$2687
  0C:38802    A$adcd$2691
  0C:38802    C$adcd.c$241$4$4
  0C:38804    A$adcd$2692
  0C:38805    A$adcd$2693
  0C:38807    A$adcd$2694
  0C:38808    A$adcd$2695
  0C:38809    A$adcd$2696
  0C:3880A    A$adcd$2697
  0C:3880B    A$adcd$2698
  0C:3880C    A$adcd$2699
  0C:3880D    A$adcd$2700
  0C:3880E    A$adcd$2701
  0C:38810    A$adcd$2702
  0C:38812    A$adcd$2703
  0C:38814    A$adcd$2704
  0C:38816    A$adcd$2705
  0C:38819    A$adcd$2706
  0C:3881A    A$adcd$2707
  0C:3881B    A$adcd$2708
  0C:3881E    A$adcd$2709
  0C:3881F    A$adcd$2710
  0C:38822    A$adcd$2711
  0C:38823    A$adcd$2712
  0C:38824    A$adcd$2713
  0C:38825    A$adcd$2714
  0C:38826    A$adcd$2715
  0C:38827    A$adcd$2716
  0C:38828    A$adcd$2717
  0C:38829    A$adcd$2718
  0C:3882A    A$adcd$2719
  0C:3882B    A$adcd$2720
  0C:3882D    A$adcd$2721
  0C:3882F    A$adcd$2722
  0C:38832    A$adcd$2723
  0C:38834    A$adcd$2724
  0C:38836    A$adcd$2727
  0C:38836    C$adcd.c$242$5$10
  0C:38838    A$adcd$2728
  0C:38839    A$adcd$2729
  0C:3883B    A$adcd$2730
  0C:3883C    A$adcd$2731
  0C:3883D    A$adcd$2732
  0C:3883E    A$adcd$2733
  0C:3883F    A$adcd$2734
  0C:38840    A$adcd$2735
  0C:38841    A$adcd$2736
  0C:38842    A$adcd$2737
  0C:38844    A$adcd$2738
  0C:38846    A$adcd$2739
  0C:38848    A$adcd$2740
  0C:3884A    A$adcd$2741
  0C:3884C    A$adcd$2742
  0C:3884F    A$adcd$2745
  0C:3884F    C$adcd.c$243$5$10
  0C:38851    A$adcd$2746
  0C:38852    A$adcd$2747
  0C:38854    A$adcd$2748
  0C:38855    A$adcd$2749
  0C:38856    A$adcd$2750
  0C:38857    A$adcd$2751
  0C:38858    A$adcd$2752
  0C:38859    A$adcd$2753
  0C:3885A    A$adcd$2754
  0C:3885B    A$adcd$2755
  0C:3885D    A$adcd$2756
  0C:3885F    A$adcd$2757
  0C:38861    A$adcd$2758
  0C:38863    A$adcd$2759
  0C:38864    A$adcd$2760
  0C:38867    A$adcd$2761
  0C:38868    A$adcd$2762
  0C:38869    A$adcd$2763
  0C:3886C    A$adcd$2767
  0C:3886C    C$adcd.c$247$4$4
  0C:3886E    A$adcd$2768
  0C:3886F    A$adcd$2769
  0C:38871    A$adcd$2770
  0C:38872    A$adcd$2771
  0C:38873    A$adcd$2772
  0C:38874    A$adcd$2773
  0C:38875    A$adcd$2774
  0C:38876    A$adcd$2775
  0C:38877    A$adcd$2776
  0C:38878    A$adcd$2777
  0C:3887A    A$adcd$2778
  0C:3887C    A$adcd$2779
  0C:3887E    A$adcd$2780
  0C:38880    A$adcd$2781
  0C:38883    A$adcd$2782
  0C:38884    A$adcd$2783
  0C:38887    A$adcd$2784
  0C:38889    A$adcd$2785
  0C:3888A    A$adcd$2786
  0C:3888B    A$adcd$2787
  0C:3888D    A$adcd$2788
  0C:3888E    A$adcd$2789
  0C:3888F    A$adcd$2790
  0C:38890    A$adcd$2791
  0C:38891    A$adcd$2792
  0C:38892    A$adcd$2793
  0C:38893    A$adcd$2794
  0C:38896    A$adcd$2795
  0C:38897    A$adcd$2796
  0C:38898    A$adcd$2797
  0C:38899    A$adcd$2798
  0C:3889A    A$adcd$2799
  0C:3889C    A$adcd$2800
  0C:3889E    A$adcd$2801
  0C:388A0    A$adcd$2802
  0C:388A2    A$adcd$2803
  0C:388A5    A$adcd$2806
  0C:388A5    C$adcd.c$250$5$11
  0C:388A7    A$adcd$2807
  0C:388A8    A$adcd$2808
  0C:388AA    A$adcd$2809
  0C:388AB    A$adcd$2810
  0C:388AD    A$adcd$2811
  0C:388AE    A$adcd$2812
  0C:388B0    A$adcd$2813
  0C:388B2    A$adcd$2814
  0C:388B5    A$adcd$2815
  0C:388B6    A$adcd$2816
  0C:388B7    A$adcd$2817
  0C:388BA    A$adcd$2819
  0C:388BD    A$adcd$2820
  0C:388BE    A$adcd$2821
  0C:388C0    A$adcd$2822
  0C:388C3    A$adcd$2824
  0C:388C5    A$adcd$2825
  0C:388C6    A$adcd$2826
  0C:388C8    A$adcd$2827
  0C:388C9    A$adcd$2828
  0C:388CA    A$adcd$2829
  0C:388CB    A$adcd$2830
  0C:388CC    A$adcd$2831
  0C:388CD    A$adcd$2832
  0C:388CE    A$adcd$2833
  0C:388CF    A$adcd$2834
  0C:388D1    A$adcd$2835
  0C:388D3    A$adcd$2836
  0C:388D4    A$adcd$2837
  0C:388D6    A$adcd$2838
  0C:388D7    A$adcd$2839
  0C:388D8    A$adcd$2840
  0C:388D9    A$adcd$2841
  0C:388DA    A$adcd$2842
  0C:388DB    A$adcd$2843
  0C:388DC    A$adcd$2844
  0C:388DD    A$adcd$2845
  0C:388DF    A$adcd$2846
  0C:388E1    A$adcd$2847
  0C:388E3    A$adcd$2848
  0C:388E5    A$adcd$2849
  0C:388E8    A$adcd$2850
  0C:388EA    A$adcd$2851
  0C:388EC    A$adcd$2852
  0C:388EE    A$adcd$2853
  0C:388F0    A$adcd$2854
  0C:388F3    A$adcd$2855
  0C:388F5    A$adcd$2856
  0C:388F7    A$adcd$2857
  0C:388F9    A$adcd$2858
  0C:388FB    A$adcd$2859
  0C:388FD    A$adcd$2860
  0C:388FF    A$adcd$2861
  0C:38901    A$adcd$2862
  0C:38903    A$adcd$2863
  0C:38904    A$adcd$2864
  0C:38907    A$adcd$2865
  0C:38908    A$adcd$2866
  0C:38909    A$adcd$2867
  0C:3890C    A$adcd$2868
  0C:3890F    A$adcd$2869
  0C:38910    A$adcd$2870
  0C:38911    A$adcd$2871
  0C:38912    A$adcd$2872
  0C:38913    A$adcd$2873
  0C:38914    A$adcd$2874
  0C:38915    A$adcd$2875
  0C:38916    A$adcd$2876
  0C:38917    A$adcd$2877
  0C:38918    A$adcd$2878
  0C:3891A    A$adcd$2879
  0C:3891C    A$adcd$2880
  0C:3891F    A$adcd$2881
  0C:38921    A$adcd$2882
  0C:38923    A$adcd$2883
  0C:38925    A$adcd$2884
  0C:38926    A$adcd$2885
  0C:38928    A$adcd$2886
  0C:38929    A$adcd$2887
  0C:3892A    A$adcd$2888
  0C:3892B    A$adcd$2889
  0C:3892C    A$adcd$2890
  0C:3892D    A$adcd$2891
  0C:3892E    A$adcd$2892
  0C:3892F    A$adcd$2893
  0C:38931    A$adcd$2894
  0C:38933    A$adcd$2895
  0C:38935    A$adcd$2896
  0C:38937    A$adcd$2897
  0C:3893A    A$adcd$2898
  0C:3893C    A$adcd$2899
  0C:3893E    A$adcd$2900
  0C:38940    A$adcd$2901
  0C:38942    A$adcd$2902
  0C:38945    A$adcd$2903
  0C:38947    A$adcd$2904
  0C:38949    A$adcd$2905
  0C:3894B    A$adcd$2906
  0C:3894C    A$adcd$2907
  0C:3894D    A$adcd$2908
  0C:3894E    A$adcd$2909
  0C:3894F    A$adcd$2910
  0C:38950    A$adcd$2911
  0C:38952    A$adcd$2912
  0C:38955    A$adcd$2913
  0C:38958    A$adcd$2917
  0C:38958    C$adcd.c$254$4$4
  0C:3895A    A$adcd$2918
  0C:3895B    A$adcd$2919
  0C:3895D    A$adcd$2920
  0C:3895E    A$adcd$2921
  0C:3895F    A$adcd$2922
  0C:38960    A$adcd$2923
  0C:38961    A$adcd$2924
  0C:38962    A$adcd$2925
  0C:38963    A$adcd$2926
  0C:38964    A$adcd$2927
  0C:38966    A$adcd$2928
  0C:38968    A$adcd$2929
  0C:3896A    A$adcd$2930
  0C:3896C    A$adcd$2931
  0C:3896F    A$adcd$2932
  0C:38971    A$adcd$2933
  0C:38973    A$adcd$2934
  0C:38975    A$adcd$2935
  0C:38977    A$adcd$2936
  0C:38979    A$adcd$2937
  0C:3897B    A$adcd$2938
  0C:3897D    A$adcd$2939
  0C:38980    A$adcd$2940
  0C:38982    A$adcd$2941
  0C:38984    A$adcd$2942
  0C:38986    A$adcd$2945
  0C:38986    C$adcd.c$256$4$4
  0C:38989    A$adcd$2946
  0C:3898A    A$adcd$2947
  0C:3898C    A$adcd$2948
  0C:3898F    A$adcd$2952
  0C:3898F    C$adcd.c$260$4$4
  0C:38991    A$adcd$2953
  0C:38993    A$adcd$2954
  0C:38995    A$adcd$2955
  0C:38998    A$adcd$2956
  0C:3899A    A$adcd$2957
  0C:3899C    A$adcd$2958
  0C:3899E    A$adcd$2959
  0C:389A0    A$adcd$2960
  0C:389A3    A$adcd$2961
  0C:389A5    A$adcd$2962
  0C:389A7    A$adcd$2963
  0C:389A9    A$adcd$2964
  0C:389AA    A$adcd$2965
  0C:389AB    A$adcd$2966
  0C:389AC    A$adcd$2967
  0C:389AD    A$adcd$2968
  0C:389AE    A$adcd$2969
  0C:389B0    A$adcd$2970
  0C:389B3    A$adcd$2974
  0C:389B3    C$adcd.c$264$4$4
  0C:389B5    A$adcd$2975
  0C:389B7    A$adcd$2976
  0C:389B9    A$adcd$2977
  0C:389BA    A$adcd$2978
  0C:389BC    A$adcd$2979
  0C:389BD    A$adcd$2980
  0C:389BF    A$adcd$2981
  0C:389C0    A$adcd$2982
  0C:389C2    A$adcd$2983
  0C:389C5    A$adcd$2984
  0C:389C7    A$adcd$2987
  0C:389C7    C$adcd.c$266$4$4
  0C:389C9    A$adcd$2991
  0C:389C9    C$adcd.c$274$4$4
  0C:389CB    A$adcd$2992
  0C:389CC    A$adcd$2993
  0C:389CE    A$adcd$2994
  0C:389CF    A$adcd$2995
  0C:389D1    A$adcd$2996
  0C:389D2    A$adcd$2997
  0C:389D4    A$adcd$2998
  0C:389D6    A$adcd$2999
  0C:389D9    A$adcd$3000
  0C:389DA    A$adcd$3001
  0C:389DC    A$adcd$3002
  0C:389DF    A$adcd$3004
  0C:389E2    A$adcd$3005
  0C:389E3    A$adcd$3006
  0C:389E5    A$adcd$3007
  0C:389E7    A$adcd$3008
  0C:389E8    A$adcd$3009
  0C:389EA    A$adcd$3010
  0C:389EB    A$adcd$3011
  0C:389EC    A$adcd$3012
  0C:389ED    A$adcd$3013
  0C:389EE    A$adcd$3014
  0C:389EF    A$adcd$3015
  0C:389F0    A$adcd$3016
  0C:389F1    A$adcd$3017
  0C:389F3    A$adcd$3018
  0C:389F5    A$adcd$3019
  0C:389F7    A$adcd$3020
  0C:389F9    A$adcd$3021
  0C:389FC    A$adcd$3022
  0C:389FE    A$adcd$3023
  0C:38A01    A$adcd$3024
  0C:38A03    A$adcd$3025
  0C:38A05    A$adcd$3026
  0C:38A08    A$adcd$3027
  0C:38A09    A$adcd$3028
  0C:38A0A    A$adcd$3029
  0C:38A0B    A$adcd$3030
  0C:38A0C    A$adcd$3031
  0C:38A0D    A$adcd$3032
  0C:38A10    A$adcd$3033
  0C:38A11    A$adcd$3034
  0C:38A12    A$adcd$3035
  0C:38A13    A$adcd$3036
  0C:38A14    A$adcd$3037
  0C:38A15    A$adcd$3038
  0C:38A16    A$adcd$3039
  0C:38A17    A$adcd$3040
  0C:38A18    A$adcd$3041
  0C:38A19    A$adcd$3042
  0C:38A1A    A$adcd$3043
  0C:38A1B    A$adcd$3044
  0C:38A1C    A$adcd$3045
  0C:38A1D    A$adcd$3046
  0C:38A1E    A$adcd$3047
  0C:38A1F    A$adcd$3048
  0C:38A20    A$adcd$3049
  0C:38A22    A$adcd$3050
  0C:38A24    A$adcd$3051
  0C:38A27    A$adcd$3052
  0C:38A29    A$adcd$3053
  0C:38A2B    A$adcd$3054
  0C:38A2E    A$adcd$3055
  0C:38A31    A$adcd$3059
  0C:38A31    C$adcd.c$277$4$4
  0C:38A34    A$adcd$3060
  0C:38A35    A$adcd$3063
  0C:38A35    C$adcd.c$278$5$15
  0C:38A37    A$adcd$3064
  0C:38A39    A$adcd$3065
  0C:38A3B    A$adcd$3066
  0C:38A3C    A$adcd$3067
  0C:38A3E    A$adcd$3068
  0C:38A3F    A$adcd$3069
  0C:38A41    A$adcd$3070
  0C:38A42    A$adcd$3071
  0C:38A44    A$adcd$3072
  0C:38A47    A$adcd$3073
  0C:38A49    A$adcd$3076
  0C:38A49    C$adcd.c$279$5$15
  0C:38A4C    A$adcd$3080
  0C:38A4C    C$adcd.c$283$4$4
  0C:38A4E    A$adcd$3081
  0C:38A4F    A$adcd$3082
  0C:38A51    A$adcd$3083
  0C:38A52    A$adcd$3084
  0C:38A53    A$adcd$3085
  0C:38A54    A$adcd$3086
  0C:38A55    A$adcd$3087
  0C:38A56    A$adcd$3088
  0C:38A57    A$adcd$3089
  0C:38A58    A$adcd$3090
  0C:38A5A    A$adcd$3091
  0C:38A5C    A$adcd$3092
  0C:38A5E    A$adcd$3093
  0C:38A60    A$adcd$3094
  0C:38A63    A$adcd$3095
  0C:38A64    A$adcd$3096
  0C:38A67    A$adcd$3097
  0C:38A69    A$adcd$3098
  0C:38A6A    A$adcd$3099
  0C:38A6B    A$adcd$3100
  0C:38A6D    A$adcd$3101
  0C:38A6E    A$adcd$3102
  0C:38A6F    A$adcd$3103
  0C:38A70    A$adcd$3104
  0C:38A71    A$adcd$3105
  0C:38A72    A$adcd$3106
  0C:38A73    A$adcd$3107
  0C:38A76    A$adcd$3108
  0C:38A77    A$adcd$3109
  0C:38A78    A$adcd$3110
  0C:38A79    A$adcd$3111
  0C:38A7A    A$adcd$3112
  0C:38A7C    A$adcd$3113
  0C:38A7E    A$adcd$3114
  0C:38A80    A$adcd$3115
  0C:38A82    A$adcd$3116
  0C:38A85    A$adcd$3119
  0C:38A85    C$adcd.c$286$5$16
  0C:38A87    A$adcd$3120
  0C:38A88    A$adcd$3121
  0C:38A8A    A$adcd$3122
  0C:38A8B    A$adcd$3123
  0C:38A8D    A$adcd$3124
  0C:38A8E    A$adcd$3125
  0C:38A90    A$adcd$3126
  0C:38A92    A$adcd$3127
  0C:38A95    A$adcd$3128
  0C:38A96    A$adcd$3129
  0C:38A98    A$adcd$3130
  0C:38A9B    A$adcd$3132
  0C:38A9E    A$adcd$3133
  0C:38A9F    A$adcd$3134
  0C:38AA1    A$adcd$3135
  0C:38AA4    A$adcd$3137
  0C:38AA6    A$adcd$3138
  0C:38AA7    A$adcd$3139
  0C:38AA9    A$adcd$3140
  0C:38AAB    A$adcd$3141
  0C:38AAC    A$adcd$3142
  0C:38AAE    A$adcd$3143
  0C:38AAF    A$adcd$3144
  0C:38AB0    A$adcd$3145
  0C:38AB1    A$adcd$3146
  0C:38AB2    A$adcd$3147
  0C:38AB3    A$adcd$3148
  0C:38AB4    A$adcd$3149
  0C:38AB5    A$adcd$3150
  0C:38AB6    A$adcd$3151
  0C:38AB7    A$adcd$3152
  0C:38AB8    A$adcd$3153
  0C:38AB9    A$adcd$3154
  0C:38ABB    A$adcd$3155
  0C:38ABC    A$adcd$3156
  0C:38ABE    A$adcd$3157
  0C:38ABF    A$adcd$3158
  0C:38AC0    A$adcd$3159
  0C:38AC1    A$adcd$3160
  0C:38AC2    A$adcd$3161
  0C:38AC3    A$adcd$3162
  0C:38AC4    A$adcd$3163
  0C:38AC5    A$adcd$3164
  0C:38AC7    A$adcd$3165
  0C:38AC9    A$adcd$3166
  0C:38ACB    A$adcd$3167
  0C:38ACD    A$adcd$3168
  0C:38AD0    A$adcd$3169
  0C:38AD2    A$adcd$3170
  0C:38AD5    A$adcd$3171
  0C:38AD7    A$adcd$3172
  0C:38AD9    A$adcd$3173
  0C:38ADB    A$adcd$3174
  0C:38ADD    A$adcd$3175
  0C:38ADE    A$adcd$3176
  0C:38AE0    A$adcd$3177
  0C:38AE1    A$adcd$3178
  0C:38AE3    A$adcd$3179
  0C:38AE4    A$adcd$3180
  0C:38AE6    A$adcd$3181
  0C:38AE7    A$adcd$3182
  0C:38AEA    A$adcd$3183
  0C:38AEB    A$adcd$3184
  0C:38AEC    A$adcd$3185
  0C:38AEF    A$adcd$3186
  0C:38AF2    A$adcd$3187
  0C:38AF3    A$adcd$3188
  0C:38AF4    A$adcd$3189
  0C:38AF5    A$adcd$3190
  0C:38AF6    A$adcd$3191
  0C:38AF7    A$adcd$3192
  0C:38AFA    A$adcd$3193
  0C:38AFB    A$adcd$3194
  0C:38AFC    A$adcd$3195
  0C:38AFD    A$adcd$3196
  0C:38AFE    A$adcd$3197
  0C:38AFF    A$adcd$3198
  0C:38B00    A$adcd$3199
  0C:38B01    A$adcd$3200
  0C:38B02    A$adcd$3201
  0C:38B03    A$adcd$3202
  0C:38B04    A$adcd$3203
  0C:38B05    A$adcd$3204
  0C:38B06    A$adcd$3205
  0C:38B07    A$adcd$3206
  0C:38B08    A$adcd$3207
  0C:38B09    A$adcd$3208
  0C:38B0A    A$adcd$3209
  0C:38B0C    A$adcd$3210
  0C:38B0E    A$adcd$3211
  0C:38B11    A$adcd$3212
  0C:38B13    A$adcd$3213
  0C:38B15    A$adcd$3214
  0C:38B17    A$adcd$3215
  0C:38B18    A$adcd$3216
  0C:38B1A    A$adcd$3217
  0C:38B1B    A$adcd$3218
  0C:38B1C    A$adcd$3219
  0C:38B1D    A$adcd$3220
  0C:38B1E    A$adcd$3221
  0C:38B1F    A$adcd$3222
  0C:38B20    A$adcd$3223
  0C:38B21    A$adcd$3224
  0C:38B23    A$adcd$3225
  0C:38B25    A$adcd$3226
  0C:38B27    A$adcd$3227
  0C:38B29    A$adcd$3228
  0C:38B2C    A$adcd$3229
  0C:38B2E    A$adcd$3230
  0C:38B30    A$adcd$3231
  0C:38B32    A$adcd$3232
  0C:38B34    A$adcd$3233
  0C:38B37    A$adcd$3234
  0C:38B39    A$adcd$3235
  0C:38B3B    A$adcd$3236
  0C:38B3D    A$adcd$3237
  0C:38B3E    A$adcd$3238
  0C:38B3F    A$adcd$3239
  0C:38B40    A$adcd$3240
  0C:38B41    A$adcd$3241
  0C:38B42    A$adcd$3242
  0C:38B44    A$adcd$3243
  0C:38B47    A$adcd$3244
  0C:38B4A    A$adcd$3248
  0C:38B4A    C$adcd.c$290$4$4
  0C:38B4C    A$adcd$3249
  0C:38B4D    A$adcd$3250
  0C:38B4F    A$adcd$3251
  0C:38B50    A$adcd$3252
  0C:38B51    A$adcd$3253
  0C:38B52    A$adcd$3254
  0C:38B53    A$adcd$3255
  0C:38B54    A$adcd$3256
  0C:38B55    A$adcd$3257
  0C:38B56    A$adcd$3258
  0C:38B58    A$adcd$3259
  0C:38B5A    A$adcd$3260
  0C:38B5C    A$adcd$3261
  0C:38B5E    A$adcd$3262
  0C:38B61    A$adcd$3263
  0C:38B63    A$adcd$3264
  0C:38B65    A$adcd$3265
  0C:38B67    A$adcd$3266
  0C:38B69    A$adcd$3267
  0C:38B6B    A$adcd$3268
  0C:38B6D    A$adcd$3269
  0C:38B6F    A$adcd$3270
  0C:38B72    A$adcd$3271
  0C:38B74    A$adcd$3272
  0C:38B76    A$adcd$3273
  0C:38B78    A$adcd$3276
  0C:38B78    C$adcd.c$292$4$4
  0C:38B7B    A$adcd$3277
  0C:38B7C    A$adcd$3280
  0C:38B7C    C$adcd.c$293$5$18
  0C:38B7E    A$adcd$3281
  0C:38B80    A$adcd$3282
  0C:38B82    A$adcd$3283
  0C:38B83    A$adcd$3284
  0C:38B85    A$adcd$3285
  0C:38B86    A$adcd$3286
  0C:38B88    A$adcd$3287
  0C:38B89    A$adcd$3288
  0C:38B8B    A$adcd$3289
  0C:38B8E    A$adcd$3290
  0C:38B90    A$adcd$3293
  0C:38B90    C$adcd.c$294$5$18
  0C:38B93    A$adcd$3297
  0C:38B93    C$adcd.c$297$4$4
  0C:38B95    A$adcd$3298
  0C:38B97    A$adcd$3299
  0C:38B99    A$adcd$3300
  0C:38B9C    A$adcd$3301
  0C:38B9E    A$adcd$3302
  0C:38BA0    A$adcd$3303
  0C:38BA2    A$adcd$3304
  0C:38BA4    A$adcd$3305
  0C:38BA7    A$adcd$3306
  0C:38BA9    A$adcd$3307
  0C:38BAB    A$adcd$3308
  0C:38BAD    A$adcd$3309
  0C:38BAE    A$adcd$3310
  0C:38BAF    A$adcd$3311
  0C:38BB0    A$adcd$3312
  0C:38BB1    A$adcd$3313
  0C:38BB2    A$adcd$3314
  0C:38BB4    A$adcd$3315
  0C:38BB7    A$adcd$3319
  0C:38BB7    C$adcd.c$301$4$4
  0C:38BB8    A$adcd$3320
  0C:38BBA    A$adcd$3321
  0C:38BBC    A$adcd$3322
  0C:38BBD    A$adcd$3323
  0C:38BBF    A$adcd$3324
  0C:38BC0    A$adcd$3325
  0C:38BC2    A$adcd$3326
  0C:38BC3    A$adcd$3327
  0C:38BC5    A$adcd$3328
  0C:38BC8    A$adcd$3329
  0C:38BCA    A$adcd$3332
  0C:38BCA    C$adcd.c$303$4$4
  0C:38BCD    A$adcd$3335
  0C:38BCD    C$adcd.c$304$4$4
  0C:38BCE    A$adcd$3336
  0C:38BCF    A$adcd$3337
  0C:38BD2    A$adcd$3338
  0C:38BD3    A$adcd$3339
  0C:38BD6    A$adcd$3340
  0C:38BD8    A$adcd$3341
  0C:38BDA    A$adcd$3342
  0C:38BDC    A$adcd$3343
  0C:38BDF    A$adcd$3344
  0C:38BE2    A$adcd$3348
  0C:38BE2    C$adcd.c$306$2$2
  0C:38BE4    A$adcd$3349
  0C:38BE5    A$adcd$3350
  0C:38BE7    A$adcd$3351
  0C:38BE8    A$adcd$3352
  0C:38BEA    A$adcd$3353
  0C:38BEB    A$adcd$3354
  0C:38BED    A$adcd$3355
  0C:38BEE    A$adcd$3356
  0C:38BF1    A$adcd$3357
  0C:38BF2    A$adcd$3358
  0C:38BF3    A$adcd$3359
  0C:38BF6    A$adcd$3360
  0C:38BF9    A$adcd$3362
  0C:38BFC    A$adcd$3363
  0C:38BFE    A$adcd$3366
  0C:38BFE    C$adcd.c$307$2$2
  0C:38BFE    XG$handle_fan$0$0
  0C:38C01    A$adcd$3383
  0C:38C01    C$adcd.c$315$2$2
  0C:38C01    G$handle_heat_alarm$0$0
  0C:38C01    _handle_heat_alarm
  0C:38C03    A$adcd$3384
  0C:38C06    A$adcd$3385
  0C:38C08    A$adcd$3386
  0C:38C0A    A$adcd$3387
  0C:38C0C    A$adcd$3388
  0C:38C0E    A$adcd$3389
  0C:38C10    A$adcd$3390
  0C:38C12    A$adcd$3393
  0C:38C12    C$adcd.c$317$2$2
  0C:38C14    A$adcd$3394
  0C:38C15    A$adcd$3395
  0C:38C17    A$adcd$3396
  0C:38C18    A$adcd$3397
  0C:38C1A    A$adcd$3398
  0C:38C1B    A$adcd$3399
  0C:38C1D    A$adcd$3400
  0C:38C20    A$adcd$3401
  0C:38C21    A$adcd$3402
  0C:38C22    A$adcd$3403
  0C:38C25    A$adcd$3404
  0C:38C26    A$adcd$3405
  0C:38C29    A$adcd$3406
  0C:38C2C    A$adcd$3407
  0C:38C2E    A$adcd$3409
  0C:38C31    A$adcd$3410
  0C:38C34    A$adcd$3411
  0C:38C36    A$adcd$3413
  0C:38C39    A$adcd$3414
  0C:38C3C    A$adcd$3415
  0C:38C3F    A$adcd$3417
  0C:38C42    A$adcd$3418
  0C:38C45    A$adcd$3419
  0C:38C48    A$adcd$3421
  0C:38C4B    A$adcd$3422
  0C:38C4E    A$adcd$3423
  0C:38C51    A$adcd$3425
  0C:38C54    A$adcd$3429
  0C:38C54    C$adcd.c$319$3$3
  0C:38C56    A$adcd$3430
  0C:38C57    A$adcd$3431
  0C:38C59    A$adcd$3432
  0C:38C5A    A$adcd$3433
  0C:38C5B    A$adcd$3434
  0C:38C5C    A$adcd$3435
  0C:38C5D    A$adcd$3436
  0C:38C5E    A$adcd$3437
  0C:38C5F    A$adcd$3438
  0C:38C60    A$adcd$3439
  0C:38C62    A$adcd$3440
  0C:38C64    A$adcd$3441
  0C:38C66    A$adcd$3442
  0C:38C68    A$adcd$3443
  0C:38C6A    A$adcd$3444
  0C:38C6C    A$adcd$3445
  0C:38C6E    A$adcd$3446
  0C:38C71    A$adcd$3447
  0C:38C73    A$adcd$3448
  0C:38C75    A$adcd$3449
  0C:38C77    A$adcd$3450
  0C:38C79    A$adcd$3451
  0C:38C7B    A$adcd$3452
  0C:38C7D    A$adcd$3453
  0C:38C7F    A$adcd$3454
  0C:38C80    A$adcd$3455
  0C:38C83    A$adcd$3459
  0C:38C83    C$adcd.c$324$4$4
  0C:38C85    A$adcd$3460
  0C:38C86    A$adcd$3461
  0C:38C88    A$adcd$3462
  0C:38C89    A$adcd$3463
  0C:38C8B    A$adcd$3464
  0C:38C8C    A$adcd$3465
  0C:38C8E    A$adcd$3466
  0C:38C90    A$adcd$3467
  0C:38C93    A$adcd$3468
  0C:38C94    A$adcd$3469
  0C:38C96    A$adcd$3470
  0C:38C99    A$adcd$3472
  0C:38C9C    A$adcd$3473
  0C:38C9D    A$adcd$3474
  0C:38C9F    A$adcd$3475
  0C:38CA1    A$adcd$3476
  0C:38CA4    A$adcd$3480
  0C:38CA4    C$adcd.c$328$5$7
  0C:38CA6    A$adcd$3481
  0C:38CA7    A$adcd$3482
  0C:38CA9    A$adcd$3483
  0C:38CAA    A$adcd$3484
  0C:38CAC    A$adcd$3485
  0C:38CAD    A$adcd$3486
  0C:38CAF    A$adcd$3487
  0C:38CB1    A$adcd$3488
  0C:38CB4    A$adcd$3489
  0C:38CB5    A$adcd$3490
  0C:38CB7    A$adcd$3491
  0C:38CBA    A$adcd$3493
  0C:38CBC    A$adcd$3494
  0C:38CBD    A$adcd$3495
  0C:38CBF    A$adcd$3496
  0C:38CC0    A$adcd$3497
  0C:38CC1    A$adcd$3498
  0C:38CC2    A$adcd$3499
  0C:38CC3    A$adcd$3500
  0C:38CC4    A$adcd$3501
  0C:38CC5    A$adcd$3502
  0C:38CC6    A$adcd$3503
  0C:38CC8    A$adcd$3504
  0C:38CCB    A$adcd$3505
  0C:38CCD    A$adcd$3506
  0C:38CCF    A$adcd$3507
  0C:38CD1    A$adcd$3508
  0C:38CD4    A$adcd$3509
  0C:38CD6    A$adcd$3510
  0C:38CD7    A$adcd$3511
  0C:38CD8    A$adcd$3512
  0C:38CD9    A$adcd$3513
  0C:38CDA    A$adcd$3514
  0C:38CDC    A$adcd$3515
  0C:38CDD    A$adcd$3516
  0C:38CDF    A$adcd$3517
  0C:38CE1    A$adcd$3518
  0C:38CE3    A$adcd$3519
  0C:38CE5    A$adcd$3520
  0C:38CE7    A$adcd$3521
  0C:38CE9    A$adcd$3522
  0C:38CEB    A$adcd$3523
  0C:38CED    A$adcd$3524
  0C:38CEF    A$adcd$3525
  0C:38CF0    A$adcd$3526
  0C:38CF1    A$adcd$3527
  0C:38CF4    A$adcd$3528
  0C:38CF5    A$adcd$3529
  0C:38CF6    A$adcd$3530
  0C:38CF7    A$adcd$3531
  0C:38CFA    A$adcd$3532
  0C:38CFD    A$adcd$3533
  0C:38CFE    A$adcd$3534
  0C:38CFF    A$adcd$3535
  0C:38D00    A$adcd$3536
  0C:38D01    A$adcd$3537
  0C:38D02    A$adcd$3538
  0C:38D04    A$adcd$3539
  0C:38D06    A$adcd$3540
  0C:38D07    A$adcd$3541
  0C:38D08    A$adcd$3542
  0C:38D09    A$adcd$3543
  0C:38D0A    A$adcd$3544
  0C:38D0B    A$adcd$3545
  0C:38D0C    A$adcd$3546
  0C:38D0E    A$adcd$3547
  0C:38D10    A$adcd$3548
  0C:38D13    A$adcd$3549
  0C:38D15    A$adcd$3550
  0C:38D17    A$adcd$3551
  0C:38D19    A$adcd$3552
  0C:38D1B    A$adcd$3553
  0C:38D1D    A$adcd$3554
  0C:38D1F    A$adcd$3555
  0C:38D20    A$adcd$3556
  0C:38D22    A$adcd$3557
  0C:38D23    A$adcd$3558
  0C:38D24    A$adcd$3559
  0C:38D25    A$adcd$3560
  0C:38D26    A$adcd$3561
  0C:38D27    A$adcd$3562
  0C:38D28    A$adcd$3563
  0C:38D29    A$adcd$3564
  0C:38D2B    A$adcd$3565
  0C:38D2E    A$adcd$3566
  0C:38D30    A$adcd$3567
  0C:38D32    A$adcd$3568
  0C:38D34    A$adcd$3569
  0C:38D37    A$adcd$3570
  0C:38D39    A$adcd$3571
  0C:38D3B    A$adcd$3572
  0C:38D3D    A$adcd$3573
  0C:38D3F    A$adcd$3574
  0C:38D41    A$adcd$3575
  0C:38D43    A$adcd$3576
  0C:38D45    A$adcd$3577
  0C:38D47    A$adcd$3578
  0C:38D48    A$adcd$3579
  0C:38D4B    A$adcd$3580
  0C:38D4C    A$adcd$3581
  0C:38D4D    A$adcd$3582
  0C:38D50    A$adcd$3583
  0C:38D53    A$adcd$3584
  0C:38D54    A$adcd$3585
  0C:38D55    A$adcd$3586
  0C:38D56    A$adcd$3587
  0C:38D57    A$adcd$3588
  0C:38D58    A$adcd$3589
  0C:38D59    A$adcd$3590
  0C:38D5A    A$adcd$3591
  0C:38D5B    A$adcd$3592
  0C:38D5C    A$adcd$3593
  0C:38D5E    A$adcd$3594
  0C:38D60    A$adcd$3595
  0C:38D63    A$adcd$3596
  0C:38D65    A$adcd$3597
  0C:38D67    A$adcd$3598
  0C:38D69    A$adcd$3599
  0C:38D6B    A$adcd$3600
  0C:38D6D    A$adcd$3601
  0C:38D70    A$adcd$3602
  0C:38D73    A$adcd$3606
  0C:38D73    C$adcd.c$333$4$4
  0C:38D76    A$adcd$3607
  0C:38D77    A$adcd$3608
  0C:38D79    A$adcd$3609
  0C:38D7C    A$adcd$3613
  0C:38D7C    C$adcd.c$336$4$4
  0C:38D7E    A$adcd$3614
  0C:38D80    A$adcd$3615
  0C:38D82    A$adcd$3616
  0C:38D85    A$adcd$3617
  0C:38D86    A$adcd$3618
  0C:38D87    A$adcd$3619
  0C:38D8A    A$adcd$3620
  0C:38D8B    A$adcd$3621
  0C:38D8E    A$adcd$3622
  0C:38D8F    A$adcd$3623
  0C:38D90    A$adcd$3624
  0C:38D91    A$adcd$3625
  0C:38D92    A$adcd$3626
  0C:38D93    A$adcd$3627
  0C:38D94    A$adcd$3628
  0C:38D95    A$adcd$3629
  0C:38D96    A$adcd$3630
  0C:38D97    A$adcd$3631
  0C:38D99    A$adcd$3632
  0C:38D9B    A$adcd$3633
  0C:38D9E    A$adcd$3634
  0C:38DA0    A$adcd$3635
  0C:38DA2    A$adcd$3638
  0C:38DA2    C$adcd.c$337$5$9
  0C:38DA4    A$adcd$3639
  0C:38DA5    A$adcd$3640
  0C:38DA7    A$adcd$3641
  0C:38DA8    A$adcd$3642
  0C:38DA9    A$adcd$3643
  0C:38DAA    A$adcd$3644
  0C:38DAB    A$adcd$3645
  0C:38DAC    A$adcd$3646
  0C:38DAD    A$adcd$3647
  0C:38DAE    A$adcd$3648
  0C:38DB0    A$adcd$3649
  0C:38DB2    A$adcd$3650
  0C:38DB4    A$adcd$3651
  0C:38DB6    A$adcd$3652
  0C:38DB7    A$adcd$3653
  0C:38DBA    A$adcd$3654
  0C:38DBC    A$adcd$3658
  0C:38DBC    C$adcd.c$338$4$4
  0C:38DBE    A$adcd$3659
  0C:38DBF    A$adcd$3660
  0C:38DC1    A$adcd$3661
  0C:38DC2    A$adcd$3662
  0C:38DC3    A$adcd$3663
  0C:38DC4    A$adcd$3664
  0C:38DC5    A$adcd$3665
  0C:38DC6    A$adcd$3666
  0C:38DC7    A$adcd$3667
  0C:38DC8    A$adcd$3668
  0C:38DCA    A$adcd$3669
  0C:38DCC    A$adcd$3670
  0C:38DCE    A$adcd$3671
  0C:38DD0    A$adcd$3672
  0C:38DD3    A$adcd$3673
  0C:38DD4    A$adcd$3674
  0C:38DD5    A$adcd$3675
  0C:38DD8    A$adcd$3676
  0C:38DD9    A$adcd$3677
  0C:38DDA    A$adcd$3678
  0C:38DDB    A$adcd$3679
  0C:38DDC    A$adcd$3680
  0C:38DDD    A$adcd$3681
  0C:38DDF    A$adcd$3682
  0C:38DE1    A$adcd$3683
  0C:38DE4    A$adcd$3684
  0C:38DE6    A$adcd$3685
  0C:38DE8    A$adcd$3688
  0C:38DE8    C$adcd.c$339$5$10
  0C:38DEA    A$adcd$3689
  0C:38DEB    A$adcd$3690
  0C:38DED    A$adcd$3691
  0C:38DEE    A$adcd$3692
  0C:38DEF    A$adcd$3693
  0C:38DF0    A$adcd$3694
  0C:38DF1    A$adcd$3695
  0C:38DF2    A$adcd$3696
  0C:38DF3    A$adcd$3697
  0C:38DF4    A$adcd$3698
  0C:38DF6    A$adcd$3699
  0C:38DF8    A$adcd$3700
  0C:38DFA    A$adcd$3701
  0C:38DFC    A$adcd$3702
  0C:38DFE    A$adcd$3703
  0C:38E01    A$adcd$3707
  0C:38E01    C$adcd.c$343$4$4
  0C:38E03    A$adcd$3708
  0C:38E04    A$adcd$3709
  0C:38E06    A$adcd$3710
  0C:38E07    A$adcd$3711
  0C:38E08    A$adcd$3712
  0C:38E09    A$adcd$3713
  0C:38E0A    A$adcd$3714
  0C:38E0B    A$adcd$3715
  0C:38E0C    A$adcd$3716
  0C:38E0D    A$adcd$3717
  0C:38E0F    A$adcd$3718
  0C:38E11    A$adcd$3719
  0C:38E13    A$adcd$3720
  0C:38E15    A$adcd$3721
  0C:38E18    A$adcd$3722
  0C:38E19    A$adcd$3723
  0C:38E1C    A$adcd$3724
  0C:38E1E    A$adcd$3725
  0C:38E1F    A$adcd$3726
  0C:38E20    A$adcd$3727
  0C:38E22    A$adcd$3728
  0C:38E23    A$adcd$3729
  0C:38E24    A$adcd$3730
  0C:38E25    A$adcd$3731
  0C:38E26    A$adcd$3732
  0C:38E27    A$adcd$3733
  0C:38E28    A$adcd$3734
  0C:38E2B    A$adcd$3735
  0C:38E2C    A$adcd$3736
  0C:38E2D    A$adcd$3737
  0C:38E2E    A$adcd$3738
  0C:38E2F    A$adcd$3739
  0C:38E31    A$adcd$3740
  0C:38E33    A$adcd$3741
  0C:38E35    A$adcd$3742
  0C:38E37    A$adcd$3743
  0C:38E3A    A$adcd$3746
  0C:38E3A    C$adcd.c$346$5$11
  0C:38E3C    A$adcd$3747
  0C:38E3D    A$adcd$3748
  0C:38E3F    A$adcd$3749
  0C:38E40    A$adcd$3750
  0C:38E42    A$adcd$3751
  0C:38E43    A$adcd$3752
  0C:38E45    A$adcd$3753
  0C:38E47    A$adcd$3754
  0C:38E4A    A$adcd$3755
  0C:38E4B    A$adcd$3756
  0C:38E4D    A$adcd$3757
  0C:38E50    A$adcd$3759
  0C:38E52    A$adcd$3760
  0C:38E53    A$adcd$3761
  0C:38E55    A$adcd$3762
  0C:38E56    A$adcd$3763
  0C:38E57    A$adcd$3764
  0C:38E58    A$adcd$3765
  0C:38E59    A$adcd$3766
  0C:38E5A    A$adcd$3767
  0C:38E5B    A$adcd$3768
  0C:38E5C    A$adcd$3769
  0C:38E5E    A$adcd$3770
  0C:38E60    A$adcd$3771
  0C:38E62    A$adcd$3772
  0C:38E64    A$adcd$3773
  0C:38E67    A$adcd$3774
  0C:38E69    A$adcd$3775
  0C:38E6C    A$adcd$3776
  0C:38E6E    A$adcd$3777
  0C:38E70    A$adcd$3778
  0C:38E73    A$adcd$3779
  0C:38E74    A$adcd$3780
  0C:38E75    A$adcd$3781
  0C:38E76    A$adcd$3782
  0C:38E77    A$adcd$3783
  0C:38E78    A$adcd$3784
  0C:38E79    A$adcd$3785
  0C:38E7A    A$adcd$3786
  0C:38E7B    A$adcd$3787
  0C:38E7C    A$adcd$3788
  0C:38E7E    A$adcd$3789
  0C:38E80    A$adcd$3790
  0C:38E83    A$adcd$3791
  0C:38E85    A$adcd$3792
  0C:38E87    A$adcd$3793
  0C:38E89    A$adcd$3794
  0C:38E8A    A$adcd$3795
  0C:38E8C    A$adcd$3796
  0C:38E8D    A$adcd$3797
  0C:38E8E    A$adcd$3798
  0C:38E8F    A$adcd$3799
  0C:38E90    A$adcd$3800
  0C:38E91    A$adcd$3801
  0C:38E92    A$adcd$3802
  0C:38E93    A$adcd$3803
  0C:38E95    A$adcd$3804
  0C:38E97    A$adcd$3805
  0C:38E99    A$adcd$3806
  0C:38E9B    A$adcd$3807
  0C:38E9E    A$adcd$3808
  0C:38EA0    A$adcd$3809
  0C:38EA2    A$adcd$3810
  0C:38EA4    A$adcd$3811
  0C:38EA6    A$adcd$3812
  0C:38EA9    A$adcd$3813
  0C:38EAB    A$adcd$3814
  0C:38EAD    A$adcd$3815
  0C:38EAF    A$adcd$3816
  0C:38EB0    A$adcd$3817
  0C:38EB1    A$adcd$3818
  0C:38EB2    A$adcd$3819
  0C:38EB3    A$adcd$3820
  0C:38EB4    A$adcd$3821
  0C:38EB6    A$adcd$3822
  0C:38EB9    A$adcd$3823
  0C:38EBA    A$adcd$3824
  0C:38EBC    A$adcd$3825
  0C:38EBF    A$adcd$3826
  0C:38EC2    A$adcd$3830
  0C:38EC2    C$adcd.c$351$4$4
  0C:38EC4    A$adcd$3831
  0C:38EC5    A$adcd$3832
  0C:38EC7    A$adcd$3833
  0C:38EC9    A$adcd$3834
  0C:38ECA    A$adcd$3835
  0C:38ECC    A$adcd$3836
  0C:38ECD    A$adcd$3837
  0C:38ECE    A$adcd$3838
  0C:38ECF    A$adcd$3839
  0C:38ED0    A$adcd$3840
  0C:38ED1    A$adcd$3841
  0C:38ED2    A$adcd$3842
  0C:38ED3    A$adcd$3843
  0C:38ED4    A$adcd$3844
  0C:38ED5    A$adcd$3845
  0C:38ED6    A$adcd$3846
  0C:38ED7    A$adcd$3847
  0C:38ED9    A$adcd$3848
  0C:38EDB    A$adcd$3849
  0C:38EDC    A$adcd$3850
  0C:38EDE    A$adcd$3851
  0C:38EDF    A$adcd$3852
  0C:38EE1    A$adcd$3853
  0C:38EE2    A$adcd$3854
  0C:38EE4    A$adcd$3855
  0C:38EE7    A$adcd$3856
  0C:38EE9    A$adcd$3857
  0C:38EEB    A$adcd$3858
  0C:38EED    A$adcd$3859
  0C:38EEF    A$adcd$3860
  0C:38EF2    A$adcd$3863
  0C:38EF2    C$adcd.c$354$4$4
  0C:38EF5    A$adcd$3864
  0C:38EF6    A$adcd$3865
  0C:38EF8    A$adcd$3866
  0C:38EFB    A$adcd$3870
  0C:38EFB    C$adcd.c$357$4$4
  0C:38EFD    A$adcd$3871
  0C:38EFF    A$adcd$3872
  0C:38F00    A$adcd$3873
  0C:38F02    A$adcd$3874
  0C:38F03    A$adcd$3875
  0C:38F05    A$adcd$3876
  0C:38F06    A$adcd$3877
  0C:38F08    A$adcd$3878
  0C:38F0B    A$adcd$3879
  0C:38F0D    A$adcd$3880
  0C:38F0F    A$adcd$3881
  0C:38F11    A$adcd$3882
  0C:38F13    A$adcd$3883
  0C:38F16    A$adcd$3884
  0C:38F18    A$adcd$3885
  0C:38F1A    A$adcd$3886
  0C:38F1C    A$adcd$3887
  0C:38F1D    A$adcd$3888
  0C:38F1E    A$adcd$3889
  0C:38F1F    A$adcd$3890
  0C:38F20    A$adcd$3891
  0C:38F21    A$adcd$3892
  0C:38F23    A$adcd$3893
  0C:38F26    A$adcd$3897
  0C:38F26    C$adcd.c$358$5$13
  0C:38F28    A$adcd$3898
  0C:38F29    A$adcd$3899
  0C:38F2B    A$adcd$3900
  0C:38F2C    A$adcd$3901
  0C:38F2D    A$adcd$3902
  0C:38F2E    A$adcd$3903
  0C:38F2F    A$adcd$3904
  0C:38F30    A$adcd$3905
  0C:38F31    A$adcd$3906
  0C:38F32    A$adcd$3907
  0C:38F34    A$adcd$3908
  0C:38F36    A$adcd$3909
  0C:38F38    A$adcd$3910
  0C:38F3A    A$adcd$3911
  0C:38F3D    A$adcd$3912
  0C:38F3E    A$adcd$3913
  0C:38F40    A$adcd$3914
  0C:38F42    A$adcd$3917
  0C:38F42    C$adcd.c$359$6$14
  0C:38F43    A$adcd$3918
  0C:38F45    A$adcd$3919
  0C:38F47    A$adcd$3920
  0C:38F49    A$adcd$3921
  0C:38F4A    A$adcd$3922
  0C:38F4D    A$adcd$3925
  0C:38F4D    C$adcd.c$362$6$14
  0C:38F50    A$adcd$3926
  0C:38F52    A$adcd$3927
  0C:38F53    A$adcd$3928
  0C:38F56    A$adcd$3929
  0C:38F58    A$adcd$3930
  0C:38F5A    A$adcd$3931
  0C:38F5C    A$adcd$3932
  0C:38F5F    A$adcd$3935
  0C:38F5F    C$adcd.c$364$6$14
  0C:38F62    A$adcd$3936
  0C:38F65    A$adcd$3937
  0C:38F68    A$adcd$3938
  0C:38F6A    A$adcd$3939
  0C:38F6C    A$adcd$3940
  0C:38F6F    A$adcd$3941
  0C:38F70    A$adcd$3942
  0C:38F71    A$adcd$3943
  0C:38F72    A$adcd$3944
  0C:38F73    A$adcd$3945
  0C:38F74    A$adcd$3946
  0C:38F75    A$adcd$3947
  0C:38F78    A$adcd$3948
  0C:38F7A    A$adcd$3949
  0C:38F7B    A$adcd$3950
  0C:38F7C    A$adcd$3951
  0C:38F7E    A$adcd$3952
  0C:38F7F    A$adcd$3953
  0C:38F80    A$adcd$3954
  0C:38F81    A$adcd$3955
  0C:38F82    A$adcd$3956
  0C:38F85    A$adcd$3957
  0C:38F87    A$adcd$3958
  0C:38F88    A$adcd$3959
  0C:38F89    A$adcd$3960
  0C:38F8B    A$adcd$3961
  0C:38F8C    A$adcd$3962
  0C:38F8D    A$adcd$3963
  0C:38F8F    A$adcd$3964
  0C:38F90    A$adcd$3965
  0C:38F93    A$adcd$3966
  0C:38F95    A$adcd$3967
  0C:38F96    A$adcd$3968
  0C:38F97    A$adcd$3969
  0C:38F99    A$adcd$3970
  0C:38F9A    A$adcd$3971
  0C:38F9B    A$adcd$3972
  0C:38F9D    A$adcd$3973
  0C:38F9E    A$adcd$3974
  0C:38FA1    A$adcd$3975
  0C:38FA2    A$adcd$3976
  0C:38FA3    A$adcd$3977
  0C:38FA4    A$adcd$3978
  0C:38FA5    A$adcd$3979
  0C:38FA6    A$adcd$3980
  0C:38FA9    A$adcd$3981
  0C:38FAC    A$adcd$3982
  0C:38FAF    A$adcd$3983
  0C:38FB1    A$adcd$3984
  0C:38FB3    A$adcd$3987
  0C:38FB3    C$adcd.c$368$7$15
  0C:38FB5    A$adcd$3991
  0C:38FB5    C$adcd.c$378$4$4
  0C:38FB7    A$adcd$3992
  0C:38FB9    A$adcd$3993
  0C:38FBA    A$adcd$3994
  0C:38FBC    A$adcd$3995
  0C:38FBD    A$adcd$3996
  0C:38FBF    A$adcd$3997
  0C:38FC0    A$adcd$3998
  0C:38FC2    A$adcd$3999
  0C:38FC5    A$adcd$4000
  0C:38FC6    A$adcd$4001
  0C:38FC9    A$adcd$4002
  0C:38FCB    A$adcd$4003
  0C:38FCC    A$adcd$4004
  0C:38FCD    A$adcd$4005
  0C:38FCF    A$adcd$4006
  0C:38FD0    A$adcd$4007
  0C:38FD1    A$adcd$4008
  0C:38FD2    A$adcd$4009
  0C:38FD3    A$adcd$4010
  0C:38FD4    A$adcd$4011
  0C:38FD5    A$adcd$4012
  0C:38FD8    A$adcd$4013
  0C:38FD9    A$adcd$4014
  0C:38FDA    A$adcd$4015
  0C:38FDB    A$adcd$4016
  0C:38FDC    A$adcd$4017
  0C:38FDE    A$adcd$4018
  0C:38FE0    A$adcd$4019
  0C:38FE2    A$adcd$4020
  0C:38FE4    A$adcd$4021
  0C:38FE7    A$adcd$4024
  0C:38FE7    C$adcd.c$380$5$18
  0C:38FE9    A$adcd$4025
  0C:38FEA    A$adcd$4026
  0C:38FEC    A$adcd$4027
  0C:38FED    A$adcd$4028
  0C:38FEF    A$adcd$4029
  0C:38FF0    A$adcd$4030
  0C:38FF2    A$adcd$4031
  0C:38FF4    A$adcd$4032
  0C:38FF7    A$adcd$4033
  0C:38FF8    A$adcd$4034
  0C:38FFA    A$adcd$4035
  0C:38FFD    A$adcd$4037
  0C:38FFF    A$adcd$4038
  0C:39000    A$adcd$4039
  0C:39002    A$adcd$4040
  0C:39003    A$adcd$4041
  0C:39004    A$adcd$4042
  0C:39005    A$adcd$4043
  0C:39006    A$adcd$4044
  0C:39007    A$adcd$4045
  0C:39008    A$adcd$4046
  0C:39009    A$adcd$4047
  0C:3900B    A$adcd$4048
  0C:3900D    A$adcd$4049
  0C:3900F    A$adcd$4050
  0C:39011    A$adcd$4051
  0C:39014    A$adcd$4052
  0C:39016    A$adcd$4053
  0C:39018    A$adcd$4054
  0C:3901A    A$adcd$4055
  0C:3901C    A$adcd$4056
  0C:3901F    A$adcd$4057
  0C:39021    A$adcd$4058
  0C:39023    A$adcd$4059
  0C:39025    A$adcd$4060
  0C:39026    A$adcd$4061
  0C:39027    A$adcd$4062
  0C:39028    A$adcd$4063
  0C:39029    A$adcd$4064
  0C:3902A    A$adcd$4065
  0C:3902C    A$adcd$4066
  0C:3902F    A$adcd$4068
  0C:39032    A$adcd$4069
  0C:39033    A$adcd$4070
  0C:39035    A$adcd$4071
  0C:39038    A$adcd$4073
  0C:3903B    A$adcd$4076
  0C:3903B    C$adcd.c$384$2$2
  0C:3903D    A$adcd$4078
  0C:3903F    A$adcd$4079
  0C:39040    A$adcd$4080
  0C:39042    A$adcd$4081
  0C:39043    A$adcd$4082
  0C:39045    A$adcd$4083
  0C:39046    A$adcd$4084
  0C:39048    A$adcd$4085
  0C:39049    A$adcd$4086
  0C:3904C    A$adcd$4087
  0C:3904D    A$adcd$4088
  0C:3904E    A$adcd$4089
  0C:39051    A$adcd$4090
  0C:39054    A$adcd$4092
  0C:39057    A$adcd$4093
  0C:39059    A$adcd$4096
  0C:39059    C$adcd.c$385$2$2
  0C:39059    XG$handle_heat_alarm$0$0
  0C:3905C    A$adcd$4113
  0C:3905C    C$adcd.c$393$2$2
  0C:3905C    G$handle_fan_alarm$0$0
  0C:3905C    _handle_fan_alarm
  0C:3905E    A$adcd$4114
  0C:39061    A$adcd$4115
  0C:39063    A$adcd$4116
  0C:39065    A$adcd$4117
  0C:39067    A$adcd$4118
  0C:39069    A$adcd$4119
  0C:3906B    A$adcd$4120
  0C:3906D    A$adcd$4123
  0C:3906D    C$adcd.c$395$2$2
  0C:3906F    A$adcd$4124
  0C:39070    A$adcd$4125
  0C:39072    A$adcd$4126
  0C:39073    A$adcd$4127
  0C:39075    A$adcd$4128
  0C:39076    A$adcd$4129
  0C:39078    A$adcd$4130
  0C:3907B    A$adcd$4131
  0C:3907C    A$adcd$4132
  0C:3907D    A$adcd$4133
  0C:39080    A$adcd$4134
  0C:39081    A$adcd$4135
  0C:39084    A$adcd$4136
  0C:39087    A$adcd$4137
  0C:39089    A$adcd$4139
  0C:3908C    A$adcd$4140
  0C:3908F    A$adcd$4141
  0C:39091    A$adcd$4143
  0C:39094    A$adcd$4144
  0C:39097    A$adcd$4145
  0C:3909A    A$adcd$4147
  0C:3909D    A$adcd$4148
  0C:390A0    A$adcd$4149
  0C:390A3    A$adcd$4151
  0C:390A6    A$adcd$4152
  0C:390A9    A$adcd$4153
  0C:390AC    A$adcd$4155
  0C:390AF    A$adcd$4159
  0C:390AF    C$adcd.c$397$3$3
  0C:390B1    A$adcd$4160
  0C:390B2    A$adcd$4161
  0C:390B4    A$adcd$4162
  0C:390B5    A$adcd$4163
  0C:390B6    A$adcd$4164
  0C:390B7    A$adcd$4165
  0C:390B8    A$adcd$4166
  0C:390B9    A$adcd$4167
  0C:390BA    A$adcd$4168
  0C:390BB    A$adcd$4169
  0C:390BD    A$adcd$4170
  0C:390BF    A$adcd$4171
  0C:390C1    A$adcd$4172
  0C:390C3    A$adcd$4173
  0C:390C5    A$adcd$4174
  0C:390C7    A$adcd$4175
  0C:390C9    A$adcd$4176
  0C:390CC    A$adcd$4177
  0C:390CE    A$adcd$4178
  0C:390D0    A$adcd$4179
  0C:390D2    A$adcd$4180
  0C:390D4    A$adcd$4181
  0C:390D6    A$adcd$4182
  0C:390D8    A$adcd$4183
  0C:390DA    A$adcd$4184
  0C:390DB    A$adcd$4185
  0C:390DE    A$adcd$4189
  0C:390DE    C$adcd.c$402$4$4
  0C:390E0    A$adcd$4190
  0C:390E1    A$adcd$4191
  0C:390E3    A$adcd$4192
  0C:390E4    A$adcd$4193
  0C:390E6    A$adcd$4194
  0C:390E7    A$adcd$4195
  0C:390E9    A$adcd$4196
  0C:390EB    A$adcd$4197
  0C:390EE    A$adcd$4198
  0C:390EF    A$adcd$4199
  0C:390F1    A$adcd$4200
  0C:390F4    A$adcd$4202
  0C:390F7    A$adcd$4203
  0C:390F8    A$adcd$4204
  0C:390FA    A$adcd$4205
  0C:390FC    A$adcd$4206
  0C:390FF    A$adcd$4210
  0C:390FF    C$adcd.c$406$5$7
  0C:39101    A$adcd$4211
  0C:39102    A$adcd$4212
  0C:39104    A$adcd$4213
  0C:39105    A$adcd$4214
  0C:39107    A$adcd$4215
  0C:39108    A$adcd$4216
  0C:3910A    A$adcd$4217
  0C:3910C    A$adcd$4218
  0C:3910F    A$adcd$4219
  0C:39110    A$adcd$4220
  0C:39112    A$adcd$4221
  0C:39115    A$adcd$4223
  0C:39117    A$adcd$4224
  0C:39118    A$adcd$4225
  0C:3911A    A$adcd$4226
  0C:3911B    A$adcd$4227
  0C:3911C    A$adcd$4228
  0C:3911D    A$adcd$4229
  0C:3911E    A$adcd$4230
  0C:3911F    A$adcd$4231
  0C:39120    A$adcd$4232
  0C:39121    A$adcd$4233
  0C:39123    A$adcd$4234
  0C:39126    A$adcd$4235
  0C:39128    A$adcd$4236
  0C:3912A    A$adcd$4237
  0C:3912C    A$adcd$4238
  0C:3912F    A$adcd$4239
  0C:39131    A$adcd$4240
  0C:39132    A$adcd$4241
  0C:39133    A$adcd$4242
  0C:39134    A$adcd$4243
  0C:39135    A$adcd$4244
  0C:39137    A$adcd$4245
  0C:39138    A$adcd$4246
  0C:3913A    A$adcd$4247
  0C:3913C    A$adcd$4248
  0C:3913E    A$adcd$4249
  0C:39140    A$adcd$4250
  0C:39142    A$adcd$4251
  0C:39144    A$adcd$4252
  0C:39146    A$adcd$4253
  0C:39148    A$adcd$4254
  0C:3914A    A$adcd$4255
  0C:3914B    A$adcd$4256
  0C:3914C    A$adcd$4257
  0C:3914F    A$adcd$4258
  0C:39150    A$adcd$4259
  0C:39151    A$adcd$4260
  0C:39152    A$adcd$4261
  0C:39155    A$adcd$4262
  0C:39158    A$adcd$4263
  0C:39159    A$adcd$4264
  0C:3915A    A$adcd$4265
  0C:3915B    A$adcd$4266
  0C:3915C    A$adcd$4267
  0C:3915D    A$adcd$4268
  0C:3915F    A$adcd$4269
  0C:39161    A$adcd$4270
  0C:39162    A$adcd$4271
  0C:39163    A$adcd$4272
  0C:39164    A$adcd$4273
  0C:39165    A$adcd$4274
  0C:39166    A$adcd$4275
  0C:39168    A$adcd$4276
  0C:39169    A$adcd$4277
  0C:3916B    A$adcd$4278
  0C:3916E    A$adcd$4279
  0C:39170    A$adcd$4280
  0C:39172    A$adcd$4281
  0C:39174    A$adcd$4282
  0C:39176    A$adcd$4283
  0C:39178    A$adcd$4284
  0C:3917A    A$adcd$4285
  0C:3917B    A$adcd$4286
  0C:3917D    A$adcd$4287
  0C:3917E    A$adcd$4288
  0C:3917F    A$adcd$4289
  0C:39180    A$adcd$4290
  0C:39181    A$adcd$4291
  0C:39182    A$adcd$4292
  0C:39183    A$adcd$4293
  0C:39184    A$adcd$4294
  0C:39186    A$adcd$4295
  0C:39189    A$adcd$4296
  0C:3918B    A$adcd$4297
  0C:3918D    A$adcd$4298
  0C:3918F    A$adcd$4299
  0C:39192    A$adcd$4300
  0C:39194    A$adcd$4301
  0C:39196    A$adcd$4302
  0C:39198    A$adcd$4303
  0C:3919A    A$adcd$4304
  0C:3919C    A$adcd$4305
  0C:3919E    A$adcd$4306
  0C:391A0    A$adcd$4307
  0C:391A2    A$adcd$4308
  0C:391A3    A$adcd$4309
  0C:391A6    A$adcd$4310
  0C:391A7    A$adcd$4311
  0C:391A8    A$adcd$4312
  0C:391AB    A$adcd$4313
  0C:391AE    A$adcd$4314
  0C:391AF    A$adcd$4315
  0C:391B0    A$adcd$4316
  0C:391B1    A$adcd$4317
  0C:391B2    A$adcd$4318
  0C:391B3    A$adcd$4319
  0C:391B4    A$adcd$4320
  0C:391B5    A$adcd$4321
  0C:391B6    A$adcd$4322
  0C:391B7    A$adcd$4323
  0C:391B9    A$adcd$4324
  0C:391BB    A$adcd$4325
  0C:391BE    A$adcd$4326
  0C:391C0    A$adcd$4327
  0C:391C2    A$adcd$4328
  0C:391C4    A$adcd$4329
  0C:391C6    A$adcd$4330
  0C:391C8    A$adcd$4331
  0C:391CB    A$adcd$4332
  0C:391CE    A$adcd$4336
  0C:391CE    C$adcd.c$411$4$4
  0C:391D1    A$adcd$4337
  0C:391D2    A$adcd$4338
  0C:391D4    A$adcd$4339
  0C:391D7    A$adcd$4343
  0C:391D7    C$adcd.c$414$4$4
  0C:391D9    A$adcd$4344
  0C:391DB    A$adcd$4345
  0C:391DD    A$adcd$4346
  0C:391E0    A$adcd$4347
  0C:391E1    A$adcd$4348
  0C:391E2    A$adcd$4349
  0C:391E5    A$adcd$4350
  0C:391E6    A$adcd$4351
  0C:391E9    A$adcd$4352
  0C:391EA    A$adcd$4353
  0C:391EB    A$adcd$4354
  0C:391EC    A$adcd$4355
  0C:391ED    A$adcd$4356
  0C:391EE    A$adcd$4357
  0C:391EF    A$adcd$4358
  0C:391F0    A$adcd$4359
  0C:391F1    A$adcd$4360
  0C:391F2    A$adcd$4361
  0C:391F4    A$adcd$4362
  0C:391F6    A$adcd$4363
  0C:391F9    A$adcd$4364
  0C:391FB    A$adcd$4365
  0C:391FD    A$adcd$4368
  0C:391FD    C$adcd.c$415$5$9
  0C:391FF    A$adcd$4369
  0C:39200    A$adcd$4370
  0C:39202    A$adcd$4371
  0C:39203    A$adcd$4372
  0C:39204    A$adcd$4373
  0C:39205    A$adcd$4374
  0C:39206    A$adcd$4375
  0C:39207    A$adcd$4376
  0C:39208    A$adcd$4377
  0C:39209    A$adcd$4378
  0C:3920B    A$adcd$4379
  0C:3920D    A$adcd$4380
  0C:3920F    A$adcd$4381
  0C:39211    A$adcd$4382
  0C:39212    A$adcd$4383
  0C:39215    A$adcd$4384
  0C:39217    A$adcd$4388
  0C:39217    C$adcd.c$416$4$4
  0C:39219    A$adcd$4389
  0C:3921A    A$adcd$4390
  0C:3921C    A$adcd$4391
  0C:3921D    A$adcd$4392
  0C:3921E    A$adcd$4393
  0C:3921F    A$adcd$4394
  0C:39220    A$adcd$4395
  0C:39221    A$adcd$4396
  0C:39222    A$adcd$4397
  0C:39223    A$adcd$4398
  0C:39225    A$adcd$4399
  0C:39227    A$adcd$4400
  0C:39229    A$adcd$4401
  0C:3922B    A$adcd$4402
  0C:3922E    A$adcd$4403
  0C:3922F    A$adcd$4404
  0C:39230    A$adcd$4405
  0C:39233    A$adcd$4406
  0C:39234    A$adcd$4407
  0C:39235    A$adcd$4408
  0C:39236    A$adcd$4409
  0C:39237    A$adcd$4410
  0C:39238    A$adcd$4411
  0C:3923A    A$adcd$4412
  0C:3923C    A$adcd$4413
  0C:3923F    A$adcd$4414
  0C:39241    A$adcd$4415
  0C:39243    A$adcd$4418
  0C:39243    C$adcd.c$417$5$10
  0C:39245    A$adcd$4419
  0C:39246    A$adcd$4420
  0C:39248    A$adcd$4421
  0C:39249    A$adcd$4422
  0C:3924A    A$adcd$4423
  0C:3924B    A$adcd$4424
  0C:3924C    A$adcd$4425
  0C:3924D    A$adcd$4426
  0C:3924E    A$adcd$4427
  0C:3924F    A$adcd$4428
  0C:39251    A$adcd$4429
  0C:39253    A$adcd$4430
  0C:39255    A$adcd$4431
  0C:39257    A$adcd$4432
  0C:39259    A$adcd$4433
  0C:3925C    A$adcd$4437
  0C:3925C    C$adcd.c$421$4$4
  0C:3925E    A$adcd$4438
  0C:3925F    A$adcd$4439
  0C:39261    A$adcd$4440
  0C:39262    A$adcd$4441
  0C:39263    A$adcd$4442
  0C:39264    A$adcd$4443
  0C:39265    A$adcd$4444
  0C:39266    A$adcd$4445
  0C:39267    A$adcd$4446
  0C:39268    A$adcd$4447
  0C:3926A    A$adcd$4448
  0C:3926C    A$adcd$4449
  0C:3926E    A$adcd$4450
  0C:39270    A$adcd$4451
  0C:39273    A$adcd$4452
  0C:39274    A$adcd$4453
  0C:39277    A$adcd$4454
  0C:39279    A$adcd$4455
  0C:3927A    A$adcd$4456
  0C:3927B    A$adcd$4457
  0C:3927D    A$adcd$4458
  0C:3927E    A$adcd$4459
  0C:3927F    A$adcd$4460
  0C:39280    A$adcd$4461
  0C:39281    A$adcd$4462
  0C:39282    A$adcd$4463
  0C:39283    A$adcd$4464
  0C:39286    A$adcd$4465
  0C:39287    A$adcd$4466
  0C:39288    A$adcd$4467
  0C:39289    A$adcd$4468
  0C:3928A    A$adcd$4469
  0C:3928C    A$adcd$4470
  0C:3928E    A$adcd$4471
  0C:39290    A$adcd$4472
  0C:39292    A$adcd$4473
  0C:39295    A$adcd$4476
  0C:39295    C$adcd.c$424$5$11
  0C:39297    A$adcd$4477
  0C:39298    A$adcd$4478
  0C:3929A    A$adcd$4479
  0C:3929B    A$adcd$4480
  0C:3929D    A$adcd$4481
  0C:3929E    A$adcd$4482
  0C:392A0    A$adcd$4483
  0C:392A2    A$adcd$4484
  0C:392A5    A$adcd$4485
  0C:392A6    A$adcd$4486
  0C:392A8    A$adcd$4487
  0C:392AB    A$adcd$4489
  0C:392AD    A$adcd$4490
  0C:392AE    A$adcd$4491
  0C:392B0    A$adcd$4492
  0C:392B1    A$adcd$4493
  0C:392B2    A$adcd$4494
  0C:392B3    A$adcd$4495
  0C:392B4    A$adcd$4496
  0C:392B5    A$adcd$4497
  0C:392B6    A$adcd$4498
  0C:392B7    A$adcd$4499
  0C:392B9    A$adcd$4500
  0C:392BB    A$adcd$4501
  0C:392BD    A$adcd$4502
  0C:392BF    A$adcd$4503
  0C:392C2    A$adcd$4504
  0C:392C4    A$adcd$4505
  0C:392C7    A$adcd$4506
  0C:392C9    A$adcd$4507
  0C:392CB    A$adcd$4508
  0C:392CE    A$adcd$4509
  0C:392CF    A$adcd$4510
  0C:392D0    A$adcd$4511
  0C:392D1    A$adcd$4512
  0C:392D2    A$adcd$4513
  0C:392D3    A$adcd$4514
  0C:392D4    A$adcd$4515
  0C:392D5    A$adcd$4516
  0C:392D6    A$adcd$4517
  0C:392D7    A$adcd$4518
  0C:392D9    A$adcd$4519
  0C:392DB    A$adcd$4520
  0C:392DE    A$adcd$4521
  0C:392E0    A$adcd$4522
  0C:392E2    A$adcd$4523
  0C:392E4    A$adcd$4524
  0C:392E5    A$adcd$4525
  0C:392E7    A$adcd$4526
  0C:392E8    A$adcd$4527
  0C:392E9    A$adcd$4528
  0C:392EA    A$adcd$4529
  0C:392EB    A$adcd$4530
  0C:392EC    A$adcd$4531
  0C:392ED    A$adcd$4532
  0C:392EE    A$adcd$4533
  0C:392F0    A$adcd$4534
  0C:392F2    A$adcd$4535
  0C:392F4    A$adcd$4536
  0C:392F6    A$adcd$4537
  0C:392F9    A$adcd$4538
  0C:392FB    A$adcd$4539
  0C:392FD    A$adcd$4540
  0C:392FF    A$adcd$4541
  0C:39301    A$adcd$4542
  0C:39304    A$adcd$4543
  0C:39306    A$adcd$4544
  0C:39308    A$adcd$4545
  0C:3930A    A$adcd$4546
  0C:3930B    A$adcd$4547
  0C:3930C    A$adcd$4548
  0C:3930D    A$adcd$4549
  0C:3930E    A$adcd$4550
  0C:3930F    A$adcd$4551
  0C:39311    A$adcd$4552
  0C:39314    A$adcd$4553
  0C:39315    A$adcd$4554
  0C:39317    A$adcd$4555
  0C:3931A    A$adcd$4556
  0C:3931D    A$adcd$4560
  0C:3931D    C$adcd.c$429$4$4
  0C:3931F    A$adcd$4561
  0C:39320    A$adcd$4562
  0C:39322    A$adcd$4563
  0C:39324    A$adcd$4564
  0C:39325    A$adcd$4565
  0C:39327    A$adcd$4566
  0C:39328    A$adcd$4567
  0C:39329    A$adcd$4568
  0C:3932A    A$adcd$4569
  0C:3932B    A$adcd$4570
  0C:3932C    A$adcd$4571
  0C:3932D    A$adcd$4572
  0C:3932E    A$adcd$4573
  0C:3932F    A$adcd$4574
  0C:39330    A$adcd$4575
  0C:39331    A$adcd$4576
  0C:39332    A$adcd$4577
  0C:39334    A$adcd$4578
  0C:39336    A$adcd$4579
  0C:39337    A$adcd$4580
  0C:39339    A$adcd$4581
  0C:3933A    A$adcd$4582
  0C:3933C    A$adcd$4583
  0C:3933D    A$adcd$4584
  0C:3933F    A$adcd$4585
  0C:39342    A$adcd$4586
  0C:39344    A$adcd$4587
  0C:39346    A$adcd$4588
  0C:39348    A$adcd$4589
  0C:3934A    A$adcd$4590
  0C:3934D    A$adcd$4593
  0C:3934D    C$adcd.c$432$4$4
  0C:39350    A$adcd$4594
  0C:39351    A$adcd$4595
  0C:39353    A$adcd$4596
  0C:39356    A$adcd$4600
  0C:39356    C$adcd.c$435$4$4
  0C:39358    A$adcd$4601
  0C:3935A    A$adcd$4602
  0C:3935B    A$adcd$4603
  0C:3935D    A$adcd$4604
  0C:3935E    A$adcd$4605
  0C:39360    A$adcd$4606
  0C:39361    A$adcd$4607
  0C:39363    A$adcd$4608
  0C:39366    A$adcd$4609
  0C:39368    A$adcd$4610
  0C:3936A    A$adcd$4611
  0C:3936C    A$adcd$4612
  0C:3936E    A$adcd$4613
  0C:39371    A$adcd$4614
  0C:39373    A$adcd$4615
  0C:39375    A$adcd$4616
  0C:39377    A$adcd$4617
  0C:39378    A$adcd$4618
  0C:39379    A$adcd$4619
  0C:3937A    A$adcd$4620
  0C:3937B    A$adcd$4621
  0C:3937C    A$adcd$4622
  0C:3937E    A$adcd$4623
  0C:39381    A$adcd$4627
  0C:39381    C$adcd.c$436$5$13
  0C:39383    A$adcd$4628
  0C:39384    A$adcd$4629
  0C:39386    A$adcd$4630
  0C:39387    A$adcd$4631
  0C:39388    A$adcd$4632
  0C:39389    A$adcd$4633
  0C:3938A    A$adcd$4634
  0C:3938B    A$adcd$4635
  0C:3938C    A$adcd$4636
  0C:3938D    A$adcd$4637
  0C:3938F    A$adcd$4638
  0C:39391    A$adcd$4639
  0C:39393    A$adcd$4640
  0C:39395    A$adcd$4641
  0C:39398    A$adcd$4642
  0C:39399    A$adcd$4643
  0C:3939B    A$adcd$4644
  0C:3939D    A$adcd$4647
  0C:3939D    C$adcd.c$437$6$14
  0C:3939E    A$adcd$4648
  0C:393A0    A$adcd$4649
  0C:393A2    A$adcd$4650
  0C:393A4    A$adcd$4651
  0C:393A5    A$adcd$4652
  0C:393A8    A$adcd$4655
  0C:393A8    C$adcd.c$440$6$14
  0C:393AB    A$adcd$4656
  0C:393AD    A$adcd$4657
  0C:393AE    A$adcd$4658
  0C:393B1    A$adcd$4659
  0C:393B3    A$adcd$4660
  0C:393B5    A$adcd$4661
  0C:393B7    A$adcd$4662
  0C:393BA    A$adcd$4665
  0C:393BA    C$adcd.c$442$6$14
  0C:393BD    A$adcd$4666
  0C:393C0    A$adcd$4667
  0C:393C3    A$adcd$4668
  0C:393C5    A$adcd$4669
  0C:393C7    A$adcd$4670
  0C:393CA    A$adcd$4671
  0C:393CB    A$adcd$4672
  0C:393CC    A$adcd$4673
  0C:393CD    A$adcd$4674
  0C:393CE    A$adcd$4675
  0C:393CF    A$adcd$4676
  0C:393D0    A$adcd$4677
  0C:393D3    A$adcd$4678
  0C:393D5    A$adcd$4679
  0C:393D6    A$adcd$4680
  0C:393D7    A$adcd$4681
  0C:393D9    A$adcd$4682
  0C:393DA    A$adcd$4683
  0C:393DB    A$adcd$4684
  0C:393DC    A$adcd$4685
  0C:393DD    A$adcd$4686
  0C:393E0    A$adcd$4687
  0C:393E2    A$adcd$4688
  0C:393E3    A$adcd$4689
  0C:393E4    A$adcd$4690
  0C:393E6    A$adcd$4691
  0C:393E7    A$adcd$4692
  0C:393E8    A$adcd$4693
  0C:393EA    A$adcd$4694
  0C:393EB    A$adcd$4695
  0C:393EE    A$adcd$4696
  0C:393F0    A$adcd$4697
  0C:393F1    A$adcd$4698
  0C:393F2    A$adcd$4699
  0C:393F4    A$adcd$4700
  0C:393F5    A$adcd$4701
  0C:393F6    A$adcd$4702
  0C:393F8    A$adcd$4703
  0C:393F9    A$adcd$4704
  0C:393FC    A$adcd$4705
  0C:393FD    A$adcd$4706
  0C:393FE    A$adcd$4707
  0C:393FF    A$adcd$4708
  0C:39400    A$adcd$4709
  0C:39401    A$adcd$4710
  0C:39404    A$adcd$4711
  0C:39407    A$adcd$4712
  0C:3940A    A$adcd$4713
  0C:3940C    A$adcd$4714
  0C:3940E    A$adcd$4717
  0C:3940E    C$adcd.c$446$7$15
  0C:39410    A$adcd$4721
  0C:39410    C$adcd.c$456$4$4
  0C:39412    A$adcd$4722
  0C:39414    A$adcd$4723
  0C:39415    A$adcd$4724
  0C:39417    A$adcd$4725
  0C:39418    A$adcd$4726
  0C:3941A    A$adcd$4727
  0C:3941B    A$adcd$4728
  0C:3941D    A$adcd$4729
  0C:39420    A$adcd$4730
  0C:39421    A$adcd$4731
  0C:39424    A$adcd$4732
  0C:39426    A$adcd$4733
  0C:39427    A$adcd$4734
  0C:39428    A$adcd$4735
  0C:3942A    A$adcd$4736
  0C:3942B    A$adcd$4737
  0C:3942C    A$adcd$4738
  0C:3942D    A$adcd$4739
  0C:3942E    A$adcd$4740
  0C:3942F    A$adcd$4741
  0C:39430    A$adcd$4742
  0C:39433    A$adcd$4743
  0C:39434    A$adcd$4744
  0C:39435    A$adcd$4745
  0C:39436    A$adcd$4746
  0C:39437    A$adcd$4747
  0C:39439    A$adcd$4748
  0C:3943B    A$adcd$4749
  0C:3943D    A$adcd$4750
  0C:3943F    A$adcd$4751
  0C:39442    A$adcd$4754
  0C:39442    C$adcd.c$458$5$18
  0C:39444    A$adcd$4755
  0C:39445    A$adcd$4756
  0C:39447    A$adcd$4757
  0C:39448    A$adcd$4758
  0C:3944A    A$adcd$4759
  0C:3944B    A$adcd$4760
  0C:3944D    A$adcd$4761
  0C:3944F    A$adcd$4762
  0C:39452    A$adcd$4763
  0C:39453    A$adcd$4764
  0C:39455    A$adcd$4765
  0C:39458    A$adcd$4767
  0C:3945A    A$adcd$4768
  0C:3945B    A$adcd$4769
  0C:3945D    A$adcd$4770
  0C:3945E    A$adcd$4771
  0C:3945F    A$adcd$4772
  0C:39460    A$adcd$4773
  0C:39461    A$adcd$4774
  0C:39462    A$adcd$4775
  0C:39463    A$adcd$4776
  0C:39464    A$adcd$4777
  0C:39466    A$adcd$4778
  0C:39468    A$adcd$4779
  0C:3946A    A$adcd$4780
  0C:3946C    A$adcd$4781
  0C:3946F    A$adcd$4782
  0C:39471    A$adcd$4783
  0C:39473    A$adcd$4784
  0C:39475    A$adcd$4785
  0C:39477    A$adcd$4786
  0C:3947A    A$adcd$4787
  0C:3947C    A$adcd$4788
  0C:3947E    A$adcd$4789
  0C:39480    A$adcd$4790
  0C:39481    A$adcd$4791
  0C:39482    A$adcd$4792
  0C:39483    A$adcd$4793
  0C:39484    A$adcd$4794
  0C:39485    A$adcd$4795
  0C:39487    A$adcd$4796
  0C:3948A    A$adcd$4798
  0C:3948D    A$adcd$4799
  0C:3948E    A$adcd$4800
  0C:39490    A$adcd$4801
  0C:39493    A$adcd$4803
  0C:39496    A$adcd$4806
  0C:39496    C$adcd.c$462$2$2
  0C:39498    A$adcd$4808
  0C:3949A    A$adcd$4809
  0C:3949B    A$adcd$4810
  0C:3949D    A$adcd$4811
  0C:3949E    A$adcd$4812
  0C:394A0    A$adcd$4813
  0C:394A1    A$adcd$4814
  0C:394A3    A$adcd$4815
  0C:394A4    A$adcd$4816
  0C:394A7    A$adcd$4817
  0C:394A8    A$adcd$4818
  0C:394A9    A$adcd$4819
  0C:394AC    A$adcd$4820
  0C:394AF    A$adcd$4822
  0C:394B2    A$adcd$4823
  0C:394B4    A$adcd$4826
  0C:394B4    C$adcd.c$463$2$2
  0C:394B4    XG$handle_fan_alarm$0$0
  0C:394B7    A$adcd$4840
  0C:394B7    C$adcd.c$465$2$2
  0C:394B7    C$adcd.c$467$1$1
  0C:394B7    G$get_heater_time_on$0$0
  0C:394B7    _get_heater_time_on
  0C:394BA    A$adcd$4841
  0C:394BB    A$adcd$4842
  0C:394BC    A$adcd$4843
  0C:394BF    A$adcd$4846
  0C:394BF    C$adcd.c$469$2$2
  0C:394C2    A$adcd$4847
  0C:394C3    A$adcd$4848
  0C:394C4    A$adcd$4849
  0C:394C5    A$adcd$4850
  0C:394C6    A$adcd$4851
  0C:394C7    A$adcd$4852
  0C:394C8    A$adcd$4853
  0C:394C9    A$adcd$4854
  0C:394CA    A$adcd$4855
  0C:394CB    A$adcd$4856
  0C:394CC    A$adcd$4857
  0C:394CD    A$adcd$4858
  0C:394CF    A$adcd$4859
  0C:394D1    A$adcd$4860
  0C:394D3    A$adcd$4861
  0C:394D5    A$adcd$4862
  0C:394D8    A$adcd$4863
  0C:394DA    A$adcd$4864
  0C:394DC    A$adcd$4865
  0C:394DE    A$adcd$4866
  0C:394DF    A$adcd$4867
  0C:394E1    A$adcd$4868
  0C:394E3    A$adcd$4869
  0C:394E5    A$adcd$4870
  0C:394E7    A$adcd$4871
  0C:394E8    A$adcd$4872
  0C:394E9    A$adcd$4873
  0C:394EA    A$adcd$4874
  0C:394EB    A$adcd$4875
  0C:394EC    A$adcd$4876
  0C:394ED    A$adcd$4877
  0C:394EE    A$adcd$4878
  0C:394EF    A$adcd$4879
  0C:394F0    A$adcd$4880
  0C:394F1    A$adcd$4881
  0C:394F2    A$adcd$4882
  0C:394F3    A$adcd$4883
  0C:394F6    A$adcd$4884
  0C:394F7    A$adcd$4885
  0C:394F8    A$adcd$4886
  0C:394F9    A$adcd$4887
  0C:394FA    A$adcd$4888
  0C:394FB    A$adcd$4889
  0C:394FC    A$adcd$4890
  0C:394FD    A$adcd$4891
  0C:394FE    A$adcd$4892
  0C:394FF    A$adcd$4893
  0C:39500    A$adcd$4894
  0C:39501    A$adcd$4895
  0C:39502    A$adcd$4896
  0C:39503    A$adcd$4897
  0C:39504    A$adcd$4898
  0C:39505    A$adcd$4899
  0C:39506    A$adcd$4900
  0C:39507    A$adcd$4901
  0C:39508    A$adcd$4902
  0C:39509    A$adcd$4903
  0C:3950A    A$adcd$4904
  0C:3950B    A$adcd$4905
  0C:3950C    A$adcd$4906
  0C:3950D    A$adcd$4907
  0C:3950E    A$adcd$4908
  0C:39510    A$adcd$4909
  0C:39512    A$adcd$4910
  0C:39514    A$adcd$4911
  0C:39516    A$adcd$4915
  0C:39516    C$adcd.c$471$1$1
  0C:39519    A$adcd$4916
  0C:3951A    A$adcd$4917
  0C:3951B    A$adcd$4918
  0C:3951C    A$adcd$4919
  0C:3951D    A$adcd$4920
  0C:3951E    A$adcd$4921
  0C:3951F    A$adcd$4922
  0C:39520    A$adcd$4923
  0C:39521    A$adcd$4924
  0C:39522    A$adcd$4925
  0C:39523    A$adcd$4926
  0C:39524    A$adcd$4927
  0C:39526    A$adcd$4928
  0C:39528    A$adcd$4929
  0C:3952A    A$adcd$4933
  0C:3952A    C$adcd.c$472$1$1
  0C:3952A    XG$get_heater_time_on$0$0
  0C:3952D    A$adcd$4947
  0C:3952D    C$adcd.c$474$1$1
  0C:3952D    C$adcd.c$476$1$1
  0C:3952D    G$get_fan_time_on$0$0
  0C:3952D    _get_fan_time_on
  0C:39530    A$adcd$4948
  0C:39531    A$adcd$4949
  0C:39532    A$adcd$4950
  0C:39535    A$adcd$4953
  0C:39535    C$adcd.c$478$2$2
  0C:39538    A$adcd$4954
  0C:39539    A$adcd$4955
  0C:3953A    A$adcd$4956
  0C:3953B    A$adcd$4957
  0C:3953C    A$adcd$4958
  0C:3953D    A$adcd$4959
  0C:3953E    A$adcd$4960
  0C:3953F    A$adcd$4961
  0C:39540    A$adcd$4962
  0C:39541    A$adcd$4963
  0C:39542    A$adcd$4964
  0C:39543    A$adcd$4965
  0C:39545    A$adcd$4966
  0C:39547    A$adcd$4967
  0C:39549    A$adcd$4968
  0C:3954B    A$adcd$4969
  0C:3954E    A$adcd$4970
  0C:39550    A$adcd$4971
  0C:39552    A$adcd$4972
  0C:39554    A$adcd$4973
  0C:39555    A$adcd$4974
  0C:39557    A$adcd$4975
  0C:39559    A$adcd$4976
  0C:3955B    A$adcd$4977
  0C:3955D    A$adcd$4978
  0C:3955E    A$adcd$4979
  0C:3955F    A$adcd$4980
  0C:39560    A$adcd$4981
  0C:39561    A$adcd$4982
  0C:39562    A$adcd$4983
  0C:39563    A$adcd$4984
  0C:39564    A$adcd$4985
  0C:39565    A$adcd$4986
  0C:39566    A$adcd$4987
  0C:39567    A$adcd$4988
  0C:39568    A$adcd$4989
  0C:39569    A$adcd$4990
  0C:3956C    A$adcd$4991
  0C:3956D    A$adcd$4992
  0C:3956E    A$adcd$4993
  0C:3956F    A$adcd$4994
  0C:39570    A$adcd$4995
  0C:39571    A$adcd$4996
  0C:39572    A$adcd$4997
  0C:39573    A$adcd$4998
  0C:39574    A$adcd$4999
  0C:39575    A$adcd$5000
  0C:39576    A$adcd$5001
  0C:39577    A$adcd$5002
  0C:39578    A$adcd$5003
  0C:39579    A$adcd$5004
  0C:3957A    A$adcd$5005
  0C:3957B    A$adcd$5006
  0C:3957C    A$adcd$5007
  0C:3957D    A$adcd$5008
  0C:3957E    A$adcd$5009
  0C:3957F    A$adcd$5010
  0C:39580    A$adcd$5011
  0C:39581    A$adcd$5012
  0C:39582    A$adcd$5013
  0C:39583    A$adcd$5014
  0C:39584    A$adcd$5015
  0C:39586    A$adcd$5016
  0C:39588    A$adcd$5017
  0C:3958A    A$adcd$5018
  0C:3958C    A$adcd$5022
  0C:3958C    C$adcd.c$480$1$1
  0C:3958F    A$adcd$5023
  0C:39590    A$adcd$5024
  0C:39591    A$adcd$5025
  0C:39592    A$adcd$5026
  0C:39593    A$adcd$5027
  0C:39594    A$adcd$5028
  0C:39595    A$adcd$5029
  0C:39596    A$adcd$5030
  0C:39597    A$adcd$5031
  0C:39598    A$adcd$5032
  0C:39599    A$adcd$5033
  0C:3959A    A$adcd$5034
  0C:3959C    A$adcd$5035
  0C:3959E    A$adcd$5036
  0C:395A0    A$adcd$5040
  0C:395A0    C$adcd.c$481$1$1
  0C:395A0    XG$get_fan_time_on$0$0
  0C:395A3    A$swtimers$1328
  0C:395A3    C$swtimers.c$51$0$0
  0C:395A3    C$swtimers.c$55$2$2
  0C:395A3    G$init_swtimers$0$0
  0C:395A3    _init_swtimers
  0C:395A5    A$swtimers$1330
  0C:395A8    A$swtimers$1332
  0C:395AA    A$swtimers$1335
  0C:395AA    C$swtimers.c$59$2$2
  0C:395AB    A$swtimers$1336
  0C:395AD    A$swtimers$1337
  0C:395AF    A$swtimers$1338
  0C:395B0    A$swtimers$1339
  0C:395B2    A$swtimers$1340
  0C:395B4    A$swtimers$1341
  0C:395B6    A$swtimers$1342
  0C:395B7    A$swtimers$1345
  0C:395B7    C$swtimers.c$60$2$2
  0C:395B8    A$swtimers$1346
  0C:395B9    A$swtimers$1347
  0C:395BB    A$swtimers$1348
  0C:395BD    A$swtimers$1349
  0C:395BF    A$swtimers$1350
  0C:395C0    A$swtimers$1351
  0C:395C2    A$swtimers$1352
  0C:395C4    A$swtimers$1353
  0C:395C5    A$swtimers$1354
  0C:395C6    A$swtimers$1355
  0C:395C7    A$swtimers$1356
  0C:395C8    A$swtimers$1357
  0C:395C9    A$swtimers$1358
  0C:395CA    A$swtimers$1359
  0C:395CB    A$swtimers$1360
  0C:395CC    A$swtimers$1363
  0C:395CC    C$swtimers.c$61$2$2
  0C:395CD    A$swtimers$1364
  0C:395CE    A$swtimers$1365
  0C:395CF    A$swtimers$1366
  0C:395D1    A$swtimers$1367
  0C:395D3    A$swtimers$1368
  0C:395D4    A$swtimers$1369
  0C:395D6    A$swtimers$1370
  0C:395D8    A$swtimers$1371
  0C:395D9    A$swtimers$1372
  0C:395DA    A$swtimers$1373
  0C:395DB    A$swtimers$1374
  0C:395DC    A$swtimers$1377
  0C:395DC    C$swtimers.c$55$1$1
  0C:395DD    A$swtimers$1378
  0C:395DF    A$swtimers$1382
  0C:395DF    C$swtimers.c$64$1$1
  0C:395E2    A$swtimers$1383
  0C:395E3    A$swtimers$1384
  0C:395E4    A$swtimers$1385
  0C:395E5    A$swtimers$1386
  0C:395E6    A$swtimers$1389
  0C:395E6    C$swtimers.c$65$1$1
  0C:395E6    XG$init_swtimers$0$0
  0C:395E9    A$swtimers$1404
  0C:395E9    C$swtimers.c$71$1$1
  0C:395E9    C$swtimers.c$78$1$1
  0C:395E9    G$alloc_timer$0$0
  0C:395E9    _alloc_timer
  0C:395EB    A$swtimers$1407
  0C:395ED    A$swtimers$1409
  0C:395F0    A$swtimers$1411
  0C:395F2    A$swtimers$1414
  0C:395F2    C$swtimers.c$81$2$2
  0C:395F3    A$swtimers$1415
  0C:395F5    A$swtimers$1416
  0C:395F6    A$swtimers$1417
  0C:395F7    A$swtimers$1418
  0C:395F9    A$swtimers$1419
  0C:395FA    A$swtimers$1420
  0C:395FC    A$swtimers$1421
  0C:395FE    A$swtimers$1422
  0C:395FF    A$swtimers$1423
  0C:39600    A$swtimers$1424
  0C:39603    A$swtimers$1427
  0C:39603    C$swtimers.c$83$3$3
  0C:39605    A$swtimers$1428
  0C:39607    A$swtimers$1429
  0C:39609    A$swtimers$1430
  0C:3960A    A$swtimers$1433
  0C:3960A    C$swtimers.c$84$3$3
  0C:3960B    A$swtimers$1434
  0C:3960C    A$swtimers$1435
  0C:3960E    A$swtimers$1436
  0C:39610    A$swtimers$1437
  0C:39612    A$swtimers$1438
  0C:39613    A$swtimers$1439
  0C:39615    A$swtimers$1440
  0C:39617    A$swtimers$1441
  0C:39618    A$swtimers$1442
  0C:39619    A$swtimers$1443
  0C:3961A    A$swtimers$1444
  0C:3961B    A$swtimers$1445
  0C:3961C    A$swtimers$1446
  0C:3961D    A$swtimers$1447
  0C:3961E    A$swtimers$1448
  0C:3961F    A$swtimers$1451
  0C:3961F    C$swtimers.c$85$3$3
  0C:39620    A$swtimers$1452
  0C:39621    A$swtimers$1453
  0C:39623    A$swtimers$1454
  0C:39625    A$swtimers$1455
  0C:39626    A$swtimers$1456
  0C:39628    A$swtimers$1457
  0C:3962A    A$swtimers$1458
  0C:3962B    A$swtimers$1459
  0C:3962C    A$swtimers$1460
  0C:3962D    A$swtimers$1461
  0C:3962E    A$swtimers$1464
  0C:3962E    C$swtimers.c$86$3$3
  0C:39630    A$swtimers$1467
  0C:39630    C$swtimers.c$87$3$3
  0C:39633    A$swtimers$1468
  0C:39634    A$swtimers$1469
  0C:39635    A$swtimers$1470
  0C:39638    A$swtimers$1471
  0C:39639    A$swtimers$1472
  0C:3963A    A$swtimers$1475
  0C:3963A    C$swtimers.c$118$3$3
  0C:3963C    A$swtimers$1476
  0C:3963E    A$swtimers$1480
  0C:3963E    C$swtimers.c$79$1$1
  0C:3963F    A$swtimers$1481
  0C:39641    A$swtimers$1485
  0C:39641    C$swtimers.c$121$1$1
  0C:39643    A$swtimers$1488
  0C:39643    C$swtimers.c$122$1$1
  0C:39646    A$swtimers$1492
  0C:39646    C$swtimers.c$123$1$1
  0C:39646    XG$alloc_timer$0$0
  0C:39649    A$swtimers$1505
  0C:39649    C$swtimers.c$128$1$1
  0C:39649    G$free_timer$0$0
  0C:39649    _free_timer
  0C:3964B    A$swtimers$1506
  0C:3964E    A$swtimers$1507
  0C:3964F    A$swtimers$1510
  0C:3964F    C$swtimers.c$133$1$1
  0C:39651    A$swtimers$1513
  0C:39651    C$swtimers.c$134$1$1
  0C:39654    A$swtimers$1514
  0C:39655    A$swtimers$1515
  0C:39657    A$swtimers$1516
  0C:39658    A$swtimers$1517
  0C:39659    A$swtimers$1518
  0C:3965B    A$swtimers$1519
  0C:3965C    A$swtimers$1520
  0C:3965E    A$swtimers$1521
  0C:39660    A$swtimers$1522
  0C:39661    A$swtimers$1523
  0C:39662    A$swtimers$1524
  0C:39665    A$swtimers$1525
  0C:39667    A$swtimers$1529
  0C:39667    C$swtimers.c$135$2$2
  0C:39669    A$swtimers$1530
  0C:3966B    A$swtimers$1531
  0C:3966D    A$swtimers$1532
  0C:3966E    A$swtimers$1535
  0C:3966E    C$swtimers.c$136$2$2
  0C:39671    A$swtimers$1536
  0C:39672    A$swtimers$1537
  0C:39673    A$swtimers$1538
  0C:39674    A$swtimers$1539
  0C:39677    A$swtimers$1540
  0C:39678    A$swtimers$1544
  0C:39678    C$swtimers.c$168$1$1
  0C:3967A    A$swtimers$1547
  0C:3967A    C$swtimers.c$169$1$1
  0C:3967D    A$swtimers$1550
  0C:3967D    C$swtimers.c$170$1$1
  0C:3967D    XG$free_timer$0$0
  0C:39680    A$swtimers$1565
  0C:39680    C$swtimers.c$177$1$1
  0C:39680    G$set_timer$0$0
  0C:39680    _set_timer
  0C:39682    A$swtimers$1566
  0C:39685    A$swtimers$1567
  0C:39686    A$swtimers$1570
  0C:39686    C$swtimers.c$179$1$1
  0C:39688    A$swtimers$1573
  0C:39688    C$swtimers.c$180$1$1
  0C:3968B    A$swtimers$1574
  0C:3968C    A$swtimers$1575
  0C:3968D    A$swtimers$1576
  0C:3968F    A$swtimers$1577
  0C:39691    A$swtimers$1578
  0C:39693    A$swtimers$1579
  0C:39694    A$swtimers$1580
  0C:39695    A$swtimers$1581
  0C:39697    A$swtimers$1582
  0C:39698    A$swtimers$1583
  0C:3969B    A$swtimers$1584
  0C:3969C    A$swtimers$1585
  0C:3969D    A$swtimers$1586
  0C:3969E    A$swtimers$1587
  0C:3969F    A$swtimers$1588
  0C:396A0    A$swtimers$1589
  0C:396A1    A$swtimers$1590
  0C:396A2    A$swtimers$1591
  0C:396A3    A$swtimers$1592
  0C:396A4    A$swtimers$1593
  0C:396A5    A$swtimers$1594
  0C:396A6    A$swtimers$1595
  0C:396A8    A$swtimers$1596
  0C:396AA    A$swtimers$1597
  0C:396AB    A$swtimers$1598
  0C:396AC    A$swtimers$1599
  0C:396AD    A$swtimers$1600
  0C:396AE    A$swtimers$1601
  0C:396AF    A$swtimers$1602
  0C:396B0    A$swtimers$1603
  0C:396B1    A$swtimers$1604
  0C:396B2    A$swtimers$1605
  0C:396B3    A$swtimers$1606
  0C:396B4    A$swtimers$1607
  0C:396B5    A$swtimers$1610
  0C:396B5    C$swtimers.c$181$1$1
  0C:396B6    A$swtimers$1611
  0C:396B7    A$swtimers$1612
  0C:396B9    A$swtimers$1613
  0C:396BA    A$swtimers$1614
  0C:396BB    A$swtimers$1615
  0C:396BD    A$swtimers$1616
  0C:396BE    A$swtimers$1617
  0C:396C1    A$swtimers$1618
  0C:396C2    A$swtimers$1619
  0C:396C3    A$swtimers$1620
  0C:396C4    A$swtimers$1621
  0C:396C5    A$swtimers$1622
  0C:396C6    A$swtimers$1623
  0C:396C8    A$swtimers$1624
  0C:396CA    A$swtimers$1625
  0C:396CB    A$swtimers$1626
  0C:396CC    A$swtimers$1627
  0C:396CD    A$swtimers$1628
  0C:396CE    A$swtimers$1629
  0C:396CF    A$swtimers$1632
  0C:396CF    C$swtimers.c$182$1$1
  0C:396D0    A$swtimers$1633
  0C:396D2    A$swtimers$1634
  0C:396D4    A$swtimers$1635
  0C:396D5    A$swtimers$1636
  0C:396D7    A$swtimers$1637
  0C:396D9    A$swtimers$1638
  0C:396DA    A$swtimers$1639
  0C:396DB    A$swtimers$1642
  0C:396DB    C$swtimers.c$183$1$1
  0C:396DD    A$swtimers$1645
  0C:396DD    C$swtimers.c$184$1$1
  0C:396DD    XG$set_timer$0$0
  0C:396E0    A$swtimers$1659
  0C:396E0    C$swtimers.c$189$1$1
  0C:396E0    G$set_timer_cnt$0$0
  0C:396E0    _set_timer_cnt
  0C:396E2    A$swtimers$1660
  0C:396E5    A$swtimers$1661
  0C:396E6    A$swtimers$1664
  0C:396E6    C$swtimers.c$191$1$1
  0C:396E8    A$swtimers$1667
  0C:396E8    C$swtimers.c$192$1$1
  0C:396EB    A$swtimers$1668
  0C:396EC    A$swtimers$1669
  0C:396EE    A$swtimers$1670
  0C:396F0    A$swtimers$1671
  0C:396F2    A$swtimers$1672
  0C:396F3    A$swtimers$1673
  0C:396F4    A$swtimers$1674
  0C:396F6    A$swtimers$1675
  0C:396F7    A$swtimers$1676
  0C:396FA    A$swtimers$1677
  0C:396FB    A$swtimers$1678
  0C:396FC    A$swtimers$1679
  0C:396FD    A$swtimers$1680
  0C:396FE    A$swtimers$1681
  0C:396FF    A$swtimers$1682
  0C:39700    A$swtimers$1683
  0C:39701    A$swtimers$1684
  0C:39702    A$swtimers$1685
  0C:39703    A$swtimers$1686
  0C:39704    A$swtimers$1687
  0C:39705    A$swtimers$1688
  0C:39707    A$swtimers$1689
  0C:39709    A$swtimers$1690
  0C:3970A    A$swtimers$1691
  0C:3970B    A$swtimers$1692
  0C:3970C    A$swtimers$1693
  0C:3970D    A$swtimers$1694
  0C:3970E    A$swtimers$1695
  0C:3970F    A$swtimers$1696
  0C:39710    A$swtimers$1697
  0C:39711    A$swtimers$1698
  0C:39712    A$swtimers$1699
  0C:39713    A$swtimers$1700
  0C:39714    A$swtimers$1703
  0C:39714    C$swtimers.c$193$1$1
  0C:39716    A$swtimers$1706
  0C:39716    C$swtimers.c$194$1$1
  0C:39716    XG$set_timer_cnt$0$0
  0C:39719    A$swtimers$1720
  0C:39719    C$swtimers.c$199$1$1
  0C:39719    G$get_timer$0$0
  0C:39719    _get_timer
  0C:3971B    A$swtimers$1721
  0C:3971E    A$swtimers$1722
  0C:3971F    A$swtimers$1725
  0C:3971F    C$swtimers.c$203$1$1
  0C:39721    A$swtimers$1728
  0C:39721    C$swtimers.c$204$1$1
  0C:39724    A$swtimers$1729
  0C:39725    A$swtimers$1730
  0C:39727    A$swtimers$1731
  0C:39729    A$swtimers$1732
  0C:3972B    A$swtimers$1733
  0C:3972D    A$swtimers$1734
  0C:3972E    A$swtimers$1735
  0C:39730    A$swtimers$1736
  0C:39732    A$swtimers$1737
  0C:39733    A$swtimers$1738
  0C:39734    A$swtimers$1739
  0C:39735    A$swtimers$1740
  0C:39736    A$swtimers$1741
  0C:39737    A$swtimers$1742
  0C:39738    A$swtimers$1743
  0C:39739    A$swtimers$1744
  0C:3973A    A$swtimers$1745
  0C:3973B    A$swtimers$1746
  0C:3973C    A$swtimers$1747
  0C:3973D    A$swtimers$1750
  0C:3973D    C$swtimers.c$205$1$1
  0C:3973F    A$swtimers$1753
  0C:3973F    C$swtimers.c$207$1$1
  0C:39741    A$swtimers$1754
  0C:39743    A$swtimers$1755
  0C:39745    A$swtimers$1756
  0C:39746    A$swtimers$1759
  0C:39746    C$swtimers.c$208$1$1
  0C:39746    XG$get_timer$0$0
  0C:39749    A$swtimers$1772
  0C:39749    C$swtimers.c$213$1$1
  0C:39749    G$get_timer_status$0$0
  0C:39749    _get_timer_status
  0C:3974B    A$swtimers$1773
  0C:3974E    A$swtimers$1774
  0C:3974F    A$swtimers$1777
  0C:3974F    C$swtimers.c$215$1$1
  0C:39752    A$swtimers$1778
  0C:39753    A$swtimers$1779
  0C:39755    A$swtimers$1780
  0C:39757    A$swtimers$1781
  0C:39758    A$swtimers$1782
  0C:3975A    A$swtimers$1783
  0C:3975C    A$swtimers$1784
  0C:3975D    A$swtimers$1785
  0C:3975E    A$swtimers$1786
  0C:39760    A$swtimers$1789
  0C:39760    C$swtimers.c$216$1$1
  0C:39760    XG$get_timer_status$0$0
  0C:39763    A$swtimers$1802
  0C:39763    C$swtimers.c$221$1$1
  0C:39763    G$stop_timer$0$0
  0C:39763    _stop_timer
  0C:39765    A$swtimers$1803
  0C:39768    A$swtimers$1804
  0C:39769    A$swtimers$1807
  0C:39769    C$swtimers.c$223$1$1
  0C:3976B    A$swtimers$1810
  0C:3976B    C$swtimers.c$224$1$1
  0C:3976E    A$swtimers$1811
  0C:3976F    A$swtimers$1812
  0C:39770    A$swtimers$1813
  0C:39772    A$swtimers$1814
  0C:39774    A$swtimers$1815
  0C:39775    A$swtimers$1816
  0C:39777    A$swtimers$1817
  0C:39779    A$swtimers$1818
  0C:3977B    A$swtimers$1819
  0C:3977C    A$swtimers$1822
  0C:3977C    C$swtimers.c$225$1$1
  0C:3977E    A$swtimers$1825
  0C:3977E    C$swtimers.c$226$1$1
  0C:3977E    XG$stop_timer$0$0
  0C:39781    A$swtimers$1838
  0C:39781    C$swtimers.c$231$1$1
  0C:39781    G$start_timer$0$0
  0C:39781    _start_timer
  0C:39783    A$swtimers$1839
  0C:39786    A$swtimers$1840
  0C:39787    A$swtimers$1843
  0C:39787    C$swtimers.c$233$1$1
  0C:39789    A$swtimers$1846
  0C:39789    C$swtimers.c$234$1$1
  0C:3978C    A$swtimers$1847
  0C:3978D    A$swtimers$1848
  0C:3978E    A$swtimers$1849
  0C:39790    A$swtimers$1850
  0C:39792    A$swtimers$1851
  0C:39793    A$swtimers$1852
  0C:39795    A$swtimers$1853
  0C:39797    A$swtimers$1854
  0C:39798    A$swtimers$1855
  0C:39799    A$swtimers$1858
  0C:39799    C$swtimers.c$235$1$1
  0C:3979B    A$swtimers$1861
  0C:3979B    C$swtimers.c$236$1$1
  0C:3979B    XG$start_timer$0$0
  0C:3979E    A$swtimers$1876
  0C:3979E    C$swtimers.c$245$1$1
  0C:3979E    G$handle_kicker$0$0
  0C:3979E    _handle_kicker
  0C:397A0    A$swtimers$1877
  0C:397A2    A$swtimers$1878
  0C:397A4    A$swtimers$1879
  0C:397A7    A$swtimers$1880
  0C:397A8    A$swtimers$1881
  0C:397A9    A$swtimers$1882
  0C:397AA    A$swtimers$1883
  0C:397AB    A$swtimers$1884
  0C:397AC    A$swtimers$1885
  0C:397AD    A$swtimers$1886
  0C:397AE    A$swtimers$1889
  0C:397AE    C$swtimers.c$247$2$2
  0C:397B1    A$swtimers$1890
  0C:397B2    A$swtimers$1891
  0C:397B3    A$swtimers$1892
  0C:397B4    A$swtimers$1893
  0C:397B5    A$swtimers$1894
  0C:397B6    A$swtimers$1895
  0C:397B7    A$swtimers$1896
  0C:397B8    A$swtimers$1897
  0C:397B9    A$swtimers$1898
  0C:397BB    A$swtimers$1899
  0C:397BD    A$swtimers$1900
  0C:397BF    A$swtimers$1901
  0C:397C2    A$swtimers$1902
  0C:397C3    A$swtimers$1903
  0C:397C4    A$swtimers$1904
  0C:397C7    A$swtimers$1905
  0C:397C8    A$swtimers$1906
  0C:397CB    A$swtimers$1907
  0C:397CE    A$swtimers$1908
  0C:397D0    A$swtimers$1910
  0C:397D3    A$swtimers$1911
  0C:397D6    A$swtimers$1912
  0C:397D8    A$swtimers$1914
  0C:397DB    A$swtimers$1920
  0C:397DB    C$swtimers.c$249$3$3
  0C:397DB    C$swtimers.c$252$5$5
  0C:397DE    A$swtimers$1921
  0C:397DF    A$swtimers$1922
  0C:397E0    A$swtimers$1923
  0C:397E1    A$swtimers$1924
  0C:397E2    A$swtimers$1925
  0C:397E3    A$swtimers$1926
  0C:397E4    A$swtimers$1927
  0C:397E5    A$swtimers$1928
  0C:397E6    A$swtimers$1929
  0C:397E8    A$swtimers$1930
  0C:397EA    A$swtimers$1931
  0C:397EC    A$swtimers$1932
  0C:397EE    A$swtimers$1933
  0C:397F1    A$swtimers$1934
  0C:397F2    A$swtimers$1935
  0C:397F3    A$swtimers$1936
  0C:397F6    A$swtimers$1938
  0C:397F9    A$swtimers$1939
  0C:397FC    A$swtimers$1940
  0C:397FE    A$swtimers$1944
  0C:397FE    C$swtimers.c$254$4$4
  0C:39800    A$swtimers$1947
  0C:39800    C$swtimers.c$255$4$4
  0C:39802    A$swtimers$1950
  0C:39802    C$swtimers.c$259$6$8
  0C:39804    A$swtimers$1952
  0C:39807    A$swtimers$1954
  0C:39809    A$swtimers$1957
  0C:39809    C$swtimers.c$261$6$8
  0C:3980A    A$swtimers$1958
  0C:3980C    A$swtimers$1959
  0C:3980E    A$swtimers$1960
  0C:3980F    A$swtimers$1961
  0C:39811    A$swtimers$1962
  0C:39813    A$swtimers$1963
  0C:39814    A$swtimers$1964
  0C:39815    A$swtimers$1965
  0C:39818    A$swtimers$1968
  0C:39818    C$swtimers.c$265$7$9
  0C:39819    A$swtimers$1969
  0C:3981A    A$swtimers$1970
  0C:3981C    A$swtimers$1971
  0C:3981E    A$swtimers$1972
  0C:3981F    A$swtimers$1973
  0C:39821    A$swtimers$1974
  0C:39823    A$swtimers$1975
  0C:39824    A$swtimers$1976
  0C:39825    A$swtimers$1977
  0C:39826    A$swtimers$1978
  0C:39827    A$swtimers$1979
  0C:39828    A$swtimers$1980
  0C:3982A    A$swtimers$1981
  0C:3982C    A$swtimers$1982
  0C:3982E    A$swtimers$1983
  0C:39830    A$swtimers$1984
  0C:39832    A$swtimers$1985
  0C:39834    A$swtimers$1986
  0C:39836    A$swtimers$1987
  0C:39838    A$swtimers$1988
  0C:3983A    A$swtimers$1989
  0C:3983C    A$swtimers$1990
  0C:3983D    A$swtimers$1992
  0C:3983F    A$swtimers$1993
  0C:39841    A$swtimers$1994
  0C:39843    A$swtimers$1998
  0C:39843    C$swtimers.c$259$5$7
  0C:39844    A$swtimers$1999
  0C:39846    A$swtimers$2003
  0C:39846    C$swtimers.c$270$4$4
  0C:39848    A$swtimers$2006
  0C:39848    C$swtimers.c$272$2$2
  0C:3984A    A$swtimers$2008
  0C:3984C    A$swtimers$2009
  0C:3984E    A$swtimers$2010
  0C:39850    A$swtimers$2011
  0C:39851    A$swtimers$2012
  0C:39854    A$swtimers$2013
  0C:39855    A$swtimers$2014
  0C:39856    A$swtimers$2015
  0C:39859    A$swtimers$2016
  0C:3985C    A$swtimers$2020
  0C:3985C    C$swtimers.c$273$2$2
  0C:3985C    XG$handle_kicker$0$0

Hexadecimal

Area                               Addr   Size   Decimal Bytes (Attributes)
--------------------------------   ----   ----   ------- ----- ------------
CONST                              8000   2A49 =  10825. bytes (REL,CON,CODE)

      Value  Global
   --------  --------------------------------
  0C:8000    Fadcd$mejl_header$0$0
  0C:8020    Fadcd$heater_mejl_msg$0$0
  0C:8051    Fadcd$fan_mejl_msg$0$0
  0C:8081    G$smtp_220$0$0
  0C:8081    _smtp_220
  0C:8085    G$smtp_334$0$0
  0C:8085    _smtp_334
  0C:8089    G$smtp_235$0$0
  0C:8089    _smtp_235
  0C:808D    G$smtp_helo$0$0
  0C:808D    _smtp_helo
  0C:8093    G$smtp_ehlo$0$0
  0C:8093    _smtp_ehlo
  0C:8099    G$smtp_mail_from$0$0
  0C:8099    _smtp_mail_from
  0C:80A5    G$smtp_rcpt_to$0$0
  0C:80A5    _smtp_rcpt_to
  0C:80AF    G$smtp_data$0$0
  0C:80AF    _smtp_data
  0C:80B6    G$smtp_to$0$0
  0C:80B6    _smtp_to
  0C:80BB    G$smtp_cc$0$0
  0C:80BB    _smtp_cc
  0C:80C0    G$smtp_from$0$0
  0C:80C0    _smtp_from
  0C:80C7    G$smtp_subject$0$0
  0C:80C7    _smtp_subject
  0C:80D1    G$smtp_content_type_text$0$0
  0C:80D1    _smtp_content_type_text
  0C:80F9    G$smtp_250_dsn$0$0
  0C:80F9    _smtp_250_dsn
  0C:8101    G$smtp_auth$0$0
  0C:8101    _smtp_auth
  0C:810C    G$smtp_quit$0$0
  0C:810C    _smtp_quit
  0C:8113    G$smtp_crnl$0$0
  0C:8113    _smtp_crnl
  0C:8116    G$smtp_crnlperiodcrnl$0$0
  0C:8116    _smtp_crnlperiodcrnl
  0C:811C    Fbase64$cb64$0$0
  0C:815D    Fbase64$cd64$0$0
  0C:81AE    G$http_http$0$0
  0C:81AE    _http_http
  0C:81B6    G$http_200$0$0
  0C:81B6    _http_200
  0C:81BB    G$http_301$0$0
  0C:81BB    _http_301
  0C:81C0    G$http_302$0$0
  0C:81C0    _http_302
  0C:81C5    G$http_get$0$0
  0C:81C5    _http_get
  0C:81CA    G$http_10$0$0
  0C:81CA    _http_10
  0C:81D3    G$http_11$0$0
  0C:81D3    _http_11
  0C:81DC    G$http_content_type$0$0
  0C:81DC    _http_content_type
  0C:81EB    G$http_authorization$0$0
  0C:81EB    _http_authorization
  0C:8201    G$http_texthtml$0$0
  0C:8201    _http_texthtml
  0C:820B    G$http_location$0$0
  0C:820B    _http_location
  0C:8216    G$http_host$0$0
  0C:8216    _http_host
  0C:821D    G$http_crnl$0$0
  0C:821D    _http_crnl
  0C:8220    G$http_index_html$0$0
  0C:8220    _http_index_html
  0C:822D    G$http_404_html$0$0
  0C:822D    _http_404_html
  0C:8237    G$http_401_html$0$0
  0C:8237    _http_401_html
  0C:8241    G$http_referer$0$0
  0C:8241    _http_referer
  0C:824A    G$http_content_length$0$0
  0C:824A    _http_content_length
  0C:825A    G$http_header_200$0$0
  0C:825A    _http_header_200
  0C:82AE    G$http_header_401$0$0
  0C:82AE    _http_header_401
  0C:82EE    G$http_header_404$0$0
  0C:82EE    _http_header_404
  0C:8349    G$http_content_type_plain$0$0
  0C:8349    _http_content_type_plain
  0C:8366    G$http_content_type_html$0$0
  0C:8366    _http_content_type_html
  0C:8382    G$http_content_type_css$0$0
  0C:8382    _http_content_type_css
  0C:839D    G$http_content_type_text$0$0
  0C:839D    _http_content_type_text
  0C:83B9    G$http_content_type_png$0$0
  0C:83B9    _http_content_type_png
  0C:83D5    G$http_content_type_gif$0$0
  0C:83D5    _http_content_type_gif
  0C:83F1    G$http_content_type_jpg$0$0
  0C:83F1    _http_content_type_jpg
  0C:840E    G$http_content_type_binary$0$0
  0C:840E    _http_content_type_binary
  0C:8439    G$http_html$0$0
  0C:8439    _http_html
  0C:843F    G$http_shtml$0$0
  0C:843F    _http_shtml
  0C:8446    G$http_htm$0$0
  0C:8446    _http_htm
  0C:844B    G$http_css$0$0
  0C:844B    _http_css
  0C:8450    G$http_png$0$0
  0C:8450    _http_png
  0C:8455    G$http_gif$0$0
  0C:8455    _http_gif
  0C:845A    G$http_jpg$0$0
  0C:845A    _http_jpg
  0C:845F    G$http_text$0$0
  0C:845F    _http_text
  0C:8464    G$http_txt$0$0
  0C:8464    _http_txt
  0C:8469    Fhttpd_cgi$f_get_ip_num$0$0
  0C:846E    Fhttpd_cgi$mejlport$0$0
  0C:8473    Fhttpd_cgi$f_get_temp$0$0
  0C:8478    Fhttpd_cgi$f_get_stat$0$0
  0C:847D    Fhttpd_cgi$f_get_check_box$0$0
  0C:8482    Fhttpd_cgi$f_get_string$0$0
  0C:8487    Fhttpd_cgi$f_get_int$0$0
  0C:848C    Fhttpd_cgi$f_get_frac$0$0
  0C:8491    Fhttpd_cgi$_str_0$0$0
  0C:8497    Fhttpd_cgi$_str_1$0$0
  0C:84AD    Fhttpd_cgi$_str_2$0$0
  0C:84AF    Fhttpd_cgi$_str_3$0$0
  0C:84C3    Fhttpd_cgi$_str_4$0$0
  0C:84CC    Fhttpd_cgi$_str_5$0$0
  0C:84CF    Fhttpd_cgi$_str_6$0$0
  0C:84D7    Fhttpd_cgi$_str_7$0$0
  0C:84DA    Fhttpd_cgi$_str_8$0$0
  0C:84E8    Fhttpd_cgi$_str_9$0$0
  0C:84F4    Fhttpd_cgi$_str_10$0$0
  0C:84FF    Fhttpd_cgi$_str_11$0$0
  0C:8508    Fhttpd_cgi$_str_12$0$0
  0C:8511    Fhttpd_cgi$_str_13$0$0
  0C:851A    Fhttpd_cgi$_str_14$0$0
  0C:8524    Fhttpd_cgi$_str_15$0$0
  0C:852F    Fhttpd_cgi$_str_16$0$0
  0C:8537    Fhttpd_cgi$_str_17$0$0
  0C:8540    Fhttpd_fs$data_401_html$0$0
  0C:869F    Fhttpd_fs$data_404_html$0$0
  0C:87F7    Fhttpd_fs$data_footer_html$0$0
  0C:894A    Fhttpd_fs$data_header_html$0$0
  0C:8C34    Fhttpd_fs$data_index_shtml$0$0
  0C:8F64    Fhttpd_fs$data_style_css$0$0
  0C:93DB    Fhttpd_fs$data__larmset_shtml$0$0
  0C:96BE    Fhttpd_fs$data__mejlset_shtml$0$0
  0C:9B18    Fhttpd_fs$data__netset_shtml$0$0
  0C:9E86    Fhttpd_fs$data__powerset_shtml$0$0
  0C:A00C    Fhttpd_fs$data__tempset_shtml$0$0
  0C:A626    G$file_401_html$0$0
  0C:A626    _file_401_html
  0C:A633    G$file_404_html$0$0
  0C:A633    _file_404_html
  0C:A640    G$file_footer_html$0$0
  0C:A640    _file_footer_html
  0C:A64D    G$file_header_html$0$0
  0C:A64D    _file_header_html
  0C:A65A    G$file_index_shtml$0$0
  0C:A65A    _file_index_shtml
  0C:A667    G$file_style_css$0$0
  0C:A667    _file_style_css
  0C:A674    G$file__larmset_shtml$0$0
  0C:A674    _file__larmset_shtml
  0C:A681    G$file__mejlset_shtml$0$0
  0C:A681    _file__mejlset_shtml
  0C:A68E    G$file__netset_shtml$0$0
  0C:A68E    _file__netset_shtml
  0C:A69B    G$file__powerset_shtml$0$0
  0C:A69B    _file__powerset_shtml
  0C:A6A8    G$file__tempset_shtml$0$0
  0C:A6A8    _file__tempset_shtml
  0C:A6B5    Fhttpd_param$parmtab$0$0
  0C:A732    Fhttpd_param$testmejl$0$0
  0C:A73C    Fhttpd_param$testmejlmsg$0$0
  0C:A754    Fhttpd_param$_str_0$0$0
  0C:A75C    Fhttpd_param$_str_1$0$0
  0C:A764    Fhttpd_param$_str_2$0$0
  0C:A767    Fhttpd_param$_str_3$0$0
  0C:A76F    Fhttpd_param$_str_4$0$0
  0C:A777    Fhttpd_param$_str_5$0$0
  0C:A77F    Fhttpd_param$_str_6$0$0
  0C:A784    Fhttpd_param$_str_7$0$0
  0C:A789    Fhttpd_param$_str_8$0$0
  0C:A78F    Fhttpd_param$_str_9$0$0
  0C:A795    Fhttpd_param$_str_10$0$0
  0C:A79A    Fhttpd_param$_str_11$0$0
  0C:A79E    Fhttpd_param$_str_12$0$0
  0C:A7A3    Fhttpd_param$_str_13$0$0
  0C:A7A7    Fhttpd_param$_str_14$0$0
  0C:A7AE    Fhttpd_param$_str_15$0$0
  0C:A7B4    Fhttpd_param$_str_16$0$0
  0C:A7B9    Fhttpd_param$_str_17$0$0
  0C:A7BF    Fhttpd_param$_str_18$0$0
  0C:A7C4    Fhttpd_param$_str_19$0$0
  0C:A7C9    Fhttpd_param$_str_20$0$0
  0C:A7D2    Fhttpd_param$_str_21$0$0
  0C:A7D7    Fhttpd_param$_str_22$0$0
  0C:A7DD    Fhttpd_param$_str_23$0$0
  0C:A7E3    Fhttpd_param$_str_24$0$0
  0C:A7EA    Fhttpd_param$_str_25$0$0
  0C:A7F1    Fhttpd_param$_str_26$0$0
  0C:A7F3    Fhttpd$_str_0$0$0
  0C:A7F5    Fadc$_str_0$0$0
  0C:A80A    G$baudrates$0$0
  0C:A80A    _baudrates
  0C:A80B    G$default_cfg$0$0
  0C:A80B    _default_cfg
  0C:A888    Fmain$_str_0$0$0
  0C:A88B    Fmain$_str_1$0$0
  0C:A8C9    Fmain$_str_2$0$0
  0C:A90C    Fmain$_str_3$0$0
  0C:A91D    Fmain$_str_4$0$0
  0C:A940    Fmain$_str_5$0$0
  0C:A951    Fmain$_str_6$0$0
  0C:A966    Fmain$_str_7$0$0
  0C:A96E    Fmain$_str_8$0$0
  0C:A987    Fmain$_str_9$0$0
  0C:A999    Fmain$_str_10$0$0
  0C:A9AC    Fmain$_str_11$0$0
  0C:A9CA    Fuip$all_ones_addr$0$0
  0C:A9CE    Fuip$all_zeroes_addr$0$0
  0C:A9D2    Fuip$_str_0$0$0
  0C:A9ED    Fuip$_str_1$0$0
  0C:AA10    Fuip$_str_2$0$0
  0C:AA34    Fuip_arp$broadcast_ethaddr$0$0
  0C:AA3A    Fuip_arp$broadcast_ipaddr$0$0

Hexadecimal

Area                               Addr   Size   Decimal Bytes (Attributes)
--------------------------------   ----   ----   ------- ----- ------------
XINIT                              AA49   0026 =     38. bytes (REL,CON,CODE)

      Value  Global
   --------  --------------------------------
  0C:AA49    Fhttpd_cgi$__xinit_calls$0$0
  0C:AA64    Fhttpd_cgi$__xinit_ip_format$0$0
  0C:AA67    Fadc$__xinit_SIG_NEW_ADC_VALUE_RECEIVED$0$0
  0C:AA68    Fswtimers$__xinit_count$0$0
  0C:AA69    Fuip$__xinit_uip_ethaddr$0$0

Hexadecimal

Area                               Addr   Size   Decimal Bytes (Attributes)
--------------------------------   ----   ----   ------- ----- ------------
UIP_BANK                           28000   56AC =  22188. bytes (REL,CON,CODE)

      Value  Global
   --------  --------------------------------
  0C:28000    A$httpd-param$1314
  0C:28000    C$httpd_param.c$187$0$0
  0C:28000    Fhttpd_param$skip_to_equal$0$0
  0C:28002    A$httpd-param$1315
  0C:28004    A$httpd-param$1316
  0C:28006    A$httpd-param$1317
  0C:28009    A$httpd-param$1318
  0C:2800A    A$httpd-param$1319
  0C:2800B    A$httpd-param$1320
  0C:2800C    A$httpd-param$1321
  0C:2800D    A$httpd-param$1322
  0C:2800E    A$httpd-param$1323
  0C:2800F    A$httpd-param$1324
  0C:28010    A$httpd-param$1327
  0C:28010    C$httpd_param.c$189$1$1
  0C:28013    A$httpd-param$1328
  0C:28014    A$httpd-param$1329
  0C:28015    A$httpd-param$1330
  0C:28016    A$httpd-param$1331
  0C:28017    A$httpd-param$1332
  0C:28018    A$httpd-param$1333
  0C:28019    A$httpd-param$1334
  0C:2801A    A$httpd-param$1335
  0C:2801B    A$httpd-param$1337
  0C:2801D    A$httpd-param$1338
  0C:2801F    A$httpd-param$1339
  0C:28021    A$httpd-param$1340
  0C:28024    A$httpd-param$1341
  0C:28025    A$httpd-param$1342
  0C:28028    A$httpd-param$1343
  0C:2802A    A$httpd-param$1347
  0C:2802A    C$httpd_param.c$190$1$1
  0C:2802B    A$httpd-param$1348
  0C:2802E    A$httpd-param$1349
  0C:2802F    A$httpd-param$1351
  0C:28032    A$httpd-param$1352
  0C:28033    A$httpd-param$1353
  0C:28034    A$httpd-param$1354
  0C:28035    A$httpd-param$1355
  0C:28036    A$httpd-param$1356
  0C:28037    A$httpd-param$1357
  0C:28038    A$httpd-param$1358
  0C:28039    A$httpd-param$1359
  0C:2803A    A$httpd-param$1360
  0C:2803C    A$httpd-param$1362
  0C:2803F    A$httpd-param$1363
  0C:28040    A$httpd-param$1364
  0C:28041    A$httpd-param$1365
  0C:28042    A$httpd-param$1366
  0C:28043    A$httpd-param$1367
  0C:28044    A$httpd-param$1368
  0C:28045    A$httpd-param$1369
  0C:28046    A$httpd-param$1370
  0C:28047    A$httpd-param$1373
  0C:28047    C$httpd_param.c$191$1$1
  0C:28048    A$httpd-param$1374
  0C:2804B    A$httpd-param$1375
  0C:2804C    A$httpd-param$1377
  0C:2804F    A$httpd-param$1378
  0C:28050    A$httpd-param$1379
  0C:28051    A$httpd-param$1380
  0C:28052    A$httpd-param$1381
  0C:28053    A$httpd-param$1382
  0C:28054    A$httpd-param$1383
  0C:28055    A$httpd-param$1384
  0C:28056    A$httpd-param$1385
  0C:28057    A$httpd-param$1388
  0C:28057    C$httpd_param.c$193$1$1
  0C:28059    A$httpd-param$1389
  0C:2805B    A$httpd-param$1390
  0C:2805D    A$httpd-param$1393
  0C:2805D    C$httpd_param.c$194$1$1
  0C:2805D    XFhttpd_param$skip_to_equal$0$0
  0C:2805E    A$httpd-param$1406
  0C:2805E    C$httpd_param.c$196$1$1
  0C:2805E    Fhttpd_param$skip_to_dot$0$0
  0C:28060    A$httpd-param$1407
  0C:28062    A$httpd-param$1408
  0C:28064    A$httpd-param$1409
  0C:28067    A$httpd-param$1410
  0C:28068    A$httpd-param$1411
  0C:28069    A$httpd-param$1412
  0C:2806A    A$httpd-param$1413
  0C:2806B    A$httpd-param$1414
  0C:2806C    A$httpd-param$1415
  0C:2806D    A$httpd-param$1416
  0C:2806E    A$httpd-param$1419
  0C:2806E    C$httpd_param.c$198$1$1
  0C:28071    A$httpd-param$1420
  0C:28072    A$httpd-param$1421
  0C:28073    A$httpd-param$1422
  0C:28074    A$httpd-param$1423
  0C:28075    A$httpd-param$1424
  0C:28076    A$httpd-param$1425
  0C:28077    A$httpd-param$1426
  0C:28078    A$httpd-param$1427
  0C:28079    A$httpd-param$1429
  0C:2807B    A$httpd-param$1430
  0C:2807D    A$httpd-param$1431
  0C:2807F    A$httpd-param$1432
  0C:28082    A$httpd-param$1433
  0C:28083    A$httpd-param$1434
  0C:28086    A$httpd-param$1435
  0C:28088    A$httpd-param$1439
  0C:28088    C$httpd_param.c$199$1$1
  0C:28089    A$httpd-param$1440
  0C:2808C    A$httpd-param$1441
  0C:2808D    A$httpd-param$1443
  0C:28090    A$httpd-param$1444
  0C:28091    A$httpd-param$1445
  0C:28092    A$httpd-param$1446
  0C:28093    A$httpd-param$1447
  0C:28094    A$httpd-param$1448
  0C:28095    A$httpd-param$1449
  0C:28096    A$httpd-param$1450
  0C:28097    A$httpd-param$1451
  0C:28098    A$httpd-param$1452
  0C:2809A    A$httpd-param$1454
  0C:2809D    A$httpd-param$1455
  0C:2809E    A$httpd-param$1456
  0C:2809F    A$httpd-param$1457
  0C:280A0    A$httpd-param$1458
  0C:280A1    A$httpd-param$1459
  0C:280A2    A$httpd-param$1460
  0C:280A3    A$httpd-param$1461
  0C:280A4    A$httpd-param$1462
  0C:280A5    A$httpd-param$1465
  0C:280A5    C$httpd_param.c$200$1$1
  0C:280A6    A$httpd-param$1466
  0C:280A9    A$httpd-param$1467
  0C:280AA    A$httpd-param$1469
  0C:280AD    A$httpd-param$1470
  0C:280AE    A$httpd-param$1471
  0C:280AF    A$httpd-param$1472
  0C:280B0    A$httpd-param$1473
  0C:280B1    A$httpd-param$1474
  0C:280B2    A$httpd-param$1475
  0C:280B3    A$httpd-param$1476
  0C:280B4    A$httpd-param$1477
  0C:280B5    A$httpd-param$1480
  0C:280B5    C$httpd_param.c$202$1$1
  0C:280B7    A$httpd-param$1481
  0C:280B9    A$httpd-param$1482
  0C:280BB    A$httpd-param$1485
  0C:280BB    C$httpd_param.c$203$1$1
  0C:280BB    XFhttpd_param$skip_to_dot$0$0
  0C:280BC    A$httpd-param$1500
  0C:280BC    C$httpd_param.c$205$1$1
  0C:280BC    Fhttpd_param$parse_ip$0$0
  0C:280BE    A$httpd-param$1501
  0C:280C0    A$httpd-param$1502
  0C:280C2    A$httpd-param$1503
  0C:280C5    A$httpd-param$1504
  0C:280C6    A$httpd-param$1505
  0C:280C7    A$httpd-param$1506
  0C:280C8    A$httpd-param$1507
  0C:280C9    A$httpd-param$1508
  0C:280CA    A$httpd-param$1509
  0C:280CB    A$httpd-param$1510
  0C:280CC    A$httpd-param$1513
  0C:280CC    C$httpd_param.c$209$1$1
  0C:280CF    A$httpd-param$1514
  0C:280D0    A$httpd-param$1515
  0C:280D1    A$httpd-param$1516
  0C:280D2    A$httpd-param$1517
  0C:280D3    A$httpd-param$1518
  0C:280D4    A$httpd-param$1519
  0C:280D5    A$httpd-param$1520
  0C:280D6    A$httpd-param$1521
  0C:280D7    A$httpd-param$1522
  0C:280D9    A$httpd-param$1523
  0C:280DB    A$httpd-param$1524
  0C:280DD    A$httpd-param$1525
  0C:280E0    A$httpd-param$1528
  0C:280E0    C$httpd_param.c$210$1$1
  0C:280E2    A$httpd-param$1529
  0C:280E4    A$httpd-param$1530
  0C:280E6    A$httpd-param$1531
  0C:280E8    A$httpd-param$1532
  0C:280EA    A$httpd-param$1533
  0C:280EC    A$httpd-param$1534
  0C:280EF    A$httpd-param$1535
  0C:280F1    A$httpd-param$1536
  0C:280F3    A$httpd-param$1537
  0C:280F5    A$httpd-param$1538
  0C:280F7    A$httpd-param$1539
  0C:280FA    A$httpd-param$1540
  0C:280FB    A$httpd-param$1541
  0C:280FC    A$httpd-param$1544
  0C:280FC    C$httpd_param.c$211$1$1
  0C:280FE    A$httpd-param$1545
  0C:28100    A$httpd-param$1546
  0C:28102    A$httpd-param$1547
  0C:28105    A$httpd-param$1550
  0C:28105    C$httpd_param.c$212$1$1
  0C:28107    A$httpd-param$1551
  0C:28109    A$httpd-param$1552
  0C:2810B    A$httpd-param$1553
  0C:2810D    A$httpd-param$1554
  0C:2810F    A$httpd-param$1555
  0C:28111    A$httpd-param$1556
  0C:28114    A$httpd-param$1557
  0C:28116    A$httpd-param$1558
  0C:28118    A$httpd-param$1559
  0C:2811A    A$httpd-param$1560
  0C:2811C    A$httpd-param$1561
  0C:2811F    A$httpd-param$1562
  0C:28120    A$httpd-param$1563
  0C:28121    A$httpd-param$1566
  0C:28121    C$httpd_param.c$213$1$1
  0C:28123    A$httpd-param$1567
  0C:28125    A$httpd-param$1568
  0C:28127    A$httpd-param$1569
  0C:2812A    A$httpd-param$1572
  0C:2812A    C$httpd_param.c$214$1$1
  0C:2812C    A$httpd-param$1573
  0C:2812E    A$httpd-param$1574
  0C:28130    A$httpd-param$1575
  0C:28132    A$httpd-param$1576
  0C:28134    A$httpd-param$1577
  0C:28136    A$httpd-param$1578
  0C:28139    A$httpd-param$1579
  0C:2813B    A$httpd-param$1580
  0C:2813D    A$httpd-param$1581
  0C:2813F    A$httpd-param$1582
  0C:28141    A$httpd-param$1583
  0C:28144    A$httpd-param$1584
  0C:28145    A$httpd-param$1585
  0C:28146    A$httpd-param$1588
  0C:28146    C$httpd_param.c$215$1$1
  0C:28148    A$httpd-param$1589
  0C:2814A    A$httpd-param$1590
  0C:2814C    A$httpd-param$1591
  0C:2814F    A$httpd-param$1594
  0C:2814F    C$httpd_param.c$216$1$1
  0C:28151    A$httpd-param$1595
  0C:28153    A$httpd-param$1596
  0C:28155    A$httpd-param$1597
  0C:28157    A$httpd-param$1598
  0C:28159    A$httpd-param$1599
  0C:2815B    A$httpd-param$1600
  0C:2815E    A$httpd-param$1601
  0C:28160    A$httpd-param$1602
  0C:28162    A$httpd-param$1603
  0C:28164    A$httpd-param$1604
  0C:28166    A$httpd-param$1605
  0C:28169    A$httpd-param$1606
  0C:2816A    A$httpd-param$1607
  0C:2816B    A$httpd-param$1610
  0C:2816B    C$httpd_param.c$217$1$1
  0C:2816D    A$httpd-param$1611
  0C:2816F    A$httpd-param$1612
  0C:28171    A$httpd-param$1613
  0C:28174    A$httpd-param$1614
  0C:28176    A$httpd-param$1615
  0C:28178    A$httpd-param$1616
  0C:2817A    A$httpd-param$1617
  0C:2817D    A$httpd-param$1618
  0C:2817E    A$httpd-param$1619
  0C:2817F    A$httpd-param$1620
  0C:28180    A$httpd-param$1621
  0C:28181    A$httpd-param$1622
  0C:28182    A$httpd-param$1623
  0C:28183    A$httpd-param$1624
  0C:28184    A$httpd-param$1625
  0C:28185    A$httpd-param$1628
  0C:28185    C$httpd_param.c$219$2$2
  0C:28188    A$httpd-param$1629
  0C:28189    A$httpd-param$1630
  0C:2818A    A$httpd-param$1631
  0C:2818B    A$httpd-param$1632
  0C:2818C    A$httpd-param$1633
  0C:2818D    A$httpd-param$1634
  0C:2818E    A$httpd-param$1635
  0C:2818F    A$httpd-param$1636
  0C:28190    A$httpd-param$1637
  0C:28193    A$httpd-param$1638
  0C:28194    A$httpd-param$1639
  0C:28195    A$httpd-param$1640
  0C:28197    A$httpd-param$1641
  0C:2819A    A$httpd-param$1642
  0C:2819B    A$httpd-param$1643
  0C:2819D    A$httpd-param$1644
  0C:2819F    A$httpd-param$1645
  0C:281A0    A$httpd-param$1646
  0C:281A2    A$httpd-param$1647
  0C:281A4    A$httpd-param$1648
  0C:281A6    A$httpd-param$1649
  0C:281A8    A$httpd-param$1650
  0C:281AA    A$httpd-param$1651
  0C:281AB    A$httpd-param$1652
  0C:281AD    A$httpd-param$1653
  0C:281AE    A$httpd-param$1654
  0C:281B0    A$httpd-param$1655
  0C:281B2    A$httpd-param$1656
  0C:281B4    A$httpd-param$1657
  0C:281B6    A$httpd-param$1658
  0C:281B7    A$httpd-param$1659
  0C:281BA    A$httpd-param$1660
  0C:281BB    A$httpd-param$1661
  0C:281BC    A$httpd-param$1662
  0C:281BF    A$httpd-param$1663
  0C:281C1    A$httpd-param$1664
  0C:281C2    A$httpd-param$1665
  0C:281C3    A$httpd-param$1666
  0C:281C4    A$httpd-param$1667
  0C:281C5    A$httpd-param$1668
  0C:281C6    A$httpd-param$1669
  0C:281C9    A$httpd-param$1670
  0C:281CA    A$httpd-param$1671
  0C:281CB    A$httpd-param$1672
  0C:281CD    A$httpd-param$1673
  0C:281D0    A$httpd-param$1674
  0C:281D1    A$httpd-param$1675
  0C:281D3    A$httpd-param$1676
  0C:281D5    A$httpd-param$1677
  0C:281D6    A$httpd-param$1678
  0C:281D8    A$httpd-param$1679
  0C:281DA    A$httpd-param$1680
  0C:281DC    A$httpd-param$1681
  0C:281DE    A$httpd-param$1682
  0C:281E0    A$httpd-param$1683
  0C:281E1    A$httpd-param$1684
  0C:281E3    A$httpd-param$1685
  0C:281E4    A$httpd-param$1686
  0C:281E6    A$httpd-param$1687
  0C:281E8    A$httpd-param$1688
  0C:281EA    A$httpd-param$1689
  0C:281EC    A$httpd-param$1690
  0C:281ED    A$httpd-param$1691
  0C:281F0    A$httpd-param$1692
  0C:281F1    A$httpd-param$1693
  0C:281F2    A$httpd-param$1696
  0C:281F2    C$httpd_param.c$220$1$1
  0C:281F2    XFhttpd_param$parse_ip$0$0
  0C:281F5    A$httpd-param$1712
  0C:281F5    C$httpd_param.c$222$1$1
  0C:281F5    Fhttpd_param$parse_temp$0$0
  0C:281F7    A$httpd-param$1713
  0C:281F9    A$httpd-param$1714
  0C:281FB    A$httpd-param$1715
  0C:281FE    A$httpd-param$1716
  0C:281FF    A$httpd-param$1717
  0C:28200    A$httpd-param$1718
  0C:28201    A$httpd-param$1719
  0C:28202    A$httpd-param$1720
  0C:28203    A$httpd-param$1721
  0C:28204    A$httpd-param$1722
  0C:28205    A$httpd-param$1725
  0C:28205    C$httpd_param.c$224$1$1
  0C:28208    A$httpd-param$1726
  0C:28209    A$httpd-param$1727
  0C:2820A    A$httpd-param$1728
  0C:2820B    A$httpd-param$1729
  0C:2820C    A$httpd-param$1732
  0C:2820C    C$httpd_param.c$225$1$1
  0C:2820F    A$httpd-param$1733
  0C:28210    A$httpd-param$1734
  0C:28211    A$httpd-param$1737
  0C:28211    C$httpd_param.c$226$1$1
  0C:28214    A$httpd-param$1738
  0C:28216    A$httpd-param$1739
  0C:28217    A$httpd-param$1740
  0C:28218    A$httpd-param$1741
  0C:28219    A$httpd-param$1742
  0C:2821A    A$httpd-param$1745
  0C:2821A    C$httpd_param.c$229$1$1
  0C:2821D    A$httpd-param$1746
  0C:2821E    A$httpd-param$1747
  0C:2821F    A$httpd-param$1748
  0C:28220    A$httpd-param$1749
  0C:28221    A$httpd-param$1750
  0C:28222    A$httpd-param$1751
  0C:28223    A$httpd-param$1752
  0C:28224    A$httpd-param$1753
  0C:28225    A$httpd-param$1754
  0C:28227    A$httpd-param$1755
  0C:28229    A$httpd-param$1756
  0C:2822B    A$httpd-param$1757
  0C:2822E    A$httpd-param$1758
  0C:2822F    A$httpd-param$1759
  0C:28232    A$httpd-param$1762
  0C:28232    C$httpd_param.c$230$2$2
  0C:28235    A$httpd-param$1763
  0C:28237    A$httpd-param$1764
  0C:28238    A$httpd-param$1765
  0C:28239    A$httpd-param$1766
  0C:2823A    A$httpd-param$1769
  0C:2823A    C$httpd_param.c$231$2$2
  0C:2823D    A$httpd-param$1770
  0C:2823F    A$httpd-param$1771
  0C:28240    A$httpd-param$1772
  0C:28241    A$httpd-param$1773
  0C:28242    A$httpd-param$1774
  0C:28243    A$httpd-param$1775
  0C:28244    A$httpd-param$1776
  0C:28245    A$httpd-param$1777
  0C:28246    A$httpd-param$1778
  0C:28247    A$httpd-param$1779
  0C:28248    A$httpd-param$1783
  0C:28248    C$httpd_param.c$235$1$1
  0C:2824B    A$httpd-param$1784
  0C:2824C    A$httpd-param$1785
  0C:2824D    A$httpd-param$1786
  0C:2824E    A$httpd-param$1787
  0C:2824F    A$httpd-param$1788
  0C:28250    A$httpd-param$1789
  0C:28251    A$httpd-param$1790
  0C:28252    A$httpd-param$1791
  0C:28253    A$httpd-param$1792
  0C:28255    A$httpd-param$1793
  0C:28257    A$httpd-param$1794
  0C:28259    A$httpd-param$1795
  0C:2825C    A$httpd-param$1796
  0C:2825E    A$httpd-param$1797
  0C:28260    A$httpd-param$1798
  0C:28262    A$httpd-param$1799
  0C:28264    A$httpd-param$1800
  0C:28267    A$httpd-param$1801
  0C:28269    A$httpd-param$1802
  0C:2826B    A$httpd-param$1803
  0C:2826D    A$httpd-param$1804
  0C:2826F    A$httpd-param$1805
  0C:28271    A$httpd-param$1806
  0C:28273    A$httpd-param$1807
  0C:28275    A$httpd-param$1808
  0C:28277    A$httpd-param$1809
  0C:2827A    A$httpd-param$1810
  0C:2827B    A$httpd-param$1811
  0C:2827E    A$httpd-param$1812
  0C:28280    A$httpd-param$1814
  0C:28283    A$httpd-param$1819
  0C:28283    C$httpd_param.c$236$2$3
  0C:28286    A$httpd-param$1820
  0C:28287    A$httpd-param$1821
  0C:28288    A$httpd-param$1822
  0C:28289    A$httpd-param$1823
  0C:2828A    A$httpd-param$1824
  0C:2828B    A$httpd-param$1825
  0C:2828C    A$httpd-param$1826
  0C:2828D    A$httpd-param$1827
  0C:2828E    A$httpd-param$1828
  0C:28290    A$httpd-param$1829
  0C:28292    A$httpd-param$1830
  0C:28294    A$httpd-param$1831
  0C:28297    A$httpd-param$1832
  0C:28298    A$httpd-param$1833
  0C:2829B    A$httpd-param$1836
  0C:2829B    C$httpd_param.c$237$3$4
  0C:2829E    A$httpd-param$1837
  0C:282A0    A$httpd-param$1838
  0C:282A1    A$httpd-param$1839
  0C:282A2    A$httpd-param$1840
  0C:282A3    A$httpd-param$1841
  0C:282A4    A$httpd-param$1842
  0C:282A5    A$httpd-param$1843
  0C:282A6    A$httpd-param$1844
  0C:282A7    A$httpd-param$1845
  0C:282A8    A$httpd-param$1846
  0C:282A9    A$httpd-param$1849
  0C:282A9    C$httpd_param.c$238$3$4
  0C:282AC    A$httpd-param$1850
  0C:282AE    A$httpd-param$1851
  0C:282AF    A$httpd-param$1854
  0C:282AF    C$httpd_param.c$239$3$4
  0C:282B2    A$httpd-param$1855
  0C:282B3    A$httpd-param$1856
  0C:282B4    A$httpd-param$1857
  0C:282B5    A$httpd-param$1858
  0C:282B6    A$httpd-param$1859
  0C:282B7    A$httpd-param$1860
  0C:282B8    A$httpd-param$1861
  0C:282B9    A$httpd-param$1862
  0C:282BA    A$httpd-param$1863
  0C:282BC    A$httpd-param$1864
  0C:282BE    A$httpd-param$1865
  0C:282C0    A$httpd-param$1866
  0C:282C3    A$httpd-param$1867
  0C:282C5    A$httpd-param$1868
  0C:282C8    A$httpd-param$1869
  0C:282CA    A$httpd-param$1870
  0C:282CC    A$httpd-param$1871
  0C:282CF    A$httpd-param$1875
  0C:282CF    C$httpd_param.c$240$4$5
  0C:282D2    A$httpd-param$1876
  0C:282D3    A$httpd-param$1877
  0C:282D4    A$httpd-param$1878
  0C:282D5    A$httpd-param$1879
  0C:282D6    A$httpd-param$1880
  0C:282D7    A$httpd-param$1881
  0C:282DA    A$httpd-param$1882
  0C:282DB    A$httpd-param$1883
  0C:282DC    A$httpd-param$1884
  0C:282DD    A$httpd-param$1885
  0C:282DE    A$httpd-param$1886
  0C:282DF    A$httpd-param$1887
  0C:282E2    A$httpd-param$1888
  0C:282E5    A$httpd-param$1889
  0C:282E7    A$httpd-param$1890
  0C:282EA    A$httpd-param$1891
  0C:282ED    A$httpd-param$1892
  0C:282EE    A$httpd-param$1893
  0C:282EF    A$httpd-param$1894
  0C:282F1    A$httpd-param$1895
  0C:282F2    A$httpd-param$1896
  0C:282F5    A$httpd-param$1900
  0C:282F5    C$httpd_param.c$243$3$6
  0C:282F8    A$httpd-param$1901
  0C:282F9    A$httpd-param$1902
  0C:282FA    A$httpd-param$1903
  0C:282FB    A$httpd-param$1904
  0C:282FC    A$httpd-param$1905
  0C:282FD    A$httpd-param$1906
  0C:28300    A$httpd-param$1907
  0C:28301    A$httpd-param$1908
  0C:28302    A$httpd-param$1909
  0C:28303    A$httpd-param$1910
  0C:28304    A$httpd-param$1911
  0C:28305    A$httpd-param$1912
  0C:28308    A$httpd-param$1913
  0C:2830A    A$httpd-param$1914
  0C:2830C    A$httpd-param$1915
  0C:2830E    A$httpd-param$1916
  0C:28310    A$httpd-param$1917
  0C:28313    A$httpd-param$1918
  0C:28315    A$httpd-param$1919
  0C:28317    A$httpd-param$1920
  0C:28319    A$httpd-param$1921
  0C:2831B    A$httpd-param$1922
  0C:2831D    A$httpd-param$1923
  0C:2831F    A$httpd-param$1924
  0C:28320    A$httpd-param$1925
  0C:28321    A$httpd-param$1926
  0C:28323    A$httpd-param$1927
  0C:28324    A$httpd-param$1928
  0C:28325    A$httpd-param$1929
  0C:28327    A$httpd-param$1930
  0C:28328    A$httpd-param$1931
  0C:28329    A$httpd-param$1932
  0C:2832B    A$httpd-param$1933
  0C:2832C    A$httpd-param$1934
  0C:2832F    A$httpd-param$1935
  0C:28330    A$httpd-param$1936
  0C:28331    A$httpd-param$1937
  0C:28332    A$httpd-param$1938
  0C:28333    A$httpd-param$1939
  0C:28334    A$httpd-param$1940
  0C:28335    A$httpd-param$1941
  0C:28336    A$httpd-param$1944
  0C:28336    C$httpd_param.c$244$3$6
  0C:28339    A$httpd-param$1945
  0C:2833B    A$httpd-param$1946
  0C:2833C    A$httpd-param$1947
  0C:2833D    A$httpd-param$1948
  0C:2833E    A$httpd-param$1949
  0C:2833F    A$httpd-param$1950
  0C:28340    A$httpd-param$1951
  0C:28341    A$httpd-param$1952
  0C:28342    A$httpd-param$1953
  0C:28343    A$httpd-param$1954
  0C:28344    A$httpd-param$1955
  0C:28347    A$httpd-param$1959
  0C:28347    C$httpd_param.c$248$1$1
  0C:2834A    A$httpd-param$1960
  0C:2834B    A$httpd-param$1961
  0C:2834C    A$httpd-param$1962
  0C:2834E    A$httpd-param$1965
  0C:2834E    C$httpd_param.c$249$1$1
  0C:28351    A$httpd-param$1966
  0C:28352    A$httpd-param$1967
  0C:28353    A$httpd-param$1968
  0C:28354    A$httpd-param$1969
  0C:28355    A$httpd-param$1970
  0C:28356    A$httpd-param$1971
  0C:28359    A$httpd-param$1972
  0C:2835A    A$httpd-param$1973
  0C:2835B    A$httpd-param$1974
  0C:2835C    A$httpd-param$1975
  0C:2835D    A$httpd-param$1976
  0C:2835E    A$httpd-param$1977
  0C:28361    A$httpd-param$1978
  0C:28362    A$httpd-param$1979
  0C:28363    A$httpd-param$1980
  0C:28364    A$httpd-param$1981
  0C:28365    A$httpd-param$1982
  0C:28366    A$httpd-param$1983
  0C:28368    A$httpd-param$1984
  0C:2836A    A$httpd-param$1985
  0C:2836D    A$httpd-param$1989
  0C:2836D    C$httpd_param.c$251$1$1
  0C:28370    A$httpd-param$1990
  0C:28371    A$httpd-param$1991
  0C:28372    A$httpd-param$1992
  0C:28373    A$httpd-param$1993
  0C:28374    A$httpd-param$1994
  0C:28375    A$httpd-param$1995
  0C:28378    A$httpd-param$1996
  0C:28379    A$httpd-param$1997
  0C:2837A    A$httpd-param$1998
  0C:2837B    A$httpd-param$1999
  0C:2837C    A$httpd-param$2000
  0C:2837D    A$httpd-param$2001
  0C:28380    A$httpd-param$2002
  0C:28383    A$httpd-param$2003
  0C:28385    A$httpd-param$2004
  0C:28387    A$httpd-param$2005
  0C:2838A    A$httpd-param$2006
  0C:2838B    A$httpd-param$2007
  0C:2838C    A$httpd-param$2008
  0C:2838D    A$httpd-param$2009
  0C:2838E    A$httpd-param$2010
  0C:2838F    A$httpd-param$2011
  0C:28392    A$httpd-param$2012
  0C:28393    A$httpd-param$2013
  0C:28394    A$httpd-param$2014
  0C:28395    A$httpd-param$2015
  0C:28396    A$httpd-param$2016
  0C:28397    A$httpd-param$2017
  0C:28399    A$httpd-param$2018
  0C:2839B    A$httpd-param$2021
  0C:2839B    C$httpd_param.c$252$1$1
  0C:2839B    XFhttpd_param$parse_temp$0$0
  0C:2839E    A$httpd-param$2036
  0C:2839E    C$httpd_param.c$254$1$1
  0C:2839E    C$httpd_param.c$256$1$1
  0C:2839E    Fhttpd_param$set_clear$0$0
  0C:283A1    A$httpd-param$2037
  0C:283A3    A$httpd-param$2038
  0C:283A5    A$httpd-param$2039
  0C:283A7    A$httpd-param$2042
  0C:283A7    C$httpd_param.c$257$1$1
  0C:283AA    A$httpd-param$2043
  0C:283AC    A$httpd-param$2044
  0C:283AD    A$httpd-param$2045
  0C:283AE    A$httpd-param$2046
  0C:283B0    A$httpd-param$2047
  0C:283B1    A$httpd-param$2048
  0C:283B2    A$httpd-param$2049
  0C:283B4    A$httpd-param$2050
  0C:283B5    A$httpd-param$2051
  0C:283B8    A$httpd-param$2052
  0C:283BA    A$httpd-param$2053
  0C:283BB    A$httpd-param$2054
  0C:283BC    A$httpd-param$2055
  0C:283BD    A$httpd-param$2056
  0C:283BE    A$httpd-param$2057
  0C:283C0    A$httpd-param$2058
  0C:283C2    A$httpd-param$2059
  0C:283C4    A$httpd-param$2060
  0C:283C6    A$httpd-param$2061
  0C:283C8    A$httpd-param$2062
  0C:283CA    A$httpd-param$2063
  0C:283CD    A$httpd-param$2064
  0C:283CF    A$httpd-param$2065
  0C:283D2    A$httpd-param$2066
  0C:283D4    A$httpd-param$2067
  0C:283D6    A$httpd-param$2068
  0C:283D8    A$httpd-param$2069
  0C:283DA    A$httpd-param$2070
  0C:283DC    A$httpd-param$2073
  0C:283DC    C$httpd_param.c$258$2$2
  0C:283DF    A$httpd-param$2080
  0C:283DF    C$httpd_param.c$259$2$2
  0C:283DF    C$httpd_param.c$260$2$2
  0C:283DF    C$httpd_param.c$261$2$2
  0C:283E0    A$httpd-param$2081
  0C:283E1    A$httpd-param$2082
  0C:283E4    A$httpd-param$2083
  0C:283E5    A$httpd-param$2084
  0C:283E8    A$httpd-param$2085
  0C:283E9    A$httpd-param$2086
  0C:283EC    A$httpd-param$2087
  0C:283ED    A$httpd-param$2088
  0C:283EE    A$httpd-param$2092
  0C:283EE    C$httpd_param.c$262$1$1
  0C:283F1    A$httpd-param$2093
  0C:283F3    A$httpd-param$2094
  0C:283F4    A$httpd-param$2095
  0C:283F5    A$httpd-param$2096
  0C:283F7    A$httpd-param$2097
  0C:283F8    A$httpd-param$2098
  0C:283F9    A$httpd-param$2099
  0C:283FB    A$httpd-param$2100
  0C:283FC    A$httpd-param$2101
  0C:283FF    A$httpd-param$2102
  0C:28401    A$httpd-param$2103
  0C:28402    A$httpd-param$2104
  0C:28403    A$httpd-param$2105
  0C:28404    A$httpd-param$2106
  0C:28405    A$httpd-param$2107
  0C:28407    A$httpd-param$2108
  0C:28409    A$httpd-param$2109
  0C:2840B    A$httpd-param$2110
  0C:2840E    A$httpd-param$2111
  0C:28410    A$httpd-param$2112
  0C:28413    A$httpd-param$2113
  0C:28415    A$httpd-param$2114
  0C:28417    A$httpd-param$2117
  0C:28417    C$httpd_param.c$263$2$3
  0C:2841A    A$httpd-param$2118
  0C:2841B    A$httpd-param$2119
  0C:2841C    A$httpd-param$2123
  0C:2841C    C$httpd_param.c$265$2$1
  0C:2841C    XFhttpd_param$set_clear$0$0
  0C:2841D    A$httpd-param$2138
  0C:2841D    C$httpd_param.c$267$2$1
  0C:2841D    C$httpd_param.c$269$1$1
  0C:2841D    Fhttpd_param$set_elcost$0$0
  0C:28420    A$httpd-param$2141
  0C:28420    C$httpd_param.c$272$1$1
  0C:28423    A$httpd-param$2142
  0C:28425    A$httpd-param$2143
  0C:28427    A$httpd-param$2144
  0C:2842A    A$httpd-param$2145
  0C:2842B    A$httpd-param$2146
  0C:2842C    A$httpd-param$2147
  0C:2842D    A$httpd-param$2148
  0C:2842E    A$httpd-param$2149
  0C:2842F    A$httpd-param$2152
  0C:2842F    C$httpd_param.c$273$1$1
  0C:2842F    XFhttpd_param$set_elcost$0$0
  0C:28430    A$httpd-param$2167
  0C:28430    C$httpd_param.c$275$1$1
  0C:28430    C$httpd_param.c$278$1$1
  0C:28430    Fhttpd_param$set_h_on$0$0
  0C:28433    A$httpd-param$2168
  0C:28435    A$httpd-param$2169
  0C:28436    A$httpd-param$2172
  0C:28436    C$httpd_param.c$279$1$1
  0C:28436    XFhttpd_param$set_h_on$0$0
  0C:28437    A$httpd-param$2187
  0C:28437    C$httpd_param.c$281$1$1
  0C:28437    C$httpd_param.c$283$1$1
  0C:28437    Fhttpd_param$set_min$0$0
  0C:2843A    A$httpd-param$2190
  0C:2843A    C$httpd_param.c$284$1$1
  0C:2843D    A$httpd-param$2191
  0C:2843F    A$httpd-param$2192
  0C:28441    A$httpd-param$2193
  0C:28444    A$httpd-param$2194
  0C:28445    A$httpd-param$2195
  0C:28446    A$httpd-param$2196
  0C:28447    A$httpd-param$2197
  0C:28448    A$httpd-param$2198
  0C:28449    A$httpd-param$2201
  0C:28449    C$httpd_param.c$285$1$1
  0C:28449    XFhttpd_param$set_min$0$0
  0C:2844A    A$httpd-param$2216
  0C:2844A    C$httpd_param.c$287$1$1
  0C:2844A    C$httpd_param.c$290$1$1
  0C:2844A    Fhttpd_param$set_f_on$0$0
  0C:2844D    A$httpd-param$2217
  0C:2844F    A$httpd-param$2218
  0C:28450    A$httpd-param$2221
  0C:28450    C$httpd_param.c$291$1$1
  0C:28450    XFhttpd_param$set_f_on$0$0
  0C:28451    A$httpd-param$2236
  0C:28451    C$httpd_param.c$293$1$1
  0C:28451    C$httpd_param.c$295$1$1
  0C:28451    Fhttpd_param$set_max$0$0
  0C:28454    A$httpd-param$2239
  0C:28454    C$httpd_param.c$296$1$1
  0C:28457    A$httpd-param$2240
  0C:28459    A$httpd-param$2241
  0C:2845B    A$httpd-param$2242
  0C:2845E    A$httpd-param$2243
  0C:2845F    A$httpd-param$2244
  0C:28460    A$httpd-param$2245
  0C:28461    A$httpd-param$2246
  0C:28462    A$httpd-param$2247
  0C:28463    A$httpd-param$2250
  0C:28463    C$httpd_param.c$297$1$1
  0C:28463    XFhttpd_param$set_max$0$0
  0C:28464    A$httpd-param$2265
  0C:28464    C$httpd_param.c$299$1$1
  0C:28464    C$httpd_param.c$301$1$1
  0C:28464    Fhttpd_param$set_thresh$0$0
  0C:28467    A$httpd-param$2268
  0C:28467    C$httpd_param.c$302$1$1
  0C:2846A    A$httpd-param$2269
  0C:2846C    A$httpd-param$2270
  0C:2846E    A$httpd-param$2271
  0C:28471    A$httpd-param$2272
  0C:28472    A$httpd-param$2273
  0C:28473    A$httpd-param$2274
  0C:28474    A$httpd-param$2275
  0C:28475    A$httpd-param$2276
  0C:28476    A$httpd-param$2279
  0C:28476    C$httpd_param.c$303$1$1
  0C:28476    XFhttpd_param$set_thresh$0$0
  0C:28477    A$httpd-param$2294
  0C:28477    C$httpd_param.c$305$1$1
  0C:28477    C$httpd_param.c$308$1$1
  0C:28477    Fhttpd_param$set_min_enable$0$0
  0C:2847A    A$httpd-param$2295
  0C:2847C    A$httpd-param$2296
  0C:2847D    A$httpd-param$2299
  0C:2847D    C$httpd_param.c$309$1$1
  0C:2847D    XFhttpd_param$set_min_enable$0$0
  0C:2847E    A$httpd-param$2314
  0C:2847E    C$httpd_param.c$311$1$1
  0C:2847E    C$httpd_param.c$313$1$1
  0C:2847E    Fhttpd_param$set_min_larm$0$0
  0C:28481    A$httpd-param$2317
  0C:28481    C$httpd_param.c$314$1$1
  0C:28484    A$httpd-param$2318
  0C:28486    A$httpd-param$2319
  0C:28488    A$httpd-param$2320
  0C:2848B    A$httpd-param$2321
  0C:2848C    A$httpd-param$2322
  0C:2848D    A$httpd-param$2323
  0C:2848E    A$httpd-param$2324
  0C:2848F    A$httpd-param$2325
  0C:28490    A$httpd-param$2328
  0C:28490    C$httpd_param.c$315$1$1
  0C:28490    XFhttpd_param$set_min_larm$0$0
  0C:28491    A$httpd-param$2343
  0C:28491    C$httpd_param.c$317$1$1
  0C:28491    C$httpd_param.c$320$1$1
  0C:28491    Fhttpd_param$set_max_enable$0$0
  0C:28494    A$httpd-param$2344
  0C:28496    A$httpd-param$2345
  0C:28497    A$httpd-param$2348
  0C:28497    C$httpd_param.c$321$1$1
  0C:28497    XFhttpd_param$set_max_enable$0$0
  0C:28498    A$httpd-param$2363
  0C:28498    C$httpd_param.c$323$1$1
  0C:28498    C$httpd_param.c$325$1$1
  0C:28498    Fhttpd_param$set_max_larm$0$0
  0C:2849B    A$httpd-param$2366
  0C:2849B    C$httpd_param.c$326$1$1
  0C:2849E    A$httpd-param$2367
  0C:284A0    A$httpd-param$2368
  0C:284A2    A$httpd-param$2369
  0C:284A5    A$httpd-param$2370
  0C:284A6    A$httpd-param$2371
  0C:284A7    A$httpd-param$2372
  0C:284A8    A$httpd-param$2373
  0C:284A9    A$httpd-param$2374
  0C:284AA    A$httpd-param$2377
  0C:284AA    C$httpd_param.c$327$1$1
  0C:284AA    XFhttpd_param$set_max_larm$0$0
  0C:284AB    A$httpd-param$2392
  0C:284AB    C$httpd_param.c$329$1$1
  0C:284AB    C$httpd_param.c$331$1$1
  0C:284AB    Fhttpd_param$set_node$0$0
  0C:284AE    A$httpd-param$2393
  0C:284B0    A$httpd-param$2394
  0C:284B2    A$httpd-param$2395
  0C:284B4    A$httpd-param$2398
  0C:284B4    C$httpd_param.c$333$1$1
  0C:284B7    A$httpd-param$2399
  0C:284B8    A$httpd-param$2400
  0C:284B9    A$httpd-param$2401
  0C:284BC    A$httpd-param$2402
  0C:284BE    A$httpd-param$2403
  0C:284BF    A$httpd-param$2404
  0C:284C0    A$httpd-param$2405
  0C:284C1    A$httpd-param$2406
  0C:284C2    A$httpd-param$2407
  0C:284C5    A$httpd-param$2408
  0C:284C8    A$httpd-param$2409
  0C:284CA    A$httpd-param$2410
  0C:284CC    A$httpd-param$2411
  0C:284CE    A$httpd-param$2412
  0C:284D1    A$httpd-param$2413
  0C:284D3    A$httpd-param$2414
  0C:284D5    A$httpd-param$2415
  0C:284D7    A$httpd-param$2418
  0C:284D7    C$httpd_param.c$334$1$1
  0C:284DA    A$httpd-param$2419
  0C:284DB    A$httpd-param$2420
  0C:284DC    A$httpd-param$2421
  0C:284DD    A$httpd-param$2422
  0C:284DE    A$httpd-param$2423
  0C:284DF    A$httpd-param$2424
  0C:284E0    A$httpd-param$2425
  0C:284E1    A$httpd-param$2426
  0C:284E2    A$httpd-param$2427
  0C:284E5    A$httpd-param$2428
  0C:284E7    A$httpd-param$2429
  0C:284E8    A$httpd-param$2430
  0C:284E9    A$httpd-param$2431
  0C:284EA    A$httpd-param$2432
  0C:284EB    A$httpd-param$2433
  0C:284EE    A$httpd-param$2434
  0C:284F1    A$httpd-param$2437
  0C:284F1    C$httpd_param.c$335$1$1
  0C:284F1    XFhttpd_param$set_node$0$0
  0C:284F4    A$httpd-param$2451
  0C:284F4    C$httpd_param.c$337$1$1
  0C:284F4    Fhttpd_param$set_ip$0$0
  0C:284F6    A$httpd-param$2452
  0C:284F8    A$httpd-param$2453
  0C:284FA    A$httpd-param$2454
  0C:284FC    A$httpd-param$2455
  0C:284FE    A$httpd-param$2456
  0C:28500    A$httpd-param$2457
  0C:28502    A$httpd-param$2458
  0C:28504    A$httpd-param$2461
  0C:28504    C$httpd_param.c$342$1$1
  0C:28506    A$httpd-param$2462
  0C:28507    A$httpd-param$2463
  0C:2850A    A$httpd-param$2464
  0C:2850B    A$httpd-param$2465
  0C:2850C    A$httpd-param$2466
  0C:2850D    A$httpd-param$2467
  0C:2850E    A$httpd-param$2468
  0C:2850F    A$httpd-param$2469
  0C:28510    A$httpd-param$2470
  0C:28512    A$httpd-param$2471
  0C:28513    A$httpd-param$2472
  0C:28515    A$httpd-param$2473
  0C:28517    A$httpd-param$2474
  0C:28519    A$httpd-param$2475
  0C:2851C    A$httpd-param$2478
  0C:2851C    C$httpd_param.c$345$1$1
  0C:2851E    A$httpd-param$2479
  0C:2851F    A$httpd-param$2480
  0C:28521    A$httpd-param$2481
  0C:28522    A$httpd-param$2482
  0C:28524    A$httpd-param$2483
  0C:28526    A$httpd-param$2484
  0C:28528    A$httpd-param$2485
  0C:2852A    A$httpd-param$2486
  0C:2852C    A$httpd-param$2487
  0C:2852E    A$httpd-param$2488
  0C:28531    A$httpd-param$2489
  0C:28533    A$httpd-param$2490
  0C:28535    A$httpd-param$2491
  0C:28538    A$httpd-param$2492
  0C:28539    A$httpd-param$2493
  0C:2853A    A$httpd-param$2496
  0C:2853A    C$httpd_param.c$346$1$1
  0C:2853C    A$httpd-param$2497
  0C:2853D    A$httpd-param$2498
  0C:2853F    A$httpd-param$2499
  0C:28540    A$httpd-param$2500
  0C:28542    A$httpd-param$2501
  0C:28544    A$httpd-param$2502
  0C:28546    A$httpd-param$2503
  0C:28548    A$httpd-param$2504
  0C:2854A    A$httpd-param$2505
  0C:2854C    A$httpd-param$2506
  0C:2854F    A$httpd-param$2507
  0C:28551    A$httpd-param$2508
  0C:28554    A$httpd-param$2509
  0C:28555    A$httpd-param$2510
  0C:28558    A$httpd-param$2511
  0C:28559    A$httpd-param$2512
  0C:2855A    A$httpd-param$2515
  0C:2855A    C$httpd_param.c$347$1$1
  0C:2855C    A$httpd-param$2516
  0C:2855D    A$httpd-param$2517
  0C:2855F    A$httpd-param$2518
  0C:28560    A$httpd-param$2519
  0C:28561    A$httpd-param$2520
  0C:28563    A$httpd-param$2521
  0C:28564    A$httpd-param$2522
  0C:28566    A$httpd-param$2523
  0C:28568    A$httpd-param$2524
  0C:2856A    A$httpd-param$2525
  0C:2856C    A$httpd-param$2526
  0C:2856E    A$httpd-param$2527
  0C:28570    A$httpd-param$2528
  0C:28573    A$httpd-param$2529
  0C:28575    A$httpd-param$2530
  0C:28577    A$httpd-param$2531
  0C:2857A    A$httpd-param$2532
  0C:2857B    A$httpd-param$2533
  0C:2857C    A$httpd-param$2536
  0C:2857C    C$httpd_param.c$348$1$1
  0C:2857E    A$httpd-param$2537
  0C:2857F    A$httpd-param$2538
  0C:28581    A$httpd-param$2539
  0C:28582    A$httpd-param$2540
  0C:28583    A$httpd-param$2541
  0C:28585    A$httpd-param$2542
  0C:28586    A$httpd-param$2543
  0C:28588    A$httpd-param$2544
  0C:2858A    A$httpd-param$2545
  0C:2858C    A$httpd-param$2546
  0C:2858E    A$httpd-param$2547
  0C:28590    A$httpd-param$2548
  0C:28592    A$httpd-param$2549
  0C:28595    A$httpd-param$2550
  0C:28597    A$httpd-param$2551
  0C:2859A    A$httpd-param$2552
  0C:2859B    A$httpd-param$2553
  0C:2859E    A$httpd-param$2554
  0C:2859F    A$httpd-param$2555
  0C:285A0    A$httpd-param$2556
  0C:285A3    A$httpd-param$2557
  0C:285A5    A$httpd-param$2560
  0C:285A5    C$httpd_param.c$350$1$1
  0C:285A5    XFhttpd_param$set_ip$0$0
  0C:285A6    A$httpd-param$2574
  0C:285A6    C$httpd_param.c$352$1$1
  0C:285A6    Fhttpd_param$set_netmask$0$0
  0C:285A8    A$httpd-param$2575
  0C:285AA    A$httpd-param$2576
  0C:285AC    A$httpd-param$2577
  0C:285AE    A$httpd-param$2578
  0C:285B0    A$httpd-param$2579
  0C:285B2    A$httpd-param$2580
  0C:285B4    A$httpd-param$2581
  0C:285B6    A$httpd-param$2584
  0C:285B6    C$httpd_param.c$356$1$1
  0C:285B8    A$httpd-param$2585
  0C:285B9    A$httpd-param$2586
  0C:285BC    A$httpd-param$2587
  0C:285BD    A$httpd-param$2588
  0C:285BE    A$httpd-param$2589
  0C:285BF    A$httpd-param$2590
  0C:285C0    A$httpd-param$2591
  0C:285C1    A$httpd-param$2592
  0C:285C2    A$httpd-param$2593
  0C:285C4    A$httpd-param$2594
  0C:285C5    A$httpd-param$2595
  0C:285C7    A$httpd-param$2596
  0C:285C9    A$httpd-param$2597
  0C:285CB    A$httpd-param$2598
  0C:285CE    A$httpd-param$2601
  0C:285CE    C$httpd_param.c$359$1$1
  0C:285D0    A$httpd-param$2602
  0C:285D1    A$httpd-param$2603
  0C:285D3    A$httpd-param$2604
  0C:285D4    A$httpd-param$2605
  0C:285D6    A$httpd-param$2606
  0C:285D8    A$httpd-param$2607
  0C:285DA    A$httpd-param$2608
  0C:285DC    A$httpd-param$2609
  0C:285DE    A$httpd-param$2610
  0C:285E0    A$httpd-param$2611
  0C:285E3    A$httpd-param$2612
  0C:285E5    A$httpd-param$2613
  0C:285E7    A$httpd-param$2614
  0C:285EA    A$httpd-param$2615
  0C:285EB    A$httpd-param$2616
  0C:285EC    A$httpd-param$2619
  0C:285EC    C$httpd_param.c$360$1$1
  0C:285EE    A$httpd-param$2620
  0C:285EF    A$httpd-param$2621
  0C:285F1    A$httpd-param$2622
  0C:285F2    A$httpd-param$2623
  0C:285F4    A$httpd-param$2624
  0C:285F6    A$httpd-param$2625
  0C:285F8    A$httpd-param$2626
  0C:285FA    A$httpd-param$2627
  0C:285FC    A$httpd-param$2628
  0C:285FE    A$httpd-param$2629
  0C:28601    A$httpd-param$2630
  0C:28603    A$httpd-param$2631
  0C:28606    A$httpd-param$2632
  0C:28607    A$httpd-param$2633
  0C:2860A    A$httpd-param$2634
  0C:2860B    A$httpd-param$2635
  0C:2860C    A$httpd-param$2638
  0C:2860C    C$httpd_param.c$361$1$1
  0C:2860E    A$httpd-param$2639
  0C:2860F    A$httpd-param$2640
  0C:28611    A$httpd-param$2641
  0C:28612    A$httpd-param$2642
  0C:28613    A$httpd-param$2643
  0C:28615    A$httpd-param$2644
  0C:28616    A$httpd-param$2645
  0C:28618    A$httpd-param$2646
  0C:2861A    A$httpd-param$2647
  0C:2861C    A$httpd-param$2648
  0C:2861E    A$httpd-param$2649
  0C:28620    A$httpd-param$2650
  0C:28622    A$httpd-param$2651
  0C:28625    A$httpd-param$2652
  0C:28627    A$httpd-param$2653
  0C:28629    A$httpd-param$2654
  0C:2862C    A$httpd-param$2655
  0C:2862D    A$httpd-param$2656
  0C:2862E    A$httpd-param$2659
  0C:2862E    C$httpd_param.c$362$1$1
  0C:28630    A$httpd-param$2660
  0C:28631    A$httpd-param$2661
  0C:28633    A$httpd-param$2662
  0C:28634    A$httpd-param$2663
  0C:28635    A$httpd-param$2664
  0C:28637    A$httpd-param$2665
  0C:28638    A$httpd-param$2666
  0C:2863A    A$httpd-param$2667
  0C:2863C    A$httpd-param$2668
  0C:2863E    A$httpd-param$2669
  0C:28640    A$httpd-param$2670
  0C:28642    A$httpd-param$2671
  0C:28644    A$httpd-param$2672
  0C:28647    A$httpd-param$2673
  0C:28649    A$httpd-param$2674
  0C:2864C    A$httpd-param$2675
  0C:2864D    A$httpd-param$2676
  0C:28650    A$httpd-param$2677
  0C:28651    A$httpd-param$2678
  0C:28652    A$httpd-param$2679
  0C:28655    A$httpd-param$2680
  0C:28657    A$httpd-param$2683
  0C:28657    C$httpd_param.c$363$1$1
  0C:28657    XFhttpd_param$set_netmask$0$0
  0C:28658    A$httpd-param$2697
  0C:28658    C$httpd_param.c$365$1$1
  0C:28658    Fhttpd_param$set_gateway$0$0
  0C:2865A    A$httpd-param$2698
  0C:2865C    A$httpd-param$2699
  0C:2865E    A$httpd-param$2700
  0C:28660    A$httpd-param$2701
  0C:28662    A$httpd-param$2702
  0C:28664    A$httpd-param$2703
  0C:28666    A$httpd-param$2704
  0C:28668    A$httpd-param$2707
  0C:28668    C$httpd_param.c$369$1$1
  0C:2866A    A$httpd-param$2708
  0C:2866B    A$httpd-param$2709
  0C:2866E    A$httpd-param$2710
  0C:2866F    A$httpd-param$2711
  0C:28670    A$httpd-param$2712
  0C:28671    A$httpd-param$2713
  0C:28672    A$httpd-param$2714
  0C:28673    A$httpd-param$2715
  0C:28674    A$httpd-param$2716
  0C:28676    A$httpd-param$2717
  0C:28677    A$httpd-param$2718
  0C:28679    A$httpd-param$2719
  0C:2867B    A$httpd-param$2720
  0C:2867D    A$httpd-param$2721
  0C:28680    A$httpd-param$2724
  0C:28680    C$httpd_param.c$372$1$1
  0C:28682    A$httpd-param$2725
  0C:28683    A$httpd-param$2726
  0C:28685    A$httpd-param$2727
  0C:28686    A$httpd-param$2728
  0C:28688    A$httpd-param$2729
  0C:2868A    A$httpd-param$2730
  0C:2868C    A$httpd-param$2731
  0C:2868E    A$httpd-param$2732
  0C:28690    A$httpd-param$2733
  0C:28692    A$httpd-param$2734
  0C:28695    A$httpd-param$2735
  0C:28697    A$httpd-param$2736
  0C:28699    A$httpd-param$2737
  0C:2869C    A$httpd-param$2738
  0C:2869D    A$httpd-param$2739
  0C:2869E    A$httpd-param$2742
  0C:2869E    C$httpd_param.c$373$1$1
  0C:286A0    A$httpd-param$2743
  0C:286A1    A$httpd-param$2744
  0C:286A3    A$httpd-param$2745
  0C:286A4    A$httpd-param$2746
  0C:286A6    A$httpd-param$2747
  0C:286A8    A$httpd-param$2748
  0C:286AA    A$httpd-param$2749
  0C:286AC    A$httpd-param$2750
  0C:286AE    A$httpd-param$2751
  0C:286B0    A$httpd-param$2752
  0C:286B3    A$httpd-param$2753
  0C:286B5    A$httpd-param$2754
  0C:286B8    A$httpd-param$2755
  0C:286B9    A$httpd-param$2756
  0C:286BC    A$httpd-param$2757
  0C:286BD    A$httpd-param$2758
  0C:286BE    A$httpd-param$2761
  0C:286BE    C$httpd_param.c$374$1$1
  0C:286C0    A$httpd-param$2762
  0C:286C1    A$httpd-param$2763
  0C:286C3    A$httpd-param$2764
  0C:286C4    A$httpd-param$2765
  0C:286C5    A$httpd-param$2766
  0C:286C7    A$httpd-param$2767
  0C:286C8    A$httpd-param$2768
  0C:286CA    A$httpd-param$2769
  0C:286CC    A$httpd-param$2770
  0C:286CE    A$httpd-param$2771
  0C:286D0    A$httpd-param$2772
  0C:286D2    A$httpd-param$2773
  0C:286D4    A$httpd-param$2774
  0C:286D7    A$httpd-param$2775
  0C:286D9    A$httpd-param$2776
  0C:286DB    A$httpd-param$2777
  0C:286DE    A$httpd-param$2778
  0C:286DF    A$httpd-param$2779
  0C:286E0    A$httpd-param$2782
  0C:286E0    C$httpd_param.c$375$1$1
  0C:286E2    A$httpd-param$2783
  0C:286E3    A$httpd-param$2784
  0C:286E5    A$httpd-param$2785
  0C:286E6    A$httpd-param$2786
  0C:286E7    A$httpd-param$2787
  0C:286E9    A$httpd-param$2788
  0C:286EA    A$httpd-param$2789
  0C:286EC    A$httpd-param$2790
  0C:286EE    A$httpd-param$2791
  0C:286F0    A$httpd-param$2792
  0C:286F2    A$httpd-param$2793
  0C:286F4    A$httpd-param$2794
  0C:286F6    A$httpd-param$2795
  0C:286F9    A$httpd-param$2796
  0C:286FB    A$httpd-param$2797
  0C:286FE    A$httpd-param$2798
  0C:286FF    A$httpd-param$2799
  0C:28702    A$httpd-param$2800
  0C:28703    A$httpd-param$2801
  0C:28704    A$httpd-param$2804
  0C:28704    C$httpd_param.c$379$1$1
  0C:28706    A$httpd-param$2805
  0C:28709    A$httpd-param$2806
  0C:2870B    A$httpd-param$2809
  0C:2870B    C$httpd_param.c$380$1$1
  0C:2870B    XFhttpd_param$set_gateway$0$0
  0C:2870C    A$httpd-param$2825
  0C:2870C    C$httpd_param.c$382$1$1
  0C:2870C    C$httpd_param.c$386$1$1
  0C:2870C    Fhttpd_param$set_webport$0$0
  0C:2870F    A$httpd-param$2828
  0C:2870F    C$httpd_param.c$387$1$1
  0C:28712    A$httpd-param$2829
  0C:28714    A$httpd-param$2830
  0C:28716    A$httpd-param$2833
  0C:28716    C$httpd_param.c$389$1$1
  0C:28719    A$httpd-param$2834
  0C:2871A    A$httpd-param$2835
  0C:2871B    A$httpd-param$2836
  0C:2871C    A$httpd-param$2837
  0C:2871D    A$httpd-param$2838
  0C:2871E    A$httpd-param$2841
  0C:2871E    C$httpd_param.c$390$1$1
  0C:2871E    XFhttpd_param$set_webport$0$0
  0C:2871F    A$httpd-param$2855
  0C:2871F    C$httpd_param.c$392$1$1
  0C:2871F    Fhttpd_param$set_smtp$0$0
  0C:28721    A$httpd-param$2856
  0C:28723    A$httpd-param$2857
  0C:28725    A$httpd-param$2858
  0C:28727    A$httpd-param$2859
  0C:28729    A$httpd-param$2860
  0C:2872B    A$httpd-param$2861
  0C:2872D    A$httpd-param$2862
  0C:2872F    A$httpd-param$2865
  0C:2872F    C$httpd_param.c$396$1$1
  0C:28731    A$httpd-param$2866
  0C:28732    A$httpd-param$2867
  0C:28735    A$httpd-param$2868
  0C:28736    A$httpd-param$2869
  0C:28737    A$httpd-param$2870
  0C:28738    A$httpd-param$2871
  0C:28739    A$httpd-param$2872
  0C:2873A    A$httpd-param$2873
  0C:2873B    A$httpd-param$2874
  0C:2873D    A$httpd-param$2875
  0C:2873E    A$httpd-param$2876
  0C:28740    A$httpd-param$2877
  0C:28742    A$httpd-param$2878
  0C:28744    A$httpd-param$2879
  0C:28747    A$httpd-param$2882
  0C:28747    C$httpd_param.c$399$1$1
  0C:28749    A$httpd-param$2883
  0C:2874A    A$httpd-param$2884
  0C:2874C    A$httpd-param$2885
  0C:2874D    A$httpd-param$2886
  0C:2874F    A$httpd-param$2887
  0C:28751    A$httpd-param$2888
  0C:28753    A$httpd-param$2889
  0C:28755    A$httpd-param$2890
  0C:28757    A$httpd-param$2891
  0C:28759    A$httpd-param$2892
  0C:2875C    A$httpd-param$2893
  0C:2875E    A$httpd-param$2894
  0C:28760    A$httpd-param$2895
  0C:28763    A$httpd-param$2896
  0C:28764    A$httpd-param$2897
  0C:28765    A$httpd-param$2900
  0C:28765    C$httpd_param.c$400$1$1
  0C:28767    A$httpd-param$2901
  0C:28768    A$httpd-param$2902
  0C:2876A    A$httpd-param$2903
  0C:2876B    A$httpd-param$2904
  0C:2876D    A$httpd-param$2905
  0C:2876F    A$httpd-param$2906
  0C:28771    A$httpd-param$2907
  0C:28773    A$httpd-param$2908
  0C:28775    A$httpd-param$2909
  0C:28777    A$httpd-param$2910
  0C:2877A    A$httpd-param$2911
  0C:2877C    A$httpd-param$2912
  0C:2877F    A$httpd-param$2913
  0C:28780    A$httpd-param$2914
  0C:28783    A$httpd-param$2915
  0C:28784    A$httpd-param$2916
  0C:28785    A$httpd-param$2919
  0C:28785    C$httpd_param.c$401$1$1
  0C:28787    A$httpd-param$2920
  0C:28788    A$httpd-param$2921
  0C:2878A    A$httpd-param$2922
  0C:2878B    A$httpd-param$2923
  0C:2878C    A$httpd-param$2924
  0C:2878E    A$httpd-param$2925
  0C:2878F    A$httpd-param$2926
  0C:28791    A$httpd-param$2927
  0C:28793    A$httpd-param$2928
  0C:28795    A$httpd-param$2929
  0C:28797    A$httpd-param$2930
  0C:28799    A$httpd-param$2931
  0C:2879B    A$httpd-param$2932
  0C:2879E    A$httpd-param$2933
  0C:287A0    A$httpd-param$2934
  0C:287A2    A$httpd-param$2935
  0C:287A5    A$httpd-param$2936
  0C:287A6    A$httpd-param$2937
  0C:287A7    A$httpd-param$2940
  0C:287A7    C$httpd_param.c$402$1$1
  0C:287A9    A$httpd-param$2941
  0C:287AA    A$httpd-param$2942
  0C:287AC    A$httpd-param$2943
  0C:287AD    A$httpd-param$2944
  0C:287AE    A$httpd-param$2945
  0C:287B0    A$httpd-param$2946
  0C:287B1    A$httpd-param$2947
  0C:287B3    A$httpd-param$2948
  0C:287B5    A$httpd-param$2949
  0C:287B7    A$httpd-param$2950
  0C:287B9    A$httpd-param$2951
  0C:287BB    A$httpd-param$2952
  0C:287BD    A$httpd-param$2953
  0C:287C0    A$httpd-param$2954
  0C:287C2    A$httpd-param$2955
  0C:287C5    A$httpd-param$2956
  0C:287C6    A$httpd-param$2957
  0C:287C9    A$httpd-param$2958
  0C:287CA    A$httpd-param$2959
  0C:287CB    A$httpd-param$2962
  0C:287CB    C$httpd_param.c$405$1$1
  0C:287CE    A$httpd-param$2963
  0C:287D0    A$httpd-param$2964
  0C:287D1    A$httpd-param$2965
  0C:287D2    A$httpd-param$2966
  0C:287D4    A$httpd-param$2967
  0C:287D5    A$httpd-param$2968
  0C:287D6    A$httpd-param$2969
  0C:287D7    A$httpd-param$2970
  0C:287D8    A$httpd-param$2971
  0C:287DB    A$httpd-param$2972
  0C:287DE    A$httpd-param$2973
  0C:287E1    A$httpd-param$2974
  0C:287E4    A$httpd-param$2975
  0C:287E6    A$httpd-param$2978
  0C:287E6    C$httpd_param.c$406$1$1
  0C:287E6    XFhttpd_param$set_smtp$0$0
  0C:287E7    A$httpd-param$2994
  0C:287E7    C$httpd_param.c$408$1$1
  0C:287E7    C$httpd_param.c$412$1$1
  0C:287E7    Fhttpd_param$set_smtp_port$0$0
  0C:287EA    A$httpd-param$2997
  0C:287EA    C$httpd_param.c$413$1$1
  0C:287ED    A$httpd-param$2998
  0C:287EF    A$httpd-param$2999
  0C:287F1    A$httpd-param$3002
  0C:287F1    C$httpd_param.c$415$1$1
  0C:287F4    A$httpd-param$3003
  0C:287F5    A$httpd-param$3004
  0C:287F6    A$httpd-param$3005
  0C:287F7    A$httpd-param$3006
  0C:287F8    A$httpd-param$3007
  0C:287F9    A$httpd-param$3010
  0C:287F9    C$httpd_param.c$416$1$1
  0C:287F9    XFhttpd_param$set_smtp_port$0$0
  0C:287FA    A$httpd-param$3026
  0C:287FA    C$httpd_param.c$418$1$1
  0C:287FA    C$httpd_param.c$422$1$1
  0C:287FA    Fhttpd_param$set_email$0$0
  0C:287FD    A$httpd-param$3027
  0C:287FF    A$httpd-param$3028
  0C:28801    A$httpd-param$3029
  0C:28803    A$httpd-param$3032
  0C:28803    C$httpd_param.c$425$1$1
  0C:28806    A$httpd-param$3033
  0C:28807    A$httpd-param$3034
  0C:28808    A$httpd-param$3035
  0C:2880B    A$httpd-param$3036
  0C:2880D    A$httpd-param$3037
  0C:2880E    A$httpd-param$3038
  0C:2880F    A$httpd-param$3039
  0C:28810    A$httpd-param$3040
  0C:28811    A$httpd-param$3041
  0C:28814    A$httpd-param$3042
  0C:28817    A$httpd-param$3043
  0C:28819    A$httpd-param$3044
  0C:2881B    A$httpd-param$3045
  0C:2881D    A$httpd-param$3046
  0C:28820    A$httpd-param$3047
  0C:28822    A$httpd-param$3048
  0C:28824    A$httpd-param$3049
  0C:28826    A$httpd-param$3052
  0C:28826    C$httpd_param.c$428$3$4
  0C:28828    A$httpd-param$3054
  0C:2882A    A$httpd-param$3055
  0C:2882C    A$httpd-param$3056
  0C:2882E    A$httpd-param$3057
  0C:28831    A$httpd-param$3058
  0C:28833    A$httpd-param$3059
  0C:28836    A$httpd-param$3063
  0C:28836    C$httpd_param.c$430$2$2
  0C:28838    A$httpd-param$3064
  0C:2883A    A$httpd-param$3065
  0C:2883C    A$httpd-param$3066
  0C:2883F    A$httpd-param$3067
  0C:28840    A$httpd-param$3068
  0C:28843    A$httpd-param$3071
  0C:28843    C$httpd_param.c$431$2$2
  0C:28845    A$httpd-param$3072
  0C:28846    A$httpd-param$3073
  0C:28847    A$httpd-param$3074
  0C:28848    A$httpd-param$3075
  0C:28849    A$httpd-param$3076
  0C:2884A    A$httpd-param$3077
  0C:2884C    A$httpd-param$3078
  0C:2884E    A$httpd-param$3079
  0C:28850    A$httpd-param$3080
  0C:28852    A$httpd-param$3081
  0C:28855    A$httpd-param$3082
  0C:28856    A$httpd-param$3083
  0C:28859    A$httpd-param$3086
  0C:28859    C$httpd_param.c$432$2$2
  0C:2885B    A$httpd-param$3087
  0C:2885C    A$httpd-param$3088
  0C:2885D    A$httpd-param$3089
  0C:2885E    A$httpd-param$3090
  0C:2885F    A$httpd-param$3091
  0C:28860    A$httpd-param$3092
  0C:28862    A$httpd-param$3093
  0C:28864    A$httpd-param$3094
  0C:28866    A$httpd-param$3095
  0C:28868    A$httpd-param$3096
  0C:2886B    A$httpd-param$3097
  0C:2886C    A$httpd-param$3098
  0C:2886F    A$httpd-param$3101
  0C:2886F    C$httpd_param.c$434$3$3
  0C:28871    A$httpd-param$3102
  0C:28872    A$httpd-param$3103
  0C:28873    A$httpd-param$3104
  0C:28874    A$httpd-param$3105
  0C:28875    A$httpd-param$3106
  0C:28876    A$httpd-param$3109
  0C:28876    C$httpd_param.c$435$3$3
  0C:28877    A$httpd-param$3110
  0C:28879    A$httpd-param$3111
  0C:2887B    A$httpd-param$3112
  0C:2887C    A$httpd-param$3113
  0C:2887E    A$httpd-param$3114
  0C:28880    A$httpd-param$3115
  0C:28882    A$httpd-param$3116
  0C:28883    A$httpd-param$3117
  0C:28885    A$httpd-param$3121
  0C:28885    C$httpd_param.c$439$3$4
  0C:28886    A$httpd-param$3122
  0C:28888    A$httpd-param$3123
  0C:28889    A$httpd-param$3124
  0C:2888A    A$httpd-param$3125
  0C:2888C    A$httpd-param$3126
  0C:2888D    A$httpd-param$3127
  0C:2888F    A$httpd-param$3128
  0C:28891    A$httpd-param$3129
  0C:28893    A$httpd-param$3130
  0C:28896    A$httpd-param$3131
  0C:28897    A$httpd-param$3132
  0C:28898    A$httpd-param$3133
  0C:2889A    A$httpd-param$3134
  0C:2889C    A$httpd-param$3135
  0C:2889E    A$httpd-param$3136
  0C:288A0    A$httpd-param$3137
  0C:288A1    A$httpd-param$3138
  0C:288A2    A$httpd-param$3144
  0C:288A2    C$httpd_param.c$440$3$4
  0C:288A2    C$httpd_param.c$442$2$2
  0C:288A3    A$httpd-param$3145
  0C:288A6    A$httpd-param$3149
  0C:288A6    C$httpd_param.c$444$1$1
  0C:288A8    A$httpd-param$3152
  0C:288A8    C$httpd_param.c$445$1$1
  0C:288A8    XFhttpd_param$set_email$0$0
  0C:288A9    A$httpd-param$3167
  0C:288A9    C$httpd_param.c$447$1$1
  0C:288A9    C$httpd_param.c$451$1$1
  0C:288A9    Fhttpd_param$set_testmejl$0$0
  0C:288AB    A$httpd-param$3170
  0C:288AB    C$httpd_param.c$452$1$1
  0C:288AB    XFhttpd_param$set_testmejl$0$0
  0C:288AC    A$httpd-param$3185
  0C:288AC    C$httpd_param.c$454$1$1
  0C:288AC    C$httpd_param.c$457$1$1
  0C:288AC    Fhttpd_param$set_auth$0$0
  0C:288AF    A$httpd-param$3186
  0C:288B1    A$httpd-param$3187
  0C:288B2    A$httpd-param$3190
  0C:288B2    C$httpd_param.c$458$1$1
  0C:288B2    XFhttpd_param$set_auth$0$0
  0C:288B3    A$httpd-param$3206
  0C:288B3    C$httpd_param.c$460$1$1
  0C:288B3    C$httpd_param.c$464$1$1
  0C:288B3    Fhttpd_param$set_uname$0$0
  0C:288B6    A$httpd-param$3207
  0C:288B8    A$httpd-param$3208
  0C:288BA    A$httpd-param$3209
  0C:288BC    A$httpd-param$3212
  0C:288BC    C$httpd_param.c$470$3$4
  0C:288BE    A$httpd-param$3214
  0C:288C0    A$httpd-param$3215
  0C:288C2    A$httpd-param$3216
  0C:288C4    A$httpd-param$3217
  0C:288C7    A$httpd-param$3218
  0C:288C9    A$httpd-param$3219
  0C:288CC    A$httpd-param$3223
  0C:288CC    C$httpd_param.c$472$2$2
  0C:288CE    A$httpd-param$3224
  0C:288D0    A$httpd-param$3225
  0C:288D2    A$httpd-param$3226
  0C:288D5    A$httpd-param$3227
  0C:288D6    A$httpd-param$3228
  0C:288D9    A$httpd-param$3231
  0C:288D9    C$httpd_param.c$473$2$2
  0C:288DB    A$httpd-param$3232
  0C:288DC    A$httpd-param$3233
  0C:288DD    A$httpd-param$3234
  0C:288DE    A$httpd-param$3235
  0C:288DF    A$httpd-param$3236
  0C:288E0    A$httpd-param$3237
  0C:288E2    A$httpd-param$3238
  0C:288E4    A$httpd-param$3239
  0C:288E6    A$httpd-param$3240
  0C:288E8    A$httpd-param$3241
  0C:288EB    A$httpd-param$3242
  0C:288EC    A$httpd-param$3243
  0C:288EF    A$httpd-param$3246
  0C:288EF    C$httpd_param.c$474$2$2
  0C:288F1    A$httpd-param$3247
  0C:288F2    A$httpd-param$3248
  0C:288F3    A$httpd-param$3249
  0C:288F4    A$httpd-param$3250
  0C:288F5    A$httpd-param$3251
  0C:288F6    A$httpd-param$3252
  0C:288F8    A$httpd-param$3253
  0C:288FA    A$httpd-param$3254
  0C:288FC    A$httpd-param$3255
  0C:288FE    A$httpd-param$3256
  0C:28901    A$httpd-param$3257
  0C:28902    A$httpd-param$3258
  0C:28905    A$httpd-param$3261
  0C:28905    C$httpd_param.c$476$3$3
  0C:28907    A$httpd-param$3262
  0C:28908    A$httpd-param$3263
  0C:28909    A$httpd-param$3264
  0C:2890A    A$httpd-param$3265
  0C:2890B    A$httpd-param$3266
  0C:2890C    A$httpd-param$3269
  0C:2890C    C$httpd_param.c$477$3$3
  0C:2890D    A$httpd-param$3270
  0C:2890F    A$httpd-param$3271
  0C:28911    A$httpd-param$3272
  0C:28912    A$httpd-param$3273
  0C:28914    A$httpd-param$3274
  0C:28916    A$httpd-param$3275
  0C:28918    A$httpd-param$3276
  0C:28919    A$httpd-param$3277
  0C:2891B    A$httpd-param$3281
  0C:2891B    C$httpd_param.c$481$3$4
  0C:2891C    A$httpd-param$3282
  0C:2891E    A$httpd-param$3283
  0C:2891F    A$httpd-param$3284
  0C:28920    A$httpd-param$3285
  0C:28922    A$httpd-param$3286
  0C:28923    A$httpd-param$3287
  0C:28925    A$httpd-param$3288
  0C:28927    A$httpd-param$3289
  0C:28929    A$httpd-param$3290
  0C:2892C    A$httpd-param$3291
  0C:2892D    A$httpd-param$3292
  0C:2892E    A$httpd-param$3293
  0C:28930    A$httpd-param$3294
  0C:28932    A$httpd-param$3295
  0C:28934    A$httpd-param$3296
  0C:28936    A$httpd-param$3297
  0C:28937    A$httpd-param$3298
  0C:28938    A$httpd-param$3304
  0C:28938    C$httpd_param.c$482$3$4
  0C:28938    C$httpd_param.c$484$2$2
  0C:28939    A$httpd-param$3305
  0C:2893C    A$httpd-param$3309
  0C:2893C    C$httpd_param.c$486$1$1
  0C:2893D    A$httpd-param$3310
  0C:2893F    A$httpd-param$3311
  0C:28941    A$httpd-param$3312
  0C:28942    A$httpd-param$3313
  0C:28944    A$httpd-param$3314
  0C:28946    A$httpd-param$3315
  0C:28947    A$httpd-param$3316
  0C:28948    A$httpd-param$3319
  0C:28948    C$httpd_param.c$488$1$1
  0C:28948    XFhttpd_param$set_uname$0$0
  0C:28949    A$httpd-param$3334
  0C:28949    C$httpd_param.c$490$1$1
  0C:28949    C$httpd_param.c$492$1$1
  0C:28949    Fhttpd_param$set_pword$0$0
  0C:2894C    A$httpd-param$3335
  0C:2894E    A$httpd-param$3336
  0C:28950    A$httpd-param$3337
  0C:28952    A$httpd-param$3340
  0C:28952    C$httpd_param.c$494$1$1
  0C:28955    A$httpd-param$3341
  0C:28956    A$httpd-param$3342
  0C:28957    A$httpd-param$3343
  0C:2895A    A$httpd-param$3344
  0C:2895C    A$httpd-param$3345
  0C:2895D    A$httpd-param$3346
  0C:2895E    A$httpd-param$3347
  0C:2895F    A$httpd-param$3348
  0C:28960    A$httpd-param$3349
  0C:28963    A$httpd-param$3350
  0C:28966    A$httpd-param$3351
  0C:28968    A$httpd-param$3352
  0C:2896A    A$httpd-param$3353
  0C:2896C    A$httpd-param$3354
  0C:2896F    A$httpd-param$3355
  0C:28971    A$httpd-param$3356
  0C:28973    A$httpd-param$3357
  0C:28975    A$httpd-param$3360
  0C:28975    C$httpd_param.c$495$1$1
  0C:28978    A$httpd-param$3361
  0C:28979    A$httpd-param$3362
  0C:2897A    A$httpd-param$3363
  0C:2897B    A$httpd-param$3364
  0C:2897C    A$httpd-param$3365
  0C:2897D    A$httpd-param$3366
  0C:2897E    A$httpd-param$3367
  0C:2897F    A$httpd-param$3368
  0C:28980    A$httpd-param$3369
  0C:28983    A$httpd-param$3370
  0C:28985    A$httpd-param$3371
  0C:28986    A$httpd-param$3372
  0C:28987    A$httpd-param$3373
  0C:28988    A$httpd-param$3374
  0C:28989    A$httpd-param$3375
  0C:2898C    A$httpd-param$3376
  0C:2898F    A$httpd-param$3379
  0C:2898F    C$httpd_param.c$496$1$1
  0C:2898F    XFhttpd_param$set_pword$0$0
  0C:28992    A$httpd-param$3394
  0C:28992    C$httpd_param.c$499$1$1
  0C:28992    C$httpd_param.c$504$1$1
  0C:28992    Fhttpd_param$set_submit$0$0
  0C:28995    A$httpd-param$3397
  0C:28995    C$httpd_param.c$505$1$1
  0C:28998    A$httpd-param$3400
  0C:28998    C$httpd_param.c$506$2$2
  0C:2899B    A$httpd-param$3401
  0C:2899E    A$httpd-param$3402
  0C:289A1    A$httpd-param$3403
  0C:289A3    A$httpd-param$3404
  0C:289A5    A$httpd-param$3405
  0C:289A8    A$httpd-param$3406
  0C:289A9    A$httpd-param$3407
  0C:289AA    A$httpd-param$3408
  0C:289AB    A$httpd-param$3409
  0C:289AC    A$httpd-param$3410
  0C:289AD    A$httpd-param$3411
  0C:289AE    A$httpd-param$3412
  0C:289B1    A$httpd-param$3413
  0C:289B3    A$httpd-param$3414
  0C:289B4    A$httpd-param$3415
  0C:289B5    A$httpd-param$3416
  0C:289B7    A$httpd-param$3417
  0C:289B8    A$httpd-param$3418
  0C:289B9    A$httpd-param$3419
  0C:289BA    A$httpd-param$3420
  0C:289BB    A$httpd-param$3421
  0C:289BE    A$httpd-param$3422
  0C:289C0    A$httpd-param$3423
  0C:289C1    A$httpd-param$3424
  0C:289C2    A$httpd-param$3425
  0C:289C4    A$httpd-param$3426
  0C:289C5    A$httpd-param$3427
  0C:289C6    A$httpd-param$3428
  0C:289C8    A$httpd-param$3429
  0C:289C9    A$httpd-param$3430
  0C:289CC    A$httpd-param$3431
  0C:289CE    A$httpd-param$3432
  0C:289CF    A$httpd-param$3433
  0C:289D0    A$httpd-param$3434
  0C:289D2    A$httpd-param$3435
  0C:289D3    A$httpd-param$3436
  0C:289D4    A$httpd-param$3437
  0C:289D6    A$httpd-param$3438
  0C:289D7    A$httpd-param$3439
  0C:289DA    A$httpd-param$3440
  0C:289DB    A$httpd-param$3441
  0C:289DC    A$httpd-param$3442
  0C:289DD    A$httpd-param$3443
  0C:289DE    A$httpd-param$3444
  0C:289DF    A$httpd-param$3445
  0C:289E2    A$httpd-param$3446
  0C:289E5    A$httpd-param$3447
  0C:289E8    A$httpd-param$3448
  0C:289EA    A$httpd-param$3449
  0C:289EC    A$httpd-param$3452
  0C:289EC    C$httpd_param.c$510$3$3
  0C:289EE    A$httpd-param$3453
  0C:289F0    A$httpd-param$3459
  0C:289F0    C$httpd_param.c$512$1$1
  0C:289F0    C$httpd_param.c$513$2$4
  0C:289F3    A$httpd-param$3460
  0C:289F5    A$httpd-param$3464
  0C:289F5    C$httpd_param.c$515$2$4
  0C:289F7    A$httpd-param$3467
  0C:289F7    C$httpd_param.c$516$2$4
  0C:289FA    A$httpd-param$3471
  0C:289FA    C$httpd_param.c$518$1$1
  0C:289FC    A$httpd-param$3474
  0C:289FC    C$httpd_param.c$519$1$1
  0C:289FC    XFhttpd_param$set_submit$0$0
  0C:289FD    A$httpd-param$3489
  0C:289FD    C$httpd_param.c$522$1$1
  0C:289FD    Fhttpd_param$parse_expr$0$0
  0C:289FF    A$httpd-param$3490
  0C:28A01    A$httpd-param$3491
  0C:28A03    A$httpd-param$3492
  0C:28A06    A$httpd-param$3493
  0C:28A07    A$httpd-param$3494
  0C:28A08    A$httpd-param$3495
  0C:28A09    A$httpd-param$3496
  0C:28A0A    A$httpd-param$3497
  0C:28A0B    A$httpd-param$3498
  0C:28A0C    A$httpd-param$3499
  0C:28A0D    A$httpd-param$3504
  0C:28A0D    C$httpd_param.c$524$1$1
  0C:28A0D    C$httpd_param.c$526$1$1
  0C:28A0F    A$httpd-param$3505
  0C:28A11    A$httpd-param$3506
  0C:28A13    A$httpd-param$3508
  0C:28A15    A$httpd-param$3509
  0C:28A17    A$httpd-param$3510
  0C:28A19    A$httpd-param$3511
  0C:28A1C    A$httpd-param$3512
  0C:28A1D    A$httpd-param$3513
  0C:28A1E    A$httpd-param$3514
  0C:28A21    A$httpd-param$3515
  0C:28A22    A$httpd-param$3516
  0C:28A23    A$httpd-param$3517
  0C:28A26    A$httpd-param$3518
  0C:28A27    A$httpd-param$3519
  0C:28A29    A$httpd-param$3520
  0C:28A2B    A$httpd-param$3521
  0C:28A2D    A$httpd-param$3522
  0C:28A30    A$httpd-param$3523
  0C:28A31    A$httpd-param$3524
  0C:28A34    A$httpd-param$3525
  0C:28A37    A$httpd-param$3529
  0C:28A37    C$httpd_param.c$528$1$1
  0C:28A39    A$httpd-param$3530
  0C:28A3B    A$httpd-param$3531
  0C:28A3D    A$httpd-param$3532
  0C:28A3F    A$httpd-param$3533
  0C:28A41    A$httpd-param$3534
  0C:28A43    A$httpd-param$3535
  0C:28A45    A$httpd-param$3536
  0C:28A47    A$httpd-param$3537
  0C:28A49    A$httpd-param$3538
  0C:28A4C    A$httpd-param$3539
  0C:28A4E    A$httpd-param$3540
  0C:28A50    A$httpd-param$3541
  0C:28A52    A$httpd-param$3542
  0C:28A54    A$httpd-param$3543
  0C:28A56    A$httpd-param$3544
  0C:28A59    A$httpd-param$3545
  0C:28A5A    A$httpd-param$3546
  0C:28A5C    A$httpd-param$3547
  0C:28A5D    A$httpd-param$3548
  0C:28A5E    A$httpd-param$3549
  0C:28A60    A$httpd-param$3550
  0C:28A61    A$httpd-param$3551
  0C:28A62    A$httpd-param$3552
  0C:28A64    A$httpd-param$3553
  0C:28A65    A$httpd-param$3554
  0C:28A67    A$httpd-param$3555
  0C:28A68    A$httpd-param$3556
  0C:28A69    A$httpd-param$3557
  0C:28A6B    A$httpd-param$3558
  0C:28A6C    A$httpd-param$3559
  0C:28A6E    A$httpd-param$3560
  0C:28A70    A$httpd-param$3561
  0C:28A72    A$httpd-param$3562
  0C:28A74    A$httpd-param$3563
  0C:28A77    A$httpd-param$3564
  0C:28A78    A$httpd-param$3565
  0C:28A79    A$httpd-param$3566
  0C:28A7C    A$httpd-param$3567
  0C:28A7D    A$httpd-param$3569
  0C:28A7F    A$httpd-param$3570
  0C:28A81    A$httpd-param$3571
  0C:28A83    A$httpd-param$3572
  0C:28A85    A$httpd-param$3573
  0C:28A88    A$httpd-param$3577
  0C:28A88    C$httpd_param.c$529$2$2
  0C:28A8A    A$httpd-param$3578
  0C:28A8C    A$httpd-param$3579
  0C:28A8E    A$httpd-param$3580
  0C:28A91    A$httpd-param$3581
  0C:28A92    A$httpd-param$3582
  0C:28A93    A$httpd-param$3583
  0C:28A96    A$httpd-param$3584
  0C:28A97    A$httpd-param$3585
  0C:28A98    A$httpd-param$3586
  0C:28A9B    A$httpd-param$3587
  0C:28A9C    A$httpd-param$3588
  0C:28A9E    A$httpd-param$3589
  0C:28AA0    A$httpd-param$3590
  0C:28AA2    A$httpd-param$3591
  0C:28AA4    A$httpd-param$3592
  0C:28AA6    A$httpd-param$3593
  0C:28AA8    A$httpd-param$3594
  0C:28AAA    A$httpd-param$3595
  0C:28AAC    A$httpd-param$3596
  0C:28AAE    A$httpd-param$3597
  0C:28AB1    A$httpd-param$3598
  0C:28AB3    A$httpd-param$3599
  0C:28AB5    A$httpd-param$3600
  0C:28AB7    A$httpd-param$3601
  0C:28AB9    A$httpd-param$3602
  0C:28ABB    A$httpd-param$3603
  0C:28ABE    A$httpd-param$3604
  0C:28ABF    A$httpd-param$3605
  0C:28AC0    A$httpd-param$3606
  0C:28AC1    A$httpd-param$3607
  0C:28AC2    A$httpd-param$3608
  0C:28AC3    A$httpd-param$3609
  0C:28AC4    A$httpd-param$3610
  0C:28AC5    A$httpd-param$3611
  0C:28AC6    A$httpd-param$3612
  0C:28AC9    A$httpd-param$3613
  0C:28ACA    A$httpd-param$3614
  0C:28ACB    A$httpd-param$3615
  0C:28ACC    A$httpd-param$3616
  0C:28ACD    A$httpd-param$3617
  0C:28ACE    A$httpd-param$3618
  0C:28AD1    A$httpd-param$3619
  0C:28AD4    A$httpd-param$3620
  0C:28AD7    A$httpd-param$3621
  0C:28ADA    A$httpd-param$3622
  0C:28ADC    A$httpd-param$3623
  0C:28ADF    A$httpd-param$3624
  0C:28AE1    A$httpd-param$3625
  0C:28AE3    A$httpd-param$3626
  0C:28AE5    A$httpd-param$3627
  0C:28AE7    A$httpd-param$3628
  0C:28AE9    A$httpd-param$3631
  0C:28AE9    C$httpd_param.c$532$3$3
  0C:28AEB    A$httpd-param$3632
  0C:28AEC    A$httpd-param$3633
  0C:28AED    A$httpd-param$3634
  0C:28AEE    A$httpd-param$3635
  0C:28AEF    A$httpd-param$3636
  0C:28AF0    A$httpd-param$3637
  0C:28AF2    A$httpd-param$3638
  0C:28AF4    A$httpd-param$3639
  0C:28AF6    A$httpd-param$3640
  0C:28AF8    A$httpd-param$3641
  0C:28AFB    A$httpd-param$3642
  0C:28AFC    A$httpd-param$3643
  0C:28AFD    A$httpd-param$3644
  0C:28B00    A$httpd-param$3645
  0C:28B01    A$httpd-param$3646
  0C:28B03    A$httpd-param$3647
  0C:28B05    A$httpd-param$3648
  0C:28B07    A$httpd-param$3649
  0C:28B09    A$httpd-param$3650
  0C:28B0B    A$httpd-param$3651
  0C:28B0D    A$httpd-param$3652
  0C:28B0F    A$httpd-param$3653
  0C:28B11    A$httpd-param$3654
  0C:28B14    A$httpd-param$3655
  0C:28B17    A$httpd-param$3656
  0C:28B1A    A$httpd-param$3657
  0C:28B1B    A$httpd-param$3659
  0C:28B1D    A$httpd-param$3660
  0C:28B1F    A$httpd-param$3663
  0C:28B1F    C$httpd_param.c$533$3$3
  0C:28B22    A$httpd-param$3664
  0C:28B23    A$httpd-param$3668
  0C:28B23    C$httpd_param.c$535$2$2
  0C:28B25    A$httpd-param$3669
  0C:28B26    A$httpd-param$3670
  0C:28B27    A$httpd-param$3671
  0C:28B28    A$httpd-param$3672
  0C:28B29    A$httpd-param$3673
  0C:28B2A    A$httpd-param$3674
  0C:28B2D    A$httpd-param$3678
  0C:28B2D    C$httpd_param.c$537$1$1
  0C:28B30    A$httpd-param$3681
  0C:28B30    C$httpd_param.c$538$1$1
  0C:28B30    XFhttpd_param$parse_expr$0$0
  0C:28B31    A$httpd-param$3696
  0C:28B31    C$httpd_param.c$541$1$1
  0C:28B31    G$parse_input$0$0
  0C:28B31    _parse_input
  0C:28B33    A$httpd-param$3697
  0C:28B35    A$httpd-param$3698
  0C:28B37    A$httpd-param$3699
  0C:28B3A    A$httpd-param$3700
  0C:28B3B    A$httpd-param$3701
  0C:28B3C    A$httpd-param$3702
  0C:28B3D    A$httpd-param$3703
  0C:28B3E    A$httpd-param$3704
  0C:28B3F    A$httpd-param$3705
  0C:28B40    A$httpd-param$3706
  0C:28B41    A$httpd-param$3709
  0C:28B41    C$httpd_param.c$547$1$1
  0C:28B44    A$httpd-param$3710
  0C:28B45    A$httpd-param$3711
  0C:28B46    A$httpd-param$3712
  0C:28B47    A$httpd-param$3713
  0C:28B48    A$httpd-param$3714
  0C:28B49    A$httpd-param$3715
  0C:28B4A    A$httpd-param$3716
  0C:28B4B    A$httpd-param$3717
  0C:28B4C    A$httpd-param$3719
  0C:28B4E    A$httpd-param$3720
  0C:28B50    A$httpd-param$3721
  0C:28B52    A$httpd-param$3722
  0C:28B55    A$httpd-param$3723
  0C:28B56    A$httpd-param$3724
  0C:28B59    A$httpd-param$3725
  0C:28B5B    A$httpd-param$3729
  0C:28B5B    C$httpd_param.c$548$1$1
  0C:28B5E    A$httpd-param$3730
  0C:28B60    A$httpd-param$3734
  0C:28B60    C$httpd_param.c$549$1$1
  0C:28B63    A$httpd-param$3735
  0C:28B65    A$httpd-param$3739
  0C:28B65    C$httpd_param.c$550$1$1
  0C:28B66    A$httpd-param$3740
  0C:28B69    A$httpd-param$3741
  0C:28B6A    A$httpd-param$3743
  0C:28B6D    A$httpd-param$3744
  0C:28B6E    A$httpd-param$3745
  0C:28B6F    A$httpd-param$3746
  0C:28B70    A$httpd-param$3747
  0C:28B71    A$httpd-param$3748
  0C:28B72    A$httpd-param$3749
  0C:28B73    A$httpd-param$3750
  0C:28B74    A$httpd-param$3751
  0C:28B75    A$httpd-param$3752
  0C:28B77    A$httpd-param$3754
  0C:28B7A    A$httpd-param$3755
  0C:28B7B    A$httpd-param$3756
  0C:28B7C    A$httpd-param$3757
  0C:28B7D    A$httpd-param$3758
  0C:28B7E    A$httpd-param$3759
  0C:28B7F    A$httpd-param$3760
  0C:28B80    A$httpd-param$3761
  0C:28B81    A$httpd-param$3762
  0C:28B82    A$httpd-param$3765
  0C:28B82    C$httpd_param.c$553$1$1
  0C:28B84    A$httpd-param$3766
  0C:28B86    A$httpd-param$3767
  0C:28B88    A$httpd-param$3768
  0C:28B8B    A$httpd-param$3769
  0C:28B8C    A$httpd-param$3770
  0C:28B8F    A$httpd-param$3771
  0C:28B91    A$httpd-param$3775
  0C:28B91    C$httpd_param.c$554$1$1
  0C:28B94    A$httpd-param$3779
  0C:28B94    C$httpd_param.c$555$1$1
  0C:28B97    A$httpd-param$3784
  0C:28B97    C$httpd_param.c$557$1$1
  0C:28B9A    A$httpd-param$3785
  0C:28B9B    A$httpd-param$3786
  0C:28B9C    A$httpd-param$3787
  0C:28B9D    A$httpd-param$3788
  0C:28B9E    A$httpd-param$3789
  0C:28B9F    A$httpd-param$3790
  0C:28BA0    A$httpd-param$3791
  0C:28BA1    A$httpd-param$3792
  0C:28BA2    A$httpd-param$3793
  0C:28BA4    A$httpd-param$3794
  0C:28BA6    A$httpd-param$3795
  0C:28BA8    A$httpd-param$3796
  0C:28BAB    A$httpd-param$3797
  0C:28BAC    A$httpd-param$3798
  0C:28BAF    A$httpd-param$3799
  0C:28BB2    A$httpd-param$3803
  0C:28BB2    C$httpd_param.c$559$2$2
  0C:28BB5    A$httpd-param$3804
  0C:28BB7    A$httpd-param$3805
  0C:28BB8    A$httpd-param$3806
  0C:28BB9    A$httpd-param$3807
  0C:28BBA    A$httpd-param$3808
  0C:28BBB    A$httpd-param$3809
  0C:28BBC    A$httpd-param$3810
  0C:28BBD    A$httpd-param$3811
  0C:28BBE    A$httpd-param$3812
  0C:28BBF    A$httpd-param$3813
  0C:28BC0    A$httpd-param$3818
  0C:28BC0    C$httpd_param.c$561$2$2
  0C:28BC0    C$httpd_param.c$562$1$1
  0C:28BC3    A$httpd-param$3819
  0C:28BC4    A$httpd-param$3820
  0C:28BC5    A$httpd-param$3821
  0C:28BC6    A$httpd-param$3822
  0C:28BC7    A$httpd-param$3823
  0C:28BC8    A$httpd-param$3824
  0C:28BC9    A$httpd-param$3825
  0C:28BCA    A$httpd-param$3826
  0C:28BCB    A$httpd-param$3827
  0C:28BCD    A$httpd-param$3828
  0C:28BCF    A$httpd-param$3829
  0C:28BD1    A$httpd-param$3831
  0C:28BD3    A$httpd-param$3832
  0C:28BD5    A$httpd-param$3833
  0C:28BD7    A$httpd-param$3834
  0C:28BDA    A$httpd-param$3835
  0C:28BDB    A$httpd-param$3836
  0C:28BDE    A$httpd-param$3837
  0C:28BE0    A$httpd-param$3841
  0C:28BE0    C$httpd_param.c$563$2$2
  0C:28BE3    A$httpd-param$3842
  0C:28BE5    A$httpd-param$3846
  0C:28BE5    C$httpd_param.c$565$3$3
  0C:28BE6    A$httpd-param$3847
  0C:28BE9    A$httpd-param$3848
  0C:28BEA    A$httpd-param$3850
  0C:28BED    A$httpd-param$3851
  0C:28BEE    A$httpd-param$3852
  0C:28BEF    A$httpd-param$3853
  0C:28BF0    A$httpd-param$3854
  0C:28BF1    A$httpd-param$3855
  0C:28BF2    A$httpd-param$3856
  0C:28BF3    A$httpd-param$3857
  0C:28BF4    A$httpd-param$3858
  0C:28BF5    A$httpd-param$3859
  0C:28BF7    A$httpd-param$3860
  0C:28BF9    A$httpd-param$3861
  0C:28BFB    A$httpd-param$3862
  0C:28BFC    A$httpd-param$3863
  0C:28BFF    A$httpd-param$3864
  0C:28C00    A$httpd-param$3865
  0C:28C02    A$httpd-param$3866
  0C:28C04    A$httpd-param$3867
  0C:28C06    A$httpd-param$3869
  0C:28C09    A$httpd-param$3870
  0C:28C0A    A$httpd-param$3871
  0C:28C0B    A$httpd-param$3872
  0C:28C0C    A$httpd-param$3873
  0C:28C0D    A$httpd-param$3874
  0C:28C0E    A$httpd-param$3875
  0C:28C0F    A$httpd-param$3876
  0C:28C10    A$httpd-param$3877
  0C:28C11    A$httpd-param$3880
  0C:28C11    C$httpd_param.c$567$2$2
  0C:28C13    A$httpd-param$3881
  0C:28C15    A$httpd-param$3882
  0C:28C17    A$httpd-param$3883
  0C:28C18    A$httpd-param$3884
  0C:28C1B    A$httpd-param$3887
  0C:28C1B    C$httpd_param.c$568$2$2
  0C:28C1E    A$httpd-param$3888
  0C:28C21    A$httpd-param$3889
  0C:28C24    A$httpd-param$3890
  0C:28C26    A$httpd-param$3891
  0C:28C28    A$httpd-param$3894
  0C:28C28    C$httpd_param.c$569$3$4
  0C:28C2A    A$httpd-param$3898
  0C:28C2A    C$httpd_param.c$572$2$2
  0C:28C2D    A$httpd-param$3899
  0C:28C30    A$httpd-param$3903
  0C:28C30    C$httpd_param.c$574$1$1
  0C:28C30    XG$parse_input$0$0
  0C:28C33    A$led$1284
  0C:28C33    C$led.c$46$0$0
  0C:28C33    C$led.c$48$1$1
  0C:28C33    G$init_led$0$0
  0C:28C33    _init_led
  0C:28C36    A$led$1285
  0C:28C37    A$led$1286
  0C:28C38    A$led$1287
  0C:28C3B    A$led$1288
  0C:28C3D    A$led$1289
  0C:28C3E    A$led$1290
  0C:28C3F    A$led$1291
  0C:28C40    A$led$1292
  0C:28C41    A$led$1293
  0C:28C44    A$led$1294
  0C:28C47    A$led$1295
  0C:28C4A    A$led$1298
  0C:28C4A    C$led.c$49$1$1
  0C:28C4D    A$led$1299
  0C:28C4E    A$led$1300
  0C:28C4F    A$led$1301
  0C:28C50    A$led$1302
  0C:28C51    A$led$1305
  0C:28C51    C$led.c$50$1$1
  0C:28C51    XG$init_led$0$0
  0C:28C54    A$led$1319
  0C:28C54    C$led.c$56$1$1
  0C:28C54    G$set_led$0$0
  0C:28C54    _set_led
  0C:28C56    A$led$1320
  0C:28C59    A$led$1321
  0C:28C5A    A$led$1324
  0C:28C5A    C$led.c$59$1$1
  0C:28C5D    A$led$1325
  0C:28C5E    A$led$1326
  0C:28C5F    A$led$1327
  0C:28C61    A$led$1328
  0C:28C64    A$led$1329
  0C:28C66    A$led$1333
  0C:28C66    C$led.c$61$2$2
  0C:28C69    A$led$1334
  0C:28C6B    A$led$1338
  0C:28C6B    C$led.c$63$2$2
  0C:28C6D    A$led$1343
  0C:28C6D    C$led.c$64$2$2
  0C:28C6D    C$led.c$66$2$2
  0C:28C6F    A$led$1347
  0C:28C6F    C$led.c$68$2$2
  0C:28C72    A$led$1348
  0C:28C73    A$led$1349
  0C:28C74    A$led$1352
  0C:28C74    C$led.c$69$2$2
  0C:28C76    A$led$1357
  0C:28C76    C$led.c$70$2$2
  0C:28C76    C$led.c$72$2$2
  0C:28C78    A$led$1361
  0C:28C78    C$led.c$74$2$2
  0C:28C7B    A$led$1362
  0C:28C7D    A$led$1363
  0C:28C7E    A$led$1366
  0C:28C7E    C$led.c$75$2$2
  0C:28C81    A$led$1367
  0C:28C82    A$led$1368
  0C:28C83    A$led$1369
  0C:28C86    A$led$1370
  0C:28C87    A$led$1376
  0C:28C87    C$led.c$77$1$1
  0C:28C87    C$led.c$78$1$1
  0C:28C87    XG$set_led$0$0
  0C:28C8A    A$led$1391
  0C:28C8A    C$led.c$85$1$1
  0C:28C8A    G$handle_led$0$0
  0C:28C8A    _handle_led
  0C:28C8C    A$led$1392
  0C:28C8E    A$led$1393
  0C:28C90    A$led$1394
  0C:28C93    A$led$1395
  0C:28C94    A$led$1396
  0C:28C95    A$led$1397
  0C:28C96    A$led$1398
  0C:28C97    A$led$1399
  0C:28C98    A$led$1400
  0C:28C99    A$led$1401
  0C:28C9A    A$led$1404
  0C:28C9A    C$led.c$87$2$2
  0C:28C9D    A$led$1405
  0C:28C9E    A$led$1406
  0C:28C9F    A$led$1407
  0C:28CA0    A$led$1408
  0C:28CA1    A$led$1409
  0C:28CA2    A$led$1410
  0C:28CA3    A$led$1411
  0C:28CA4    A$led$1412
  0C:28CA5    A$led$1413
  0C:28CA7    A$led$1414
  0C:28CA9    A$led$1415
  0C:28CAB    A$led$1416
  0C:28CAE    A$led$1417
  0C:28CAF    A$led$1418
  0C:28CB0    A$led$1419
  0C:28CB3    A$led$1420
  0C:28CB4    A$led$1421
  0C:28CB7    A$led$1422
  0C:28CBA    A$led$1423
  0C:28CBC    A$led$1425
  0C:28CBF    A$led$1426
  0C:28CC2    A$led$1427
  0C:28CC4    A$led$1429
  0C:28CC7    A$led$1430
  0C:28CCA    A$led$1431
  0C:28CCD    A$led$1433
  0C:28CD0    A$led$1434
  0C:28CD3    A$led$1435
  0C:28CD6    A$led$1437
  0C:28CD9    A$led$1441
  0C:28CD9    C$led.c$89$3$3
  0C:28CDB    A$led$1442
  0C:28CDC    A$led$1443
  0C:28CDD    A$led$1444
  0C:28CDE    A$led$1445
  0C:28CDF    A$led$1446
  0C:28CE0    A$led$1447
  0C:28CE2    A$led$1448
  0C:28CE4    A$led$1449
  0C:28CE6    A$led$1450
  0C:28CE8    A$led$1451
  0C:28CEA    A$led$1452
  0C:28CEC    A$led$1453
  0C:28CEE    A$led$1454
  0C:28CF1    A$led$1455
  0C:28CF3    A$led$1456
  0C:28CF5    A$led$1457
  0C:28CF7    A$led$1458
  0C:28CF9    A$led$1459
  0C:28CFB    A$led$1460
  0C:28CFD    A$led$1461
  0C:28CFF    A$led$1462
  0C:28D00    A$led$1463
  0C:28D03    A$led$1469
  0C:28D03    C$led.c$91$3$3
  0C:28D03    C$led.c$93$5$5
  0C:28D06    A$led$1470
  0C:28D07    A$led$1471
  0C:28D08    A$led$1472
  0C:28D09    A$led$1473
  0C:28D0A    A$led$1474
  0C:28D0B    A$led$1475
  0C:28D0C    A$led$1476
  0C:28D0D    A$led$1477
  0C:28D0E    A$led$1478
  0C:28D10    A$led$1479
  0C:28D12    A$led$1480
  0C:28D14    A$led$1481
  0C:28D16    A$led$1482
  0C:28D19    A$led$1483
  0C:28D1A    A$led$1484
  0C:28D1B    A$led$1485
  0C:28D1E    A$led$1487
  0C:28D21    A$led$1488
  0C:28D22    A$led$1489
  0C:28D24    A$led$1490
  0C:28D25    A$led$1491
  0C:28D26    A$led$1492
  0C:28D28    A$led$1493
  0C:28D29    A$led$1494
  0C:28D2A    A$led$1495
  0C:28D2C    A$led$1496
  0C:28D2E    A$led$1497
  0C:28D30    A$led$1498
  0C:28D31    A$led$1499
  0C:28D32    A$led$1500
  0C:28D34    A$led$1501
  0C:28D35    A$led$1502
  0C:28D37    A$led$1503
  0C:28D39    A$led$1504
  0C:28D3B    A$led$1505
  0C:28D3D    A$led$1506
  0C:28D40    A$led$1507
  0C:28D42    A$led$1508
  0C:28D44    A$led$1509
  0C:28D47    A$led$1513
  0C:28D47    C$led.c$96$4$4
  0C:28D49    A$led$1514
  0C:28D4B    A$led$1515
  0C:28D4C    A$led$1516
  0C:28D4D    A$led$1517
  0C:28D4F    A$led$1518
  0C:28D50    A$led$1519
  0C:28D52    A$led$1520
  0C:28D54    A$led$1521
  0C:28D56    A$led$1522
  0C:28D58    A$led$1523
  0C:28D5B    A$led$1524
  0C:28D5C    A$led$1525
  0C:28D5E    A$led$1526
  0C:28D60    A$led$1527
  0C:28D61    A$led$1528
  0C:28D62    A$led$1529
  0C:28D64    A$led$1530
  0C:28D65    A$led$1531
  0C:28D67    A$led$1532
  0C:28D69    A$led$1533
  0C:28D6B    A$led$1534
  0C:28D6D    A$led$1535
  0C:28D70    A$led$1536
  0C:28D73    A$led$1537
  0C:28D74    A$led$1538
  0C:28D75    A$led$1539
  0C:28D76    A$led$1540
  0C:28D77    A$led$1541
  0C:28D78    A$led$1542
  0C:28D79    A$led$1543
  0C:28D7A    A$led$1544
  0C:28D7B    A$led$1545
  0C:28D7E    A$led$1546
  0C:28D7F    A$led$1547
  0C:28D80    A$led$1548
  0C:28D81    A$led$1549
  0C:28D82    A$led$1550
  0C:28D84    A$led$1551
  0C:28D86    A$led$1552
  0C:28D88    A$led$1553
  0C:28D8A    A$led$1554
  0C:28D8D    A$led$1557
  0C:28D8D    C$led.c$97$5$7
  0C:28D90    A$led$1558
  0C:28D93    A$led$1559
  0C:28D96    A$led$1560
  0C:28D98    A$led$1561
  0C:28D9B    A$led$1562
  0C:28D9C    A$led$1563
  0C:28D9D    A$led$1564
  0C:28DA0    A$led$1566
  0C:28DA3    A$led$1567
  0C:28DA4    A$led$1568
  0C:28DA6    A$led$1569
  0C:28DA7    A$led$1570
  0C:28DA8    A$led$1571
  0C:28DAA    A$led$1572
  0C:28DAB    A$led$1573
  0C:28DAC    A$led$1574
  0C:28DAE    A$led$1575
  0C:28DB0    A$led$1576
  0C:28DB2    A$led$1577
  0C:28DB3    A$led$1578
  0C:28DB4    A$led$1579
  0C:28DB6    A$led$1580
  0C:28DB7    A$led$1581
  0C:28DB9    A$led$1582
  0C:28DBB    A$led$1583
  0C:28DBD    A$led$1584
  0C:28DBF    A$led$1585
  0C:28DC2    A$led$1586
  0C:28DC4    A$led$1587
  0C:28DC6    A$led$1588
  0C:28DC8    A$led$1589
  0C:28DCA    A$led$1590
  0C:28DCD    A$led$1591
  0C:28DCF    A$led$1592
  0C:28DD1    A$led$1593
  0C:28DD3    A$led$1594
  0C:28DD4    A$led$1595
  0C:28DD5    A$led$1596
  0C:28DD6    A$led$1597
  0C:28DD7    A$led$1598
  0C:28DD8    A$led$1599
  0C:28DDA    A$led$1600
  0C:28DDD    A$led$1601
  0C:28DE0    A$led$1605
  0C:28DE0    C$led.c$98$4$4
  0C:28DE2    A$led$1606
  0C:28DE4    A$led$1607
  0C:28DE5    A$led$1608
  0C:28DE6    A$led$1609
  0C:28DE8    A$led$1610
  0C:28DE9    A$led$1611
  0C:28DEB    A$led$1612
  0C:28DED    A$led$1613
  0C:28DEF    A$led$1614
  0C:28DF1    A$led$1615
  0C:28DF4    A$led$1616
  0C:28DF6    A$led$1619
  0C:28DF6    C$led.c$99$4$4
  0C:28DF8    A$led$1623
  0C:28DF8    C$led.c$101$4$4
  0C:28DFB    A$led$1624
  0C:28DFC    A$led$1625
  0C:28DFE    A$led$1626
  0C:28DFF    A$led$1627
  0C:28E00    A$led$1628
  0C:28E02    A$led$1629
  0C:28E03    A$led$1630
  0C:28E04    A$led$1631
  0C:28E06    A$led$1632
  0C:28E08    A$led$1633
  0C:28E0A    A$led$1634
  0C:28E0B    A$led$1635
  0C:28E0C    A$led$1636
  0C:28E0E    A$led$1637
  0C:28E0F    A$led$1638
  0C:28E11    A$led$1639
  0C:28E13    A$led$1640
  0C:28E15    A$led$1641
  0C:28E17    A$led$1642
  0C:28E1A    A$led$1643
  0C:28E1C    A$led$1644
  0C:28E1F    A$led$1648
  0C:28E1F    C$led.c$103$5$9
  0C:28E21    A$led$1649
  0C:28E23    A$led$1650
  0C:28E24    A$led$1651
  0C:28E25    A$led$1652
  0C:28E27    A$led$1653
  0C:28E28    A$led$1654
  0C:28E2A    A$led$1655
  0C:28E2C    A$led$1656
  0C:28E2E    A$led$1657
  0C:28E30    A$led$1658
  0C:28E33    A$led$1659
  0C:28E34    A$led$1660
  0C:28E36    A$led$1661
  0C:28E38    A$led$1662
  0C:28E39    A$led$1663
  0C:28E3A    A$led$1664
  0C:28E3C    A$led$1665
  0C:28E3D    A$led$1666
  0C:28E3F    A$led$1667
  0C:28E41    A$led$1668
  0C:28E43    A$led$1669
  0C:28E45    A$led$1670
  0C:28E48    A$led$1671
  0C:28E4B    A$led$1672
  0C:28E4C    A$led$1673
  0C:28E4D    A$led$1674
  0C:28E4E    A$led$1675
  0C:28E4F    A$led$1676
  0C:28E50    A$led$1677
  0C:28E51    A$led$1678
  0C:28E52    A$led$1679
  0C:28E53    A$led$1680
  0C:28E56    A$led$1681
  0C:28E57    A$led$1682
  0C:28E58    A$led$1683
  0C:28E59    A$led$1684
  0C:28E5A    A$led$1685
  0C:28E5C    A$led$1686
  0C:28E5E    A$led$1687
  0C:28E60    A$led$1688
  0C:28E62    A$led$1689
  0C:28E65    A$led$1692
  0C:28E65    C$led.c$104$6$10
  0C:28E68    A$led$1693
  0C:28E6B    A$led$1694
  0C:28E6E    A$led$1695
  0C:28E70    A$led$1696
  0C:28E73    A$led$1697
  0C:28E74    A$led$1698
  0C:28E75    A$led$1699
  0C:28E78    A$led$1701
  0C:28E7B    A$led$1702
  0C:28E7C    A$led$1703
  0C:28E7D    A$led$1704
  0C:28E7E    A$led$1705
  0C:28E7F    A$led$1706
  0C:28E80    A$led$1707
  0C:28E81    A$led$1708
  0C:28E82    A$led$1709
  0C:28E83    A$led$1710
  0C:28E85    A$led$1711
  0C:28E86    A$led$1712
  0C:28E87    A$led$1713
  0C:28E88    A$led$1714
  0C:28E89    A$led$1715
  0C:28E8A    A$led$1716
  0C:28E8C    A$led$1717
  0C:28E8E    A$led$1718
  0C:28E90    A$led$1719
  0C:28E93    A$led$1720
  0C:28E95    A$led$1721
  0C:28E97    A$led$1722
  0C:28E99    A$led$1723
  0C:28E9B    A$led$1724
  0C:28E9E    A$led$1725
  0C:28EA0    A$led$1726
  0C:28EA2    A$led$1727
  0C:28EA4    A$led$1728
  0C:28EA5    A$led$1729
  0C:28EA6    A$led$1730
  0C:28EA7    A$led$1731
  0C:28EA8    A$led$1732
  0C:28EA9    A$led$1733
  0C:28EAB    A$led$1734
  0C:28EAE    A$led$1735
  0C:28EB0    A$led$1739
  0C:28EB0    C$led.c$105$5$9
  0C:28EB2    A$led$1740
  0C:28EB5    A$led$1744
  0C:28EB5    C$led.c$109$2$2
  0C:28EB7    A$led$1745
  0C:28EB9    A$led$1746
  0C:28EBB    A$led$1747
  0C:28EBC    A$led$1748
  0C:28EBF    A$led$1749
  0C:28EC0    A$led$1750
  0C:28EC1    A$led$1751
  0C:28EC4    A$led$1752
  0C:28EC7    A$led$1756
  0C:28EC7    C$led.c$110$2$2
  0C:28EC7    XG$handle_led$0$0
  0C:28ECA    A$psock$190
  0C:28ECA    C$psock.c$77$0$0
  0C:28ECA    Fpsock$buf_setup$0$0
  0C:28ECC    A$psock$191
  0C:28ECF    A$psock$194
  0C:28ECF    C$psock.c$80$1$1
  0C:28ED1    A$psock$195
  0C:28ED3    A$psock$196
  0C:28ED5    A$psock$197
  0C:28ED7    A$psock$198
  0C:28ED9    A$psock$199
  0C:28EDA    A$psock$200
  0C:28EDB    A$psock$201
  0C:28EDE    A$psock$202
  0C:28EDF    A$psock$203
  0C:28EE0    A$psock$204
  0C:28EE1    A$psock$205
  0C:28EE4    A$psock$206
  0C:28EE5    A$psock$207
  0C:28EE6    A$psock$208
  0C:28EE7    A$psock$209
  0C:28EEA    A$psock$212
  0C:28EEA    C$psock.c$81$1$1
  0C:28EEC    A$psock$213
  0C:28EED    A$psock$214
  0C:28EEE    A$psock$215
  0C:28EEF    A$psock$216
  0C:28EF0    A$psock$217
  0C:28EF1    A$psock$218
  0C:28EF3    A$psock$219
  0C:28EF5    A$psock$220
  0C:28EF7    A$psock$221
  0C:28EF9    A$psock$222
  0C:28EFB    A$psock$223
  0C:28EFC    A$psock$224
  0C:28EFD    A$psock$225
  0C:28F00    A$psock$226
  0C:28F01    A$psock$227
  0C:28F02    A$psock$228
  0C:28F03    A$psock$229
  0C:28F06    A$psock$230
  0C:28F08    A$psock$233
  0C:28F08    C$psock.c$82$1$1
  0C:28F08    XFpsock$buf_setup$0$0
  0C:28F09    A$psock$255
  0C:28F09    C$psock.c$85$1$1
  0C:28F09    Fpsock$buf_bufdata$0$0
  0C:28F0B    A$psock$256
  0C:28F0E    A$psock$257
  0C:28F10    A$psock$258
  0C:28F12    A$psock$259
  0C:28F14    A$psock$260
  0C:28F16    A$psock$261
  0C:28F18    A$psock$262
  0C:28F1A    A$psock$265
  0C:28F1A    C$psock.c$90$1$1
  0C:28F1C    A$psock$266
  0C:28F1E    A$psock$267
  0C:28F1F    A$psock$268
  0C:28F21    A$psock$269
  0C:28F22    A$psock$270
  0C:28F24    A$psock$271
  0C:28F25    A$psock$272
  0C:28F27    A$psock$273
  0C:28F29    A$psock$274
  0C:28F2B    A$psock$275
  0C:28F2D    A$psock$276
  0C:28F2F    A$psock$277
  0C:28F31    A$psock$278
  0C:28F32    A$psock$279
  0C:28F35    A$psock$280
  0C:28F36    A$psock$281
  0C:28F37    A$psock$282
  0C:28F3A    A$psock$283
  0C:28F3B    A$psock$284
  0C:28F3C    A$psock$285
  0C:28F3E    A$psock$286
  0C:28F3F    A$psock$287
  0C:28F41    A$psock$288
  0C:28F43    A$psock$289
  0C:28F44    A$psock$290
  0C:28F46    A$psock$291
  0C:28F47    A$psock$292
  0C:28F48    A$psock$293
  0C:28F49    A$psock$294
  0C:28F4A    A$psock$295
  0C:28F4B    A$psock$296
  0C:28F4C    A$psock$297
  0C:28F4D    A$psock$298
  0C:28F4E    A$psock$299
  0C:28F4F    A$psock$300
  0C:28F50    A$psock$301
  0C:28F51    A$psock$302
  0C:28F53    A$psock$303
  0C:28F55    A$psock$304
  0C:28F56    A$psock$305
  0C:28F58    A$psock$306
  0C:28F59    A$psock$307
  0C:28F5B    A$psock$308
  0C:28F5C    A$psock$309
  0C:28F5E    A$psock$310
  0C:28F60    A$psock$311
  0C:28F62    A$psock$312
  0C:28F63    A$psock$313
  0C:28F66    A$psock$314
  0C:28F67    A$psock$315
  0C:28F68    A$psock$316
  0C:28F6B    A$psock$317
  0C:28F6C    A$psock$318
  0C:28F6D    A$psock$319
  0C:28F6F    A$psock$320
  0C:28F71    A$psock$321
  0C:28F72    A$psock$322
  0C:28F74    A$psock$323
  0C:28F76    A$psock$324
  0C:28F77    A$psock$325
  0C:28F78    A$psock$326
  0C:28F79    A$psock$327
  0C:28F7A    A$psock$328
  0C:28F7B    A$psock$329
  0C:28F7C    A$psock$330
  0C:28F7D    A$psock$331
  0C:28F7E    A$psock$332
  0C:28F80    A$psock$333
  0C:28F83    A$psock$337
  0C:28F83    C$psock.c$91$2$2
  0C:28F85    A$psock$338
  0C:28F86    A$psock$339
  0C:28F88    A$psock$340
  0C:28F89    A$psock$341
  0C:28F8B    A$psock$342
  0C:28F8C    A$psock$343
  0C:28F8E    A$psock$344
  0C:28F90    A$psock$345
  0C:28F92    A$psock$346
  0C:28F93    A$psock$347
  0C:28F96    A$psock$348
  0C:28F97    A$psock$349
  0C:28F98    A$psock$350
  0C:28F9B    A$psock$351
  0C:28F9C    A$psock$352
  0C:28F9D    A$psock$353
  0C:28F9E    A$psock$354
  0C:28FA1    A$psock$355
  0C:28FA2    A$psock$356
  0C:28FA3    A$psock$357
  0C:28FA5    A$psock$358
  0C:28FA7    A$psock$359
  0C:28FA8    A$psock$360
  0C:28FAA    A$psock$361
  0C:28FAC    A$psock$362
  0C:28FAD    A$psock$363
  0C:28FAE    A$psock$364
  0C:28FAF    A$psock$365
  0C:28FB0    A$psock$366
  0C:28FB1    A$psock$367
  0C:28FB2    A$psock$368
  0C:28FB3    A$psock$369
  0C:28FB4    A$psock$370
  0C:28FB5    A$psock$371
  0C:28FB6    A$psock$372
  0C:28FB7    A$psock$373
  0C:28FB9    A$psock$374
  0C:28FBB    A$psock$375
  0C:28FBC    A$psock$376
  0C:28FBE    A$psock$377
  0C:28FBF    A$psock$378
  0C:28FC1    A$psock$379
  0C:28FC2    A$psock$380
  0C:28FC4    A$psock$381
  0C:28FC7    A$psock$382
  0C:28FC8    A$psock$383
  0C:28FC9    A$psock$384
  0C:28FCC    A$psock$385
  0C:28FCD    A$psock$386
  0C:28FCE    A$psock$387
  0C:28FD1    A$psock$388
  0C:28FD2    A$psock$389
  0C:28FD5    A$psock$390
  0C:28FD6    A$psock$391
  0C:28FD7    A$psock$392
  0C:28FD8    A$psock$393
  0C:28FD9    A$psock$394
  0C:28FDA    A$psock$395
  0C:28FDB    A$psock$396
  0C:28FDC    A$psock$397
  0C:28FDD    A$psock$398
  0C:28FDF    A$psock$399
  0C:28FE1    A$psock$400
  0C:28FE2    A$psock$401
  0C:28FE5    A$psock$402
  0C:28FE6    A$psock$403
  0C:28FE7    A$psock$404
  0C:28FE8    A$psock$405
  0C:28FE9    A$psock$406
  0C:28FEA    A$psock$407
  0C:28FEB    A$psock$408
  0C:28FED    A$psock$409
  0C:28FEF    A$psock$410
  0C:28FF0    A$psock$411
  0C:28FF2    A$psock$412
  0C:28FF3    A$psock$413
  0C:28FF5    A$psock$414
  0C:28FF6    A$psock$415
  0C:28FF8    A$psock$416
  0C:28FFA    A$psock$417
  0C:28FFC    A$psock$418
  0C:28FFE    A$psock$419
  0C:29001    A$psock$420
  0C:29003    A$psock$421
  0C:29005    A$psock$422
  0C:29007    A$psock$425
  0C:29007    C$psock.c$92$2$2
  0C:29009    A$psock$426
  0C:2900A    A$psock$427
  0C:2900C    A$psock$428
  0C:2900D    A$psock$429
  0C:2900F    A$psock$430
  0C:29010    A$psock$431
  0C:29012    A$psock$432
  0C:29015    A$psock$433
  0C:29016    A$psock$434
  0C:29017    A$psock$435
  0C:2901A    A$psock$436
  0C:2901B    A$psock$437
  0C:2901C    A$psock$438
  0C:2901F    A$psock$439
  0C:29020    A$psock$440
  0C:29022    A$psock$441
  0C:29024    A$psock$442
  0C:29026    A$psock$443
  0C:29028    A$psock$444
  0C:2902A    A$psock$445
  0C:2902B    A$psock$446
  0C:2902E    A$psock$447
  0C:2902F    A$psock$448
  0C:29030    A$psock$449
  0C:29033    A$psock$450
  0C:29034    A$psock$451
  0C:29035    A$psock$452
  0C:29037    A$psock$453
  0C:29039    A$psock$454
  0C:2903A    A$psock$455
  0C:2903B    A$psock$456
  0C:2903C    A$psock$457
  0C:2903D    A$psock$458
  0C:2903E    A$psock$459
  0C:2903F    A$psock$460
  0C:29040    A$psock$461
  0C:29041    A$psock$462
  0C:29043    A$psock$463
  0C:29044    A$psock$464
  0C:29046    A$psock$465
  0C:29047    A$psock$466
  0C:29049    A$psock$467
  0C:2904A    A$psock$468
  0C:2904C    A$psock$469
  0C:2904D    A$psock$470
  0C:29050    A$psock$471
  0C:29051    A$psock$472
  0C:29052    A$psock$473
  0C:29055    A$psock$474
  0C:29056    A$psock$475
  0C:29057    A$psock$476
  0C:2905A    A$psock$479
  0C:2905A    C$psock.c$93$2$2
  0C:2905C    A$psock$480
  0C:2905E    A$psock$481
  0C:2905F    A$psock$482
  0C:29061    A$psock$483
  0C:29062    A$psock$484
  0C:29064    A$psock$485
  0C:29065    A$psock$486
  0C:29067    A$psock$487
  0C:2906A    A$psock$488
  0C:2906B    A$psock$489
  0C:2906C    A$psock$490
  0C:2906F    A$psock$491
  0C:29070    A$psock$492
  0C:29072    A$psock$493
  0C:29074    A$psock$494
  0C:29075    A$psock$495
  0C:29076    A$psock$496
  0C:29077    A$psock$497
  0C:29078    A$psock$498
  0C:29079    A$psock$499
  0C:2907A    A$psock$500
  0C:2907B    A$psock$501
  0C:2907C    A$psock$502
  0C:2907D    A$psock$503
  0C:2907F    A$psock$504
  0C:29081    A$psock$505
  0C:29082    A$psock$506
  0C:29084    A$psock$507
  0C:29085    A$psock$508
  0C:29087    A$psock$509
  0C:29088    A$psock$510
  0C:2908A    A$psock$511
  0C:2908B    A$psock$512
  0C:2908E    A$psock$513
  0C:2908F    A$psock$514
  0C:29090    A$psock$515
  0C:29093    A$psock$518
  0C:29093    C$psock.c$94$2$2
  0C:29095    A$psock$519
  0C:29097    A$psock$520
  0C:29098    A$psock$521
  0C:2909A    A$psock$522
  0C:2909B    A$psock$523
  0C:2909D    A$psock$524
  0C:2909E    A$psock$525
  0C:290A0    A$psock$526
  0C:290A3    A$psock$527
  0C:290A4    A$psock$528
  0C:290A5    A$psock$529
  0C:290A8    A$psock$530
  0C:290A9    A$psock$531
  0C:290AA    A$psock$532
  0C:290AD    A$psock$533
  0C:290AE    A$psock$534
  0C:290B0    A$psock$535
  0C:290B2    A$psock$536
  0C:290B3    A$psock$537
  0C:290B4    A$psock$538
  0C:290B5    A$psock$539
  0C:290B6    A$psock$540
  0C:290B7    A$psock$541
  0C:290B8    A$psock$542
  0C:290B9    A$psock$543
  0C:290BA    A$psock$544
  0C:290BC    A$psock$545
  0C:290BE    A$psock$546
  0C:290BF    A$psock$547
  0C:290C1    A$psock$548
  0C:290C2    A$psock$549
  0C:290C4    A$psock$550
  0C:290C5    A$psock$551
  0C:290C7    A$psock$552
  0C:290C8    A$psock$553
  0C:290CB    A$psock$554
  0C:290CC    A$psock$555
  0C:290CD    A$psock$556
  0C:290D0    A$psock$557
  0C:290D1    A$psock$558
  0C:290D2    A$psock$559
  0C:290D5    A$psock$562
  0C:290D5    C$psock.c$95$2$2
  0C:290D7    A$psock$563
  0C:290D9    A$psock$564
  0C:290DB    A$psock$565
  0C:290DC    A$psock$566
  0C:290DF    A$psock$567
  0C:290E0    A$psock$568
  0C:290E1    A$psock$569
  0C:290E4    A$psock$572
  0C:290E4    C$psock.c$96$2$2
  0C:290E7    A$psock$573
  0C:290EA    A$psock$577
  0C:290EA    C$psock.c$97$1$1
  0C:290EC    A$psock$578
  0C:290EE    A$psock$579
  0C:290EF    A$psock$580
  0C:290F1    A$psock$581
  0C:290F3    A$psock$582
  0C:290F4    A$psock$583
  0C:290F6    A$psock$584
  0C:290F7    A$psock$585
  0C:290FA    A$psock$586
  0C:290FB    A$psock$587
  0C:290FD    A$psock$588
  0C:290FE    A$psock$589
  0C:290FF    A$psock$590
  0C:29102    A$psock$591
  0C:29104    A$psock$593
  0C:29107    A$psock$597
  0C:29107    C$psock.c$98$2$3
  0C:29109    A$psock$598
  0C:2910A    A$psock$599
  0C:2910C    A$psock$600
  0C:2910D    A$psock$601
  0C:2910F    A$psock$602
  0C:29110    A$psock$603
  0C:29112    A$psock$604
  0C:29114    A$psock$605
  0C:29116    A$psock$606
  0C:29117    A$psock$607
  0C:2911A    A$psock$608
  0C:2911B    A$psock$609
  0C:2911C    A$psock$610
  0C:2911F    A$psock$611
  0C:29120    A$psock$612
  0C:29121    A$psock$613
  0C:29122    A$psock$614
  0C:29125    A$psock$615
  0C:29126    A$psock$616
  0C:29127    A$psock$617
  0C:29129    A$psock$618
  0C:2912B    A$psock$619
  0C:2912C    A$psock$620
  0C:2912E    A$psock$621
  0C:29130    A$psock$622
  0C:29131    A$psock$623
  0C:29132    A$psock$624
  0C:29133    A$psock$625
  0C:29134    A$psock$626
  0C:29135    A$psock$627
  0C:29136    A$psock$628
  0C:29137    A$psock$629
  0C:29138    A$psock$630
  0C:29139    A$psock$631
  0C:2913A    A$psock$632
  0C:2913B    A$psock$633
  0C:2913D    A$psock$634
  0C:2913F    A$psock$635
  0C:29140    A$psock$636
  0C:29142    A$psock$637
  0C:29143    A$psock$638
  0C:29145    A$psock$639
  0C:29146    A$psock$640
  0C:29148    A$psock$641
  0C:2914B    A$psock$642
  0C:2914C    A$psock$643
  0C:2914D    A$psock$644
  0C:29150    A$psock$645
  0C:29151    A$psock$646
  0C:29152    A$psock$647
  0C:29155    A$psock$648
  0C:29156    A$psock$649
  0C:29159    A$psock$650
  0C:2915A    A$psock$651
  0C:2915B    A$psock$652
  0C:2915C    A$psock$653
  0C:2915D    A$psock$654
  0C:2915E    A$psock$655
  0C:2915F    A$psock$656
  0C:29160    A$psock$657
  0C:29161    A$psock$658
  0C:29163    A$psock$659
  0C:29165    A$psock$660
  0C:29166    A$psock$661
  0C:29169    A$psock$662
  0C:2916A    A$psock$663
  0C:2916B    A$psock$664
  0C:2916C    A$psock$665
  0C:2916D    A$psock$666
  0C:2916E    A$psock$667
  0C:2916F    A$psock$668
  0C:29171    A$psock$669
  0C:29173    A$psock$670
  0C:29174    A$psock$671
  0C:29176    A$psock$672
  0C:29177    A$psock$673
  0C:29179    A$psock$674
  0C:2917A    A$psock$675
  0C:2917C    A$psock$676
  0C:2917E    A$psock$677
  0C:29180    A$psock$678
  0C:29182    A$psock$679
  0C:29185    A$psock$680
  0C:29187    A$psock$681
  0C:29189    A$psock$682
  0C:2918B    A$psock$685
  0C:2918B    C$psock.c$99$2$3
  0C:2918D    A$psock$686
  0C:2918E    A$psock$687
  0C:29190    A$psock$688
  0C:29191    A$psock$689
  0C:29193    A$psock$690
  0C:29194    A$psock$691
  0C:29196    A$psock$692
  0C:29199    A$psock$693
  0C:2919A    A$psock$694
  0C:2919B    A$psock$695
  0C:2919E    A$psock$696
  0C:2919F    A$psock$697
  0C:291A0    A$psock$698
  0C:291A3    A$psock$699
  0C:291A4    A$psock$700
  0C:291A6    A$psock$701
  0C:291A8    A$psock$702
  0C:291AA    A$psock$703
  0C:291AC    A$psock$704
  0C:291AE    A$psock$705
  0C:291AF    A$psock$706
  0C:291B2    A$psock$707
  0C:291B3    A$psock$708
  0C:291B4    A$psock$709
  0C:291B7    A$psock$710
  0C:291B8    A$psock$711
  0C:291B9    A$psock$712
  0C:291BB    A$psock$713
  0C:291BD    A$psock$714
  0C:291BE    A$psock$715
  0C:291BF    A$psock$716
  0C:291C0    A$psock$717
  0C:291C1    A$psock$718
  0C:291C2    A$psock$719
  0C:291C3    A$psock$720
  0C:291C4    A$psock$721
  0C:291C5    A$psock$722
  0C:291C7    A$psock$723
  0C:291C8    A$psock$724
  0C:291CA    A$psock$725
  0C:291CB    A$psock$726
  0C:291CD    A$psock$727
  0C:291CE    A$psock$728
  0C:291D0    A$psock$729
  0C:291D1    A$psock$730
  0C:291D4    A$psock$731
  0C:291D5    A$psock$732
  0C:291D6    A$psock$733
  0C:291D9    A$psock$734
  0C:291DA    A$psock$735
  0C:291DB    A$psock$736
  0C:291DE    A$psock$739
  0C:291DE    C$psock.c$100$2$3
  0C:291E0    A$psock$740
  0C:291E2    A$psock$741
  0C:291E3    A$psock$742
  0C:291E5    A$psock$743
  0C:291E6    A$psock$744
  0C:291E8    A$psock$745
  0C:291E9    A$psock$746
  0C:291EB    A$psock$747
  0C:291EC    A$psock$748
  0C:291EF    A$psock$749
  0C:291F0    A$psock$750
  0C:291F1    A$psock$751
  0C:291F4    A$psock$754
  0C:291F4    C$psock.c$101$2$3
  0C:291F6    A$psock$755
  0C:291F8    A$psock$756
  0C:291F9    A$psock$757
  0C:291FB    A$psock$758
  0C:291FC    A$psock$759
  0C:291FE    A$psock$760
  0C:291FF    A$psock$761
  0C:29201    A$psock$762
  0C:29204    A$psock$763
  0C:29205    A$psock$764
  0C:29206    A$psock$765
  0C:29209    A$psock$766
  0C:2920A    A$psock$767
  0C:2920B    A$psock$768
  0C:2920E    A$psock$769
  0C:2920F    A$psock$770
  0C:29211    A$psock$771
  0C:29213    A$psock$772
  0C:29214    A$psock$773
  0C:29215    A$psock$774
  0C:29216    A$psock$775
  0C:29217    A$psock$776
  0C:29218    A$psock$777
  0C:29219    A$psock$778
  0C:2921A    A$psock$779
  0C:2921B    A$psock$780
  0C:2921D    A$psock$781
  0C:2921F    A$psock$782
  0C:29220    A$psock$783
  0C:29222    A$psock$784
  0C:29223    A$psock$785
  0C:29225    A$psock$786
  0C:29226    A$psock$787
  0C:29228    A$psock$788
  0C:29229    A$psock$789
  0C:2922C    A$psock$790
  0C:2922D    A$psock$791
  0C:2922E    A$psock$792
  0C:29231    A$psock$793
  0C:29232    A$psock$794
  0C:29233    A$psock$795
  0C:29236    A$psock$798
  0C:29236    C$psock.c$102$2$3
  0C:29238    A$psock$799
  0C:2923A    A$psock$800
  0C:2923C    A$psock$801
  0C:2923D    A$psock$802
  0C:29240    A$psock$803
  0C:29241    A$psock$804
  0C:29242    A$psock$805
  0C:29245    A$psock$808
  0C:29245    C$psock.c$103$2$3
  0C:29248    A$psock$809
  0C:2924B    A$psock$813
  0C:2924B    C$psock.c$105$2$4
  0C:2924D    A$psock$814
  0C:2924E    A$psock$815
  0C:29250    A$psock$816
  0C:29251    A$psock$817
  0C:29253    A$psock$818
  0C:29254    A$psock$819
  0C:29256    A$psock$820
  0C:29258    A$psock$821
  0C:2925A    A$psock$822
  0C:2925B    A$psock$823
  0C:2925E    A$psock$824
  0C:2925F    A$psock$825
  0C:29260    A$psock$826
  0C:29263    A$psock$827
  0C:29264    A$psock$828
  0C:29265    A$psock$829
  0C:29266    A$psock$830
  0C:29269    A$psock$831
  0C:2926A    A$psock$832
  0C:2926B    A$psock$833
  0C:2926D    A$psock$834
  0C:2926F    A$psock$835
  0C:29270    A$psock$836
  0C:29272    A$psock$837
  0C:29274    A$psock$838
  0C:29275    A$psock$839
  0C:29276    A$psock$840
  0C:29277    A$psock$841
  0C:29278    A$psock$842
  0C:29279    A$psock$843
  0C:2927A    A$psock$844
  0C:2927B    A$psock$845
  0C:2927C    A$psock$846
  0C:2927D    A$psock$847
  0C:2927E    A$psock$848
  0C:2927F    A$psock$849
  0C:29281    A$psock$850
  0C:29283    A$psock$851
  0C:29284    A$psock$852
  0C:29286    A$psock$853
  0C:29287    A$psock$854
  0C:29289    A$psock$855
  0C:2928A    A$psock$856
  0C:2928C    A$psock$857
  0C:2928F    A$psock$858
  0C:29290    A$psock$859
  0C:29291    A$psock$860
  0C:29294    A$psock$861
  0C:29295    A$psock$862
  0C:29296    A$psock$863
  0C:29299    A$psock$864
  0C:2929A    A$psock$865
  0C:2929D    A$psock$866
  0C:2929E    A$psock$867
  0C:2929F    A$psock$868
  0C:292A0    A$psock$869
  0C:292A1    A$psock$870
  0C:292A2    A$psock$871
  0C:292A3    A$psock$872
  0C:292A4    A$psock$873
  0C:292A5    A$psock$874
  0C:292A7    A$psock$875
  0C:292A9    A$psock$876
  0C:292AA    A$psock$877
  0C:292AD    A$psock$878
  0C:292AE    A$psock$879
  0C:292AF    A$psock$880
  0C:292B0    A$psock$881
  0C:292B1    A$psock$882
  0C:292B2    A$psock$883
  0C:292B3    A$psock$884
  0C:292B5    A$psock$885
  0C:292B7    A$psock$886
  0C:292B8    A$psock$887
  0C:292BA    A$psock$888
  0C:292BB    A$psock$889
  0C:292BD    A$psock$890
  0C:292BE    A$psock$891
  0C:292C0    A$psock$892
  0C:292C2    A$psock$893
  0C:292C4    A$psock$894
  0C:292C6    A$psock$895
  0C:292C9    A$psock$896
  0C:292CB    A$psock$897
  0C:292CD    A$psock$898
  0C:292CF    A$psock$901
  0C:292CF    C$psock.c$106$2$4
  0C:292D1    A$psock$902
  0C:292D2    A$psock$903
  0C:292D4    A$psock$904
  0C:292D5    A$psock$905
  0C:292D7    A$psock$906
  0C:292D8    A$psock$907
  0C:292DA    A$psock$908
  0C:292DD    A$psock$909
  0C:292DE    A$psock$910
  0C:292DF    A$psock$911
  0C:292E2    A$psock$912
  0C:292E3    A$psock$913
  0C:292E4    A$psock$914
  0C:292E7    A$psock$915
  0C:292E8    A$psock$916
  0C:292EA    A$psock$917
  0C:292EC    A$psock$918
  0C:292ED    A$psock$919
  0C:292EF    A$psock$920
  0C:292F0    A$psock$921
  0C:292F2    A$psock$922
  0C:292F3    A$psock$923
  0C:292F5    A$psock$924
  0C:292F7    A$psock$925
  0C:292F9    A$psock$926
  0C:292FA    A$psock$927
  0C:292FD    A$psock$928
  0C:292FE    A$psock$929
  0C:292FF    A$psock$930
  0C:29302    A$psock$931
  0C:29303    A$psock$932
  0C:29304    A$psock$933
  0C:29306    A$psock$934
  0C:29308    A$psock$935
  0C:29309    A$psock$936
  0C:2930A    A$psock$937
  0C:2930B    A$psock$938
  0C:2930C    A$psock$939
  0C:2930D    A$psock$940
  0C:2930E    A$psock$941
  0C:2930F    A$psock$942
  0C:29310    A$psock$943
  0C:29312    A$psock$944
  0C:29313    A$psock$945
  0C:29315    A$psock$946
  0C:29316    A$psock$947
  0C:29318    A$psock$948
  0C:29319    A$psock$949
  0C:2931B    A$psock$950
  0C:2931C    A$psock$951
  0C:2931F    A$psock$952
  0C:29320    A$psock$953
  0C:29321    A$psock$954
  0C:29324    A$psock$955
  0C:29325    A$psock$956
  0C:29326    A$psock$957
  0C:29329    A$psock$960
  0C:29329    C$psock.c$107$2$4
  0C:2932B    A$psock$961
  0C:2932D    A$psock$962
  0C:2932F    A$psock$963
  0C:29332    A$psock$964
  0C:29333    A$psock$965
  0C:29334    A$psock$966
  0C:29337    A$psock$967
  0C:29338    A$psock$968
  0C:2933A    A$psock$969
  0C:2933C    A$psock$970
  0C:2933D    A$psock$971
  0C:2933E    A$psock$972
  0C:2933F    A$psock$973
  0C:29340    A$psock$974
  0C:29341    A$psock$975
  0C:29342    A$psock$976
  0C:29343    A$psock$977
  0C:29344    A$psock$978
  0C:29345    A$psock$979
  0C:29347    A$psock$980
  0C:29349    A$psock$981
  0C:2934B    A$psock$982
  0C:2934C    A$psock$983
  0C:2934F    A$psock$984
  0C:29350    A$psock$985
  0C:29351    A$psock$986
  0C:29354    A$psock$989
  0C:29354    C$psock.c$108$2$4
  0C:29356    A$psock$990
  0C:29358    A$psock$991
  0C:29359    A$psock$992
  0C:2935B    A$psock$993
  0C:2935C    A$psock$994
  0C:2935E    A$psock$995
  0C:2935F    A$psock$996
  0C:29361    A$psock$997
  0C:29364    A$psock$998
  0C:29365    A$psock$999
  0C:29366    A$psock$1000
  0C:29369    A$psock$1001
  0C:2936A    A$psock$1002
  0C:2936B    A$psock$1003
  0C:2936E    A$psock$1004
  0C:2936F    A$psock$1005
  0C:29371    A$psock$1006
  0C:29373    A$psock$1007
  0C:29374    A$psock$1008
  0C:29375    A$psock$1009
  0C:29376    A$psock$1010
  0C:29377    A$psock$1011
  0C:29378    A$psock$1012
  0C:29379    A$psock$1013
  0C:2937A    A$psock$1014
  0C:2937B    A$psock$1015
  0C:2937D    A$psock$1016
  0C:2937F    A$psock$1017
  0C:29380    A$psock$1018
  0C:29382    A$psock$1019
  0C:29383    A$psock$1020
  0C:29385    A$psock$1021
  0C:29386    A$psock$1022
  0C:29388    A$psock$1023
  0C:29389    A$psock$1024
  0C:2938C    A$psock$1025
  0C:2938D    A$psock$1026
  0C:2938E    A$psock$1027
  0C:29391    A$psock$1028
  0C:29392    A$psock$1029
  0C:29393    A$psock$1030
  0C:29396    A$psock$1033
  0C:29396    C$psock.c$109$2$4
  0C:29398    A$psock$1034
  0C:2939A    A$psock$1035
  0C:2939B    A$psock$1036
  0C:2939D    A$psock$1037
  0C:2939E    A$psock$1038
  0C:293A0    A$psock$1039
  0C:293A1    A$psock$1040
  0C:293A3    A$psock$1041
  0C:293A4    A$psock$1042
  0C:293A7    A$psock$1043
  0C:293A8    A$psock$1044
  0C:293A9    A$psock$1045
  0C:293AC    A$psock$1048
  0C:293AC    C$psock.c$110$2$4
  0C:293AF    A$psock$1050
  0C:293B2    A$psock$1051
  0C:293B4    A$psock$1054
  0C:293B4    C$psock.c$112$1$1
  0C:293B4    XFpsock$buf_bufdata$0$0
  0C:293B5    A$psock$1075
  0C:293B5    C$psock.c$115$1$1
  0C:293B5    Fpsock$buf_bufto$0$0
  0C:293B7    A$psock$1076
  0C:293BA    A$psock$1077
  0C:293BC    A$psock$1078
  0C:293BE    A$psock$1079
  0C:293C0    A$psock$1080
  0C:293C2    A$psock$1081
  0C:293C4    A$psock$1082
  0C:293C6    A$psock$1086
  0C:293C6    C$psock.c$119$1$1
  0C:293C8    A$psock$1087
  0C:293C9    A$psock$1088
  0C:293CB    A$psock$1089
  0C:293CC    A$psock$1090
  0C:293CD    A$psock$1091
  0C:293CE    A$psock$1092
  0C:293CF    A$psock$1093
  0C:293D0    A$psock$1094
  0C:293D1    A$psock$1095
  0C:293D2    A$psock$1096
  0C:293D4    A$psock$1097
  0C:293D6    A$psock$1098
  0C:293D8    A$psock$1099
  0C:293DA    A$psock$1100
  0C:293DD    A$psock$1101
  0C:293DE    A$psock$1102
  0C:293DF    A$psock$1103
  0C:293E2    A$psock$1104
  0C:293E3    A$psock$1105
  0C:293E4    A$psock$1106
  0C:293E6    A$psock$1107
  0C:293E9    A$psock$1109
  0C:293EB    A$psock$1110
  0C:293ED    A$psock$1111
  0C:293EE    A$psock$1112
  0C:293F0    A$psock$1113
  0C:293F2    A$psock$1114
  0C:293F3    A$psock$1115
  0C:293F4    A$psock$1116
  0C:293F5    A$psock$1117
  0C:293F6    A$psock$1118
  0C:293F7    A$psock$1119
  0C:293F8    A$psock$1120
  0C:293F9    A$psock$1121
  0C:293FA    A$psock$1122
  0C:293FB    A$psock$1123
  0C:293FC    A$psock$1124
  0C:293FD    A$psock$1125
  0C:293FF    A$psock$1126
  0C:29401    A$psock$1127
  0C:29402    A$psock$1128
  0C:29404    A$psock$1129
  0C:29405    A$psock$1130
  0C:29407    A$psock$1131
  0C:29408    A$psock$1132
  0C:2940A    A$psock$1133
  0C:2940D    A$psock$1134
  0C:2940E    A$psock$1135
  0C:2940F    A$psock$1136
  0C:29412    A$psock$1137
  0C:29413    A$psock$1138
  0C:29414    A$psock$1139
  0C:29416    A$psock$1140
  0C:29419    A$psock$1144
  0C:29419    C$psock.c$120$2$2
  0C:2941B    A$psock$1145
  0C:2941C    A$psock$1146
  0C:2941E    A$psock$1147
  0C:2941F    A$psock$1148
  0C:29421    A$psock$1149
  0C:29422    A$psock$1150
  0C:29424    A$psock$1151
  0C:29426    A$psock$1152
  0C:29428    A$psock$1153
  0C:29429    A$psock$1154
  0C:2942C    A$psock$1155
  0C:2942D    A$psock$1156
  0C:2942E    A$psock$1157
  0C:29431    A$psock$1158
  0C:29432    A$psock$1159
  0C:29433    A$psock$1160
  0C:29434    A$psock$1161
  0C:29437    A$psock$1162
  0C:29438    A$psock$1163
  0C:29439    A$psock$1164
  0C:2943B    A$psock$1165
  0C:2943D    A$psock$1166
  0C:2943E    A$psock$1167
  0C:29440    A$psock$1168
  0C:29442    A$psock$1169
  0C:29443    A$psock$1170
  0C:29444    A$psock$1171
  0C:29445    A$psock$1172
  0C:29446    A$psock$1173
  0C:29447    A$psock$1174
  0C:29448    A$psock$1175
  0C:29449    A$psock$1176
  0C:2944A    A$psock$1177
  0C:2944B    A$psock$1178
  0C:2944C    A$psock$1179
  0C:2944D    A$psock$1180
  0C:2944F    A$psock$1181
  0C:29451    A$psock$1182
  0C:29452    A$psock$1183
  0C:29454    A$psock$1184
  0C:29455    A$psock$1185
  0C:29457    A$psock$1186
  0C:29458    A$psock$1187
  0C:2945A    A$psock$1188
  0C:2945C    A$psock$1189
  0C:2945E    A$psock$1190
  0C:2945F    A$psock$1191
  0C:29462    A$psock$1192
  0C:29463    A$psock$1193
  0C:29464    A$psock$1194
  0C:29467    A$psock$1195
  0C:29468    A$psock$1196
  0C:29469    A$psock$1197
  0C:2946A    A$psock$1198
  0C:2946D    A$psock$1199
  0C:2946E    A$psock$1200
  0C:2946F    A$psock$1201
  0C:29471    A$psock$1202
  0C:29473    A$psock$1203
  0C:29474    A$psock$1204
  0C:29476    A$psock$1205
  0C:29477    A$psock$1206
  0C:29479    A$psock$1207
  0C:2947A    A$psock$1208
  0C:2947C    A$psock$1209
  0C:2947F    A$psock$1210
  0C:29480    A$psock$1211
  0C:29482    A$psock$1212
  0C:29484    A$psock$1213
  0C:29485    A$psock$1214
  0C:29487    A$psock$1215
  0C:29488    A$psock$1216
  0C:2948A    A$psock$1217
  0C:2948B    A$psock$1218
  0C:2948D    A$psock$1219
  0C:2948E    A$psock$1220
  0C:29491    A$psock$1221
  0C:29493    A$psock$1222
  0C:29495    A$psock$1223
  0C:29496    A$psock$1224
  0C:29498    A$psock$1227
  0C:29498    C$psock.c$121$2$2
  0C:2949A    A$psock$1228
  0C:2949C    A$psock$1229
  0C:2949D    A$psock$1230
  0C:2949F    A$psock$1231
  0C:294A0    A$psock$1232
  0C:294A1    A$psock$1233
  0C:294A2    A$psock$1234
  0C:294A3    A$psock$1235
  0C:294A4    A$psock$1236
  0C:294A5    A$psock$1237
  0C:294A6    A$psock$1238
  0C:294A8    A$psock$1239
  0C:294AA    A$psock$1240
  0C:294AC    A$psock$1241
  0C:294AD    A$psock$1242
  0C:294AF    A$psock$1243
  0C:294B0    A$psock$1244
  0C:294B2    A$psock$1245
  0C:294B3    A$psock$1246
  0C:294B5    A$psock$1247
  0C:294B6    A$psock$1248
  0C:294B9    A$psock$1249
  0C:294BA    A$psock$1250
  0C:294BB    A$psock$1251
  0C:294BE    A$psock$1252
  0C:294BF    A$psock$1253
  0C:294C0    A$psock$1254
  0C:294C3    A$psock$1257
  0C:294C3    C$psock.c$122$2$2
  0C:294C5    A$psock$1258
  0C:294C7    A$psock$1259
  0C:294C8    A$psock$1260
  0C:294CA    A$psock$1261
  0C:294CB    A$psock$1262
  0C:294CC    A$psock$1263
  0C:294CD    A$psock$1264
  0C:294CE    A$psock$1265
  0C:294CF    A$psock$1266
  0C:294D0    A$psock$1267
  0C:294D1    A$psock$1268
  0C:294D3    A$psock$1269
  0C:294D5    A$psock$1270
  0C:294D6    A$psock$1271
  0C:294D8    A$psock$1272
  0C:294D9    A$psock$1273
  0C:294DB    A$psock$1274
  0C:294DC    A$psock$1275
  0C:294DE    A$psock$1276
  0C:294DF    A$psock$1277
  0C:294E2    A$psock$1278
  0C:294E3    A$psock$1279
  0C:294E4    A$psock$1280
  0C:294E7    A$psock$1281
  0C:294E8    A$psock$1282
  0C:294E9    A$psock$1283
  0C:294EC    A$psock$1286
  0C:294EC    C$psock.c$123$2$2
  0C:294EE    A$psock$1287
  0C:294F0    A$psock$1288
  0C:294F1    A$psock$1289
  0C:294F3    A$psock$1290
  0C:294F4    A$psock$1291
  0C:294F6    A$psock$1292
  0C:294F7    A$psock$1293
  0C:294F9    A$psock$1294
  0C:294FC    A$psock$1295
  0C:294FD    A$psock$1296
  0C:294FE    A$psock$1297
  0C:29501    A$psock$1298
  0C:29502    A$psock$1299
  0C:29503    A$psock$1300
  0C:29506    A$psock$1301
  0C:29507    A$psock$1303
  0C:29509    A$psock$1304
  0C:2950B    A$psock$1305
  0C:2950C    A$psock$1306
  0C:2950E    A$psock$1307
  0C:2950F    A$psock$1308
  0C:29511    A$psock$1309
  0C:29512    A$psock$1310
  0C:29514    A$psock$1311
  0C:29515    A$psock$1312
  0C:29518    A$psock$1313
  0C:29519    A$psock$1314
  0C:2951A    A$psock$1315
  0C:2951D    A$psock$1318
  0C:2951D    C$psock.c$124$2$2
  0C:2951F    A$psock$1319
  0C:29521    A$psock$1320
  0C:29523    A$psock$1321
  0C:29526    A$psock$1322
  0C:29527    A$psock$1323
  0C:29528    A$psock$1324
  0C:2952B    A$psock$1325
  0C:2952C    A$psock$1326
  0C:2952D    A$psock$1327
  0C:29530    A$psock$1328
  0C:29531    A$psock$1330
  0C:29533    A$psock$1331
  0C:29535    A$psock$1332
  0C:29537    A$psock$1333
  0C:29538    A$psock$1334
  0C:2953B    A$psock$1335
  0C:2953C    A$psock$1336
  0C:2953D    A$psock$1337
  0C:29540    A$psock$1340
  0C:29540    C$psock.c$126$2$2
  0C:29542    A$psock$1341
  0C:29544    A$psock$1342
  0C:29545    A$psock$1343
  0C:29547    A$psock$1344
  0C:29548    A$psock$1345
  0C:29549    A$psock$1346
  0C:2954A    A$psock$1347
  0C:2954C    A$psock$1348
  0C:2954D    A$psock$1349
  0C:29550    A$psock$1350
  0C:29552    A$psock$1352
  0C:29555    A$psock$1356
  0C:29555    C$psock.c$127$3$3
  0C:29558    A$psock$1357
  0C:2955B    A$psock$1361
  0C:2955B    C$psock.c$131$1$1
  0C:2955D    A$psock$1362
  0C:2955F    A$psock$1363
  0C:29560    A$psock$1364
  0C:29562    A$psock$1365
  0C:29563    A$psock$1366
  0C:29565    A$psock$1367
  0C:29566    A$psock$1368
  0C:29568    A$psock$1369
  0C:2956A    A$psock$1370
  0C:2956C    A$psock$1371
  0C:2956E    A$psock$1372
  0C:29571    A$psock$1373
  0C:29572    A$psock$1374
  0C:29573    A$psock$1375
  0C:29576    A$psock$1376
  0C:29577    A$psock$1377
  0C:29578    A$psock$1380
  0C:29578    C$psock.c$132$2$4
  0C:2957A    A$psock$1381
  0C:2957C    A$psock$1382
  0C:2957F    A$psock$1386
  0C:2957F    C$psock.c$135$1$1
  0C:29580    A$psock$1387
  0C:29581    A$psock$1388
  0C:29583    A$psock$1389
  0C:29586    A$psock$1393
  0C:29586    C$psock.c$136$1$1
  0C:29588    A$psock$1394
  0C:2958A    A$psock$1395
  0C:2958C    A$psock$1396
  0C:2958E    A$psock$1397
  0C:2958F    A$psock$1398
  0C:29591    A$psock$1399
  0C:29593    A$psock$1400
  0C:29594    A$psock$1401
  0C:29595    A$psock$1402
  0C:29596    A$psock$1403
  0C:29597    A$psock$1404
  0C:29598    A$psock$1405
  0C:29599    A$psock$1406
  0C:2959A    A$psock$1407
  0C:2959B    A$psock$1408
  0C:2959C    A$psock$1409
  0C:2959D    A$psock$1410
  0C:2959E    A$psock$1411
  0C:295A0    A$psock$1412
  0C:295A2    A$psock$1413
  0C:295A3    A$psock$1414
  0C:295A5    A$psock$1415
  0C:295A6    A$psock$1416
  0C:295A8    A$psock$1417
  0C:295A9    A$psock$1418
  0C:295AB    A$psock$1419
  0C:295AD    A$psock$1420
  0C:295AF    A$psock$1421
  0C:295B0    A$psock$1422
  0C:295B3    A$psock$1423
  0C:295B4    A$psock$1424
  0C:295B5    A$psock$1425
  0C:295B8    A$psock$1426
  0C:295B9    A$psock$1427
  0C:295BA    A$psock$1428
  0C:295BB    A$psock$1429
  0C:295BE    A$psock$1430
  0C:295BF    A$psock$1431
  0C:295C0    A$psock$1432
  0C:295C2    A$psock$1433
  0C:295C4    A$psock$1434
  0C:295C5    A$psock$1435
  0C:295C7    A$psock$1436
  0C:295C8    A$psock$1437
  0C:295CA    A$psock$1438
  0C:295CB    A$psock$1439
  0C:295CD    A$psock$1440
  0C:295D0    A$psock$1441
  0C:295D1    A$psock$1442
  0C:295D3    A$psock$1443
  0C:295D5    A$psock$1444
  0C:295D6    A$psock$1445
  0C:295D8    A$psock$1448
  0C:295D8    C$psock.c$137$2$5
  0C:295DA    A$psock$1449
  0C:295DC    A$psock$1450
  0C:295DE    A$psock$1451
  0C:295E1    A$psock$1452
  0C:295E2    A$psock$1453
  0C:295E3    A$psock$1454
  0C:295E6    A$psock$1455
  0C:295E7    A$psock$1456
  0C:295E8    A$psock$1457
  0C:295EB    A$psock$1458
  0C:295EC    A$psock$1460
  0C:295EE    A$psock$1461
  0C:295F0    A$psock$1462
  0C:295F2    A$psock$1463
  0C:295F3    A$psock$1464
  0C:295F6    A$psock$1465
  0C:295F7    A$psock$1466
  0C:295F8    A$psock$1467
  0C:295FB    A$psock$1470
  0C:295FB    C$psock.c$138$2$5
  0C:295FD    A$psock$1471
  0C:295FF    A$psock$1472
  0C:29600    A$psock$1473
  0C:29602    A$psock$1474
  0C:29603    A$psock$1475
  0C:29604    A$psock$1476
  0C:29605    A$psock$1477
  0C:29606    A$psock$1478
  0C:29607    A$psock$1479
  0C:29608    A$psock$1480
  0C:29609    A$psock$1481
  0C:2960B    A$psock$1482
  0C:2960D    A$psock$1483
  0C:2960F    A$psock$1484
  0C:29610    A$psock$1485
  0C:29612    A$psock$1486
  0C:29613    A$psock$1487
  0C:29615    A$psock$1488
  0C:29616    A$psock$1489
  0C:29618    A$psock$1490
  0C:29619    A$psock$1491
  0C:2961C    A$psock$1492
  0C:2961D    A$psock$1493
  0C:2961E    A$psock$1494
  0C:29621    A$psock$1495
  0C:29622    A$psock$1496
  0C:29623    A$psock$1497
  0C:29626    A$psock$1500
  0C:29626    C$psock.c$140$2$5
  0C:29628    A$psock$1501
  0C:2962A    A$psock$1502
  0C:2962B    A$psock$1503
  0C:2962D    A$psock$1504
  0C:2962E    A$psock$1505
  0C:2962F    A$psock$1506
  0C:29630    A$psock$1507
  0C:29632    A$psock$1508
  0C:29633    A$psock$1509
  0C:29636    A$psock$1510
  0C:29638    A$psock$1511
  0C:2963A    A$psock$1513
  0C:2963B    A$psock$1515
  0C:2963D    A$psock$1516
  0C:2963F    A$psock$1517
  0C:29641    A$psock$1518
  0C:29644    A$psock$1522
  0C:29644    C$psock.c$141$3$6
  0C:29647    A$psock$1523
  0C:29649    A$psock$1527
  0C:29649    C$psock.c$145$1$1
  0C:2964C    A$psock$1529
  0C:2964F    A$psock$1530
  0C:29651    A$psock$1533
  0C:29651    C$psock.c$146$1$1
  0C:29651    XFpsock$buf_bufto$0$0
  0C:29652    A$psock$1548
  0C:29652    C$psock.c$149$1$1
  0C:29652    Fpsock$send_data$0$0
  0C:29654    A$psock$1549
  0C:29656    A$psock$1550
  0C:29658    A$psock$1551
  0C:2965A    A$psock$1552
  0C:2965C    A$psock$1553
  0C:2965E    A$psock$1554
  0C:29660    A$psock$1555
  0C:29662    A$psock$1558
  0C:29662    C$psock.c$151$1$1
  0C:29664    A$psock$1559
  0C:29665    A$psock$1560
  0C:29666    A$psock$1561
  0C:29667    A$psock$1562
  0C:29668    A$psock$1563
  0C:29669    A$psock$1564
  0C:2966B    A$psock$1565
  0C:2966D    A$psock$1566
  0C:2966F    A$psock$1567
  0C:29671    A$psock$1568
  0C:29674    A$psock$1569
  0C:29675    A$psock$1570
  0C:29678    A$psock$1571
  0C:2967B    A$psock$1572
  0C:2967C    A$psock$1573
  0C:2967D    A$psock$1574
  0C:29680    A$psock$1575
  0C:29683    A$psock$1580
  0C:29683    C$psock.c$152$1$1
  0C:29685    A$psock$1581
  0C:29687    A$psock$1582
  0C:29689    A$psock$1583
  0C:2968B    A$psock$1584
  0C:2968C    A$psock$1585
  0C:2968D    A$psock$1586
  0C:2968E    A$psock$1587
  0C:29690    A$psock$1588
  0C:29691    A$psock$1589
  0C:29692    A$psock$1590
  0C:29693    A$psock$1591
  0C:29694    A$psock$1592
  0C:29695    A$psock$1593
  0C:29696    A$psock$1594
  0C:29697    A$psock$1595
  0C:29699    A$psock$1596
  0C:2969B    A$psock$1597
  0C:2969C    A$psock$1598
  0C:2969D    A$psock$1599
  0C:2969E    A$psock$1600
  0C:296A0    A$psock$1601
  0C:296A1    A$psock$1602
  0C:296A3    A$psock$1603
  0C:296A4    A$psock$1604
  0C:296A6    A$psock$1605
  0C:296A8    A$psock$1606
  0C:296A9    A$psock$1607
  0C:296AC    A$psock$1608
  0C:296AD    A$psock$1609
  0C:296AE    A$psock$1610
  0C:296B1    A$psock$1611
  0C:296B2    A$psock$1612
  0C:296B3    A$psock$1613
  0C:296B6    A$psock$1614
  0C:296B7    A$psock$1615
  0C:296B8    A$psock$1616
  0C:296B9    A$psock$1617
  0C:296BA    A$psock$1618
  0C:296BB    A$psock$1619
  0C:296BC    A$psock$1620
  0C:296BD    A$psock$1621
  0C:296BE    A$psock$1622
  0C:296C0    A$psock$1623
  0C:296C1    A$psock$1624
  0C:296C2    A$psock$1625
  0C:296C3    A$psock$1626
  0C:296C4    A$psock$1627
  0C:296C5    A$psock$1628
  0C:296C7    A$psock$1629
  0C:296C9    A$psock$1630
  0C:296CB    A$psock$1631
  0C:296CD    A$psock$1632
  0C:296CE    A$psock$1633
  0C:296CF    A$psock$1634
  0C:296D0    A$psock$1635
  0C:296D3    A$psock$1636
  0C:296D4    A$psock$1637
  0C:296D5    A$psock$1638
  0C:296D8    A$psock$1639
  0C:296D9    A$psock$1640
  0C:296DA    A$psock$1641
  0C:296DC    A$psock$1642
  0C:296DD    A$psock$1643
  0C:296DF    A$psock$1644
  0C:296E0    A$psock$1645
  0C:296E1    A$psock$1646
  0C:296E2    A$psock$1647
  0C:296E3    A$psock$1648
  0C:296E4    A$psock$1649
  0C:296E5    A$psock$1650
  0C:296E6    A$psock$1651
  0C:296E7    A$psock$1652
  0C:296E8    A$psock$1653
  0C:296E9    A$psock$1654
  0C:296EA    A$psock$1655
  0C:296EB    A$psock$1656
  0C:296ED    A$psock$1657
  0C:296EF    A$psock$1658
  0C:296F1    A$psock$1659
  0C:296F3    A$psock$1662
  0C:296F3    C$psock.c$153$1$1
  0C:296F5    A$psock$1663
  0C:296F7    A$psock$1664
  0C:296F9    A$psock$1665
  0C:296FB    A$psock$1666
  0C:296FC    A$psock$1667
  0C:296FD    A$psock$1668
  0C:296FE    A$psock$1669
  0C:296FF    A$psock$1670
  0C:29700    A$psock$1671
  0C:29702    A$psock$1672
  0C:29704    A$psock$1673
  0C:29706    A$psock$1674
  0C:29708    A$psock$1675
  0C:2970B    A$psock$1676
  0C:2970C    A$psock$1677
  0C:2970D    A$psock$1678
  0C:29710    A$psock$1679
  0C:29711    A$psock$1680
  0C:29712    A$psock$1681
  0C:29715    A$psock$1682
  0C:29716    A$psock$1683
  0C:29718    A$psock$1684
  0C:29719    A$psock$1685
  0C:2971A    A$psock$1686
  0C:2971B    A$psock$1687
  0C:2971E    A$psock$1688
  0C:2971F    A$psock$1689
  0C:29720    A$psock$1690
  0C:29721    A$psock$1691
  0C:29722    A$psock$1692
  0C:29723    A$psock$1693
  0C:29724    A$psock$1694
  0C:29726    A$psock$1695
  0C:29728    A$psock$1696
  0C:2972A    A$psock$1697
  0C:2972C    A$psock$1698
  0C:2972E    A$psock$1699
  0C:29730    A$psock$1700
  0C:29732    A$psock$1701
  0C:29734    A$psock$1702
  0C:29736    A$psock$1703
  0C:29739    A$psock$1704
  0C:2973B    A$psock$1705
  0C:2973D    A$psock$1706
  0C:2973F    A$psock$1707
  0C:29741    A$psock$1708
  0C:29743    A$psock$1709
  0C:29745    A$psock$1710
  0C:29747    A$psock$1714
  0C:29747    C$psock.c$155$3$4
  0C:29749    A$psock$1715
  0C:2974A    A$psock$1716
  0C:2974B    A$psock$1717
  0C:2974C    A$psock$1718
  0C:2974D    A$psock$1719
  0C:2974E    A$psock$1720
  0C:29750    A$psock$1721
  0C:29752    A$psock$1722
  0C:29754    A$psock$1723
  0C:29757    A$psock$1724
  0C:29758    A$psock$1725
  0C:29759    A$psock$1726
  0C:2975C    A$psock$1727
  0C:2975D    A$psock$1728
  0C:2975E    A$psock$1729
  0C:29761    A$psock$1730
  0C:29762    A$psock$1731
  0C:29764    A$psock$1732
  0C:29765    A$psock$1733
  0C:29768    A$psock$1734
  0C:29769    A$psock$1735
  0C:2976A    A$psock$1736
  0C:2976B    A$psock$1737
  0C:2976C    A$psock$1738
  0C:2976D    A$psock$1739
  0C:2976E    A$psock$1740
  0C:29770    A$psock$1741
  0C:29772    A$psock$1742
  0C:29774    A$psock$1743
  0C:29776    A$psock$1744
  0C:29778    A$psock$1745
  0C:2977A    A$psock$1746
  0C:2977C    A$psock$1747
  0C:2977E    A$psock$1748
  0C:29780    A$psock$1749
  0C:29783    A$psock$1750
  0C:29785    A$psock$1751
  0C:29787    A$psock$1752
  0C:29789    A$psock$1756
  0C:29789    C$psock.c$157$2$2
  0C:2978B    A$psock$1757
  0C:2978D    A$psock$1758
  0C:2978F    A$psock$1759
  0C:29791    A$psock$1760
  0C:29794    A$psock$1763
  0C:29794    C$psock.c$158$2$2
  0C:29797    A$psock$1764
  0C:29799    A$psock$1768
  0C:29799    C$psock.c$160$1$1
  0C:2979C    A$psock$1770
  0C:2979F    A$psock$1771
  0C:297A1    A$psock$1774
  0C:297A1    C$psock.c$161$1$1
  0C:297A1    XFpsock$send_data$0$0
  0C:297A2    A$psock$1791
  0C:297A2    C$psock.c$164$1$1
  0C:297A2    Fpsock$data_acked$0$0
  0C:297A4    A$psock$1792
  0C:297A6    A$psock$1793
  0C:297A8    A$psock$1794
  0C:297AA    A$psock$1795
  0C:297AC    A$psock$1796
  0C:297AE    A$psock$1797
  0C:297B0    A$psock$1798
  0C:297B2    A$psock$1801
  0C:297B2    C$psock.c$166$1$1
  0C:297B4    A$psock$1802
  0C:297B5    A$psock$1803
  0C:297B6    A$psock$1804
  0C:297B7    A$psock$1805
  0C:297B8    A$psock$1806
  0C:297B9    A$psock$1807
  0C:297BB    A$psock$1808
  0C:297BD    A$psock$1809
  0C:297BF    A$psock$1810
  0C:297C1    A$psock$1811
  0C:297C4    A$psock$1812
  0C:297C5    A$psock$1813
  0C:297C8    A$psock$1814
  0C:297CA    A$psock$1816
  0C:297CD    A$psock$1818
  0C:297D0    A$psock$1819
  0C:297D1    A$psock$1820
  0C:297D2    A$psock$1821
  0C:297D5    A$psock$1822
  0C:297D8    A$psock$1826
  0C:297D8    C$psock.c$167$1$1
  0C:297DA    A$psock$1827
  0C:297DC    A$psock$1828
  0C:297DE    A$psock$1829
  0C:297E0    A$psock$1830
  0C:297E1    A$psock$1831
  0C:297E3    A$psock$1832
  0C:297E4    A$psock$1833
  0C:297E5    A$psock$1834
  0C:297E6    A$psock$1835
  0C:297E7    A$psock$1836
  0C:297E8    A$psock$1837
  0C:297E9    A$psock$1838
  0C:297EA    A$psock$1839
  0C:297EC    A$psock$1840
  0C:297EE    A$psock$1841
  0C:297EF    A$psock$1842
  0C:297F1    A$psock$1843
  0C:297F2    A$psock$1844
  0C:297F4    A$psock$1845
  0C:297F5    A$psock$1846
  0C:297F7    A$psock$1847
  0C:297F9    A$psock$1848
  0C:297FB    A$psock$1849
  0C:297FC    A$psock$1850
  0C:297FF    A$psock$1851
  0C:29800    A$psock$1852
  0C:29801    A$psock$1853
  0C:29804    A$psock$1854
  0C:29805    A$psock$1855
  0C:29806    A$psock$1856
  0C:29809    A$psock$1857
  0C:2980A    A$psock$1858
  0C:2980B    A$psock$1859
  0C:2980C    A$psock$1860
  0C:2980D    A$psock$1861
  0C:2980E    A$psock$1862
  0C:2980F    A$psock$1863
  0C:29810    A$psock$1864
  0C:29811    A$psock$1865
  0C:29813    A$psock$1866
  0C:29814    A$psock$1867
  0C:29815    A$psock$1868
  0C:29816    A$psock$1869
  0C:29817    A$psock$1870
  0C:29818    A$psock$1871
  0C:2981A    A$psock$1872
  0C:2981C    A$psock$1873
  0C:2981E    A$psock$1874
  0C:29820    A$psock$1875
  0C:29822    A$psock$1876
  0C:29823    A$psock$1877
  0C:29826    A$psock$1878
  0C:29827    A$psock$1879
  0C:29828    A$psock$1880
  0C:2982B    A$psock$1881
  0C:2982C    A$psock$1882
  0C:2982D    A$psock$1883
  0C:2982F    A$psock$1884
  0C:29831    A$psock$1885
  0C:29832    A$psock$1886
  0C:29834    A$psock$1887
  0C:29836    A$psock$1888
  0C:29837    A$psock$1889
  0C:29838    A$psock$1890
  0C:29839    A$psock$1891
  0C:2983A    A$psock$1892
  0C:2983B    A$psock$1893
  0C:2983C    A$psock$1894
  0C:2983D    A$psock$1895
  0C:2983E    A$psock$1896
  0C:29840    A$psock$1897
  0C:29842    A$psock$1898
  0C:29844    A$psock$1899
  0C:29846    A$psock$1900
  0C:29849    A$psock$1904
  0C:29849    C$psock.c$168$1$1
  0C:2984B    A$psock$1905
  0C:2984D    A$psock$1906
  0C:2984F    A$psock$1907
  0C:29851    A$psock$1908
  0C:29853    A$psock$1909
  0C:29854    A$psock$1910
  0C:29856    A$psock$1911
  0C:29858    A$psock$1912
  0C:29859    A$psock$1913
  0C:2985A    A$psock$1914
  0C:2985B    A$psock$1915
  0C:2985C    A$psock$1916
  0C:2985D    A$psock$1917
  0C:2985E    A$psock$1918
  0C:2985F    A$psock$1919
  0C:29860    A$psock$1920
  0C:29861    A$psock$1921
  0C:29862    A$psock$1922
  0C:29864    A$psock$1923
  0C:29865    A$psock$1924
  0C:29867    A$psock$1925
  0C:29868    A$psock$1926
  0C:2986A    A$psock$1927
  0C:2986B    A$psock$1928
  0C:2986D    A$psock$1929
  0C:2986E    A$psock$1930
  0C:29871    A$psock$1931
  0C:29872    A$psock$1932
  0C:29873    A$psock$1933
  0C:29876    A$psock$1936
  0C:29876    C$psock.c$169$3$3
  0C:29878    A$psock$1937
  0C:2987A    A$psock$1938
  0C:2987B    A$psock$1939
  0C:2987D    A$psock$1940
  0C:2987E    A$psock$1941
  0C:2987F    A$psock$1942
  0C:29880    A$psock$1943
  0C:29881    A$psock$1944
  0C:29882    A$psock$1945
  0C:29883    A$psock$1946
  0C:29884    A$psock$1947
  0C:29886    A$psock$1948
  0C:29888    A$psock$1949
  0C:2988A    A$psock$1950
  0C:2988B    A$psock$1951
  0C:2988D    A$psock$1952
  0C:2988E    A$psock$1953
  0C:29890    A$psock$1954
  0C:29891    A$psock$1955
  0C:29893    A$psock$1956
  0C:29896    A$psock$1957
  0C:29897    A$psock$1958
  0C:29898    A$psock$1959
  0C:2989B    A$psock$1960
  0C:2989C    A$psock$1961
  0C:2989D    A$psock$1962
  0C:298A0    A$psock$1963
  0C:298A1    A$psock$1964
  0C:298A3    A$psock$1965
  0C:298A5    A$psock$1966
  0C:298A6    A$psock$1967
  0C:298A7    A$psock$1968
  0C:298A8    A$psock$1969
  0C:298A9    A$psock$1970
  0C:298AA    A$psock$1971
  0C:298AB    A$psock$1972
  0C:298AC    A$psock$1973
  0C:298AD    A$psock$1974
  0C:298AF    A$psock$1975
  0C:298B1    A$psock$1976
  0C:298B2    A$psock$1977
  0C:298B4    A$psock$1978
  0C:298B5    A$psock$1979
  0C:298B7    A$psock$1980
  0C:298B8    A$psock$1981
  0C:298BA    A$psock$1982
  0C:298BB    A$psock$1983
  0C:298BE    A$psock$1984
  0C:298BF    A$psock$1985
  0C:298C0    A$psock$1986
  0C:298C3    A$psock$1987
  0C:298C4    A$psock$1988
  0C:298C5    A$psock$1989
  0C:298C8    A$psock$1990
  0C:298CA    A$psock$1991
  0C:298CC    A$psock$1992
  0C:298CE    A$psock$1993
  0C:298D0    A$psock$1997
  0C:298D0    C$psock.c$171$1$1
  0C:298D2    A$psock$1998
  0C:298D4    A$psock$1999
  0C:298D6    A$psock$2000
  0C:298D8    A$psock$2001
  0C:298D9    A$psock$2002
  0C:298DA    A$psock$2003
  0C:298DB    A$psock$2004
  0C:298DC    A$psock$2005
  0C:298DD    A$psock$2006
  0C:298DF    A$psock$2007
  0C:298E1    A$psock$2008
  0C:298E3    A$psock$2009
  0C:298E6    A$psock$2010
  0C:298E7    A$psock$2011
  0C:298E8    A$psock$2012
  0C:298EB    A$psock$2013
  0C:298EC    A$psock$2014
  0C:298ED    A$psock$2015
  0C:298F0    A$psock$2016
  0C:298F1    A$psock$2017
  0C:298F3    A$psock$2018
  0C:298F5    A$psock$2019
  0C:298F6    A$psock$2020
  0C:298F7    A$psock$2021
  0C:298F8    A$psock$2022
  0C:298F9    A$psock$2023
  0C:298FA    A$psock$2024
  0C:298FB    A$psock$2025
  0C:298FC    A$psock$2026
  0C:298FD    A$psock$2027
  0C:298FF    A$psock$2028
  0C:29901    A$psock$2029
  0C:29903    A$psock$2030
  0C:29904    A$psock$2031
  0C:29907    A$psock$2032
  0C:29908    A$psock$2033
  0C:29909    A$psock$2034
  0C:2990C    A$psock$2035
  0C:2990D    A$psock$2036
  0C:2990E    A$psock$2037
  0C:29911    A$psock$2040
  0C:29911    C$psock.c$172$3$4
  0C:29913    A$psock$2041
  0C:29914    A$psock$2042
  0C:29916    A$psock$2043
  0C:29917    A$psock$2044
  0C:29919    A$psock$2045
  0C:2991A    A$psock$2046
  0C:2991C    A$psock$2047
  0C:2991D    A$psock$2048
  0C:29920    A$psock$2049
  0C:29921    A$psock$2050
  0C:29922    A$psock$2051
  0C:29925    A$psock$2054
  0C:29927    A$psock$2055
  0C:29929    A$psock$2056
  0C:2992B    A$psock$2062
  0C:2992B    C$psock.c$172$2$2
  0C:2992B    C$psock.c$174$2$2
  0C:2992D    A$psock$2063
  0C:2992F    A$psock$2064
  0C:29931    A$psock$2065
  0C:29933    A$psock$2066
  0C:29936    A$psock$2069
  0C:29936    C$psock.c$175$2$2
  0C:29939    A$psock$2070
  0C:2993B    A$psock$2074
  0C:2993B    C$psock.c$177$1$1
  0C:2993E    A$psock$2076
  0C:29941    A$psock$2077
  0C:29943    A$psock$2080
  0C:29943    C$psock.c$178$1$1
  0C:29943    XFpsock$data_acked$0$0
  0C:29944    A$psock$2097
  0C:29944    C$psock.c$180$1$1
  0C:29944    G$psock_send$0$0
  0C:29944    _psock_send
  0C:29946    A$psock$2098
  0C:29948    A$psock$2099
  0C:2994A    A$psock$2100
  0C:2994D    A$psock$2101
  0C:2994E    A$psock$2102
  0C:2994F    A$psock$2103
  0C:29950    A$psock$2104
  0C:29951    A$psock$2105
  0C:29952    A$psock$2106
  0C:29953    A$psock$2107
  0C:29954    A$psock$2110
  0C:29954    C$psock.c$183$2$2
  0C:29957    A$psock$2111
  0C:29958    A$psock$2112
  0C:29959    A$psock$2113
  0C:2995A    A$psock$2114
  0C:2995B    A$psock$2115
  0C:2995C    A$psock$2116
  0C:2995D    A$psock$2117
  0C:2995E    A$psock$2118
  0C:2995F    A$psock$2119
  0C:29961    A$psock$2120
  0C:29962    A$psock$2121
  0C:29963    A$psock$2122
  0C:29964    A$psock$2123
  0C:29965    A$psock$2124
  0C:29966    A$psock$2125
  0C:29968    A$psock$2126
  0C:2996A    A$psock$2127
  0C:2996C    A$psock$2128
  0C:2996E    A$psock$2129
  0C:29971    A$psock$2130
  0C:29972    A$psock$2131
  0C:29973    A$psock$2132
  0C:29976    A$psock$2133
  0C:29977    A$psock$2134
  0C:2997A    A$psock$2135
  0C:2997D    A$psock$2136
  0C:2997F    A$psock$2138
  0C:29982    A$psock$2139
  0C:29985    A$psock$2140
  0C:29988    A$psock$2142
  0C:2998B    A$psock$2146
  0C:2998B    C$psock.c$186$3$3
  0C:2998E    A$psock$2147
  0C:2998F    A$psock$2148
  0C:29990    A$psock$2149
  0C:29991    A$psock$2150
  0C:29992    A$psock$2151
  0C:29993    A$psock$2152
  0C:29994    A$psock$2153
  0C:29996    A$psock$2156
  0C:29996    C$psock.c$187$5$5
  0C:29998    A$psock$2157
  0C:2999A    A$psock$2158
  0C:2999C    A$psock$2159
  0C:2999D    A$psock$2160
  0C:299A0    A$psock$2161
  0C:299A1    A$psock$2162
  0C:299A2    A$psock$2163
  0C:299A5    A$psock$2164
  0C:299A8    A$psock$2165
  0C:299AB    A$psock$2169
  0C:299AB    C$psock.c$192$3$3
  0C:299AD    A$psock$2170
  0C:299AE    A$psock$2171
  0C:299B0    A$psock$2172
  0C:299B1    A$psock$2173
  0C:299B2    A$psock$2174
  0C:299B4    A$psock$2175
  0C:299B6    A$psock$2176
  0C:299B9    A$psock$2177
  0C:299BA    A$psock$2178
  0C:299BB    A$psock$2179
  0C:299BC    A$psock$2180
  0C:299BD    A$psock$2181
  0C:299BE    A$psock$2182
  0C:299BF    A$psock$2183
  0C:299C0    A$psock$2184
  0C:299C1    A$psock$2185
  0C:299C4    A$psock$2186
  0C:299C7    A$psock$2187
  0C:299CA    A$psock$2188
  0C:299CB    A$psock$2189
  0C:299CE    A$psock$2190
  0C:299CF    A$psock$2191
  0C:299D0    A$psock$2192
  0C:299D3    A$psock$2193
  0C:299D4    A$psock$2194
  0C:299D5    A$psock$2195
  0C:299D8    A$psock$2198
  0C:299D8    C$psock.c$193$3$3
  0C:299DA    A$psock$2199
  0C:299DB    A$psock$2200
  0C:299DC    A$psock$2201
  0C:299DD    A$psock$2202
  0C:299DE    A$psock$2203
  0C:299DF    A$psock$2204
  0C:299E1    A$psock$2205
  0C:299E3    A$psock$2206
  0C:299E5    A$psock$2207
  0C:299E7    A$psock$2208
  0C:299E8    A$psock$2209
  0C:299EB    A$psock$2210
  0C:299EC    A$psock$2211
  0C:299ED    A$psock$2212
  0C:299F0    A$psock$2215
  0C:299F0    C$psock.c$195$3$3
  0C:299F2    A$psock$2216
  0C:299F3    A$psock$2217
  0C:299F4    A$psock$2218
  0C:299F5    A$psock$2219
  0C:299F6    A$psock$2220
  0C:299F7    A$psock$2221
  0C:299F9    A$psock$2222
  0C:299FB    A$psock$2223
  0C:299FD    A$psock$2224
  0C:299FE    A$psock$2225
  0C:29A01    A$psock$2229
  0C:29A01    C$psock.c$199$3$3
  0C:29A04    A$psock$2230
  0C:29A05    A$psock$2231
  0C:29A06    A$psock$2232
  0C:29A07    A$psock$2233
  0C:29A08    A$psock$2234
  0C:29A09    A$psock$2235
  0C:29A0A    A$psock$2236
  0C:29A0B    A$psock$2237
  0C:29A0C    A$psock$2238
  0C:29A0E    A$psock$2239
  0C:29A0F    A$psock$2240
  0C:29A10    A$psock$2241
  0C:29A11    A$psock$2242
  0C:29A12    A$psock$2243
  0C:29A13    A$psock$2244
  0C:29A15    A$psock$2245
  0C:29A17    A$psock$2246
  0C:29A19    A$psock$2247
  0C:29A1B    A$psock$2248
  0C:29A1E    A$psock$2249
  0C:29A1F    A$psock$2250
  0C:29A20    A$psock$2251
  0C:29A23    A$psock$2252
  0C:29A24    A$psock$2253
  0C:29A25    A$psock$2254
  0C:29A27    A$psock$2257
  0C:29A27    C$psock.c$211$5$7
  0C:29A29    A$psock$2258
  0C:29A2A    A$psock$2259
  0C:29A2B    A$psock$2260
  0C:29A2C    A$psock$2261
  0C:29A2D    A$psock$2262
  0C:29A2E    A$psock$2263
  0C:29A30    A$psock$2264
  0C:29A32    A$psock$2265
  0C:29A34    A$psock$2266
  0C:29A36    A$psock$2267
  0C:29A38    A$psock$2268
  0C:29A3B    A$psock$2269
  0C:29A3C    A$psock$2270
  0C:29A3D    A$psock$2271
  0C:29A40    A$psock$2273
  0C:29A43    A$psock$2274
  0C:29A44    A$psock$2275
  0C:29A45    A$psock$2276
  0C:29A46    A$psock$2277
  0C:29A47    A$psock$2278
  0C:29A48    A$psock$2279
  0C:29A49    A$psock$2280
  0C:29A4A    A$psock$2281
  0C:29A4B    A$psock$2282
  0C:29A4D    A$psock$2283
  0C:29A4F    A$psock$2284
  0C:29A51    A$psock$2285
  0C:29A54    A$psock$2286
  0C:29A56    A$psock$2287
  0C:29A59    A$psock$2288
  0C:29A5A    A$psock$2289
  0C:29A5B    A$psock$2290
  0C:29A5C    A$psock$2291
  0C:29A5D    A$psock$2292
  0C:29A5E    A$psock$2293
  0C:29A5F    A$psock$2294
  0C:29A60    A$psock$2295
  0C:29A61    A$psock$2296
  0C:29A63    A$psock$2297
  0C:29A65    A$psock$2298
  0C:29A67    A$psock$2299
  0C:29A69    A$psock$2300
  0C:29A6C    A$psock$2301
  0C:29A6E    A$psock$2302
  0C:29A70    A$psock$2303
  0C:29A71    A$psock$2304
  0C:29A72    A$psock$2305
  0C:29A74    A$psock$2306
  0C:29A76    A$psock$2307
  0C:29A78    A$psock$2311
  0C:29A78    C$psock.c$214$3$3
  0C:29A7A    A$psock$2312
  0C:29A7B    A$psock$2313
  0C:29A7C    A$psock$2314
  0C:29A7D    A$psock$2315
  0C:29A7E    A$psock$2316
  0C:29A7F    A$psock$2317
  0C:29A81    A$psock$2318
  0C:29A83    A$psock$2319
  0C:29A85    A$psock$2320
  0C:29A86    A$psock$2321
  0C:29A89    A$psock$2325
  0C:29A89    C$psock.c$216$2$2
  0C:29A8C    A$psock$2326
  0C:29A8D    A$psock$2327
  0C:29A8E    A$psock$2328
  0C:29A8F    A$psock$2329
  0C:29A90    A$psock$2330
  0C:29A91    A$psock$2331
  0C:29A92    A$psock$2332
  0C:29A93    A$psock$2333
  0C:29A94    A$psock$2334
  0C:29A96    A$psock$2335
  0C:29A97    A$psock$2336
  0C:29A98    A$psock$2337
  0C:29A99    A$psock$2338
  0C:29A9A    A$psock$2339
  0C:29A9B    A$psock$2340
  0C:29A9D    A$psock$2341
  0C:29A9F    A$psock$2342
  0C:29AA1    A$psock$2343
  0C:29AA2    A$psock$2344
  0C:29AA5    A$psock$2345
  0C:29AA6    A$psock$2346
  0C:29AA7    A$psock$2347
  0C:29AAA    A$psock$2348
  0C:29AAD    A$psock$2352
  0C:29AAD    C$psock.c$217$2$2
  0C:29AAD    XG$psock_send$0$0
  0C:29AB0    A$psock$2369
  0C:29AB0    C$psock.c$220$2$2
  0C:29AB0    G$psock_generator_send$0$0
  0C:29AB0    _psock_generator_send
  0C:29AB2    A$psock$2370
  0C:29AB4    A$psock$2371
  0C:29AB6    A$psock$2372
  0C:29AB9    A$psock$2373
  0C:29ABA    A$psock$2374
  0C:29ABB    A$psock$2375
  0C:29ABC    A$psock$2376
  0C:29ABD    A$psock$2377
  0C:29ABE    A$psock$2378
  0C:29ABF    A$psock$2379
  0C:29AC0    A$psock$2382
  0C:29AC0    C$psock.c$223$2$2
  0C:29AC3    A$psock$2383
  0C:29AC4    A$psock$2384
  0C:29AC5    A$psock$2385
  0C:29AC6    A$psock$2386
  0C:29AC7    A$psock$2387
  0C:29AC8    A$psock$2388
  0C:29AC9    A$psock$2389
  0C:29ACA    A$psock$2390
  0C:29ACB    A$psock$2391
  0C:29ACD    A$psock$2392
  0C:29ACE    A$psock$2393
  0C:29ACF    A$psock$2394
  0C:29AD0    A$psock$2395
  0C:29AD1    A$psock$2396
  0C:29AD2    A$psock$2397
  0C:29AD4    A$psock$2398
  0C:29AD6    A$psock$2399
  0C:29AD8    A$psock$2400
  0C:29ADA    A$psock$2401
  0C:29ADD    A$psock$2402
  0C:29ADE    A$psock$2403
  0C:29ADF    A$psock$2404
  0C:29AE2    A$psock$2405
  0C:29AE3    A$psock$2406
  0C:29AE6    A$psock$2407
  0C:29AE9    A$psock$2408
  0C:29AEB    A$psock$2410
  0C:29AEE    A$psock$2411
  0C:29AF1    A$psock$2412
  0C:29AF4    A$psock$2414
  0C:29AF7    A$psock$2418
  0C:29AF7    C$psock.c$226$3$3
  0C:29AFA    A$psock$2419
  0C:29AFB    A$psock$2420
  0C:29AFC    A$psock$2421
  0C:29AFD    A$psock$2422
  0C:29AFE    A$psock$2423
  0C:29AFF    A$psock$2424
  0C:29B02    A$psock$2425
  0C:29B05    A$psock$2428
  0C:29B05    C$psock.c$227$5$5
  0C:29B07    A$psock$2429
  0C:29B09    A$psock$2430
  0C:29B0B    A$psock$2431
  0C:29B0C    A$psock$2432
  0C:29B0F    A$psock$2433
  0C:29B10    A$psock$2434
  0C:29B11    A$psock$2435
  0C:29B14    A$psock$2436
  0C:29B17    A$psock$2437
  0C:29B1A    A$psock$2441
  0C:29B1A    C$psock.c$232$3$3
  0C:29B1C    A$psock$2442
  0C:29B1D    A$psock$2443
  0C:29B1F    A$psock$2444
  0C:29B20    A$psock$2445
  0C:29B21    A$psock$2446
  0C:29B23    A$psock$2447
  0C:29B25    A$psock$2448
  0C:29B28    A$psock$2449
  0C:29B29    A$psock$2450
  0C:29B2A    A$psock$2451
  0C:29B2B    A$psock$2452
  0C:29B2C    A$psock$2453
  0C:29B2D    A$psock$2454
  0C:29B2E    A$psock$2455
  0C:29B2F    A$psock$2456
  0C:29B30    A$psock$2457
  0C:29B32    A$psock$2458
  0C:29B34    A$psock$2459
  0C:29B36    A$psock$2460
  0C:29B38    A$psock$2461
  0C:29B3A    A$psock$2462
  0C:29B3C    A$psock$2463
  0C:29B3E    A$psock$2464
  0C:29B40    A$psock$2465
  0C:29B42    A$psock$2466
  0C:29B44    A$psock$2467
  0C:29B46    A$psock$2468
  0C:29B48    A$psock$2469
  0C:29B4A    A$psock$2470
  0C:29B4C    A$psock$2471
  0C:29B4D    A$psock$2473
  0C:29B4F    A$psock$2474
  0C:29B51    A$psock$2475
  0C:29B53    A$psock$2476
  0C:29B55    A$psock$2477
  0C:29B57    A$psock$2478
  0C:29B59    A$psock$2479
  0C:29B5B    A$psock$2480
  0C:29B5E    A$psock$2481
  0C:29B61    A$psock$2482
  0C:29B64    A$psock$2483
  0C:29B65    A$psock$2484
  0C:29B68    A$psock$2485
  0C:29B69    A$psock$2486
  0C:29B6A    A$psock$2487
  0C:29B6D    A$psock$2490
  0C:29B6D    C$psock.c$233$3$3
  0C:29B6F    A$psock$2491
  0C:29B70    A$psock$2492
  0C:29B72    A$psock$2493
  0C:29B73    A$psock$2494
  0C:29B74    A$psock$2495
  0C:29B76    A$psock$2496
  0C:29B78    A$psock$2497
  0C:29B7A    A$psock$2498
  0C:29B7C    A$psock$2499
  0C:29B7F    A$psock$2500
  0C:29B80    A$psock$2501
  0C:29B81    A$psock$2502
  0C:29B82    A$psock$2503
  0C:29B83    A$psock$2504
  0C:29B84    A$psock$2505
  0C:29B85    A$psock$2506
  0C:29B86    A$psock$2507
  0C:29B87    A$psock$2508
  0C:29B8A    A$psock$2509
  0C:29B8D    A$psock$2510
  0C:29B90    A$psock$2511
  0C:29B91    A$psock$2512
  0C:29B94    A$psock$2513
  0C:29B95    A$psock$2514
  0C:29B96    A$psock$2515
  0C:29B99    A$psock$2516
  0C:29B9A    A$psock$2517
  0C:29B9B    A$psock$2518
  0C:29B9E    A$psock$2521
  0C:29B9E    C$psock.c$235$3$3
  0C:29BA0    A$psock$2522
  0C:29BA1    A$psock$2523
  0C:29BA2    A$psock$2524
  0C:29BA3    A$psock$2525
  0C:29BA4    A$psock$2526
  0C:29BA5    A$psock$2527
  0C:29BA7    A$psock$2528
  0C:29BA9    A$psock$2529
  0C:29BAB    A$psock$2530
  0C:29BAC    A$psock$2531
  0C:29BAF    A$psock$2534
  0C:29BB1    A$psock$2535
  0C:29BB3    A$psock$2541
  0C:29BB3    C$psock.c$236$3$3
  0C:29BB3    C$psock.c$239$4$6
  0C:29BB6    A$psock$2542
  0C:29BB7    A$psock$2543
  0C:29BB8    A$psock$2544
  0C:29BBB    A$psock$2547
  0C:29BBB    C$psock.c$240$5$7
  0C:29BBE    A$psock$2548
  0C:29BBF    A$psock$2549
  0C:29BC0    A$psock$2550
  0C:29BC1    A$psock$2551
  0C:29BC2    A$psock$2552
  0C:29BC3    A$psock$2553
  0C:29BC4    A$psock$2554
  0C:29BC5    A$psock$2555
  0C:29BC6    A$psock$2556
  0C:29BC8    A$psock$2557
  0C:29BCA    A$psock$2558
  0C:29BCC    A$psock$2559
  0C:29BCE    A$psock$2560
  0C:29BD0    A$psock$2561
  0C:29BD2    A$psock$2562
  0C:29BD4    A$psock$2563
  0C:29BD6    A$psock$2564
  0C:29BD8    A$psock$2565
  0C:29BDA    A$psock$2566
  0C:29BDC    A$psock$2567
  0C:29BDD    A$psock$2569
  0C:29BDF    A$psock$2570
  0C:29BE1    A$psock$2574
  0C:29BE1    C$psock.c$243$4$6
  0C:29BE4    A$psock$2575
  0C:29BE5    A$psock$2576
  0C:29BE6    A$psock$2577
  0C:29BE7    A$psock$2578
  0C:29BE8    A$psock$2579
  0C:29BE9    A$psock$2580
  0C:29BEA    A$psock$2581
  0C:29BEB    A$psock$2582
  0C:29BEC    A$psock$2583
  0C:29BEE    A$psock$2584
  0C:29BEF    A$psock$2585
  0C:29BF0    A$psock$2586
  0C:29BF1    A$psock$2587
  0C:29BF2    A$psock$2588
  0C:29BF3    A$psock$2589
  0C:29BF5    A$psock$2590
  0C:29BF7    A$psock$2591
  0C:29BF9    A$psock$2592
  0C:29BFB    A$psock$2593
  0C:29BFE    A$psock$2594
  0C:29BFF    A$psock$2595
  0C:29C00    A$psock$2596
  0C:29C03    A$psock$2598
  0C:29C06    A$psock$2599
  0C:29C07    A$psock$2600
  0C:29C08    A$psock$2601
  0C:29C09    A$psock$2602
  0C:29C0A    A$psock$2603
  0C:29C0B    A$psock$2604
  0C:29C0C    A$psock$2605
  0C:29C0D    A$psock$2606
  0C:29C0E    A$psock$2607
  0C:29C10    A$psock$2608
  0C:29C12    A$psock$2609
  0C:29C14    A$psock$2610
  0C:29C16    A$psock$2611
  0C:29C18    A$psock$2612
  0C:29C1B    A$psock$2613
  0C:29C1D    A$psock$2614
  0C:29C1F    A$psock$2615
  0C:29C21    A$psock$2616
  0C:29C24    A$psock$2617
  0C:29C25    A$psock$2618
  0C:29C26    A$psock$2619
  0C:29C27    A$psock$2620
  0C:29C28    A$psock$2621
  0C:29C29    A$psock$2622
  0C:29C2A    A$psock$2623
  0C:29C2B    A$psock$2624
  0C:29C2C    A$psock$2625
  0C:29C2E    A$psock$2626
  0C:29C30    A$psock$2627
  0C:29C32    A$psock$2628
  0C:29C34    A$psock$2629
  0C:29C36    A$psock$2630
  0C:29C38    A$psock$2631
  0C:29C3B    A$psock$2632
  0C:29C3D    A$psock$2633
  0C:29C3F    A$psock$2634
  0C:29C41    A$psock$2635
  0C:29C43    A$psock$2636
  0C:29C44    A$psock$2637
  0C:29C45    A$psock$2638
  0C:29C47    A$psock$2639
  0C:29C49    A$psock$2640
  0C:29C4B    A$psock$2644
  0C:29C4B    C$psock.c$244$3$3
  0C:29C4E    A$psock$2645
  0C:29C4F    A$psock$2646
  0C:29C50    A$psock$2647
  0C:29C51    A$psock$2648
  0C:29C52    A$psock$2649
  0C:29C53    A$psock$2650
  0C:29C54    A$psock$2651
  0C:29C55    A$psock$2652
  0C:29C56    A$psock$2653
  0C:29C58    A$psock$2654
  0C:29C59    A$psock$2655
  0C:29C5A    A$psock$2656
  0C:29C5B    A$psock$2657
  0C:29C5C    A$psock$2658
  0C:29C5D    A$psock$2659
  0C:29C5F    A$psock$2660
  0C:29C61    A$psock$2661
  0C:29C63    A$psock$2662
  0C:29C65    A$psock$2663
  0C:29C68    A$psock$2664
  0C:29C69    A$psock$2665
  0C:29C6A    A$psock$2666
  0C:29C6D    A$psock$2667
  0C:29C6E    A$psock$2668
  0C:29C6F    A$psock$2669
  0C:29C71    A$psock$2670
  0C:29C74    A$psock$2674
  0C:29C74    C$psock.c$246$3$3
  0C:29C76    A$psock$2675
  0C:29C77    A$psock$2676
  0C:29C78    A$psock$2677
  0C:29C79    A$psock$2678
  0C:29C7A    A$psock$2679
  0C:29C7B    A$psock$2680
  0C:29C7D    A$psock$2681
  0C:29C7F    A$psock$2682
  0C:29C81    A$psock$2683
  0C:29C82    A$psock$2684
  0C:29C85    A$psock$2688
  0C:29C85    C$psock.c$248$2$2
  0C:29C88    A$psock$2689
  0C:29C89    A$psock$2690
  0C:29C8A    A$psock$2691
  0C:29C8B    A$psock$2692
  0C:29C8C    A$psock$2693
  0C:29C8D    A$psock$2694
  0C:29C8E    A$psock$2695
  0C:29C8F    A$psock$2696
  0C:29C90    A$psock$2697
  0C:29C92    A$psock$2698
  0C:29C93    A$psock$2699
  0C:29C94    A$psock$2700
  0C:29C95    A$psock$2701
  0C:29C96    A$psock$2702
  0C:29C97    A$psock$2703
  0C:29C99    A$psock$2704
  0C:29C9B    A$psock$2705
  0C:29C9D    A$psock$2706
  0C:29C9E    A$psock$2707
  0C:29CA1    A$psock$2708
  0C:29CA2    A$psock$2709
  0C:29CA3    A$psock$2710
  0C:29CA6    A$psock$2711
  0C:29CA9    A$psock$2715
  0C:29CA9    C$psock.c$249$2$2
  0C:29CA9    XG$psock_generator_send$0$0
  0C:29CAC    A$psock$2728
  0C:29CAC    C$psock.c$253$2$2
  0C:29CAC    G$psock_datalen$0$0
  0C:29CAC    _psock_datalen
  0C:29CAE    A$psock$2729
  0C:29CB0    A$psock$2730
  0C:29CB2    A$psock$2731
  0C:29CB5    A$psock$2732
  0C:29CB6    A$psock$2733
  0C:29CB7    A$psock$2734
  0C:29CB8    A$psock$2735
  0C:29CB9    A$psock$2736
  0C:29CBA    A$psock$2737
  0C:29CBB    A$psock$2738
  0C:29CBC    A$psock$2741
  0C:29CBC    C$psock.c$255$1$1
  0C:29CBF    A$psock$2742
  0C:29CC0    A$psock$2743
  0C:29CC1    A$psock$2744
  0C:29CC2    A$psock$2745
  0C:29CC3    A$psock$2746
  0C:29CC4    A$psock$2747
  0C:29CC5    A$psock$2748
  0C:29CC6    A$psock$2749
  0C:29CC7    A$psock$2750
  0C:29CC9    A$psock$2751
  0C:29CCA    A$psock$2752
  0C:29CCB    A$psock$2753
  0C:29CCC    A$psock$2754
  0C:29CCD    A$psock$2755
  0C:29CCE    A$psock$2756
  0C:29CD0    A$psock$2757
  0C:29CD2    A$psock$2758
  0C:29CD4    A$psock$2759
  0C:29CD6    A$psock$2760
  0C:29CD9    A$psock$2761
  0C:29CDA    A$psock$2762
  0C:29CDB    A$psock$2763
  0C:29CDE    A$psock$2764
  0C:29CDF    A$psock$2765
  0C:29CE1    A$psock$2766
  0C:29CE2    A$psock$2767
  0C:29CE3    A$psock$2768
  0C:29CE4    A$psock$2769
  0C:29CE5    A$psock$2770
  0C:29CE6    A$psock$2771
  0C:29CE8    A$psock$2772
  0C:29CE9    A$psock$2773
  0C:29CEA    A$psock$2774
  0C:29CEB    A$psock$2775
  0C:29CEC    A$psock$2776
  0C:29CED    A$psock$2777
  0C:29CEF    A$psock$2778
  0C:29CF1    A$psock$2779
  0C:29CF3    A$psock$2780
  0C:29CF6    A$psock$2781
  0C:29CF7    A$psock$2782
  0C:29CF8    A$psock$2783
  0C:29CFB    A$psock$2784
  0C:29CFC    A$psock$2785
  0C:29CFD    A$psock$2786
  0C:29CFE    A$psock$2787
  0C:29CFF    A$psock$2788
  0C:29D00    A$psock$2789
  0C:29D01    A$psock$2790
  0C:29D02    A$psock$2791
  0C:29D03    A$psock$2792
  0C:29D05    A$psock$2793
  0C:29D07    A$psock$2796
  0C:29D07    C$psock.c$256$1$1
  0C:29D07    XG$psock_datalen$0$0
  0C:29D0A    A$psock$2809
  0C:29D0A    C$psock.c$259$1$1
  0C:29D0A    G$psock_newdata$0$0
  0C:29D0A    _psock_newdata
  0C:29D0C    A$psock$2810
  0C:29D0E    A$psock$2811
  0C:29D10    A$psock$2812
  0C:29D13    A$psock$2813
  0C:29D14    A$psock$2814
  0C:29D15    A$psock$2815
  0C:29D16    A$psock$2816
  0C:29D17    A$psock$2817
  0C:29D18    A$psock$2818
  0C:29D19    A$psock$2819
  0C:29D1A    A$psock$2822
  0C:29D1A    C$psock.c$261$1$1
  0C:29D1D    A$psock$2823
  0C:29D1E    A$psock$2824
  0C:29D1F    A$psock$2825
  0C:29D20    A$psock$2826
  0C:29D21    A$psock$2827
  0C:29D22    A$psock$2828
  0C:29D23    A$psock$2829
  0C:29D24    A$psock$2830
  0C:29D25    A$psock$2831
  0C:29D27    A$psock$2832
  0C:29D28    A$psock$2833
  0C:29D29    A$psock$2834
  0C:29D2A    A$psock$2835
  0C:29D2B    A$psock$2836
  0C:29D2C    A$psock$2837
  0C:29D2E    A$psock$2838
  0C:29D30    A$psock$2839
  0C:29D32    A$psock$2840
  0C:29D34    A$psock$2841
  0C:29D37    A$psock$2842
  0C:29D38    A$psock$2843
  0C:29D39    A$psock$2844
  0C:29D3C    A$psock$2845
  0C:29D3D    A$psock$2846
  0C:29D3E    A$psock$2847
  0C:29D40    A$psock$2850
  0C:29D40    C$psock.c$264$2$2
  0C:29D43    A$psock$2851
  0C:29D45    A$psock$2855
  0C:29D45    C$psock.c$265$1$1
  0C:29D47    A$psock$2856
  0C:29D48    A$psock$2857
  0C:29D49    A$psock$2858
  0C:29D4A    A$psock$2859
  0C:29D4B    A$psock$2860
  0C:29D4C    A$psock$2861
  0C:29D4E    A$psock$2862
  0C:29D50    A$psock$2863
  0C:29D52    A$psock$2864
  0C:29D55    A$psock$2865
  0C:29D56    A$psock$2866
  0C:29D59    A$psock$2869
  0C:29D59    C$psock.c$267$2$3
  0C:29D5B    A$psock$2870
  0C:29D5D    A$psock$2871
  0C:29D5F    A$psock$2872
  0C:29D61    A$psock$2873
  0C:29D64    A$psock$2876
  0C:29D64    C$psock.c$268$2$3
  0C:29D67    A$psock$2877
  0C:29D69    A$psock$2881
  0C:29D69    C$psock.c$269$1$1
  0C:29D6C    A$psock$2882
  0C:29D6D    A$psock$2883
  0C:29D6E    A$psock$2884
  0C:29D71    A$psock$2887
  0C:29D71    C$psock.c$271$2$4
  0C:29D74    A$psock$2888
  0C:29D76    A$psock$2892
  0C:29D76    C$psock.c$274$2$5
  0C:29D79    A$psock$2896
  0C:29D79    C$psock.c$276$1$1
  0C:29D79    XG$psock_newdata$0$0
  0C:29D7C    A$psock$2913
  0C:29D7C    C$psock.c$278$1$1
  0C:29D7C    G$psock_readto$0$0
  0C:29D7C    _psock_readto
  0C:29D7E    A$psock$2914
  0C:29D80    A$psock$2915
  0C:29D82    A$psock$2916
  0C:29D85    A$psock$2917
  0C:29D86    A$psock$2918
  0C:29D87    A$psock$2919
  0C:29D88    A$psock$2920
  0C:29D89    A$psock$2921
  0C:29D8A    A$psock$2922
  0C:29D8B    A$psock$2923
  0C:29D8C    A$psock$2926
  0C:29D8C    C$psock.c$280$2$2
  0C:29D8F    A$psock$2927
  0C:29D90    A$psock$2928
  0C:29D91    A$psock$2929
  0C:29D92    A$psock$2930
  0C:29D93    A$psock$2931
  0C:29D94    A$psock$2932
  0C:29D95    A$psock$2933
  0C:29D96    A$psock$2934
  0C:29D97    A$psock$2935
  0C:29D99    A$psock$2936
  0C:29D9A    A$psock$2937
  0C:29D9B    A$psock$2938
  0C:29D9C    A$psock$2939
  0C:29D9D    A$psock$2940
  0C:29D9E    A$psock$2941
  0C:29DA0    A$psock$2942
  0C:29DA2    A$psock$2943
  0C:29DA4    A$psock$2944
  0C:29DA6    A$psock$2945
  0C:29DA9    A$psock$2946
  0C:29DAA    A$psock$2947
  0C:29DAB    A$psock$2948
  0C:29DAE    A$psock$2949
  0C:29DAF    A$psock$2950
  0C:29DB2    A$psock$2951
  0C:29DB5    A$psock$2952
  0C:29DB7    A$psock$2954
  0C:29DBA    A$psock$2955
  0C:29DBD    A$psock$2956
  0C:29DC0    A$psock$2958
  0C:29DC3    A$psock$2962
  0C:29DC3    C$psock.c$282$3$3
  0C:29DC5    A$psock$2963
  0C:29DC6    A$psock$2964
  0C:29DC7    A$psock$2965
  0C:29DC8    A$psock$2966
  0C:29DC9    A$psock$2967
  0C:29DCA    A$psock$2968
  0C:29DCC    A$psock$2969
  0C:29DCE    A$psock$2970
  0C:29DD0    A$psock$2971
  0C:29DD2    A$psock$2972
  0C:29DD5    A$psock$2973
  0C:29DD6    A$psock$2974
  0C:29DD7    A$psock$2975
  0C:29DDA    A$psock$2976
  0C:29DDB    A$psock$2977
  0C:29DDD    A$psock$2978
  0C:29DDE    A$psock$2979
  0C:29DDF    A$psock$2980
  0C:29DE0    A$psock$2981
  0C:29DE1    A$psock$2982
  0C:29DE2    A$psock$2983
  0C:29DE4    A$psock$2984
  0C:29DE6    A$psock$2985
  0C:29DE8    A$psock$2986
  0C:29DEA    A$psock$2987
  0C:29DED    A$psock$2988
  0C:29DEE    A$psock$2989
  0C:29DEF    A$psock$2990
  0C:29DF2    A$psock$2991
  0C:29DF3    A$psock$2992
  0C:29DF4    A$psock$2993
  0C:29DF7    A$psock$2994
  0C:29DF8    A$psock$2995
  0C:29DFA    A$psock$2996
  0C:29DFB    A$psock$2997
  0C:29DFC    A$psock$2998
  0C:29DFD    A$psock$2999
  0C:29DFE    A$psock$3000
  0C:29DFF    A$psock$3001
  0C:29E01    A$psock$3002
  0C:29E03    A$psock$3003
  0C:29E05    A$psock$3004
  0C:29E07    A$psock$3005
  0C:29E09    A$psock$3006
  0C:29E0B    A$psock$3007
  0C:29E0D    A$psock$3008
  0C:29E0F    A$psock$3009
  0C:29E12    A$psock$3010
  0C:29E14    A$psock$3011
  0C:29E16    A$psock$3012
  0C:29E18    A$psock$3018
  0C:29E18    C$psock.c$287$3$3
  0C:29E18    C$psock.c$288$4$4
  0C:29E1B    A$psock$3019
  0C:29E1C    A$psock$3020
  0C:29E1D    A$psock$3021
  0C:29E1E    A$psock$3022
  0C:29E1F    A$psock$3023
  0C:29E20    A$psock$3024
  0C:29E21    A$psock$3025
  0C:29E22    A$psock$3026
  0C:29E23    A$psock$3027
  0C:29E25    A$psock$3028
  0C:29E26    A$psock$3029
  0C:29E27    A$psock$3030
  0C:29E28    A$psock$3031
  0C:29E29    A$psock$3032
  0C:29E2A    A$psock$3033
  0C:29E2C    A$psock$3034
  0C:29E2E    A$psock$3035
  0C:29E30    A$psock$3036
  0C:29E32    A$psock$3037
  0C:29E35    A$psock$3038
  0C:29E36    A$psock$3039
  0C:29E37    A$psock$3040
  0C:29E3A    A$psock$3041
  0C:29E3B    A$psock$3042
  0C:29E3C    A$psock$3043
  0C:29E3E    A$psock$3044
  0C:29E41    A$psock$3048
  0C:29E41    C$psock.c$289$6$6
  0C:29E43    A$psock$3049
  0C:29E44    A$psock$3050
  0C:29E45    A$psock$3051
  0C:29E46    A$psock$3052
  0C:29E47    A$psock$3053
  0C:29E48    A$psock$3054
  0C:29E4A    A$psock$3055
  0C:29E4C    A$psock$3056
  0C:29E4E    A$psock$3057
  0C:29E50    A$psock$3058
  0C:29E53    A$psock$3059
  0C:29E54    A$psock$3060
  0C:29E56    A$psock$3061
  0C:29E59    A$psock$3063
  0C:29E5C    A$psock$3064
  0C:29E5D    A$psock$3065
  0C:29E5E    A$psock$3066
  0C:29E5F    A$psock$3067
  0C:29E60    A$psock$3068
  0C:29E61    A$psock$3069
  0C:29E62    A$psock$3070
  0C:29E63    A$psock$3071
  0C:29E64    A$psock$3072
  0C:29E66    A$psock$3073
  0C:29E68    A$psock$3074
  0C:29E6A    A$psock$3075
  0C:29E6C    A$psock$3076
  0C:29E6E    A$psock$3077
  0C:29E70    A$psock$3078
  0C:29E73    A$psock$3079
  0C:29E75    A$psock$3080
  0C:29E77    A$psock$3081
  0C:29E79    A$psock$3082
  0C:29E7C    A$psock$3086
  0C:29E7C    C$psock.c$290$5$5
  0C:29E7F    A$psock$3087
  0C:29E80    A$psock$3088
  0C:29E81    A$psock$3089
  0C:29E82    A$psock$3090
  0C:29E83    A$psock$3091
  0C:29E84    A$psock$3092
  0C:29E85    A$psock$3093
  0C:29E86    A$psock$3094
  0C:29E87    A$psock$3095
  0C:29E89    A$psock$3096
  0C:29E8A    A$psock$3097
  0C:29E8B    A$psock$3098
  0C:29E8C    A$psock$3099
  0C:29E8D    A$psock$3100
  0C:29E8E    A$psock$3101
  0C:29E90    A$psock$3102
  0C:29E92    A$psock$3103
  0C:29E94    A$psock$3104
  0C:29E96    A$psock$3105
  0C:29E98    A$psock$3106
  0C:29E9B    A$psock$3109
  0C:29E9B    C$psock.c$291$5$5
  0C:29E9D    A$psock$3110
  0C:29E9E    A$psock$3111
  0C:29EA0    A$psock$3112
  0C:29EA1    A$psock$3113
  0C:29EA2    A$psock$3114
  0C:29EA4    A$psock$3115
  0C:29EA6    A$psock$3116
  0C:29EA9    A$psock$3117
  0C:29EAA    A$psock$3118
  0C:29EAB    A$psock$3119
  0C:29EAC    A$psock$3120
  0C:29EAD    A$psock$3121
  0C:29EAE    A$psock$3122
  0C:29EAF    A$psock$3123
  0C:29EB0    A$psock$3124
  0C:29EB1    A$psock$3125
  0C:29EB4    A$psock$3126
  0C:29EB7    A$psock$3127
  0C:29EBA    A$psock$3128
  0C:29EBB    A$psock$3129
  0C:29EBE    A$psock$3130
  0C:29EBF    A$psock$3131
  0C:29EC0    A$psock$3132
  0C:29EC3    A$psock$3133
  0C:29EC4    A$psock$3134
  0C:29EC5    A$psock$3135
  0C:29EC8    A$psock$3138
  0C:29EC8    C$psock.c$292$5$5
  0C:29ECA    A$psock$3139
  0C:29ECB    A$psock$3140
  0C:29ECC    A$psock$3141
  0C:29ECD    A$psock$3142
  0C:29ECE    A$psock$3143
  0C:29ECF    A$psock$3144
  0C:29ED2    A$psock$3145
  0C:29ED3    A$psock$3146
  0C:29ED4    A$psock$3147
  0C:29ED5    A$psock$3148
  0C:29ED6    A$psock$3149
  0C:29ED7    A$psock$3150
  0C:29ED9    A$psock$3151
  0C:29EDB    A$psock$3152
  0C:29EDD    A$psock$3153
  0C:29EDE    A$psock$3154
  0C:29EE1    A$psock$3155
  0C:29EE2    A$psock$3156
  0C:29EE3    A$psock$3157
  0C:29EE6    A$psock$3161
  0C:29EE6    C$psock.c$296$3$3
  0C:29EE9    A$psock$3162
  0C:29EEA    A$psock$3163
  0C:29EEB    A$psock$3164
  0C:29EEC    A$psock$3165
  0C:29EED    A$psock$3166
  0C:29EEE    A$psock$3167
  0C:29EEF    A$psock$3168
  0C:29EF0    A$psock$3169
  0C:29EF1    A$psock$3170
  0C:29EF3    A$psock$3171
  0C:29EF4    A$psock$3172
  0C:29EF6    A$psock$3173
  0C:29EF7    A$psock$3174
  0C:29EF8    A$psock$3175
  0C:29EFA    A$psock$3176
  0C:29EFC    A$psock$3179
  0C:29EFC    C$psock.c$295$3$3
  0C:29EFE    A$psock$3180
  0C:29EFF    A$psock$3181
  0C:29F01    A$psock$3182
  0C:29F02    A$psock$3183
  0C:29F03    A$psock$3184
  0C:29F05    A$psock$3185
  0C:29F07    A$psock$3188
  0C:29F07    C$psock.c$294$3$3
  0C:29F09    A$psock$3189
  0C:29F0A    A$psock$3190
  0C:29F0B    A$psock$3191
  0C:29F0C    A$psock$3192
  0C:29F0D    A$psock$3193
  0C:29F0E    A$psock$3194
  0C:29F10    A$psock$3195
  0C:29F12    A$psock$3196
  0C:29F14    A$psock$3197
  0C:29F16    A$psock$3198
  0C:29F18    A$psock$3199
  0C:29F1A    A$psock$3200
  0C:29F1C    A$psock$3201
  0C:29F1E    A$psock$3202
  0C:29F20    A$psock$3203
  0C:29F22    A$psock$3204
  0C:29F25    A$psock$3205
  0C:29F26    A$psock$3206
  0C:29F28    A$psock$3207
  0C:29F2A    A$psock$3208
  0C:29F2C    A$psock$3209
  0C:29F2E    A$psock$3210
  0C:29F31    A$psock$3211
  0C:29F33    A$psock$3212
  0C:29F35    A$psock$3213
  0C:29F37    A$psock$3214
  0C:29F39    A$psock$3215
  0C:29F3B    A$psock$3216
  0C:29F3D    A$psock$3217
  0C:29F3F    A$psock$3218
  0C:29F40    A$psock$3219
  0C:29F43    A$psock$3220
  0C:29F46    A$psock$3224
  0C:29F46    C$psock.c$298$3$3
  0C:29F48    A$psock$3225
  0C:29F4A    A$psock$3226
  0C:29F4C    A$psock$3227
  0C:29F4E    A$psock$3228
  0C:29F50    A$psock$3229
  0C:29F52    A$psock$3230
  0C:29F54    A$psock$3231
  0C:29F56    A$psock$3232
  0C:29F58    A$psock$3233
  0C:29F5B    A$psock$3234
  0C:29F5D    A$psock$3235
  0C:29F60    A$psock$3236
  0C:29F62    A$psock$3237
  0C:29F64    A$psock$3238
  0C:29F66    A$psock$3239
  0C:29F68    A$psock$3240
  0C:29F6A    A$psock$3243
  0C:29F6A    C$psock.c$299$4$8
  0C:29F6C    A$psock$3244
  0C:29F6D    A$psock$3245
  0C:29F6E    A$psock$3246
  0C:29F6F    A$psock$3247
  0C:29F70    A$psock$3248
  0C:29F71    A$psock$3249
  0C:29F73    A$psock$3250
  0C:29F75    A$psock$3251
  0C:29F77    A$psock$3252
  0C:29F79    A$psock$3253
  0C:29F7A    A$psock$3254
  0C:29F7D    A$psock$3257
  0C:29F7D    C$psock.c$300$5$9
  0C:29F7F    A$psock$3258
  0C:29F80    A$psock$3259
  0C:29F81    A$psock$3260
  0C:29F82    A$psock$3261
  0C:29F83    A$psock$3262
  0C:29F84    A$psock$3263
  0C:29F86    A$psock$3264
  0C:29F88    A$psock$3265
  0C:29F8A    A$psock$3266
  0C:29F8B    A$psock$3267
  0C:29F8E    A$psock$3268
  0C:29F8F    A$psock$3269
  0C:29F90    A$psock$3270
  0C:29F93    A$psock$3271
  0C:29F96    A$psock$3274
  0C:29F96    C$psock.c$302$2$2
  0C:29F98    A$psock$3276
  0C:29F9B    A$psock$3277
  0C:29F9C    A$psock$3278
  0C:29F9D    A$psock$3279
  0C:29F9E    A$psock$3280
  0C:29F9F    A$psock$3281
  0C:29FA0    A$psock$3282
  0C:29FA1    A$psock$3283
  0C:29FA2    A$psock$3284
  0C:29FA3    A$psock$3285
  0C:29FA5    A$psock$3286
  0C:29FA6    A$psock$3287
  0C:29FA7    A$psock$3288
  0C:29FA8    A$psock$3289
  0C:29FA9    A$psock$3290
  0C:29FAA    A$psock$3291
  0C:29FAC    A$psock$3292
  0C:29FAE    A$psock$3293
  0C:29FB0    A$psock$3294
  0C:29FB1    A$psock$3295
  0C:29FB4    A$psock$3296
  0C:29FB5    A$psock$3297
  0C:29FB6    A$psock$3298
  0C:29FB9    A$psock$3299
  0C:29FBC    A$psock$3303
  0C:29FBC    C$psock.c$303$2$2
  0C:29FBC    XG$psock_readto$0$0
  0C:29FBF    A$psock$3319
  0C:29FBF    C$psock.c$305$2$2
  0C:29FBF    G$psock_readbuf$0$0
  0C:29FBF    _psock_readbuf
  0C:29FC1    A$psock$3320
  0C:29FC3    A$psock$3321
  0C:29FC5    A$psock$3322
  0C:29FC8    A$psock$3323
  0C:29FC9    A$psock$3324
  0C:29FCA    A$psock$3325
  0C:29FCB    A$psock$3326
  0C:29FCC    A$psock$3327
  0C:29FCD    A$psock$3328
  0C:29FCE    A$psock$3329
  0C:29FCF    A$psock$3332
  0C:29FCF    C$psock.c$307$2$2
  0C:29FD2    A$psock$3333
  0C:29FD3    A$psock$3334
  0C:29FD4    A$psock$3335
  0C:29FD5    A$psock$3336
  0C:29FD6    A$psock$3337
  0C:29FD7    A$psock$3338
  0C:29FD8    A$psock$3339
  0C:29FD9    A$psock$3340
  0C:29FDA    A$psock$3341
  0C:29FDC    A$psock$3342
  0C:29FDD    A$psock$3343
  0C:29FDE    A$psock$3344
  0C:29FDF    A$psock$3345
  0C:29FE0    A$psock$3346
  0C:29FE1    A$psock$3347
  0C:29FE3    A$psock$3348
  0C:29FE5    A$psock$3349
  0C:29FE7    A$psock$3350
  0C:29FE9    A$psock$3351
  0C:29FEC    A$psock$3352
  0C:29FED    A$psock$3353
  0C:29FEE    A$psock$3354
  0C:29FF1    A$psock$3355
  0C:29FF2    A$psock$3356
  0C:29FF5    A$psock$3357
  0C:29FF8    A$psock$3358
  0C:29FFA    A$psock$3360
  0C:29FFD    A$psock$3361
  0C:2A000    A$psock$3362
  0C:2A003    A$psock$3364
  0C:2A006    A$psock$3368
  0C:2A006    C$psock.c$309$3$3
  0C:2A008    A$psock$3369
  0C:2A009    A$psock$3370
  0C:2A00A    A$psock$3371
  0C:2A00B    A$psock$3372
  0C:2A00C    A$psock$3373
  0C:2A00D    A$psock$3374
  0C:2A00F    A$psock$3375
  0C:2A011    A$psock$3376
  0C:2A013    A$psock$3377
  0C:2A015    A$psock$3378
  0C:2A018    A$psock$3379
  0C:2A019    A$psock$3380
  0C:2A01A    A$psock$3381
  0C:2A01D    A$psock$3382
  0C:2A01E    A$psock$3383
  0C:2A020    A$psock$3384
  0C:2A021    A$psock$3385
  0C:2A022    A$psock$3386
  0C:2A023    A$psock$3387
  0C:2A024    A$psock$3388
  0C:2A025    A$psock$3389
  0C:2A027    A$psock$3390
  0C:2A029    A$psock$3391
  0C:2A02B    A$psock$3392
  0C:2A02D    A$psock$3393
  0C:2A030    A$psock$3394
  0C:2A031    A$psock$3395
  0C:2A032    A$psock$3396
  0C:2A035    A$psock$3397
  0C:2A036    A$psock$3398
  0C:2A037    A$psock$3399
  0C:2A03A    A$psock$3400
  0C:2A03B    A$psock$3401
  0C:2A03D    A$psock$3402
  0C:2A03E    A$psock$3403
  0C:2A03F    A$psock$3404
  0C:2A040    A$psock$3405
  0C:2A041    A$psock$3406
  0C:2A042    A$psock$3407
  0C:2A044    A$psock$3408
  0C:2A046    A$psock$3409
  0C:2A048    A$psock$3410
  0C:2A04A    A$psock$3411
  0C:2A04C    A$psock$3412
  0C:2A04E    A$psock$3413
  0C:2A050    A$psock$3414
  0C:2A052    A$psock$3415
  0C:2A055    A$psock$3416
  0C:2A057    A$psock$3417
  0C:2A059    A$psock$3418
  0C:2A05B    A$psock$3424
  0C:2A05B    C$psock.c$314$3$3
  0C:2A05B    C$psock.c$315$4$4
  0C:2A05E    A$psock$3425
  0C:2A05F    A$psock$3426
  0C:2A060    A$psock$3427
  0C:2A061    A$psock$3428
  0C:2A062    A$psock$3429
  0C:2A063    A$psock$3430
  0C:2A064    A$psock$3431
  0C:2A065    A$psock$3432
  0C:2A066    A$psock$3433
  0C:2A068    A$psock$3434
  0C:2A069    A$psock$3435
  0C:2A06A    A$psock$3436
  0C:2A06B    A$psock$3437
  0C:2A06C    A$psock$3438
  0C:2A06D    A$psock$3439
  0C:2A06F    A$psock$3440
  0C:2A071    A$psock$3441
  0C:2A073    A$psock$3442
  0C:2A075    A$psock$3443
  0C:2A078    A$psock$3444
  0C:2A079    A$psock$3445
  0C:2A07A    A$psock$3446
  0C:2A07D    A$psock$3447
  0C:2A07E    A$psock$3448
  0C:2A07F    A$psock$3449
  0C:2A081    A$psock$3450
  0C:2A084    A$psock$3454
  0C:2A084    C$psock.c$316$6$6
  0C:2A086    A$psock$3455
  0C:2A087    A$psock$3456
  0C:2A088    A$psock$3457
  0C:2A089    A$psock$3458
  0C:2A08A    A$psock$3459
  0C:2A08B    A$psock$3460
  0C:2A08D    A$psock$3461
  0C:2A08F    A$psock$3462
  0C:2A091    A$psock$3463
  0C:2A093    A$psock$3464
  0C:2A096    A$psock$3465
  0C:2A097    A$psock$3466
  0C:2A099    A$psock$3467
  0C:2A09C    A$psock$3469
  0C:2A09F    A$psock$3470
  0C:2A0A0    A$psock$3471
  0C:2A0A1    A$psock$3472
  0C:2A0A2    A$psock$3473
  0C:2A0A3    A$psock$3474
  0C:2A0A4    A$psock$3475
  0C:2A0A5    A$psock$3476
  0C:2A0A6    A$psock$3477
  0C:2A0A7    A$psock$3478
  0C:2A0A9    A$psock$3479
  0C:2A0AB    A$psock$3480
  0C:2A0AD    A$psock$3481
  0C:2A0AF    A$psock$3482
  0C:2A0B1    A$psock$3483
  0C:2A0B3    A$psock$3484
  0C:2A0B6    A$psock$3485
  0C:2A0B8    A$psock$3486
  0C:2A0BA    A$psock$3487
  0C:2A0BC    A$psock$3488
  0C:2A0BF    A$psock$3492
  0C:2A0BF    C$psock.c$317$5$5
  0C:2A0C2    A$psock$3493
  0C:2A0C3    A$psock$3494
  0C:2A0C4    A$psock$3495
  0C:2A0C5    A$psock$3496
  0C:2A0C6    A$psock$3497
  0C:2A0C7    A$psock$3498
  0C:2A0C8    A$psock$3499
  0C:2A0C9    A$psock$3500
  0C:2A0CA    A$psock$3501
  0C:2A0CC    A$psock$3502
  0C:2A0CD    A$psock$3503
  0C:2A0CE    A$psock$3504
  0C:2A0CF    A$psock$3505
  0C:2A0D0    A$psock$3506
  0C:2A0D1    A$psock$3507
  0C:2A0D3    A$psock$3508
  0C:2A0D5    A$psock$3509
  0C:2A0D7    A$psock$3510
  0C:2A0D9    A$psock$3511
  0C:2A0DB    A$psock$3512
  0C:2A0DE    A$psock$3515
  0C:2A0DE    C$psock.c$318$5$5
  0C:2A0E0    A$psock$3516
  0C:2A0E1    A$psock$3517
  0C:2A0E3    A$psock$3518
  0C:2A0E4    A$psock$3519
  0C:2A0E5    A$psock$3520
  0C:2A0E7    A$psock$3521
  0C:2A0E9    A$psock$3522
  0C:2A0EC    A$psock$3523
  0C:2A0ED    A$psock$3524
  0C:2A0EE    A$psock$3525
  0C:2A0EF    A$psock$3526
  0C:2A0F0    A$psock$3527
  0C:2A0F1    A$psock$3528
  0C:2A0F2    A$psock$3529
  0C:2A0F3    A$psock$3530
  0C:2A0F4    A$psock$3531
  0C:2A0F7    A$psock$3532
  0C:2A0FA    A$psock$3533
  0C:2A0FD    A$psock$3534
  0C:2A0FE    A$psock$3535
  0C:2A101    A$psock$3536
  0C:2A102    A$psock$3537
  0C:2A103    A$psock$3538
  0C:2A106    A$psock$3539
  0C:2A107    A$psock$3540
  0C:2A108    A$psock$3541
  0C:2A10B    A$psock$3544
  0C:2A10B    C$psock.c$319$5$5
  0C:2A10D    A$psock$3545
  0C:2A10E    A$psock$3546
  0C:2A10F    A$psock$3547
  0C:2A110    A$psock$3548
  0C:2A111    A$psock$3549
  0C:2A112    A$psock$3550
  0C:2A115    A$psock$3551
  0C:2A116    A$psock$3552
  0C:2A117    A$psock$3553
  0C:2A118    A$psock$3554
  0C:2A119    A$psock$3555
  0C:2A11A    A$psock$3556
  0C:2A11C    A$psock$3557
  0C:2A11E    A$psock$3558
  0C:2A120    A$psock$3559
  0C:2A121    A$psock$3560
  0C:2A124    A$psock$3561
  0C:2A125    A$psock$3562
  0C:2A126    A$psock$3563
  0C:2A129    A$psock$3567
  0C:2A129    C$psock.c$323$3$3
  0C:2A12C    A$psock$3568
  0C:2A12D    A$psock$3569
  0C:2A12E    A$psock$3570
  0C:2A12F    A$psock$3571
  0C:2A130    A$psock$3572
  0C:2A131    A$psock$3573
  0C:2A132    A$psock$3574
  0C:2A133    A$psock$3575
  0C:2A134    A$psock$3576
  0C:2A136    A$psock$3577
  0C:2A137    A$psock$3578
  0C:2A139    A$psock$3579
  0C:2A13A    A$psock$3580
  0C:2A13B    A$psock$3581
  0C:2A13D    A$psock$3582
  0C:2A13F    A$psock$3585
  0C:2A13F    C$psock.c$322$3$3
  0C:2A141    A$psock$3586
  0C:2A142    A$psock$3587
  0C:2A144    A$psock$3588
  0C:2A145    A$psock$3589
  0C:2A146    A$psock$3590
  0C:2A148    A$psock$3591
  0C:2A14A    A$psock$3594
  0C:2A14A    C$psock.c$321$3$3
  0C:2A14C    A$psock$3595
  0C:2A14D    A$psock$3596
  0C:2A14E    A$psock$3597
  0C:2A14F    A$psock$3598
  0C:2A150    A$psock$3599
  0C:2A151    A$psock$3600
  0C:2A153    A$psock$3601
  0C:2A155    A$psock$3602
  0C:2A157    A$psock$3603
  0C:2A159    A$psock$3604
  0C:2A15C    A$psock$3605
  0C:2A15D    A$psock$3606
  0C:2A15E    A$psock$3607
  0C:2A161    A$psock$3608
  0C:2A162    A$psock$3609
  0C:2A164    A$psock$3610
  0C:2A165    A$psock$3611
  0C:2A166    A$psock$3612
  0C:2A167    A$psock$3613
  0C:2A168    A$psock$3614
  0C:2A169    A$psock$3615
  0C:2A16B    A$psock$3616
  0C:2A16D    A$psock$3617
  0C:2A16F    A$psock$3618
  0C:2A171    A$psock$3619
  0C:2A173    A$psock$3620
  0C:2A175    A$psock$3621
  0C:2A177    A$psock$3622
  0C:2A179    A$psock$3623
  0C:2A17B    A$psock$3624
  0C:2A17D    A$psock$3625
  0C:2A17F    A$psock$3626
  0C:2A181    A$psock$3627
  0C:2A183    A$psock$3628
  0C:2A185    A$psock$3629
  0C:2A187    A$psock$3630
  0C:2A18A    A$psock$3631
  0C:2A18C    A$psock$3632
  0C:2A18E    A$psock$3633
  0C:2A190    A$psock$3634
  0C:2A192    A$psock$3635
  0C:2A194    A$psock$3636
  0C:2A196    A$psock$3637
  0C:2A198    A$psock$3638
  0C:2A19B    A$psock$3639
  0C:2A19D    A$psock$3641
  0C:2A1A0    A$psock$3645
  0C:2A1A0    C$psock.c$325$3$3
  0C:2A1A2    A$psock$3646
  0C:2A1A4    A$psock$3647
  0C:2A1A6    A$psock$3648
  0C:2A1A8    A$psock$3649
  0C:2A1AA    A$psock$3650
  0C:2A1AC    A$psock$3651
  0C:2A1AE    A$psock$3652
  0C:2A1B0    A$psock$3653
  0C:2A1B2    A$psock$3654
  0C:2A1B5    A$psock$3655
  0C:2A1B7    A$psock$3656
  0C:2A1BA    A$psock$3657
  0C:2A1BC    A$psock$3658
  0C:2A1BE    A$psock$3659
  0C:2A1C0    A$psock$3660
  0C:2A1C2    A$psock$3661
  0C:2A1C4    A$psock$3664
  0C:2A1C4    C$psock.c$326$4$8
  0C:2A1C6    A$psock$3665
  0C:2A1C7    A$psock$3666
  0C:2A1C8    A$psock$3667
  0C:2A1C9    A$psock$3668
  0C:2A1CA    A$psock$3669
  0C:2A1CB    A$psock$3670
  0C:2A1CD    A$psock$3671
  0C:2A1CF    A$psock$3672
  0C:2A1D1    A$psock$3673
  0C:2A1D3    A$psock$3674
  0C:2A1D4    A$psock$3675
  0C:2A1D7    A$psock$3678
  0C:2A1D7    C$psock.c$327$5$9
  0C:2A1D9    A$psock$3679
  0C:2A1DA    A$psock$3680
  0C:2A1DB    A$psock$3681
  0C:2A1DC    A$psock$3682
  0C:2A1DD    A$psock$3683
  0C:2A1DE    A$psock$3684
  0C:2A1E0    A$psock$3685
  0C:2A1E2    A$psock$3686
  0C:2A1E4    A$psock$3687
  0C:2A1E5    A$psock$3688
  0C:2A1E8    A$psock$3689
  0C:2A1E9    A$psock$3690
  0C:2A1EA    A$psock$3691
  0C:2A1ED    A$psock$3692
  0C:2A1F0    A$psock$3695
  0C:2A1F0    C$psock.c$329$2$2
  0C:2A1F2    A$psock$3697
  0C:2A1F5    A$psock$3698
  0C:2A1F6    A$psock$3699
  0C:2A1F7    A$psock$3700
  0C:2A1F8    A$psock$3701
  0C:2A1F9    A$psock$3702
  0C:2A1FA    A$psock$3703
  0C:2A1FB    A$psock$3704
  0C:2A1FC    A$psock$3705
  0C:2A1FD    A$psock$3706
  0C:2A1FF    A$psock$3707
  0C:2A200    A$psock$3708
  0C:2A201    A$psock$3709
  0C:2A202    A$psock$3710
  0C:2A203    A$psock$3711
  0C:2A204    A$psock$3712
  0C:2A206    A$psock$3713
  0C:2A208    A$psock$3714
  0C:2A20A    A$psock$3715
  0C:2A20B    A$psock$3716
  0C:2A20E    A$psock$3717
  0C:2A20F    A$psock$3718
  0C:2A210    A$psock$3719
  0C:2A213    A$psock$3720
  0C:2A216    A$psock$3724
  0C:2A216    C$psock.c$330$2$2
  0C:2A216    XG$psock_readbuf$0$0
  0C:2A219    A$psock$3741
  0C:2A219    C$psock.c$333$2$2
  0C:2A219    G$psock_init$0$0
  0C:2A219    _psock_init
  0C:2A21B    A$psock$3742
  0C:2A21D    A$psock$3743
  0C:2A21F    A$psock$3744
  0C:2A222    A$psock$3745
  0C:2A223    A$psock$3746
  0C:2A224    A$psock$3747
  0C:2A225    A$psock$3748
  0C:2A226    A$psock$3749
  0C:2A227    A$psock$3750
  0C:2A228    A$psock$3751
  0C:2A229    A$psock$3754
  0C:2A229    C$psock.c$336$1$1
  0C:2A22C    A$psock$3755
  0C:2A22D    A$psock$3756
  0C:2A22E    A$psock$3757
  0C:2A22F    A$psock$3758
  0C:2A230    A$psock$3759
  0C:2A231    A$psock$3760
  0C:2A232    A$psock$3761
  0C:2A233    A$psock$3762
  0C:2A234    A$psock$3763
  0C:2A236    A$psock$3764
  0C:2A237    A$psock$3765
  0C:2A238    A$psock$3766
  0C:2A239    A$psock$3767
  0C:2A23A    A$psock$3768
  0C:2A23B    A$psock$3769
  0C:2A23D    A$psock$3770
  0C:2A23F    A$psock$3771
  0C:2A241    A$psock$3772
  0C:2A243    A$psock$3773
  0C:2A244    A$psock$3774
  0C:2A247    A$psock$3777
  0C:2A247    C$psock.c$337$1$1
  0C:2A249    A$psock$3778
  0C:2A24A    A$psock$3779
  0C:2A24B    A$psock$3780
  0C:2A24C    A$psock$3781
  0C:2A24D    A$psock$3782
  0C:2A24E    A$psock$3783
  0C:2A250    A$psock$3784
  0C:2A252    A$psock$3785
  0C:2A254    A$psock$3786
  0C:2A256    A$psock$3787
  0C:2A257    A$psock$3788
  0C:2A25A    A$psock$3789
  0C:2A25B    A$psock$3790
  0C:2A25C    A$psock$3791
  0C:2A25F    A$psock$3794
  0C:2A25F    C$psock.c$338$1$1
  0C:2A261    A$psock$3795
  0C:2A262    A$psock$3796
  0C:2A264    A$psock$3797
  0C:2A265    A$psock$3798
  0C:2A266    A$psock$3799
  0C:2A268    A$psock$3800
  0C:2A26A    A$psock$3801
  0C:2A26D    A$psock$3802
  0C:2A26E    A$psock$3803
  0C:2A270    A$psock$3804
  0C:2A271    A$psock$3805
  0C:2A272    A$psock$3806
  0C:2A274    A$psock$3807
  0C:2A275    A$psock$3808
  0C:2A276    A$psock$3809
  0C:2A278    A$psock$3810
  0C:2A27B    A$psock$3811
  0C:2A27E    A$psock$3812
  0C:2A281    A$psock$3813
  0C:2A283    A$psock$3814
  0C:2A286    A$psock$3815
  0C:2A287    A$psock$3816
  0C:2A289    A$psock$3817
  0C:2A28C    A$psock$3818
  0C:2A28D    A$psock$3819
  0C:2A28F    A$psock$3820
  0C:2A292    A$psock$3823
  0C:2A292    C$psock.c$339$1$1
  0C:2A294    A$psock$3824
  0C:2A295    A$psock$3825
  0C:2A296    A$psock$3826
  0C:2A297    A$psock$3827
  0C:2A298    A$psock$3828
  0C:2A299    A$psock$3829
  0C:2A29B    A$psock$3830
  0C:2A29E    A$psock$3831
  0C:2A29F    A$psock$3832
  0C:2A2A0    A$psock$3833
  0C:2A2A1    A$psock$3834
  0C:2A2A2    A$psock$3835
  0C:2A2A3    A$psock$3836
  0C:2A2A5    A$psock$3837
  0C:2A2A7    A$psock$3838
  0C:2A2A9    A$psock$3839
  0C:2A2AA    A$psock$3840
  0C:2A2AD    A$psock$3841
  0C:2A2AE    A$psock$3842
  0C:2A2AF    A$psock$3843
  0C:2A2B2    A$psock$3846
  0C:2A2B2    C$psock.c$340$1$1
  0C:2A2B4    A$psock$3847
  0C:2A2B5    A$psock$3848
  0C:2A2B6    A$psock$3849
  0C:2A2B7    A$psock$3850
  0C:2A2B8    A$psock$3851
  0C:2A2B9    A$psock$3852
  0C:2A2BB    A$psock$3853
  0C:2A2BD    A$psock$3854
  0C:2A2BF    A$psock$3855
  0C:2A2C1    A$psock$3856
  0C:2A2C3    A$psock$3857
  0C:2A2C5    A$psock$3858
  0C:2A2C7    A$psock$3859
  0C:2A2C9    A$psock$3860
  0C:2A2CB    A$psock$3861
  0C:2A2CD    A$psock$3862
  0C:2A2CF    A$psock$3863
  0C:2A2D1    A$psock$3864
  0C:2A2D4    A$psock$3865
  0C:2A2D6    A$psock$3866
  0C:2A2D8    A$psock$3867
  0C:2A2DA    A$psock$3868
  0C:2A2DC    A$psock$3869
  0C:2A2DE    A$psock$3870
  0C:2A2E0    A$psock$3873
  0C:2A2E0    C$psock.c$341$1$1
  0C:2A2E2    A$psock$3874
  0C:2A2E4    A$psock$3875
  0C:2A2E6    A$psock$3876
  0C:2A2E7    A$psock$3877
  0C:2A2EA    A$psock$3878
  0C:2A2EB    A$psock$3879
  0C:2A2EC    A$psock$3880
  0C:2A2EF    A$psock$3883
  0C:2A2EF    C$psock.c$342$1$1
  0C:2A2F1    A$psock$3884
  0C:2A2F2    A$psock$3885
  0C:2A2F3    A$psock$3886
  0C:2A2F4    A$psock$3887
  0C:2A2F5    A$psock$3888
  0C:2A2F6    A$psock$3889
  0C:2A2F8    A$psock$3890
  0C:2A2FA    A$psock$3891
  0C:2A2FC    A$psock$3892
  0C:2A2FD    A$psock$3893
  0C:2A300    A$psock$3894
  0C:2A301    A$psock$3895
  0C:2A302    A$psock$3896
  0C:2A305    A$psock$3899
  0C:2A305    C$psock.c$343$1$1
  0C:2A305    XG$psock_init$0$0
  0C:2A308    A$timer$113
  0C:2A308    C$timer.c$67$0$0
  0C:2A308    G$timer_set$0$0
  0C:2A308    _timer_set
  0C:2A30A    A$timer$114
  0C:2A30D    A$timer$115
  0C:2A30F    A$timer$116
  0C:2A311    A$timer$117
  0C:2A313    A$timer$120
  0C:2A313    C$timer.c$69$1$1
  0C:2A315    A$timer$121
  0C:2A316    A$timer$122
  0C:2A317    A$timer$123
  0C:2A318    A$timer$124
  0C:2A319    A$timer$125
  0C:2A31A    A$timer$126
  0C:2A31C    A$timer$127
  0C:2A31E    A$timer$128
  0C:2A320    A$timer$129
  0C:2A322    A$timer$130
  0C:2A324    A$timer$131
  0C:2A326    A$timer$132
  0C:2A327    A$timer$133
  0C:2A328    A$timer$134
  0C:2A32B    A$timer$135
  0C:2A32C    A$timer$136
  0C:2A32D    A$timer$137
  0C:2A32E    A$timer$138
  0C:2A331    A$timer$141
  0C:2A331    C$timer.c$70$1$1
  0C:2A333    A$timer$142
  0C:2A335    A$timer$143
  0C:2A337    A$timer$144
  0C:2A33A    A$timer$145
  0C:2A33C    A$timer$146
  0C:2A33E    A$timer$147
  0C:2A340    A$timer$148
  0C:2A342    A$timer$149
  0C:2A344    A$timer$150
  0C:2A346    A$timer$151
  0C:2A348    A$timer$152
  0C:2A34A    A$timer$153
  0C:2A34B    A$timer$154
  0C:2A34E    A$timer$155
  0C:2A34F    A$timer$156
  0C:2A350    A$timer$157
  0C:2A353    A$timer$158
  0C:2A355    A$timer$161
  0C:2A355    C$timer.c$71$1$1
  0C:2A355    XG$timer_set$0$0
  0C:2A358    A$timer$176
  0C:2A358    C$timer.c$87$1$1
  0C:2A358    C$timer.c$89$1$1
  0C:2A358    G$timer_reset$0$0
  0C:2A358    _timer_reset
  0C:2A35A    A$timer$177
  0C:2A35C    A$timer$178
  0C:2A35E    A$timer$179
  0C:2A361    A$timer$180
  0C:2A362    A$timer$181
  0C:2A363    A$timer$182
  0C:2A366    A$timer$183
  0C:2A367    A$timer$184
  0C:2A369    A$timer$185
  0C:2A36A    A$timer$186
  0C:2A36B    A$timer$187
  0C:2A36C    A$timer$188
  0C:2A36D    A$timer$189
  0C:2A36E    A$timer$190
  0C:2A370    A$timer$191
  0C:2A372    A$timer$192
  0C:2A374    A$timer$193
  0C:2A376    A$timer$194
  0C:2A379    A$timer$195
  0C:2A37A    A$timer$196
  0C:2A37B    A$timer$197
  0C:2A37E    A$timer$198
  0C:2A37F    A$timer$199
  0C:2A380    A$timer$200
  0C:2A381    A$timer$201
  0C:2A382    A$timer$202
  0C:2A383    A$timer$203
  0C:2A384    A$timer$204
  0C:2A385    A$timer$205
  0C:2A387    A$timer$206
  0C:2A389    A$timer$207
  0C:2A38B    A$timer$208
  0C:2A38C    A$timer$209
  0C:2A38F    A$timer$210
  0C:2A390    A$timer$211
  0C:2A391    A$timer$212
  0C:2A394    A$timer$215
  0C:2A394    C$timer.c$90$1$1
  0C:2A394    XG$timer_reset$0$0
  0C:2A397    A$timer$228
  0C:2A397    C$timer.c$107$1$1
  0C:2A397    G$timer_restart$0$0
  0C:2A397    _timer_restart
  0C:2A399    A$timer$229
  0C:2A39B    A$timer$230
  0C:2A39D    A$timer$233
  0C:2A39D    C$timer.c$109$1$1
  0C:2A39F    A$timer$234
  0C:2A3A1    A$timer$235
  0C:2A3A3    A$timer$236
  0C:2A3A6    A$timer$237
  0C:2A3A8    A$timer$238
  0C:2A3AA    A$timer$239
  0C:2A3AC    A$timer$240
  0C:2A3AE    A$timer$241
  0C:2A3B0    A$timer$242
  0C:2A3B2    A$timer$243
  0C:2A3B4    A$timer$244
  0C:2A3B6    A$timer$245
  0C:2A3B7    A$timer$246
  0C:2A3BA    A$timer$247
  0C:2A3BB    A$timer$248
  0C:2A3BC    A$timer$249
  0C:2A3BF    A$timer$252
  0C:2A3BF    C$timer.c$110$1$1
  0C:2A3BF    XG$timer_restart$0$0
  0C:2A3C2    A$timer$265
  0C:2A3C2    C$timer.c$124$1$1
  0C:2A3C2    G$timer_expired$0$0
  0C:2A3C2    _timer_expired
  0C:2A3C4    A$timer$266
  0C:2A3C6    A$timer$267
  0C:2A3C8    A$timer$270
  0C:2A3C8    C$timer.c$126$1$1
  0C:2A3CA    A$timer$271
  0C:2A3CC    A$timer$272
  0C:2A3CE    A$timer$273
  0C:2A3D1    A$timer$274
  0C:2A3D3    A$timer$275
  0C:2A3D5    A$timer$276
  0C:2A3D7    A$timer$277
  0C:2A3D9    A$timer$278
  0C:2A3DB    A$timer$279
  0C:2A3DD    A$timer$280
  0C:2A3DF    A$timer$281
  0C:2A3E1    A$timer$282
  0C:2A3E4    A$timer$283
  0C:2A3E5    A$timer$284
  0C:2A3E6    A$timer$285
  0C:2A3E9    A$timer$286
  0C:2A3EA    A$timer$287
  0C:2A3EB    A$timer$288
  0C:2A3EC    A$timer$289
  0C:2A3ED    A$timer$290
  0C:2A3EE    A$timer$291
  0C:2A3EF    A$timer$292
  0C:2A3F0    A$timer$293
  0C:2A3F1    A$timer$294
  0C:2A3F3    A$timer$295
  0C:2A3F4    A$timer$296
  0C:2A3F5    A$timer$297
  0C:2A3F6    A$timer$298
  0C:2A3F7    A$timer$299
  0C:2A3F8    A$timer$300
  0C:2A3FA    A$timer$301
  0C:2A3FC    A$timer$302
  0C:2A3FE    A$timer$303
  0C:2A401    A$timer$304
  0C:2A402    A$timer$305
  0C:2A403    A$timer$306
  0C:2A406    A$timer$307
  0C:2A407    A$timer$308
  0C:2A408    A$timer$309
  0C:2A409    A$timer$310
  0C:2A40A    A$timer$311
  0C:2A40B    A$timer$312
  0C:2A40D    A$timer$313
  0C:2A40F    A$timer$314
  0C:2A412    A$timer$315
  0C:2A414    A$timer$316
  0C:2A415    A$timer$317
  0C:2A416    A$timer$318
  0C:2A417    A$timer$319
  0C:2A418    A$timer$320
  0C:2A41A    A$timer$321
  0C:2A41C    A$timer$322
  0C:2A41E    A$timer$325
  0C:2A41E    C$timer.c$127$1$1
  0C:2A41E    XG$timer_expired$0$0
  0C:2A421    A$uip$292
  0C:2A421    C$uip.c$191$0$0
  0C:2A421    G$uip_setipid$0$0
  0C:2A421    _uip_setipid
  0C:2A423    A$uip$293
  0C:2A425    A$uip$294
  0C:2A428    A$uip$295
  0C:2A429    A$uip$296
  0C:2A42A    A$uip$297
  0C:2A42B    A$uip$298
  0C:2A42C    A$uip$299
  0C:2A42F    A$uip$300
  0C:2A430    A$uip$301
  0C:2A431    A$uip$302
  0C:2A432    A$uip$303
  0C:2A433    A$uip$304
  0C:2A434    A$uip$305
  0C:2A437    A$uip$306
  0C:2A438    A$uip$307
  0C:2A439    A$uip$308
  0C:2A43A    A$uip$309
  0C:2A43B    A$uip$310
  0C:2A43C    A$uip$313
  0C:2A43C    C$uip.c$192$1$1
  0C:2A43C    XG$uip_setipid$0$0
  0C:2A43F    A$uip$327
  0C:2A43F    C$uip.c$260$1$1
  0C:2A43F    G$uip_add32$0$0
  0C:2A43F    _uip_add32
  0C:2A441    A$uip$328
  0C:2A444    A$uip$329
  0C:2A446    A$uip$330
  0C:2A448    A$uip$331
  0C:2A44A    A$uip$334
  0C:2A44A    C$uip.c$262$1$1
  0C:2A44C    A$uip$335
  0C:2A44D    A$uip$336
  0C:2A44F    A$uip$337
  0C:2A450    A$uip$338
  0C:2A451    A$uip$339
  0C:2A452    A$uip$340
  0C:2A453    A$uip$341
  0C:2A454    A$uip$342
  0C:2A455    A$uip$343
  0C:2A456    A$uip$344
  0C:2A458    A$uip$345
  0C:2A45A    A$uip$346
  0C:2A45C    A$uip$347
  0C:2A45E    A$uip$348
  0C:2A461    A$uip$349
  0C:2A462    A$uip$350
  0C:2A464    A$uip$351
  0C:2A466    A$uip$352
  0C:2A467    A$uip$353
  0C:2A469    A$uip$354
  0C:2A46A    A$uip$355
  0C:2A46B    A$uip$356
  0C:2A46E    A$uip$357
  0C:2A46F    A$uip$360
  0C:2A46F    C$uip.c$263$1$1
  0C:2A471    A$uip$361
  0C:2A472    A$uip$362
  0C:2A474    A$uip$363
  0C:2A475    A$uip$364
  0C:2A476    A$uip$365
  0C:2A477    A$uip$366
  0C:2A478    A$uip$367
  0C:2A479    A$uip$368
  0C:2A47A    A$uip$369
  0C:2A47B    A$uip$370
  0C:2A47D    A$uip$371
  0C:2A47F    A$uip$372
  0C:2A481    A$uip$373
  0C:2A483    A$uip$374
  0C:2A486    A$uip$375
  0C:2A487    A$uip$376
  0C:2A489    A$uip$377
  0C:2A48B    A$uip$378
  0C:2A48C    A$uip$379
  0C:2A48D    A$uip$380
  0C:2A48E    A$uip$381
  0C:2A48F    A$uip$382
  0C:2A490    A$uip$383
  0C:2A493    A$uip$384
  0C:2A494    A$uip$387
  0C:2A494    C$uip.c$264$1$1
  0C:2A496    A$uip$388
  0C:2A497    A$uip$389
  0C:2A499    A$uip$390
  0C:2A49A    A$uip$391
  0C:2A49B    A$uip$392
  0C:2A49C    A$uip$393
  0C:2A49D    A$uip$394
  0C:2A49E    A$uip$395
  0C:2A49F    A$uip$396
  0C:2A4A0    A$uip$397
  0C:2A4A2    A$uip$398
  0C:2A4A4    A$uip$399
  0C:2A4A6    A$uip$400
  0C:2A4A8    A$uip$401
  0C:2A4AB    A$uip$402
  0C:2A4AC    A$uip$403
  0C:2A4AF    A$uip$404
  0C:2A4B0    A$uip$407
  0C:2A4B0    C$uip.c$265$1$1
  0C:2A4B2    A$uip$408
  0C:2A4B3    A$uip$409
  0C:2A4B5    A$uip$410
  0C:2A4B6    A$uip$411
  0C:2A4B8    A$uip$412
  0C:2A4B9    A$uip$413
  0C:2A4BB    A$uip$414
  0C:2A4BE    A$uip$415
  0C:2A4C1    A$uip$416
  0C:2A4C2    A$uip$419
  0C:2A4C2    C$uip.c$267$1$1
  0C:2A4C4    A$uip$420
  0C:2A4C6    A$uip$421
  0C:2A4C7    A$uip$422
  0C:2A4C8    A$uip$423
  0C:2A4CA    A$uip$424
  0C:2A4CC    A$uip$425
  0C:2A4CE    A$uip$426
  0C:2A4CF    A$uip$427
  0C:2A4D0    A$uip$428
  0C:2A4D1    A$uip$429
  0C:2A4D2    A$uip$430
  0C:2A4D3    A$uip$431
  0C:2A4D5    A$uip$434
  0C:2A4D5    C$uip.c$268$2$2
  0C:2A4D8    A$uip$435
  0C:2A4D9    A$uip$436
  0C:2A4DA    A$uip$437
  0C:2A4DB    A$uip$438
  0C:2A4DE    A$uip$439
  0C:2A4DF    A$uip$440
  0C:2A4E0    A$uip$443
  0C:2A4E0    C$uip.c$269$2$2
  0C:2A4E1    A$uip$444
  0C:2A4E3    A$uip$447
  0C:2A4E3    C$uip.c$270$3$3
  0C:2A4E6    A$uip$448
  0C:2A4E7    A$uip$449
  0C:2A4E8    A$uip$450
  0C:2A4E9    A$uip$451
  0C:2A4EC    A$uip$452
  0C:2A4ED    A$uip$453
  0C:2A4EE    A$uip$457
  0C:2A4EE    C$uip.c$275$1$1
  0C:2A4F1    A$uip$458
  0C:2A4F2    A$uip$459
  0C:2A4F3    A$uip$460
  0C:2A4F5    A$uip$461
  0C:2A4F7    A$uip$462
  0C:2A4F8    A$uip$463
  0C:2A4FA    A$uip$464
  0C:2A4FC    A$uip$465
  0C:2A4FE    A$uip$466
  0C:2A4FF    A$uip$467
  0C:2A500    A$uip$468
  0C:2A501    A$uip$469
  0C:2A502    A$uip$470
  0C:2A503    A$uip$471
  0C:2A505    A$uip$474
  0C:2A505    C$uip.c$276$2$4
  0C:2A508    A$uip$475
  0C:2A509    A$uip$476
  0C:2A50A    A$uip$477
  0C:2A50B    A$uip$478
  0C:2A50E    A$uip$479
  0C:2A50F    A$uip$480
  0C:2A510    A$uip$483
  0C:2A510    C$uip.c$277$2$4
  0C:2A511    A$uip$484
  0C:2A513    A$uip$487
  0C:2A513    C$uip.c$278$3$5
  0C:2A516    A$uip$488
  0C:2A517    A$uip$489
  0C:2A518    A$uip$490
  0C:2A519    A$uip$491
  0C:2A51C    A$uip$492
  0C:2A51D    A$uip$493
  0C:2A51E    A$uip$496
  0C:2A51E    C$uip.c$279$3$5
  0C:2A51F    A$uip$497
  0C:2A521    A$uip$500
  0C:2A521    C$uip.c$280$4$6
  0C:2A524    A$uip$501
  0C:2A525    A$uip$502
  0C:2A526    A$uip$503
  0C:2A527    A$uip$504
  0C:2A52A    A$uip$505
  0C:2A52B    A$uip$506
  0C:2A52C    A$uip$508
  0C:2A52F    A$uip$509
  0C:2A531    A$uip$512
  0C:2A531    C$uip.c$284$1$1
  0C:2A531    XG$uip_add32$0$0
  0C:2A532    A$uip$532
  0C:2A532    C$uip.c$291$1$1
  0C:2A532    Fuip$chksum$0$0
  0C:2A534    A$uip$533
  0C:2A536    A$uip$534
  0C:2A539    A$uip$535
  0C:2A53A    A$uip$536
  0C:2A53B    A$uip$537
  0C:2A53C    A$uip$538
  0C:2A53D    A$uip$541
  0C:2A53D    C$uip.c$297$1$1
  0C:2A540    A$uip$542
  0C:2A541    A$uip$543
  0C:2A542    A$uip$544
  0C:2A543    A$uip$545
  0C:2A544    A$uip$546
  0C:2A545    A$uip$547
  0C:2A546    A$uip$548
  0C:2A547    A$uip$549
  0C:2A548    A$uip$552
  0C:2A548    C$uip.c$298$1$1
  0C:2A54B    A$uip$553
  0C:2A54C    A$uip$554
  0C:2A54D    A$uip$555
  0C:2A54E    A$uip$556
  0C:2A54F    A$uip$557
  0C:2A550    A$uip$558
  0C:2A551    A$uip$559
  0C:2A552    A$uip$560
  0C:2A553    A$uip$561
  0C:2A554    A$uip$562
  0C:2A555    A$uip$563
  0C:2A556    A$uip$564
  0C:2A558    A$uip$565
  0C:2A559    A$uip$566
  0C:2A55C    A$uip$567
  0C:2A55D    A$uip$571
  0C:2A55D    C$uip.c$300$1$1
  0C:2A55F    A$uip$572
  0C:2A561    A$uip$573
  0C:2A563    A$uip$575
  0C:2A565    A$uip$576
  0C:2A567    A$uip$577
  0C:2A569    A$uip$578
  0C:2A56B    A$uip$579
  0C:2A56D    A$uip$580
  0C:2A56F    A$uip$581
  0C:2A570    A$uip$582
  0C:2A571    A$uip$583
  0C:2A573    A$uip$584
  0C:2A574    A$uip$585
  0C:2A576    A$uip$586
  0C:2A577    A$uip$587
  0C:2A579    A$uip$588
  0C:2A57B    A$uip$589
  0C:2A57D    A$uip$590
  0C:2A57F    A$uip$591
  0C:2A581    A$uip$592
  0C:2A584    A$uip$596
  0C:2A584    C$uip.c$301$1$1
  0C:2A586    A$uip$597
  0C:2A588    A$uip$598
  0C:2A58A    A$uip$599
  0C:2A58C    A$uip$600
  0C:2A58E    A$uip$601
  0C:2A590    A$uip$602
  0C:2A593    A$uip$603
  0C:2A594    A$uip$604
  0C:2A596    A$uip$605
  0C:2A598    A$uip$606
  0C:2A599    A$uip$607
  0C:2A59A    A$uip$608
  0C:2A59B    A$uip$609
  0C:2A59C    A$uip$610
  0C:2A59D    A$uip$611
  0C:2A59F    A$uip$612
  0C:2A5A1    A$uip$613
  0C:2A5A3    A$uip$614
  0C:2A5A5    A$uip$615
  0C:2A5A8    A$uip$616
  0C:2A5A9    A$uip$617
  0C:2A5AB    A$uip$618
  0C:2A5AC    A$uip$619
  0C:2A5AD    A$uip$620
  0C:2A5AE    A$uip$621
  0C:2A5AF    A$uip$622
  0C:2A5B0    A$uip$623
  0C:2A5B1    A$uip$626
  0C:2A5B1    C$uip.c$302$2$2
  0C:2A5B4    A$uip$627
  0C:2A5B5    A$uip$628
  0C:2A5B6    A$uip$629
  0C:2A5B7    A$uip$630
  0C:2A5B8    A$uip$631
  0C:2A5B9    A$uip$632
  0C:2A5BC    A$uip$633
  0C:2A5BD    A$uip$634
  0C:2A5BE    A$uip$635
  0C:2A5BF    A$uip$636
  0C:2A5C0    A$uip$637
  0C:2A5C1    A$uip$638
  0C:2A5C2    A$uip$639
  0C:2A5C3    A$uip$642
  0C:2A5C3    C$uip.c$303$2$2
  0C:2A5C6    A$uip$643
  0C:2A5C7    A$uip$644
  0C:2A5C9    A$uip$645
  0C:2A5CA    A$uip$646
  0C:2A5CB    A$uip$647
  0C:2A5CD    A$uip$648
  0C:2A5CE    A$uip$649
  0C:2A5D0    A$uip$650
  0C:2A5D1    A$uip$651
  0C:2A5D3    A$uip$652
  0C:2A5D4    A$uip$653
  0C:2A5D5    A$uip$654
  0C:2A5D6    A$uip$655
  0C:2A5D8    A$uip$656
  0C:2A5DA    A$uip$657
  0C:2A5DC    A$uip$658
  0C:2A5DE    A$uip$661
  0C:2A5DE    C$uip.c$304$3$3
  0C:2A5E1    A$uip$662
  0C:2A5E3    A$uip$663
  0C:2A5E5    A$uip$664
  0C:2A5E6    A$uip$665
  0C:2A5E7    A$uip$666
  0C:2A5E9    A$uip$667
  0C:2A5EA    A$uip$668
  0C:2A5EB    A$uip$672
  0C:2A5EB    C$uip.c$306$2$2
  0C:2A5ED    A$uip$673
  0C:2A5EE    A$uip$674
  0C:2A5EF    A$uip$675
  0C:2A5F0    A$uip$676
  0C:2A5F1    A$uip$677
  0C:2A5F2    A$uip$678
  0C:2A5F5    A$uip$682
  0C:2A5F5    C$uip.c$309$1$1
  0C:2A5F6    A$uip$683
  0C:2A5F9    A$uip$684
  0C:2A5FA    A$uip$685
  0C:2A5FD    A$uip$686
  0C:2A5FE    A$uip$687
  0C:2A601    A$uip$690
  0C:2A601    C$uip.c$310$2$4
  0C:2A603    A$uip$691
  0C:2A605    A$uip$692
  0C:2A607    A$uip$693
  0C:2A60A    A$uip$694
  0C:2A60B    A$uip$695
  0C:2A60D    A$uip$698
  0C:2A60D    C$uip.c$311$2$4
  0C:2A610    A$uip$699
  0C:2A611    A$uip$700
  0C:2A612    A$uip$701
  0C:2A613    A$uip$702
  0C:2A614    A$uip$703
  0C:2A615    A$uip$704
  0C:2A618    A$uip$705
  0C:2A619    A$uip$706
  0C:2A61A    A$uip$707
  0C:2A61B    A$uip$708
  0C:2A61C    A$uip$709
  0C:2A61D    A$uip$710
  0C:2A61E    A$uip$711
  0C:2A61F    A$uip$714
  0C:2A61F    C$uip.c$312$2$4
  0C:2A622    A$uip$715
  0C:2A623    A$uip$716
  0C:2A624    A$uip$717
  0C:2A625    A$uip$718
  0C:2A626    A$uip$719
  0C:2A627    A$uip$720
  0C:2A628    A$uip$721
  0C:2A629    A$uip$722
  0C:2A62A    A$uip$723
  0C:2A62B    A$uip$724
  0C:2A62C    A$uip$725
  0C:2A62E    A$uip$728
  0C:2A62E    C$uip.c$313$3$5
  0C:2A631    A$uip$729
  0C:2A633    A$uip$730
  0C:2A634    A$uip$731
  0C:2A635    A$uip$732
  0C:2A636    A$uip$733
  0C:2A637    A$uip$734
  0C:2A638    A$uip$735
  0C:2A639    A$uip$739
  0C:2A639    C$uip.c$318$1$1
  0C:2A63C    A$uip$740
  0C:2A63D    A$uip$741
  0C:2A63E    A$uip$742
  0C:2A63F    A$uip$743
  0C:2A640    A$uip$746
  0C:2A640    C$uip.c$319$1$1
  0C:2A640    XFuip$chksum$0$0
  0C:2A642    A$uip$747
  0C:2A644    A$uip$748
  0C:2A645    A$uip$762
  0C:2A645    C$uip.c$322$1$1
  0C:2A645    G$uip_chksum$0$0
  0C:2A645    _uip_chksum
  0C:2A647    A$uip$763
  0C:2A649    A$uip$764
  0C:2A64B    A$uip$765
  0C:2A64E    A$uip$766
  0C:2A64F    A$uip$767
  0C:2A650    A$uip$768
  0C:2A651    A$uip$769
  0C:2A652    A$uip$770
  0C:2A653    A$uip$771
  0C:2A654    A$uip$772
  0C:2A655    A$uip$775
  0C:2A655    C$uip.c$324$1$1
  0C:2A658    A$uip$776
  0C:2A659    A$uip$777
  0C:2A65A    A$uip$778
  0C:2A65B    A$uip$779
  0C:2A65C    A$uip$780
  0C:2A65D    A$uip$781
  0C:2A65E    A$uip$782
  0C:2A65F    A$uip$783
  0C:2A660    A$uip$784
  0C:2A663    A$uip$785
  0C:2A664    A$uip$786
  0C:2A665    A$uip$787
  0C:2A666    A$uip$788
  0C:2A667    A$uip$789
  0C:2A668    A$uip$790
  0C:2A66B    A$uip$791
  0C:2A66C    A$uip$792
  0C:2A66D    A$uip$793
  0C:2A66E    A$uip$794
  0C:2A66F    A$uip$795
  0C:2A670    A$uip$796
  0C:2A671    A$uip$797
  0C:2A672    A$uip$798
  0C:2A673    A$uip$799
  0C:2A676    A$uip$800
  0C:2A677    A$uip$801
  0C:2A678    A$uip$802
  0C:2A679    A$uip$803
  0C:2A67A    A$uip$804
  0C:2A67B    A$uip$805
  0C:2A67E    A$uip$806
  0C:2A681    A$uip$807
  0C:2A683    A$uip$808
  0C:2A685    A$uip$809
  0C:2A687    A$uip$810
  0C:2A68A    A$uip$811
  0C:2A68C    A$uip$812
  0C:2A68E    A$uip$815
  0C:2A68E    C$uip.c$325$1$1
  0C:2A68E    XG$uip_chksum$0$0
  0C:2A691    A$uip$830
  0C:2A691    C$uip.c$328$1$1
  0C:2A691    C$uip.c$332$1$1
  0C:2A691    G$uip_ipchksum$0$0
  0C:2A691    _uip_ipchksum
  0C:2A694    A$uip$831
  0C:2A696    A$uip$832
  0C:2A697    A$uip$833
  0C:2A698    A$uip$834
  0C:2A69A    A$uip$835
  0C:2A69B    A$uip$836
  0C:2A69C    A$uip$837
  0C:2A69D    A$uip$838
  0C:2A69E    A$uip$839
  0C:2A6A1    A$uip$840
  0C:2A6A3    A$uip$841
  0C:2A6A4    A$uip$842
  0C:2A6A5    A$uip$843
  0C:2A6A6    A$uip$844
  0C:2A6A7    A$uip$845
  0C:2A6AA    A$uip$846
  0C:2A6AD    A$uip$847
  0C:2A6AF    A$uip$848
  0C:2A6B1    A$uip$851
  0C:2A6B1    C$uip.c$334$1$1
  0C:2A6B2    A$uip$852
  0C:2A6B3    A$uip$853
  0C:2A6B6    A$uip$855
  0C:2A6B7    A$uip$856
  0C:2A6B8    A$uip$857
  0C:2A6B9    A$uip$858
  0C:2A6BB    A$uip$859
  0C:2A6BD    A$uip$860
  0C:2A6BF    A$uip$861
  0C:2A6C1    A$uip$863
  0C:2A6C3    A$uip$864
  0C:2A6C5    A$uip$865
  0C:2A6C7    A$uip$866
  0C:2A6C9    A$uip$867
  0C:2A6CB    A$uip$868
  0C:2A6CE    A$uip$869
  0C:2A6D0    A$uip$870
  0C:2A6D2    A$uip$872
  0C:2A6D4    A$uip$873
  0C:2A6D6    A$uip$876
  0C:2A6D6    C$uip.c$335$1$1
  0C:2A6D6    XG$uip_ipchksum$0$0
  0C:2A6D9    A$uip$891
  0C:2A6D9    C$uip.c$339$1$1
  0C:2A6D9    Fuip$upper_layer_chksum$0$0
  0C:2A6DB    A$uip$892
  0C:2A6DE    A$uip$893
  0C:2A6DF    A$uip$896
  0C:2A6DF    C$uip.c$347$1$1
  0C:2A6E1    A$uip$897
  0C:2A6E3    A$uip$898
  0C:2A6E5    A$uip$899
  0C:2A6E7    A$uip$900
  0C:2A6E9    A$uip$901
  0C:2A6EB    A$uip$902
  0C:2A6EE    A$uip$903
  0C:2A6EF    A$uip$904
  0C:2A6F1    A$uip$905
  0C:2A6F4    A$uip$906
  0C:2A6F7    A$uip$907
  0C:2A6FA    A$uip$908
  0C:2A6FB    A$uip$909
  0C:2A6FD    A$uip$910
  0C:2A6FE    A$uip$911
  0C:2A6FF    A$uip$912
  0C:2A700    A$uip$913
  0C:2A701    A$uip$914
  0C:2A702    A$uip$915
  0C:2A703    A$uip$916
  0C:2A704    A$uip$917
  0C:2A706    A$uip$918
  0C:2A707    A$uip$919
  0C:2A708    A$uip$920
  0C:2A70A    A$uip$921
  0C:2A70B    A$uip$922
  0C:2A70E    A$uip$923
  0C:2A70F    A$uip$924
  0C:2A710    A$uip$925
  0C:2A711    A$uip$926
  0C:2A712    A$uip$927
  0C:2A713    A$uip$930
  0C:2A713    C$uip.c$353$1$1
  0C:2A716    A$uip$931
  0C:2A717    A$uip$932
  0C:2A718    A$uip$933
  0C:2A71A    A$uip$934
  0C:2A71B    A$uip$935
  0C:2A71C    A$uip$936
  0C:2A71D    A$uip$937
  0C:2A71E    A$uip$938
  0C:2A71F    A$uip$939
  0C:2A720    A$uip$942
  0C:2A720    C$uip.c$355$1$1
  0C:2A723    A$uip$943
  0C:2A725    A$uip$944
  0C:2A726    A$uip$945
  0C:2A727    A$uip$946
  0C:2A729    A$uip$947
  0C:2A72A    A$uip$948
  0C:2A72B    A$uip$949
  0C:2A72C    A$uip$950
  0C:2A72D    A$uip$951
  0C:2A730    A$uip$952
  0C:2A732    A$uip$953
  0C:2A733    A$uip$954
  0C:2A734    A$uip$955
  0C:2A735    A$uip$956
  0C:2A736    A$uip$957
  0C:2A738    A$uip$958
  0C:2A73A    A$uip$959
  0C:2A73D    A$uip$960
  0C:2A73F    A$uip$961
  0C:2A741    A$uip$966
  0C:2A741    C$uip.c$358$1$1
  0C:2A741    C$uip.c$359$1$1
  0C:2A744    A$uip$967
  0C:2A745    A$uip$968
  0C:2A746    A$uip$969
  0C:2A747    A$uip$970
  0C:2A748    A$uip$971
  0C:2A749    A$uip$972
  0C:2A74C    A$uip$973
  0C:2A74E    A$uip$974
  0C:2A74F    A$uip$975
  0C:2A750    A$uip$976
  0C:2A752    A$uip$977
  0C:2A753    A$uip$978
  0C:2A754    A$uip$979
  0C:2A755    A$uip$980
  0C:2A756    A$uip$981
  0C:2A759    A$uip$982
  0C:2A75A    A$uip$983
  0C:2A75B    A$uip$984
  0C:2A75C    A$uip$985
  0C:2A75D    A$uip$986
  0C:2A75E    A$uip$987
  0C:2A760    A$uip$988
  0C:2A762    A$uip$989
  0C:2A765    A$uip$990
  0C:2A767    A$uip$991
  0C:2A769    A$uip$994
  0C:2A769    C$uip.c$361$1$1
  0C:2A76A    A$uip$995
  0C:2A76B    A$uip$996
  0C:2A76E    A$uip$998
  0C:2A76F    A$uip$999
  0C:2A770    A$uip$1000
  0C:2A771    A$uip$1001
  0C:2A773    A$uip$1002
  0C:2A775    A$uip$1003
  0C:2A777    A$uip$1004
  0C:2A779    A$uip$1006
  0C:2A77B    A$uip$1007
  0C:2A77D    A$uip$1008
  0C:2A77F    A$uip$1009
  0C:2A781    A$uip$1010
  0C:2A783    A$uip$1011
  0C:2A786    A$uip$1012
  0C:2A788    A$uip$1013
  0C:2A78A    A$uip$1015
  0C:2A78C    A$uip$1016
  0C:2A78E    A$uip$1019
  0C:2A78E    C$uip.c$362$1$1
  0C:2A78E    XFuip$upper_layer_chksum$0$0
  0C:2A78F    A$uip$1033
  0C:2A78F    C$uip.c$374$1$1
  0C:2A78F    C$uip.c$376$1$1
  0C:2A78F    G$uip_tcpchksum$0$0
  0C:2A78F    _uip_tcpchksum
  0C:2A792    A$uip$1034
  0C:2A795    A$uip$1035
  0C:2A797    A$uip$1036
  0C:2A799    A$uip$1039
  0C:2A799    C$uip.c$377$1$1
  0C:2A799    XG$uip_tcpchksum$0$0
  0C:2A79C    A$uip$1053
  0C:2A79C    C$uip.c$389$1$1
  0C:2A79C    G$uip_init$0$0
  0C:2A79C    _uip_init
  0C:2A79F    A$uip$1054
  0C:2A7A0    A$uip$1055
  0C:2A7A1    A$uip$1057
  0C:2A7A4    A$uip$1058
  0C:2A7A5    A$uip$1059
  0C:2A7A6    A$uip$1060
  0C:2A7A9    A$uip$1062
  0C:2A7AB    A$uip$1065
  0C:2A7AB    C$uip.c$392$2$2
  0C:2A7AC    A$uip$1066
  0C:2A7AD    A$uip$1067
  0C:2A7AE    A$uip$1068
  0C:2A7B0    A$uip$1069
  0C:2A7B2    A$uip$1070
  0C:2A7B3    A$uip$1071
  0C:2A7B5    A$uip$1072
  0C:2A7B7    A$uip$1073
  0C:2A7B8    A$uip$1074
  0C:2A7B9    A$uip$1075
  0C:2A7BA    A$uip$1076
  0C:2A7BB    A$uip$1079
  0C:2A7BB    C$uip.c$391$1$1
  0C:2A7BE    A$uip$1080
  0C:2A7BF    A$uip$1081
  0C:2A7C0    A$uip$1082
  0C:2A7C1    A$uip$1083
  0C:2A7C3    A$uip$1087
  0C:2A7C3    C$uip.c$394$1$1
  0C:2A7C6    A$uip$1088
  0C:2A7C8    A$uip$1089
  0C:2A7C9    A$uip$1093
  0C:2A7C9    C$uip.c$395$2$3
  0C:2A7CC    A$uip$1094
  0C:2A7CD    A$uip$1095
  0C:2A7CE    A$uip$1096
  0C:2A7CF    A$uip$1097
  0C:2A7D2    A$uip$1098
  0C:2A7D3    A$uip$1099
  0C:2A7D4    A$uip$1100
  0C:2A7D5    A$uip$1101
  0C:2A7D6    A$uip$1102
  0C:2A7D7    A$uip$1103
  0C:2A7DA    A$uip$1104
  0C:2A7DC    A$uip$1105
  0C:2A7DF    A$uip$1106
  0C:2A7E1    A$uip$1107
  0C:2A7E3    A$uip$1108
  0C:2A7E5    A$uip$1109
  0C:2A7E6    A$uip$1110
  0C:2A7E8    A$uip$1111
  0C:2A7E9    A$uip$1112
  0C:2A7EA    A$uip$1113
  0C:2A7EC    A$uip$1114
  0C:2A7ED    A$uip$1115
  0C:2A7EF    A$uip$1116
  0C:2A7F0    A$uip$1117
  0C:2A7F2    A$uip$1118
  0C:2A7F3    A$uip$1119
  0C:2A7F4    A$uip$1120
  0C:2A7F6    A$uip$1121
  0C:2A7F7    A$uip$1122
  0C:2A7F8    A$uip$1125
  0C:2A7F8    C$uip.c$394$2$3
  0C:2A7FB    A$uip$1126
  0C:2A7FC    A$uip$1127
  0C:2A7FD    A$uip$1128
  0C:2A7FE    A$uip$1129
  0C:2A7FF    A$uip$1130
  0C:2A801    A$uip$1131
  0C:2A804    A$uip$1132
  0C:2A806    A$uip$1133
  0C:2A807    A$uip$1136
  0C:2A807    C$uip.c$398$1$1
  0C:2A80A    A$uip$1137
  0C:2A80B    A$uip$1138
  0C:2A80C    A$uip$1139
  0C:2A80D    A$uip$1140
  0C:2A80F    A$uip$1141
  0C:2A810    A$uip$1144
  0C:2A810    C$uip.c$413$1$1
  0C:2A810    XG$uip_init$0$0
  0C:2A813    A$uip$1162
  0C:2A813    C$uip.c$417$1$1
  0C:2A813    G$uip_connect$0$0
  0C:2A813    _uip_connect
  0C:2A815    A$uip$1163
  0C:2A817    A$uip$1164
  0C:2A819    A$uip$1165
  0C:2A81C    A$uip$1166
  0C:2A81D    A$uip$1167
  0C:2A81E    A$uip$1168
  0C:2A81F    A$uip$1169
  0C:2A820    A$uip$1170
  0C:2A821    A$uip$1171
  0C:2A822    A$uip$1172
  0C:2A823    A$uip$1178
  0C:2A823    C$uip.c$422$2$3
  0C:2A823    C$uip.c$423$1$1
  0C:2A826    A$uip$1179
  0C:2A827    A$uip$1180
  0C:2A829    A$uip$1181
  0C:2A82A    A$uip$1182
  0C:2A82B    A$uip$1183
  0C:2A82C    A$uip$1184
  0C:2A82E    A$uip$1185
  0C:2A82F    A$uip$1188
  0C:2A82F    C$uip.c$425$1$1
  0C:2A832    A$uip$1189
  0C:2A833    A$uip$1190
  0C:2A834    A$uip$1191
  0C:2A835    A$uip$1192
  0C:2A836    A$uip$1193
  0C:2A837    A$uip$1194
  0C:2A838    A$uip$1195
  0C:2A83A    A$uip$1196
  0C:2A83C    A$uip$1199
  0C:2A83C    C$uip.c$426$2$2
  0C:2A83F    A$uip$1200
  0C:2A840    A$uip$1201
  0C:2A841    A$uip$1202
  0C:2A842    A$uip$1203
  0C:2A844    A$uip$1204
  0C:2A845    A$uip$1208
  0C:2A848    A$uip$1209
  0C:2A849    A$uip$1210
  0C:2A84A    A$uip$1212
  0C:2A84D    A$uip$1213
  0C:2A84E    A$uip$1214
  0C:2A84F    A$uip$1215
  0C:2A852    A$uip$1217
  0C:2A854    A$uip$1218
  0C:2A857    A$uip$1222
  0C:2A857    C$uip.c$432$2$3
  0C:2A85A    A$uip$1223
  0C:2A85B    A$uip$1224
  0C:2A85C    A$uip$1225
  0C:2A85D    A$uip$1226
  0C:2A85E    A$uip$1227
  0C:2A85F    A$uip$1228
  0C:2A862    A$uip$1229
  0C:2A865    A$uip$1230
  0C:2A867    A$uip$1231
  0C:2A869    A$uip$1232
  0C:2A86A    A$uip$1233
  0C:2A86C    A$uip$1234
  0C:2A86D    A$uip$1235
  0C:2A86E    A$uip$1236
  0C:2A870    A$uip$1237
  0C:2A871    A$uip$1238
  0C:2A873    A$uip$1241
  0C:2A873    C$uip.c$433$2$3
  0C:2A875    A$uip$1242
  0C:2A876    A$uip$1243
  0C:2A877    A$uip$1244
  0C:2A878    A$uip$1245
  0C:2A879    A$uip$1246
  0C:2A87A    A$uip$1247
  0C:2A87C    A$uip$1248
  0C:2A87E    A$uip$1249
  0C:2A880    A$uip$1250
  0C:2A882    A$uip$1251
  0C:2A885    A$uip$1252
  0C:2A887    A$uip$1255
  0C:2A887    C$uip.c$434$2$3
  0C:2A889    A$uip$1256
  0C:2A88A    A$uip$1257
  0C:2A88B    A$uip$1258
  0C:2A88C    A$uip$1259
  0C:2A88D    A$uip$1260
  0C:2A88E    A$uip$1261
  0C:2A890    A$uip$1262
  0C:2A892    A$uip$1263
  0C:2A894    A$uip$1264
  0C:2A897    A$uip$1265
  0C:2A898    A$uip$1266
  0C:2A899    A$uip$1267
  0C:2A89C    A$uip$1268
  0C:2A89D    A$uip$1269
  0C:2A8A0    A$uip$1270
  0C:2A8A1    A$uip$1271
  0C:2A8A2    A$uip$1272
  0C:2A8A3    A$uip$1273
  0C:2A8A4    A$uip$1274
  0C:2A8A5    A$uip$1275
  0C:2A8A7    A$uip$1276
  0C:2A8A9    A$uip$1277
  0C:2A8AB    A$uip$1278
  0C:2A8AD    A$uip$1279
  0C:2A8AF    A$uip$1280
  0C:2A8B1    A$uip$1281
  0C:2A8B3    A$uip$1282
  0C:2A8B6    A$uip$1283
  0C:2A8B8    A$uip$1284
  0C:2A8BA    A$uip$1285
  0C:2A8BC    A$uip$1286
  0C:2A8BE    A$uip$1287
  0C:2A8BF    A$uip$1288
  0C:2A8C2    A$uip$1289
  0C:2A8C3    A$uip$1290
  0C:2A8C6    A$uip$1291
  0C:2A8C9    A$uip$1298
  0C:2A8C9    C$uip.c$431$1$1
  0C:2A8C9    C$uip.c$435$1$3
  0C:2A8CC    A$uip$1299
  0C:2A8CD    A$uip$1300
  0C:2A8CF    A$uip$1301
  0C:2A8D0    A$uip$1302
  0C:2A8D3    A$uip$1306
  0C:2A8D3    C$uip.c$439$1$1
  0C:2A8D6    A$uip$1309
  0C:2A8D7    A$uip$1310
  0C:2A8D8    A$uip$1311
  0C:2A8D9    A$uip$1312
  0C:2A8DA    A$uip$1313
  0C:2A8DB    A$uip$1314
  0C:2A8DC    A$uip$1315
  0C:2A8DF    A$uip$1316
  0C:2A8E0    A$uip$1318
  0C:2A8E3    A$uip$1319
  0C:2A8E4    A$uip$1320
  0C:2A8E5    A$uip$1321
  0C:2A8E8    A$uip$1323
  0C:2A8EA    A$uip$1324
  0C:2A8ED    A$uip$1328
  0C:2A8ED    C$uip.c$441$2$5
  0C:2A8F0    A$uip$1329
  0C:2A8F1    A$uip$1330
  0C:2A8F2    A$uip$1331
  0C:2A8F3    A$uip$1332
  0C:2A8F4    A$uip$1333
  0C:2A8F5    A$uip$1334
  0C:2A8F8    A$uip$1335
  0C:2A8FB    A$uip$1336
  0C:2A8FD    A$uip$1337
  0C:2A8FF    A$uip$1338
  0C:2A900    A$uip$1339
  0C:2A902    A$uip$1340
  0C:2A903    A$uip$1341
  0C:2A904    A$uip$1342
  0C:2A906    A$uip$1343
  0C:2A907    A$uip$1344
  0C:2A909    A$uip$1345
  0C:2A90C    A$uip$1346
  0C:2A90D    A$uip$1347
  0C:2A90E    A$uip$1348
  0C:2A90F    A$uip$1349
  0C:2A910    A$uip$1350
  0C:2A911    A$uip$1351
  0C:2A912    A$uip$1352
  0C:2A913    A$uip$1353
  0C:2A914    A$uip$1356
  0C:2A914    C$uip.c$442$2$5
  0C:2A916    A$uip$1357
  0C:2A917    A$uip$1358
  0C:2A918    A$uip$1359
  0C:2A919    A$uip$1360
  0C:2A91A    A$uip$1361
  0C:2A91B    A$uip$1362
  0C:2A91D    A$uip$1363
  0C:2A91F    A$uip$1364
  0C:2A921    A$uip$1365
  0C:2A923    A$uip$1366
  0C:2A926    A$uip$1367
  0C:2A927    A$uip$1368
  0C:2A929    A$uip$1371
  0C:2A929    C$uip.c$443$3$6
  0C:2A92C    A$uip$1372
  0C:2A92D    A$uip$1373
  0C:2A92E    A$uip$1374
  0C:2A92F    A$uip$1375
  0C:2A930    A$uip$1376
  0C:2A931    A$uip$1377
  0C:2A932    A$uip$1378
  0C:2A933    A$uip$1379
  0C:2A934    A$uip$1382
  0C:2A934    C$uip.c$444$3$6
  0C:2A936    A$uip$1386
  0C:2A936    C$uip.c$446$2$5
  0C:2A939    A$uip$1389
  0C:2A939    C$uip.c$447$3$7
  0C:2A93C    A$uip$1390
  0C:2A93D    A$uip$1391
  0C:2A93E    A$uip$1392
  0C:2A93F    A$uip$1393
  0C:2A940    A$uip$1394
  0C:2A941    A$uip$1395
  0C:2A942    A$uip$1396
  0C:2A943    A$uip$1397
  0C:2A944    A$uip$1398
  0C:2A945    A$uip$1399
  0C:2A946    A$uip$1400
  0C:2A947    A$uip$1401
  0C:2A949    A$uip$1404
  0C:2A949    C$uip.c$448$3$7
  0C:2A94B    A$uip$1405
  0C:2A94C    A$uip$1406
  0C:2A94D    A$uip$1407
  0C:2A94E    A$uip$1408
  0C:2A94F    A$uip$1409
  0C:2A950    A$uip$1410
  0C:2A952    A$uip$1411
  0C:2A954    A$uip$1412
  0C:2A956    A$uip$1413
  0C:2A959    A$uip$1414
  0C:2A95A    A$uip$1415
  0C:2A95C    A$uip$1416
  0C:2A95D    A$uip$1417
  0C:2A95E    A$uip$1418
  0C:2A95F    A$uip$1419
  0C:2A960    A$uip$1420
  0C:2A961    A$uip$1421
  0C:2A963    A$uip$1422
  0C:2A965    A$uip$1423
  0C:2A967    A$uip$1424
  0C:2A96A    A$uip$1425
  0C:2A96B    A$uip$1426
  0C:2A96C    A$uip$1427
  0C:2A96D    A$uip$1428
  0C:2A96F    A$uip$1432
  0C:2A96F    C$uip.c$449$4$8
  0C:2A972    A$uip$1433
  0C:2A973    A$uip$1434
  0C:2A974    A$uip$1435
  0C:2A975    A$uip$1436
  0C:2A976    A$uip$1437
  0C:2A977    A$uip$1438
  0C:2A978    A$uip$1439
  0C:2A979    A$uip$1440
  0C:2A97A    A$uip$1441
  0C:2A97D    A$uip$1442
  0C:2A97E    A$uip$1443
  0C:2A97F    A$uip$1444
  0C:2A980    A$uip$1445
  0C:2A981    A$uip$1446
  0C:2A982    A$uip$1447
  0C:2A983    A$uip$1448
  0C:2A984    A$uip$1449
  0C:2A985    A$uip$1453
  0C:2A985    C$uip.c$440$1$1
  0C:2A988    A$uip$1454
  0C:2A989    A$uip$1455
  0C:2A98B    A$uip$1456
  0C:2A98C    A$uip$1457
  0C:2A98F    A$uip$1461
  0C:2A98F    C$uip.c$454$1$1
  0C:2A992    A$uip$1462
  0C:2A993    A$uip$1463
  0C:2A994    A$uip$1464
  0C:2A995    A$uip$1465
  0C:2A996    A$uip$1466
  0C:2A997    A$uip$1467
  0C:2A998    A$uip$1468
  0C:2A999    A$uip$1469
  0C:2A99A    A$uip$1470
  0C:2A99B    A$uip$1471
  0C:2A99C    A$uip$1472
  0C:2A99D    A$uip$1475
  0C:2A99D    C$uip.c$455$2$9
  0C:2A99F    A$uip$1476
  0C:2A9A2    A$uip$1477
  0C:2A9A4    A$uip$1478
  0C:2A9A7    A$uip$1482
  0C:2A9A7    C$uip.c$458$1$1
  0C:2A9A9    A$uip$1483
  0C:2A9AA    A$uip$1484
  0C:2A9AB    A$uip$1485
  0C:2A9AC    A$uip$1486
  0C:2A9AD    A$uip$1487
  0C:2A9AE    A$uip$1488
  0C:2A9B0    A$uip$1489
  0C:2A9B2    A$uip$1490
  0C:2A9B4    A$uip$1491
  0C:2A9B6    A$uip$1492
  0C:2A9B8    A$uip$1493
  0C:2A9BB    A$uip$1496
  0C:2A9BB    C$uip.c$460$1$1
  0C:2A9BD    A$uip$1497
  0C:2A9BE    A$uip$1498
  0C:2A9BF    A$uip$1499
  0C:2A9C0    A$uip$1500
  0C:2A9C1    A$uip$1501
  0C:2A9C2    A$uip$1502
  0C:2A9C4    A$uip$1503
  0C:2A9C7    A$uip$1504
  0C:2A9C8    A$uip$1505
  0C:2A9CA    A$uip$1506
  0C:2A9CC    A$uip$1507
  0C:2A9CE    A$uip$1508
  0C:2A9D1    A$uip$1511
  0C:2A9D1    C$uip.c$461$1$1
  0C:2A9D3    A$uip$1512
  0C:2A9D4    A$uip$1513
  0C:2A9D6    A$uip$1514
  0C:2A9D7    A$uip$1515
  0C:2A9D8    A$uip$1516
  0C:2A9DA    A$uip$1517
  0C:2A9DC    A$uip$1518
  0C:2A9DE    A$uip$1519
  0C:2A9E0    A$uip$1520
  0C:2A9E1    A$uip$1521
  0C:2A9E2    A$uip$1522
  0C:2A9E4    A$uip$1523
  0C:2A9E5    A$uip$1524
  0C:2A9E7    A$uip$1525
  0C:2A9EA    A$uip$1526
  0C:2A9EB    A$uip$1527
  0C:2A9ED    A$uip$1528
  0C:2A9EF    A$uip$1529
  0C:2A9F1    A$uip$1530
  0C:2A9F4    A$uip$1533
  0C:2A9F4    C$uip.c$462$1$1
  0C:2A9F6    A$uip$1534
  0C:2A9F8    A$uip$1535
  0C:2A9F9    A$uip$1536
  0C:2A9FA    A$uip$1537
  0C:2A9FC    A$uip$1538
  0C:2A9FD    A$uip$1539
  0C:2A9FF    A$uip$1540
  0C:2AA02    A$uip$1541
  0C:2AA03    A$uip$1542
  0C:2AA05    A$uip$1543
  0C:2AA07    A$uip$1544
  0C:2AA09    A$uip$1545
  0C:2AA0C    A$uip$1548
  0C:2AA0C    C$uip.c$463$1$1
  0C:2AA0E    A$uip$1549
  0C:2AA10    A$uip$1550
  0C:2AA11    A$uip$1551
  0C:2AA12    A$uip$1552
  0C:2AA14    A$uip$1553
  0C:2AA15    A$uip$1554
  0C:2AA17    A$uip$1555
  0C:2AA1A    A$uip$1556
  0C:2AA1B    A$uip$1557
  0C:2AA1D    A$uip$1558
  0C:2AA1F    A$uip$1559
  0C:2AA21    A$uip$1560
  0C:2AA24    A$uip$1563
  0C:2AA24    C$uip.c$465$1$1
  0C:2AA26    A$uip$1564
  0C:2AA27    A$uip$1565
  0C:2AA29    A$uip$1566
  0C:2AA2A    A$uip$1567
  0C:2AA2B    A$uip$1568
  0C:2AA2D    A$uip$1569
  0C:2AA2F    A$uip$1570
  0C:2AA31    A$uip$1571
  0C:2AA32    A$uip$1572
  0C:2AA33    A$uip$1573
  0C:2AA34    A$uip$1574
  0C:2AA35    A$uip$1575
  0C:2AA36    A$uip$1576
  0C:2AA38    A$uip$1577
  0C:2AA3A    A$uip$1578
  0C:2AA3C    A$uip$1579
  0C:2AA3E    A$uip$1580
  0C:2AA40    A$uip$1581
  0C:2AA43    A$uip$1582
  0C:2AA44    A$uip$1583
  0C:2AA46    A$uip$1584
  0C:2AA49    A$uip$1585
  0C:2AA4C    A$uip$1586
  0C:2AA4F    A$uip$1587
  0C:2AA52    A$uip$1588
  0C:2AA54    A$uip$1589
  0C:2AA57    A$uip$1590
  0C:2AA58    A$uip$1591
  0C:2AA5A    A$uip$1592
  0C:2AA5D    A$uip$1595
  0C:2AA5D    C$uip.c$467$1$1
  0C:2AA5F    A$uip$1596
  0C:2AA60    A$uip$1597
  0C:2AA61    A$uip$1598
  0C:2AA62    A$uip$1599
  0C:2AA63    A$uip$1600
  0C:2AA64    A$uip$1601
  0C:2AA66    A$uip$1602
  0C:2AA68    A$uip$1603
  0C:2AA6A    A$uip$1604
  0C:2AA6C    A$uip$1605
  0C:2AA6E    A$uip$1606
  0C:2AA71    A$uip$1607
  0C:2AA72    A$uip$1608
  0C:2AA73    A$uip$1609
  0C:2AA76    A$uip$1612
  0C:2AA76    C$uip.c$468$1$1
  0C:2AA78    A$uip$1613
  0C:2AA79    A$uip$1614
  0C:2AA7A    A$uip$1615
  0C:2AA7B    A$uip$1616
  0C:2AA7C    A$uip$1617
  0C:2AA7D    A$uip$1618
  0C:2AA7F    A$uip$1619
  0C:2AA81    A$uip$1620
  0C:2AA83    A$uip$1621
  0C:2AA85    A$uip$1622
  0C:2AA86    A$uip$1623
  0C:2AA89    A$uip$1626
  0C:2AA89    C$uip.c$469$1$1
  0C:2AA8B    A$uip$1627
  0C:2AA8C    A$uip$1628
  0C:2AA8D    A$uip$1629
  0C:2AA8E    A$uip$1630
  0C:2AA8F    A$uip$1631
  0C:2AA90    A$uip$1632
  0C:2AA92    A$uip$1633
  0C:2AA94    A$uip$1634
  0C:2AA96    A$uip$1635
  0C:2AA98    A$uip$1636
  0C:2AA9A    A$uip$1637
  0C:2AA9D    A$uip$1640
  0C:2AA9D    C$uip.c$470$1$1
  0C:2AA9F    A$uip$1641
  0C:2AAA0    A$uip$1642
  0C:2AAA1    A$uip$1643
  0C:2AAA2    A$uip$1644
  0C:2AAA3    A$uip$1645
  0C:2AAA4    A$uip$1646
  0C:2AAA6    A$uip$1647
  0C:2AAA8    A$uip$1648
  0C:2AAAA    A$uip$1649
  0C:2AAAC    A$uip$1650
  0C:2AAAE    A$uip$1651
  0C:2AAB1    A$uip$1654
  0C:2AAB1    C$uip.c$471$1$1
  0C:2AAB3    A$uip$1655
  0C:2AAB4    A$uip$1656
  0C:2AAB5    A$uip$1657
  0C:2AAB6    A$uip$1658
  0C:2AAB7    A$uip$1659
  0C:2AAB8    A$uip$1660
  0C:2AABA    A$uip$1661
  0C:2AABC    A$uip$1662
  0C:2AABE    A$uip$1663
  0C:2AAC0    A$uip$1664
  0C:2AAC1    A$uip$1665
  0C:2AAC4    A$uip$1668
  0C:2AAC4    C$uip.c$472$1$1
  0C:2AAC6    A$uip$1669
  0C:2AAC7    A$uip$1670
  0C:2AAC8    A$uip$1671
  0C:2AAC9    A$uip$1672
  0C:2AACA    A$uip$1673
  0C:2AACB    A$uip$1674
  0C:2AACD    A$uip$1675
  0C:2AACF    A$uip$1676
  0C:2AAD1    A$uip$1677
  0C:2AAD3    A$uip$1678
  0C:2AAD5    A$uip$1679
  0C:2AAD8    A$uip$1682
  0C:2AAD8    C$uip.c$473$1$1
  0C:2AADA    A$uip$1683
  0C:2AADB    A$uip$1684
  0C:2AADC    A$uip$1685
  0C:2AADD    A$uip$1686
  0C:2AADE    A$uip$1687
  0C:2AADF    A$uip$1688
  0C:2AAE1    A$uip$1689
  0C:2AAE4    A$uip$1690
  0C:2AAE5    A$uip$1691
  0C:2AAE6    A$uip$1692
  0C:2AAE7    A$uip$1693
  0C:2AAE8    A$uip$1694
  0C:2AAE9    A$uip$1695
  0C:2AAEB    A$uip$1696
  0C:2AAED    A$uip$1697
  0C:2AAEF    A$uip$1698
  0C:2AAF1    A$uip$1699
  0C:2AAF3    A$uip$1700
  0C:2AAF5    A$uip$1701
  0C:2AAF7    A$uip$1702
  0C:2AAF9    A$uip$1703
  0C:2AAFB    A$uip$1704
  0C:2AAFD    A$uip$1705
  0C:2AAFF    A$uip$1706
  0C:2AB02    A$uip$1707
  0C:2AB04    A$uip$1708
  0C:2AB06    A$uip$1709
  0C:2AB08    A$uip$1710
  0C:2AB0A    A$uip$1711
  0C:2AB0C    A$uip$1712
  0C:2AB0E    A$uip$1713
  0C:2AB10    A$uip$1714
  0C:2AB12    A$uip$1715
  0C:2AB14    A$uip$1716
  0C:2AB16    A$uip$1717
  0C:2AB18    A$uip$1718
  0C:2AB19    A$uip$1719
  0C:2AB1C    A$uip$1720
  0C:2AB1D    A$uip$1721
  0C:2AB1E    A$uip$1722
  0C:2AB21    A$uip$1725
  0C:2AB21    C$uip.c$474$1$1
  0C:2AB23    A$uip$1726
  0C:2AB24    A$uip$1727
  0C:2AB25    A$uip$1728
  0C:2AB26    A$uip$1729
  0C:2AB27    A$uip$1730
  0C:2AB28    A$uip$1731
  0C:2AB2A    A$uip$1732
  0C:2AB2D    A$uip$1733
  0C:2AB2E    A$uip$1734
  0C:2AB2F    A$uip$1735
  0C:2AB30    A$uip$1736
  0C:2AB31    A$uip$1737
  0C:2AB32    A$uip$1738
  0C:2AB34    A$uip$1739
  0C:2AB36    A$uip$1740
  0C:2AB38    A$uip$1741
  0C:2AB39    A$uip$1742
  0C:2AB3C    A$uip$1743
  0C:2AB3D    A$uip$1744
  0C:2AB3E    A$uip$1745
  0C:2AB41    A$uip$1748
  0C:2AB41    C$uip.c$475$2$10
  0C:2AB44    A$uip$1749
  0C:2AB45    A$uip$1750
  0C:2AB47    A$uip$1751
  0C:2AB48    A$uip$1752
  0C:2AB49    A$uip$1753
  0C:2AB4B    A$uip$1754
  0C:2AB4C    A$uip$1755
  0C:2AB4D    A$uip$1756
  0C:2AB4F    A$uip$1757
  0C:2AB52    A$uip$1758
  0C:2AB55    A$uip$1759
  0C:2AB58    A$uip$1760
  0C:2AB5B    A$uip$1761
  0C:2AB5C    A$uip$1762
  0C:2AB5D    A$uip$1763
  0C:2AB60    A$uip$1764
  0C:2AB61    A$uip$1765
  0C:2AB63    A$uip$1766
  0C:2AB65    A$uip$1767
  0C:2AB67    A$uip$1768
  0C:2AB68    A$uip$1769
  0C:2AB6B    A$uip$1770
  0C:2AB6C    A$uip$1771
  0C:2AB6D    A$uip$1772
  0C:2AB70    A$uip$1773
  0C:2AB72    A$uip$1774
  0C:2AB73    A$uip$1775
  0C:2AB75    A$uip$1776
  0C:2AB76    A$uip$1777
  0C:2AB77    A$uip$1778
  0C:2AB79    A$uip$1779
  0C:2AB7B    A$uip$1780
  0C:2AB7D    A$uip$1781
  0C:2AB7F    A$uip$1782
  0C:2AB80    A$uip$1783
  0C:2AB81    A$uip$1784
  0C:2AB83    A$uip$1785
  0C:2AB84    A$uip$1786
  0C:2AB86    A$uip$1787
  0C:2AB88    A$uip$1788
  0C:2AB8A    A$uip$1789
  0C:2AB8C    A$uip$1790
  0C:2AB8F    A$uip$1791
  0C:2AB90    A$uip$1792
  0C:2AB91    A$uip$1793
  0C:2AB94    A$uip$1794
  0C:2AB95    A$uip$1795
  0C:2AB98    A$uip$1796
  0C:2AB9B    A$uip$1797
  0C:2AB9E    A$uip$1798
  0C:2AB9F    A$uip$1799
  0C:2ABA2    A$uip$1800
  0C:2ABA3    A$uip$1801
  0C:2ABA4    A$uip$1802
  0C:2ABA7    A$uip$1805
  0C:2ABA7    C$uip.c$477$1$1
  0C:2ABA9    A$uip$1806
  0C:2ABAB    A$uip$1807
  0C:2ABAD    A$uip$1811
  0C:2ABAD    C$uip.c$478$1$1
  0C:2ABAD    XG$uip_connect$0$0
  0C:2ABB0    A$uip$1824
  0C:2ABB0    C$uip.c$528$1$1
  0C:2ABB0    G$uip_unlisten$0$0
  0C:2ABB0    _uip_unlisten
  0C:2ABB2    A$uip$1825
  0C:2ABB4    A$uip$1826
  0C:2ABB7    A$uip$1827
  0C:2ABB8    A$uip$1828
  0C:2ABB9    A$uip$1829
  0C:2ABBA    A$uip$1830
  0C:2ABBB    A$uip$1833
  0C:2ABBE    A$uip$1834
  0C:2ABBF    A$uip$1835
  0C:2ABC0    A$uip$1836
  0C:2ABC3    A$uip$1837
  0C:2ABC4    A$uip$1838
  0C:2ABC5    A$uip$1839
  0C:2ABC6    A$uip$1840
  0C:2ABC7    A$uip$1841
  0C:2ABC8    A$uip$1843
  0C:2ABCB    A$uip$1844
  0C:2ABCC    A$uip$1845
  0C:2ABCD    A$uip$1846
  0C:2ABD0    A$uip$1848
  0C:2ABD2    A$uip$1851
  0C:2ABD2    C$uip.c$531$2$2
  0C:2ABD3    A$uip$1852
  0C:2ABD4    A$uip$1853
  0C:2ABD6    A$uip$1854
  0C:2ABD7    A$uip$1855
  0C:2ABD8    A$uip$1856
  0C:2ABDA    A$uip$1857
  0C:2ABDB    A$uip$1858
  0C:2ABDD    A$uip$1859
  0C:2ABDF    A$uip$1860
  0C:2ABE0    A$uip$1861
  0C:2ABE1    A$uip$1862
  0C:2ABE2    A$uip$1863
  0C:2ABE3    A$uip$1864
  0C:2ABE4    A$uip$1865
  0C:2ABE5    A$uip$1866
  0C:2ABE8    A$uip$1867
  0C:2ABE9    A$uip$1868
  0C:2ABEC    A$uip$1871
  0C:2ABEC    C$uip.c$532$3$3
  0C:2ABEE    A$uip$1872
  0C:2ABF0    A$uip$1873
  0C:2ABF1    A$uip$1874
  0C:2ABF2    A$uip$1875
  0C:2ABF3    A$uip$1876
  0C:2ABF4    A$uip$1879
  0C:2ABF4    C$uip.c$533$3$3
  0C:2ABF6    A$uip$1883
  0C:2ABF6    C$uip.c$530$1$1
  0C:2ABF9    A$uip$1884
  0C:2ABFA    A$uip$1885
  0C:2ABFB    A$uip$1886
  0C:2ABFC    A$uip$1887
  0C:2ABFE    A$uip$1891
  0C:2ABFE    C$uip.c$536$1$1
  0C:2ABFE    XG$uip_unlisten$0$0
  0C:2AC01    A$uip$1904
  0C:2AC01    C$uip.c$539$1$1
  0C:2AC01    G$uip_listen$0$0
  0C:2AC01    _uip_listen
  0C:2AC03    A$uip$1905
  0C:2AC05    A$uip$1906
  0C:2AC08    A$uip$1907
  0C:2AC09    A$uip$1908
  0C:2AC0A    A$uip$1909
  0C:2AC0B    A$uip$1910
  0C:2AC0C    A$uip$1913
  0C:2AC0F    A$uip$1914
  0C:2AC10    A$uip$1915
  0C:2AC11    A$uip$1917
  0C:2AC14    A$uip$1918
  0C:2AC15    A$uip$1919
  0C:2AC16    A$uip$1920
  0C:2AC19    A$uip$1922
  0C:2AC1B    A$uip$1925
  0C:2AC1B    C$uip.c$542$2$2
  0C:2AC1C    A$uip$1926
  0C:2AC1D    A$uip$1927
  0C:2AC1F    A$uip$1928
  0C:2AC20    A$uip$1929
  0C:2AC21    A$uip$1930
  0C:2AC23    A$uip$1931
  0C:2AC24    A$uip$1932
  0C:2AC26    A$uip$1933
  0C:2AC28    A$uip$1934
  0C:2AC29    A$uip$1935
  0C:2AC2A    A$uip$1936
  0C:2AC2B    A$uip$1937
  0C:2AC2C    A$uip$1938
  0C:2AC2D    A$uip$1939
  0C:2AC2E    A$uip$1940
  0C:2AC30    A$uip$1943
  0C:2AC30    C$uip.c$543$3$3
  0C:2AC33    A$uip$1944
  0C:2AC34    A$uip$1945
  0C:2AC35    A$uip$1946
  0C:2AC36    A$uip$1947
  0C:2AC37    A$uip$1948
  0C:2AC38    A$uip$1949
  0C:2AC3A    A$uip$1950
  0C:2AC3C    A$uip$1951
  0C:2AC3D    A$uip$1952
  0C:2AC3E    A$uip$1953
  0C:2AC3F    A$uip$1954
  0C:2AC40    A$uip$1955
  0C:2AC41    A$uip$1958
  0C:2AC41    C$uip.c$544$3$3
  0C:2AC43    A$uip$1962
  0C:2AC43    C$uip.c$541$1$1
  0C:2AC46    A$uip$1963
  0C:2AC47    A$uip$1964
  0C:2AC48    A$uip$1965
  0C:2AC49    A$uip$1966
  0C:2AC4B    A$uip$1970
  0C:2AC4B    C$uip.c$547$1$1
  0C:2AC4B    XG$uip_listen$0$0
  0C:2AC4E    A$uip$1983
  0C:2AC4E    C$uip.c$683$1$1
  0C:2AC4E    Fuip$uip_add_rcv_nxt$0$0
  0C:2AC50    A$uip$1984
  0C:2AC52    A$uip$1985
  0C:2AC55    A$uip$1986
  0C:2AC56    A$uip$1987
  0C:2AC57    A$uip$1988
  0C:2AC58    A$uip$1989
  0C:2AC59    A$uip$1992
  0C:2AC59    C$uip.c$685$1$1
  0C:2AC5C    A$uip$1993
  0C:2AC5D    A$uip$1994
  0C:2AC5E    A$uip$1995
  0C:2AC5F    A$uip$1996
  0C:2AC60    A$uip$1997
  0C:2AC61    A$uip$1998
  0C:2AC62    A$uip$1999
  0C:2AC63    A$uip$2000
  0C:2AC64    A$uip$2001
  0C:2AC66    A$uip$2002
  0C:2AC67    A$uip$2003
  0C:2AC68    A$uip$2004
  0C:2AC69    A$uip$2005
  0C:2AC6A    A$uip$2006
  0C:2AC6B    A$uip$2007
  0C:2AC6E    A$uip$2008
  0C:2AC6F    A$uip$2009
  0C:2AC71    A$uip$2010
  0C:2AC72    A$uip$2011
  0C:2AC73    A$uip$2012
  0C:2AC75    A$uip$2013
  0C:2AC77    A$uip$2014
  0C:2AC79    A$uip$2015
  0C:2AC7B    A$uip$2016
  0C:2AC7E    A$uip$2017
  0C:2AC80    A$uip$2018
  0C:2AC82    A$uip$2021
  0C:2AC82    C$uip.c$686$1$1
  0C:2AC85    A$uip$2022
  0C:2AC86    A$uip$2023
  0C:2AC87    A$uip$2024
  0C:2AC88    A$uip$2025
  0C:2AC89    A$uip$2026
  0C:2AC8A    A$uip$2027
  0C:2AC8B    A$uip$2028
  0C:2AC8C    A$uip$2029
  0C:2AC8D    A$uip$2030
  0C:2AC8F    A$uip$2031
  0C:2AC90    A$uip$2032
  0C:2AC91    A$uip$2033
  0C:2AC92    A$uip$2034
  0C:2AC93    A$uip$2035
  0C:2AC94    A$uip$2036
  0C:2AC96    A$uip$2037
  0C:2AC98    A$uip$2038
  0C:2AC9A    A$uip$2039
  0C:2AC9D    A$uip$2040
  0C:2AC9E    A$uip$2041
  0C:2ACA0    A$uip$2042
  0C:2ACA2    A$uip$2043
  0C:2ACA4    A$uip$2044
  0C:2ACA7    A$uip$2047
  0C:2ACA7    C$uip.c$687$1$1
  0C:2ACA9    A$uip$2048
  0C:2ACAA    A$uip$2049
  0C:2ACAB    A$uip$2050
  0C:2ACAC    A$uip$2051
  0C:2ACAD    A$uip$2052
  0C:2ACAE    A$uip$2053
  0C:2ACB0    A$uip$2054
  0C:2ACB3    A$uip$2055
  0C:2ACB4    A$uip$2056
  0C:2ACB6    A$uip$2057
  0C:2ACB8    A$uip$2058
  0C:2ACBA    A$uip$2059
  0C:2ACBD    A$uip$2062
  0C:2ACBD    C$uip.c$688$1$1
  0C:2ACBF    A$uip$2063
  0C:2ACC0    A$uip$2064
  0C:2ACC1    A$uip$2065
  0C:2ACC2    A$uip$2066
  0C:2ACC3    A$uip$2067
  0C:2ACC4    A$uip$2068
  0C:2ACC6    A$uip$2069
  0C:2ACC9    A$uip$2070
  0C:2ACCA    A$uip$2071
  0C:2ACCC    A$uip$2072
  0C:2ACCE    A$uip$2073
  0C:2ACD0    A$uip$2074
  0C:2ACD3    A$uip$2077
  0C:2ACD3    C$uip.c$689$1$1
  0C:2ACD5    A$uip$2078
  0C:2ACD6    A$uip$2079
  0C:2ACD7    A$uip$2080
  0C:2ACD8    A$uip$2081
  0C:2ACD9    A$uip$2082
  0C:2ACDA    A$uip$2083
  0C:2ACDD    A$uip$2084
  0C:2ACDE    A$uip$2085
  0C:2ACE0    A$uip$2086
  0C:2ACE2    A$uip$2087
  0C:2ACE4    A$uip$2090
  0C:2ACE4    C$uip.c$690$1$1
  0C:2ACE4    XFuip$uip_add_rcv_nxt$0$0
  0C:2ACE7    A$uip$2111
  0C:2ACE7    C$uip.c$693$1$1
  0C:2ACE7    G$uip_process$0$0
  0C:2ACE7    _uip_process
  0C:2ACE9    A$uip$2112
  0C:2ACEC    A$uip$2113
  0C:2ACED    A$uip$2116
  0C:2ACED    C$uip.c$695$1$1
  0C:2ACF0    A$uip$2117
  0C:2ACF1    A$uip$2118
  0C:2ACF2    A$uip$2119
  0C:2ACF3    A$uip$2120
  0C:2ACF4    A$uip$2121
  0C:2ACF5    A$uip$2122
  0C:2ACF6    A$uip$2123
  0C:2ACF7    A$uip$2124
  0C:2ACF8    A$uip$2125
  0C:2ACFB    A$uip$2126
  0C:2ACFC    A$uip$2127
  0C:2ACFD    A$uip$2128
  0C:2ACFE    A$uip$2129
  0C:2ACFF    A$uip$2130
  0C:2AD00    A$uip$2131
  0C:2AD01    A$uip$2132
  0C:2AD02    A$uip$2133
  0C:2AD03    A$uip$2136
  0C:2AD03    C$uip.c$703$1$1
  0C:2AD06    A$uip$2137
  0C:2AD08    A$uip$2138
  0C:2AD09    A$uip$2139
  0C:2AD0A    A$uip$2140
  0C:2AD0C    A$uip$2141
  0C:2AD0D    A$uip$2142
  0C:2AD0E    A$uip$2143
  0C:2AD0F    A$uip$2144
  0C:2AD10    A$uip$2145
  0C:2AD13    A$uip$2146
  0C:2AD15    A$uip$2147
  0C:2AD16    A$uip$2148
  0C:2AD17    A$uip$2149
  0C:2AD19    A$uip$2150
  0C:2AD1A    A$uip$2151
  0C:2AD1B    A$uip$2152
  0C:2AD1C    A$uip$2153
  0C:2AD1D    A$uip$2156
  0C:2AD1D    C$uip.c$707$1$1
  0C:2AD20    A$uip$2157
  0C:2AD21    A$uip$2158
  0C:2AD22    A$uip$2159
  0C:2AD25    A$uip$2162
  0C:2AD25    C$uip.c$708$2$2
  0C:2AD27    A$uip$2163
  0C:2AD28    A$uip$2164
  0C:2AD29    A$uip$2165
  0C:2AD2A    A$uip$2166
  0C:2AD2B    A$uip$2167
  0C:2AD2C    A$uip$2168
  0C:2AD2E    A$uip$2169
  0C:2AD30    A$uip$2170
  0C:2AD32    A$uip$2171
  0C:2AD34    A$uip$2172
  0C:2AD37    A$uip$2173
  0C:2AD38    A$uip$2174
  0C:2AD3B    A$uip$2175
  0C:2AD3E    A$uip$2176
  0C:2AD40    A$uip$2178
  0C:2AD43    A$uip$2182
  0C:2AD43    C$uip.c$709$2$2
  0C:2AD45    A$uip$2183
  0C:2AD46    A$uip$2184
  0C:2AD47    A$uip$2185
  0C:2AD48    A$uip$2186
  0C:2AD49    A$uip$2187
  0C:2AD4A    A$uip$2188
  0C:2AD4C    A$uip$2189
  0C:2AD4E    A$uip$2190
  0C:2AD50    A$uip$2191
  0C:2AD52    A$uip$2192
  0C:2AD55    A$uip$2193
  0C:2AD56    A$uip$2194
  0C:2AD57    A$uip$2195
  0C:2AD5A    A$uip$2196
  0C:2AD5B    A$uip$2197
  0C:2AD5C    A$uip$2198
  0C:2AD5E    A$uip$2199
  0C:2AD61    A$uip$2203
  0C:2AD61    C$uip.c$710$3$3
  0C:2AD64    A$uip$2204
  0C:2AD66    A$uip$2205
  0C:2AD67    A$uip$2208
  0C:2AD67    C$uip.c$711$3$3
  0C:2AD6A    A$uip$2209
  0C:2AD6B    A$uip$2210
  0C:2AD6C    A$uip$2211
  0C:2AD6D    A$uip$2212
  0C:2AD6E    A$uip$2213
  0C:2AD71    A$uip$2214
  0C:2AD72    A$uip$2215
  0C:2AD73    A$uip$2216
  0C:2AD74    A$uip$2217
  0C:2AD75    A$uip$2220
  0C:2AD75    C$uip.c$712$3$3
  0C:2AD78    A$uip$2223
  0C:2AD78    C$uip.c$713$3$3
  0C:2AD7B    A$uip$2229
  0C:2AD7B    C$uip.c$715$1$1
  0C:2AD7B    C$uip.c$718$1$1
  0C:2AD7E    A$uip$2230
  0C:2AD80    A$uip$2232
  0C:2AD83    A$uip$2236
  0C:2AD83    C$uip.c$725$2$4
  0C:2AD86    A$uip$2237
  0C:2AD87    A$uip$2238
  0C:2AD88    A$uip$2239
  0C:2AD89    A$uip$2240
  0C:2AD8C    A$uip$2241
  0C:2AD8D    A$uip$2242
  0C:2AD8E    A$uip$2243
  0C:2AD8F    A$uip$2244
  0C:2AD91    A$uip$2247
  0C:2AD91    C$uip.c$726$3$5
  0C:2AD94    A$uip$2248
  0C:2AD95    A$uip$2249
  0C:2AD96    A$uip$2250
  0C:2AD97    A$uip$2251
  0C:2AD9A    A$uip$2252
  0C:2AD9B    A$uip$2253
  0C:2AD9C    A$uip$2254
  0C:2AD9D    A$uip$2255
  0C:2AD9F    A$uip$2258
  0C:2AD9F    C$uip.c$727$4$6
  0C:2ADA2    A$uip$2259
  0C:2ADA3    A$uip$2260
  0C:2ADA4    A$uip$2261
  0C:2ADA5    A$uip$2262
  0C:2ADA8    A$uip$2263
  0C:2ADA9    A$uip$2264
  0C:2ADAA    A$uip$2265
  0C:2ADAB    A$uip$2266
  0C:2ADAD    A$uip$2269
  0C:2ADAD    C$uip.c$728$5$7
  0C:2ADB0    A$uip$2270
  0C:2ADB1    A$uip$2271
  0C:2ADB2    A$uip$2272
  0C:2ADB3    A$uip$2273
  0C:2ADB6    A$uip$2274
  0C:2ADB7    A$uip$2275
  0C:2ADB8    A$uip$2279
  0C:2ADB8    C$uip.c$734$2$4
  0C:2ADBB    A$uip$2280
  0C:2ADBC    A$uip$2281
  0C:2ADBD    A$uip$2282
  0C:2ADBE    A$uip$2283
  0C:2ADBF    A$uip$2286
  0C:2ADBF    C$uip.c$735$2$4
  0C:2ADC2    A$uip$2287
  0C:2ADC3    A$uip$2288
  0C:2ADC4    A$uip$2289
  0C:2ADC5    A$uip$2290
  0C:2ADC6    A$uip$2293
  0C:2ADC6    C$uip.c$741$2$4
  0C:2ADC8    A$uip$2294
  0C:2ADC9    A$uip$2295
  0C:2ADCA    A$uip$2296
  0C:2ADCB    A$uip$2297
  0C:2ADCC    A$uip$2298
  0C:2ADCD    A$uip$2299
  0C:2ADCF    A$uip$2300
  0C:2ADD1    A$uip$2301
  0C:2ADD3    A$uip$2302
  0C:2ADD5    A$uip$2303
  0C:2ADD8    A$uip$2304
  0C:2ADD9    A$uip$2305
  0C:2ADDC    A$uip$2306
  0C:2ADDE    A$uip$2310
  0C:2ADDE    C$uip.c$742$2$4
  0C:2ADE1    A$uip$2314
  0C:2ADE1    C$uip.c$743$1$1
  0C:2ADE3    A$uip$2315
  0C:2ADE5    A$uip$2316
  0C:2ADE7    A$uip$2317
  0C:2ADE9    A$uip$2318
  0C:2ADEA    A$uip$2319
  0C:2ADEB    A$uip$2320
  0C:2ADEC    A$uip$2321
  0C:2ADED    A$uip$2322
  0C:2ADEE    A$uip$2323
  0C:2ADF0    A$uip$2324
  0C:2ADF2    A$uip$2325
  0C:2ADF4    A$uip$2326
  0C:2ADF6    A$uip$2327
  0C:2ADF9    A$uip$2328
  0C:2ADFA    A$uip$2329
  0C:2ADFB    A$uip$2330
  0C:2ADFD    A$uip$2331
  0C:2ADFF    A$uip$2332
  0C:2AE01    A$uip$2333
  0C:2AE02    A$uip$2334
  0C:2AE05    A$uip$2337
  0C:2AE05    C$uip.c$744$3$8
  0C:2AE06    A$uip$2338
  0C:2AE09    A$uip$2339
  0C:2AE0A    A$uip$2341
  0C:2AE0C    A$uip$2342
  0C:2AE0E    A$uip$2343
  0C:2AE10    A$uip$2344
  0C:2AE12    A$uip$2345
  0C:2AE15    A$uip$2349
  0C:2AE15    C$uip.c$745$4$9
  0C:2AE17    A$uip$2350
  0C:2AE19    A$uip$2351
  0C:2AE1B    A$uip$2352
  0C:2AE1C    A$uip$2353
  0C:2AE1F    A$uip$2354
  0C:2AE22    A$uip$2358
  0C:2AE22    C$uip.c$747$2$4
  0C:2AE23    A$uip$2359
  0C:2AE25    A$uip$2360
  0C:2AE28    A$uip$2364
  0C:2AE28    C$uip.c$751$1$1
  0C:2AE2A    A$uip$2365
  0C:2AE2C    A$uip$2366
  0C:2AE2E    A$uip$2367
  0C:2AE30    A$uip$2368
  0C:2AE31    A$uip$2369
  0C:2AE32    A$uip$2370
  0C:2AE33    A$uip$2371
  0C:2AE34    A$uip$2372
  0C:2AE35    A$uip$2373
  0C:2AE37    A$uip$2374
  0C:2AE39    A$uip$2375
  0C:2AE3B    A$uip$2376
  0C:2AE3D    A$uip$2377
  0C:2AE40    A$uip$2378
  0C:2AE41    A$uip$2379
  0C:2AE42    A$uip$2380
  0C:2AE45    A$uip$2381
  0C:2AE46    A$uip$2382
  0C:2AE48    A$uip$2383
  0C:2AE4A    A$uip$2384
  0C:2AE4C    A$uip$2385
  0C:2AE4E    A$uip$2386
  0C:2AE51    A$uip$2390
  0C:2AE51    C$uip.c$752$1$1
  0C:2AE53    A$uip$2391
  0C:2AE55    A$uip$2392
  0C:2AE57    A$uip$2393
  0C:2AE59    A$uip$2394
  0C:2AE5A    A$uip$2395
  0C:2AE5C    A$uip$2396
  0C:2AE5D    A$uip$2397
  0C:2AE5E    A$uip$2398
  0C:2AE60    A$uip$2399
  0C:2AE62    A$uip$2400
  0C:2AE65    A$uip$2401
  0C:2AE68    A$uip$2402
  0C:2AE6B    A$uip$2403
  0C:2AE6E    A$uip$2404
  0C:2AE6F    A$uip$2405
  0C:2AE70    A$uip$2406
  0C:2AE73    A$uip$2407
  0C:2AE76    A$uip$2408
  0C:2AE79    A$uip$2409
  0C:2AE7C    A$uip$2410
  0C:2AE7E    A$uip$2411
  0C:2AE80    A$uip$2412
  0C:2AE82    A$uip$2413
  0C:2AE83    A$uip$2414
  0C:2AE85    A$uip$2415
  0C:2AE88    A$uip$2419
  0C:2AE88    C$uip.c$753$5$12
  0C:2AE8A    A$uip$2420
  0C:2AE8B    A$uip$2421
  0C:2AE8C    A$uip$2422
  0C:2AE8D    A$uip$2423
  0C:2AE8E    A$uip$2424
  0C:2AE8F    A$uip$2425
  0C:2AE91    A$uip$2426
  0C:2AE93    A$uip$2427
  0C:2AE95    A$uip$2428
  0C:2AE98    A$uip$2429
  0C:2AE99    A$uip$2430
  0C:2AE9C    A$uip$2431
  0C:2AE9E    A$uip$2435
  0C:2AE9E    C$uip.c$754$5$12
  0C:2AEA1    A$uip$2436
  0C:2AEA3    A$uip$2440
  0C:2AEA3    C$uip.c$755$5$12
  0C:2AEA6    A$uip$2444
  0C:2AEA6    C$uip.c$756$5$12
  0C:2AEA9    A$uip$2448
  0C:2AEA9    C$uip.c$757$6$13
  0C:2AEAB    A$uip$2449
  0C:2AEAD    A$uip$2450
  0C:2AEAF    A$uip$2451
  0C:2AEB0    A$uip$2452
  0C:2AEB3    A$uip$2455
  0C:2AEB3    C$uip.c$762$6$13
  0C:2AEB6    A$uip$2456
  0C:2AEB8    A$uip$2457
  0C:2AEB9    A$uip$2460
  0C:2AEB9    C$uip.c$763$6$13
  0C:2AEBC    A$uip$2463
  0C:2AEBC    C$uip.c$766$6$13
  0C:2AEBF    A$uip$2464
  0C:2AEC2    A$uip$2465
  0C:2AEC4    A$uip$2466
  0C:2AEC7    A$uip$2469
  0C:2AEC7    C$uip.c$767$6$13
  0C:2AECA    A$uip$2473
  0C:2AECA    C$uip.c$771$5$12
  0C:2AECB    A$uip$2474
  0C:2AECD    A$uip$2475
  0C:2AECF    A$uip$2478
  0C:2AECF    C$uip.c$772$5$12
  0C:2AED1    A$uip$2479
  0C:2AED3    A$uip$2483
  0C:2AED3    C$uip.c$773$5$12
  0C:2AED5    A$uip$2485
  0C:2AED7    A$uip$2486
  0C:2AED9    A$uip$2487
  0C:2AEDB    A$uip$2488
  0C:2AEDD    A$uip$2490
  0C:2AEDF    A$uip$2492
  0C:2AEE2    A$uip$2493
  0C:2AEE3    A$uip$2494
  0C:2AEE6    A$uip$2495
  0C:2AEE9    A$uip$2496
  0C:2AEEC    A$uip$2497
  0C:2AEEF    A$uip$2500
  0C:2AEEF    C$uip.c$774$5$12
  0C:2AEF0    A$uip$2501
  0C:2AEF2    A$uip$2502
  0C:2AEF4    A$uip$2503
  0C:2AEF6    A$uip$2504
  0C:2AEF7    A$uip$2505
  0C:2AEFA    A$uip$2508
  0C:2AEFA    C$uip.c$783$5$12
  0C:2AEFC    A$uip$2509
  0C:2AEFD    A$uip$2510
  0C:2AEFE    A$uip$2511
  0C:2AF00    A$uip$2512
  0C:2AF02    A$uip$2513
  0C:2AF05    A$uip$2515
  0C:2AF06    A$uip$2516
  0C:2AF07    A$uip$2517
  0C:2AF08    A$uip$2518
  0C:2AF0B    A$uip$2519
  0C:2AF0C    A$uip$2521
  0C:2AF0F    A$uip$2522
  0C:2AF12    A$uip$2523
  0C:2AF15    A$uip$2524
  0C:2AF18    A$uip$2525
  0C:2AF1B    A$uip$2526
  0C:2AF1E    A$uip$2527
  0C:2AF21    A$uip$2528
  0C:2AF24    A$uip$2529
  0C:2AF27    A$uip$2535
  0C:2AF27    C$uip.c$784$6$14
  0C:2AF27    C$uip.c$787$6$14
  0C:2AF2A    A$uip$2541
  0C:2AF2A    C$uip.c$790$6$14
  0C:2AF2A    C$uip.c$792$6$14
  0C:2AF2D    A$uip$2542
  0C:2AF2E    A$uip$2543
  0C:2AF30    A$uip$2544
  0C:2AF33    A$uip$2547
  0C:2AF33    C$uip.c$793$6$14
  0C:2AF36    A$uip$2553
  0C:2AF36    C$uip.c$796$6$14
  0C:2AF36    C$uip.c$801$6$14
  0C:2AF39    A$uip$2554
  0C:2AF3B    A$uip$2555
  0C:2AF3C    A$uip$2558
  0C:2AF3C    C$uip.c$802$6$14
  0C:2AF3F    A$uip$2561
  0C:2AF3F    C$uip.c$803$6$14
  0C:2AF42    A$uip$2573
  0C:2AF42    C$uip.c$805$6$14
  0C:2AF42    C$uip.c$806$6$14
  0C:2AF42    C$uip.c$807$6$14
  0C:2AF42    C$uip.c$809$6$14
  0C:2AF45    A$uip$2577
  0C:2AF45    C$uip.c$811$5$12
  0C:2AF48    A$uip$2581
  0C:2AF48    C$uip.c$813$3$10
  0C:2AF4B    A$uip$2582
  0C:2AF4E    A$uip$2583
  0C:2AF50    A$uip$2585
  0C:2AF53    A$uip$2589
  0C:2AF53    C$uip.c$816$4$15
  0C:2AF56    A$uip$2590
  0C:2AF58    A$uip$2591
  0C:2AF59    A$uip$2594
  0C:2AF59    C$uip.c$817$4$15
  0C:2AF5C    A$uip$2597
  0C:2AF5C    C$uip.c$818$4$15
  0C:2AF5F    A$uip$2603
  0C:2AF5F    C$uip.c$821$1$1
  0C:2AF5F    C$uip.c$853$1$1
  0C:2AF62    A$uip$2604
  0C:2AF63    A$uip$2605
  0C:2AF64    A$uip$2606
  0C:2AF67    A$uip$2607
  0C:2AF69    A$uip$2609
  0C:2AF6C    A$uip$2613
  0C:2AF6C    C$uip.c$868$1$1
  0C:2AF6E    A$uip$2614
  0C:2AF70    A$uip$2615
  0C:2AF72    A$uip$2616
  0C:2AF74    A$uip$2617
  0C:2AF76    A$uip$2618
  0C:2AF78    A$uip$2619
  0C:2AF7B    A$uip$2620
  0C:2AF7C    A$uip$2621
  0C:2AF7E    A$uip$2622
  0C:2AF81    A$uip$2623
  0C:2AF84    A$uip$2624
  0C:2AF87    A$uip$2625
  0C:2AF89    A$uip$2626
  0C:2AF8A    A$uip$2627
  0C:2AF8B    A$uip$2628
  0C:2AF8C    A$uip$2629
  0C:2AF8D    A$uip$2630
  0C:2AF8E    A$uip$2631
  0C:2AF91    A$uip$2632
  0C:2AF92    A$uip$2633
  0C:2AF93    A$uip$2634
  0C:2AF94    A$uip$2635
  0C:2AF95    A$uip$2636
  0C:2AF96    A$uip$2637
  0C:2AF97    A$uip$2638
  0C:2AF98    A$uip$2639
  0C:2AF99    A$uip$2640
  0C:2AF9A    A$uip$2641
  0C:2AF9B    A$uip$2642
  0C:2AF9D    A$uip$2643
  0C:2AFA0    A$uip$2647
  0C:2AFA0    C$uip.c$869$2$17
  0C:2AFA2    A$uip$2648
  0C:2AFA4    A$uip$2649
  0C:2AFA6    A$uip$2650
  0C:2AFA8    A$uip$2651
  0C:2AFAA    A$uip$2652
  0C:2AFAC    A$uip$2653
  0C:2AFAF    A$uip$2654
  0C:2AFB0    A$uip$2655
  0C:2AFB2    A$uip$2656
  0C:2AFB5    A$uip$2657
  0C:2AFB8    A$uip$2658
  0C:2AFBB    A$uip$2659
  0C:2AFBC    A$uip$2660
  0C:2AFBE    A$uip$2661
  0C:2AFC1    A$uip$2662
  0C:2AFC2    A$uip$2663
  0C:2AFC3    A$uip$2664
  0C:2AFC4    A$uip$2665
  0C:2AFC5    A$uip$2666
  0C:2AFC6    A$uip$2667
  0C:2AFC7    A$uip$2668
  0C:2AFC8    A$uip$2671
  0C:2AFC8    C$uip.c$888$1$1
  0C:2AFCA    A$uip$2672
  0C:2AFCC    A$uip$2673
  0C:2AFCE    A$uip$2674
  0C:2AFD0    A$uip$2675
  0C:2AFD2    A$uip$2676
  0C:2AFD4    A$uip$2677
  0C:2AFD7    A$uip$2678
  0C:2AFD8    A$uip$2679
  0C:2AFDA    A$uip$2680
  0C:2AFDC    A$uip$2681
  0C:2AFDF    A$uip$2685
  0C:2AFDF    C$uip.c$889$1$1
  0C:2AFE2    A$uip$2686
  0C:2AFE5    A$uip$2687
  0C:2AFE8    A$uip$2688
  0C:2AFEA    A$uip$2689
  0C:2AFED    A$uip$2693
  0C:2AFED    C$uip.c$904$1$1
  0C:2AFF0    A$uip$2694
  0C:2AFF1    A$uip$2695
  0C:2AFF2    A$uip$2696
  0C:2AFF3    A$uip$2697
  0C:2AFF4    A$uip$2698
  0C:2AFF5    A$uip$2699
  0C:2AFF8    A$uip$2700
  0C:2AFF9    A$uip$2701
  0C:2AFFA    A$uip$2702
  0C:2AFFB    A$uip$2703
  0C:2AFFC    A$uip$2704
  0C:2AFFD    A$uip$2705
  0C:2AFFE    A$uip$2706
  0C:2AFFF    A$uip$2707
  0C:2B000    A$uip$2708
  0C:2B003    A$uip$2709
  0C:2B004    A$uip$2710
  0C:2B007    A$uip$2711
  0C:2B00A    A$uip$2712
  0C:2B00D    A$uip$2713
  0C:2B010    A$uip$2714
  0C:2B011    A$uip$2715
  0C:2B012    A$uip$2716
  0C:2B015    A$uip$2717
  0C:2B016    A$uip$2718
  0C:2B019    A$uip$2719
  0C:2B01C    A$uip$2720
  0C:2B01F    A$uip$2721
  0C:2B020    A$uip$2722
  0C:2B021    A$uip$2723
  0C:2B024    A$uip$2724
  0C:2B025    A$uip$2725
  0C:2B026    A$uip$2726
  0C:2B029    A$uip$2727
  0C:2B02A    A$uip$2728
  0C:2B02D    A$uip$2729
  0C:2B02F    A$uip$2734
  0C:2B02F    C$uip.c$933$2$21
  0C:2B032    A$uip$2735
  0C:2B035    A$uip$2736
  0C:2B038    A$uip$2737
  0C:2B039    A$uip$2738
  0C:2B03A    A$uip$2739
  0C:2B03D    A$uip$2740
  0C:2B03E    A$uip$2741
  0C:2B041    A$uip$2742
  0C:2B042    A$uip$2743
  0C:2B043    A$uip$2744
  0C:2B044    A$uip$2745
  0C:2B045    A$uip$2746
  0C:2B046    A$uip$2747
  0C:2B047    A$uip$2748
  0C:2B04A    A$uip$2749
  0C:2B04B    A$uip$2750
  0C:2B04E    A$uip$2751
  0C:2B050    A$uip$2753
  0C:2B053    A$uip$2755
  0C:2B056    A$uip$2756
  0C:2B059    A$uip$2757
  0C:2B05C    A$uip$2758
  0C:2B05D    A$uip$2759
  0C:2B05E    A$uip$2760
  0C:2B061    A$uip$2761
  0C:2B062    A$uip$2762
  0C:2B065    A$uip$2763
  0C:2B068    A$uip$2764
  0C:2B06B    A$uip$2765
  0C:2B06C    A$uip$2766
  0C:2B06D    A$uip$2767
  0C:2B070    A$uip$2768
  0C:2B071    A$uip$2769
  0C:2B072    A$uip$2770
  0C:2B075    A$uip$2771
  0C:2B076    A$uip$2772
  0C:2B079    A$uip$2773
  0C:2B07B    A$uip$2775
  0C:2B07E    A$uip$2782
  0C:2B07E    C$uip.c$935$1$1
  0C:2B07E    C$uip.c$952$1$1
  0C:2B080    A$uip$2783
  0C:2B082    A$uip$2784
  0C:2B084    A$uip$2785
  0C:2B087    A$uip$2786
  0C:2B089    A$uip$2787
  0C:2B08B    A$uip$2788
  0C:2B08E    A$uip$2789
  0C:2B091    A$uip$2790
  0C:2B093    A$uip$2792
  0C:2B096    A$uip$2796
  0C:2B096    C$uip.c$961$1$1
  0C:2B099    A$uip$2797
  0C:2B09C    A$uip$2798
  0C:2B09F    A$uip$2799
  0C:2B0A0    A$uip$2800
  0C:2B0A3    A$uip$2801
  0C:2B0A6    A$uip$2805
  0C:2B0A6    C$uip.c$975$1$1
  0C:2B0A9    A$uip$2806
  0C:2B0AC    A$uip$2807
  0C:2B0AF    A$uip$2808
  0C:2B0B0    A$uip$2809
  0C:2B0B3    A$uip$2810
  0C:2B0B5    A$uip$2812
  0C:2B0B8    A$uip$2816
  0C:2B0B8    C$uip.c$991$1$1
  0C:2B0BB    A$uip$2817
  0C:2B0BE    A$uip$2818
  0C:2B0C1    A$uip$2819
  0C:2B0C2    A$uip$2820
  0C:2B0C5    A$uip$2821
  0C:2B0C7    A$uip$2823
  0C:2B0CA    A$uip$2827
  0C:2B0CA    C$uip.c$1008$1$1
  0C:2B0CD    A$uip$2828
  0C:2B0CE    A$uip$2829
  0C:2B0D0    A$uip$2830
  0C:2B0D3    A$uip$2833
  0C:2B0D3    C$uip.c$1010$1$1
  0C:2B0D6    A$uip$2834
  0C:2B0D9    A$uip$2835
  0C:2B0DC    A$uip$2836
  0C:2B0DD    A$uip$2837
  0C:2B0DE    A$uip$2838
  0C:2B0E1    A$uip$2839
  0C:2B0E2    A$uip$2840
  0C:2B0E3    A$uip$2841
  0C:2B0E4    A$uip$2842
  0C:2B0E6    A$uip$2843
  0C:2B0E7    A$uip$2844
  0C:2B0E9    A$uip$2845
  0C:2B0EB    A$uip$2848
  0C:2B0EB    C$uip.c$1011$2$27
  0C:2B0EE    A$uip$2849
  0C:2B0F1    A$uip$2850
  0C:2B0F4    A$uip$2851
  0C:2B0F5    A$uip$2852
  0C:2B0F6    A$uip$2853
  0C:2B0F9    A$uip$2854
  0C:2B0FA    A$uip$2855
  0C:2B0FC    A$uip$2856
  0C:2B0FD    A$uip$2857
  0C:2B0FE    A$uip$2858
  0C:2B0FF    A$uip$2859
  0C:2B100    A$uip$2860
  0C:2B101    A$uip$2861
  0C:2B104    A$uip$2862
  0C:2B107    A$uip$2863
  0C:2B108    A$uip$2864
  0C:2B10B    A$uip$2865
  0C:2B10C    A$uip$2866
  0C:2B10D    A$uip$2867
  0C:2B110    A$uip$2868
  0C:2B112    A$uip$2872
  0C:2B112    C$uip.c$1013$2$28
  0C:2B115    A$uip$2873
  0C:2B118    A$uip$2874
  0C:2B11B    A$uip$2875
  0C:2B11C    A$uip$2876
  0C:2B11D    A$uip$2877
  0C:2B120    A$uip$2878
  0C:2B121    A$uip$2879
  0C:2B123    A$uip$2880
  0C:2B124    A$uip$2881
  0C:2B125    A$uip$2882
  0C:2B126    A$uip$2883
  0C:2B127    A$uip$2884
  0C:2B128    A$uip$2885
  0C:2B12B    A$uip$2886
  0C:2B12E    A$uip$2887
  0C:2B12F    A$uip$2888
  0C:2B132    A$uip$2889
  0C:2B133    A$uip$2890
  0C:2B134    A$uip$2891
  0C:2B137    A$uip$2895
  0C:2B137    C$uip.c$1017$1$1
  0C:2B13A    A$uip$2896
  0C:2B13D    A$uip$2897
  0C:2B140    A$uip$2898
  0C:2B141    A$uip$2899
  0C:2B142    A$uip$2900
  0C:2B145    A$uip$2901
  0C:2B146    A$uip$2902
  0C:2B149    A$uip$2903
  0C:2B14C    A$uip$2904
  0C:2B14D    A$uip$2905
  0C:2B150    A$uip$2906
  0C:2B151    A$uip$2907
  0C:2B152    A$uip$2908
  0C:2B155    A$uip$2909
  0C:2B158    A$uip$2910
  0C:2B15B    A$uip$2911
  0C:2B15E    A$uip$2912
  0C:2B15F    A$uip$2913
  0C:2B160    A$uip$2914
  0C:2B163    A$uip$2915
  0C:2B164    A$uip$2916
  0C:2B167    A$uip$2917
  0C:2B16A    A$uip$2918
  0C:2B16B    A$uip$2919
  0C:2B16E    A$uip$2920
  0C:2B16F    A$uip$2921
  0C:2B170    A$uip$2922
  0C:2B173    A$uip$2925
  0C:2B173    C$uip.c$1018$2$30
  0C:2B176    A$uip$2926
  0C:2B177    A$uip$2927
  0C:2B178    A$uip$2928
  0C:2B179    A$uip$2929
  0C:2B17A    A$uip$2930
  0C:2B17B    A$uip$2931
  0C:2B17E    A$uip$2932
  0C:2B181    A$uip$2933
  0C:2B182    A$uip$2934
  0C:2B185    A$uip$2935
  0C:2B186    A$uip$2936
  0C:2B187    A$uip$2937
  0C:2B18A    A$uip$2938
  0C:2B18D    A$uip$2939
  0C:2B190    A$uip$2940
  0C:2B193    A$uip$2941
  0C:2B194    A$uip$2942
  0C:2B195    A$uip$2943
  0C:2B198    A$uip$2944
  0C:2B199    A$uip$2945
  0C:2B19C    A$uip$2946
  0C:2B19F    A$uip$2947
  0C:2B1A0    A$uip$2948
  0C:2B1A3    A$uip$2949
  0C:2B1A4    A$uip$2950
  0C:2B1A5    A$uip$2951
  0C:2B1A8    A$uip$2954
  0C:2B1A8    C$uip.c$1021$1$1
  0C:2B1AB    A$uip$2960
  0C:2B1AB    C$uip.c$1185$1$1
  0C:2B1AB    C$uip.c$1190$1$1
  0C:2B1AD    A$uip$2961
  0C:2B1AF    A$uip$2962
  0C:2B1B1    A$uip$2963
  0C:2B1B4    A$uip$2964
  0C:2B1B6    A$uip$2965
  0C:2B1B8    A$uip$2966
  0C:2B1BB    A$uip$2967
  0C:2B1BE    A$uip$2968
  0C:2B1C0    A$uip$2970
  0C:2B1C3    A$uip$2974
  0C:2B1C3    C$uip.c$1201$1$1
  0C:2B1C6    A$uip$2975
  0C:2B1C8    A$uip$2976
  0C:2B1C9    A$uip$2977
  0C:2B1CA    A$uip$2978
  0C:2B1CC    A$uip$2979
  0C:2B1CD    A$uip$2980
  0C:2B1CE    A$uip$2981
  0C:2B1CF    A$uip$2982
  0C:2B1D0    A$uip$2983
  0C:2B1D2    A$uip$2984
  0C:2B1D4    A$uip$2985
  0C:2B1D6    A$uip$2987
  0C:2B1D8    A$uip$2988
  0C:2B1DA    A$uip$2989
  0C:2B1DC    A$uip$2990
  0C:2B1DD    A$uip$2991
  0C:2B1DF    A$uip$2992
  0C:2B1E0    A$uip$2993
  0C:2B1E2    A$uip$2994
  0C:2B1E3    A$uip$2995
  0C:2B1E5    A$uip$2996
  0C:2B1E7    A$uip$2997
  0C:2B1EA    A$uip$2998
  0C:2B1EC    A$uip$2999
  0C:2B1EE    A$uip$3000
  0C:2B1F1    A$uip$3004
  0C:2B1F1    C$uip.c$1203$2$32
  0C:2B1F3    A$uip$3005
  0C:2B1F4    A$uip$3006
  0C:2B1F5    A$uip$3007
  0C:2B1F6    A$uip$3008
  0C:2B1F7    A$uip$3009
  0C:2B1F8    A$uip$3010
  0C:2B1FA    A$uip$3011
  0C:2B1FC    A$uip$3012
  0C:2B1FE    A$uip$3013
  0C:2B200    A$uip$3014
  0C:2B203    A$uip$3015
  0C:2B204    A$uip$3016
  0C:2B206    A$uip$3017
  0C:2B209    A$uip$3021
  0C:2B209    C$uip.c$1204$1$1
  0C:2B20B    A$uip$3022
  0C:2B20E    A$uip$3023
  0C:2B211    A$uip$3024
  0C:2B214    A$uip$3025
  0C:2B215    A$uip$3026
  0C:2B216    A$uip$3027
  0C:2B219    A$uip$3028
  0C:2B21A    A$uip$3029
  0C:2B21C    A$uip$3030
  0C:2B21D    A$uip$3031
  0C:2B21E    A$uip$3032
  0C:2B21F    A$uip$3033
  0C:2B220    A$uip$3034
  0C:2B221    A$uip$3035
  0C:2B223    A$uip$3036
  0C:2B225    A$uip$3037
  0C:2B227    A$uip$3038
  0C:2B229    A$uip$3039
  0C:2B22C    A$uip$3040
  0C:2B22D    A$uip$3041
  0C:2B22E    A$uip$3042
  0C:2B231    A$uip$3043
  0C:2B232    A$uip$3044
  0C:2B233    A$uip$3045
  0C:2B236    A$uip$3046
  0C:2B237    A$uip$3047
  0C:2B23A    A$uip$3048
  0C:2B23C    A$uip$3049
  0C:2B23E    A$uip$3051
  0C:2B23F    A$uip$3053
  0C:2B241    A$uip$3054
  0C:2B243    A$uip$3055
  0C:2B246    A$uip$3059
  0C:2B246    C$uip.c$1205$1$1
  0C:2B248    A$uip$3060
  0C:2B24B    A$uip$3061
  0C:2B24E    A$uip$3062
  0C:2B251    A$uip$3063
  0C:2B252    A$uip$3064
  0C:2B253    A$uip$3065
  0C:2B256    A$uip$3066
  0C:2B257    A$uip$3067
  0C:2B259    A$uip$3068
  0C:2B25A    A$uip$3069
  0C:2B25B    A$uip$3070
  0C:2B25C    A$uip$3071
  0C:2B25D    A$uip$3072
  0C:2B25E    A$uip$3073
  0C:2B260    A$uip$3074
  0C:2B262    A$uip$3075
  0C:2B264    A$uip$3076
  0C:2B266    A$uip$3077
  0C:2B269    A$uip$3078
  0C:2B26A    A$uip$3079
  0C:2B26B    A$uip$3080
  0C:2B26E    A$uip$3081
  0C:2B26F    A$uip$3082
  0C:2B270    A$uip$3083
  0C:2B273    A$uip$3084
  0C:2B274    A$uip$3085
  0C:2B277    A$uip$3086
  0C:2B279    A$uip$3087
  0C:2B27B    A$uip$3089
  0C:2B27C    A$uip$3091
  0C:2B27E    A$uip$3092
  0C:2B280    A$uip$3093
  0C:2B283    A$uip$3097
  0C:2B283    C$uip.c$1206$2$32
  0C:2B286    A$uip$3098
  0C:2B289    A$uip$3099
  0C:2B28C    A$uip$3100
  0C:2B28D    A$uip$3101
  0C:2B28E    A$uip$3102
  0C:2B291    A$uip$3103
  0C:2B292    A$uip$3104
  0C:2B294    A$uip$3105
  0C:2B296    A$uip$3106
  0C:2B298    A$uip$3107
  0C:2B29B    A$uip$3108
  0C:2B29C    A$uip$3109
  0C:2B29D    A$uip$3110
  0C:2B2A0    A$uip$3111
  0C:2B2A1    A$uip$3112
  0C:2B2A2    A$uip$3113
  0C:2B2A5    A$uip$3114
  0C:2B2A6    A$uip$3115
  0C:2B2A9    A$uip$3116
  0C:2B2AB    A$uip$3117
  0C:2B2AE    A$uip$3118
  0C:2B2B1    A$uip$3119
  0C:2B2B4    A$uip$3120
  0C:2B2B5    A$uip$3121
  0C:2B2B6    A$uip$3122
  0C:2B2B9    A$uip$3123
  0C:2B2BA    A$uip$3124
  0C:2B2BC    A$uip$3125
  0C:2B2BD    A$uip$3126
  0C:2B2BE    A$uip$3127
  0C:2B2BF    A$uip$3128
  0C:2B2C0    A$uip$3129
  0C:2B2C1    A$uip$3130
  0C:2B2C3    A$uip$3131
  0C:2B2C5    A$uip$3132
  0C:2B2C7    A$uip$3133
  0C:2B2C9    A$uip$3134
  0C:2B2CC    A$uip$3135
  0C:2B2CD    A$uip$3136
  0C:2B2CE    A$uip$3137
  0C:2B2D1    A$uip$3138
  0C:2B2D2    A$uip$3139
  0C:2B2D3    A$uip$3140
  0C:2B2D6    A$uip$3141
  0C:2B2D7    A$uip$3142
  0C:2B2DA    A$uip$3143
  0C:2B2DC    A$uip$3144
  0C:2B2DE    A$uip$3146
  0C:2B2DF    A$uip$3148
  0C:2B2E1    A$uip$3149
  0C:2B2E3    A$uip$3152
  0C:2B2E3    C$uip.c$1207$3$33
  0C:2B2E6    A$uip$3153
  0C:2B2E9    A$uip$3157
  0C:2B2E9    C$uip.c$1208$3$33
  0C:2B2EC    A$uip$3158
  0C:2B2EF    A$uip$3159
  0C:2B2F2    A$uip$3160
  0C:2B2F3    A$uip$3161
  0C:2B2F6    A$uip$3162
  0C:2B2F9    A$uip$3163
  0C:2B2FB    A$uip$3165
  0C:2B2FE    A$uip$3171
  0C:2B2FE    C$uip.c$1209$4$34
  0C:2B2FE    C$uip.c$1211$1$32
  0C:2B300    A$uip$3175
  0C:2B300    C$uip.c$1202$1$1
  0C:2B302    A$uip$3176
  0C:2B303    A$uip$3177
  0C:2B304    A$uip$3178
  0C:2B306    A$uip$3179
  0C:2B307    A$uip$3180
  0C:2B308    A$uip$3181
  0C:2B30B    A$uip$3182
  0C:2B30C    A$uip$3183
  0C:2B30D    A$uip$3184
  0C:2B30E    A$uip$3185
  0C:2B30F    A$uip$3186
  0C:2B310    A$uip$3187
  0C:2B311    A$uip$3188
  0C:2B312    A$uip$3189
  0C:2B313    A$uip$3190
  0C:2B316    A$uip$3194
  0C:2B316    C$uip.c$1219$1$1
  0C:2B319    A$uip$3195
  0C:2B31C    A$uip$3196
  0C:2B31F    A$uip$3197
  0C:2B320    A$uip$3198
  0C:2B323    A$uip$3199
  0C:2B326    A$uip$3202
  0C:2B326    C$uip.c$1223$1$1
  0C:2B329    A$uip$3203
  0C:2B32C    A$uip$3204
  0C:2B32F    A$uip$3205
  0C:2B330    A$uip$3206
  0C:2B331    A$uip$3207
  0C:2B334    A$uip$3208
  0C:2B335    A$uip$3209
  0C:2B338    A$uip$3210
  0C:2B339    A$uip$3211
  0C:2B33A    A$uip$3212
  0C:2B33B    A$uip$3213
  0C:2B33C    A$uip$3214
  0C:2B33D    A$uip$3217
  0C:2B340    A$uip$3218
  0C:2B341    A$uip$3219
  0C:2B342    A$uip$3221
  0C:2B345    A$uip$3222
  0C:2B346    A$uip$3223
  0C:2B347    A$uip$3224
  0C:2B34A    A$uip$3226
  0C:2B34C    A$uip$3229
  0C:2B34C    C$uip.c$1226$2$36
  0C:2B34D    A$uip$3230
  0C:2B34E    A$uip$3231
  0C:2B350    A$uip$3232
  0C:2B352    A$uip$3233
  0C:2B353    A$uip$3234
  0C:2B355    A$uip$3235
  0C:2B357    A$uip$3236
  0C:2B358    A$uip$3237
  0C:2B359    A$uip$3238
  0C:2B35A    A$uip$3239
  0C:2B35B    A$uip$3240
  0C:2B35C    A$uip$3241
  0C:2B35D    A$uip$3242
  0C:2B360    A$uip$3243
  0C:2B361    A$uip$3244
  0C:2B364    A$uip$3245
  0C:2B367    A$uip$3249
  0C:2B367    C$uip.c$1225$1$1
  0C:2B36A    A$uip$3250
  0C:2B36B    A$uip$3251
  0C:2B36C    A$uip$3252
  0C:2B36D    A$uip$3255
  0C:2B36D    C$uip.c$1232$1$1
  0C:2B36F    A$uip$3259
  0C:2B36F    C$uip.c$1235$1$1
  0C:2B372    A$uip$3260
  0C:2B375    A$uip$3261
  0C:2B378    A$uip$3262
  0C:2B379    A$uip$3263
  0C:2B37C    A$uip$3264
  0C:2B37F    A$uip$3268
  0C:2B37F    C$uip.c$1241$1$1
  0C:2B382    A$uip$3269
  0C:2B385    A$uip$3270
  0C:2B387    A$uip$3271
  0C:2B38A    A$uip$3274
  0C:2B38A    C$uip.c$1242$1$1
  0C:2B38D    A$uip$3275
  0C:2B38F    A$uip$3276
  0C:2B390    A$uip$3277
  0C:2B391    A$uip$3278
  0C:2B392    A$uip$3279
  0C:2B393    A$uip$3282
  0C:2B393    C$uip.c$1243$1$1
  0C:2B396    A$uip$3283
  0C:2B399    A$uip$3284
  0C:2B39B    A$uip$3285
  0C:2B39E    A$uip$3288
  0C:2B39E    C$uip.c$1246$1$1
  0C:2B3A1    A$uip$3289
  0C:2B3A4    A$uip$3290
  0C:2B3A7    A$uip$3291
  0C:2B3A8    A$uip$3294
  0C:2B3A8    C$uip.c$1247$1$1
  0C:2B3AB    A$uip$3295
  0C:2B3AE    A$uip$3296
  0C:2B3B1    A$uip$3297
  0C:2B3B2    A$uip$3298
  0C:2B3B5    A$uip$3299
  0C:2B3B8    A$uip$3300
  0C:2B3B9    A$uip$3301
  0C:2B3BC    A$uip$3304
  0C:2B3BC    C$uip.c$1248$1$1
  0C:2B3BF    A$uip$3305
  0C:2B3C2    A$uip$3306
  0C:2B3C3    A$uip$3307
  0C:2B3C6    A$uip$3310
  0C:2B3C6    C$uip.c$1250$1$1
  0C:2B3C9    A$uip$3311
  0C:2B3CC    A$uip$3312
  0C:2B3CF    A$uip$3313
  0C:2B3D0    A$uip$3316
  0C:2B3D0    C$uip.c$1251$1$1
  0C:2B3D3    A$uip$3317
  0C:2B3D6    A$uip$3318
  0C:2B3D9    A$uip$3319
  0C:2B3DA    A$uip$3320
  0C:2B3DD    A$uip$3321
  0C:2B3E0    A$uip$3322
  0C:2B3E1    A$uip$3323
  0C:2B3E4    A$uip$3326
  0C:2B3E4    C$uip.c$1252$1$1
  0C:2B3E7    A$uip$3327
  0C:2B3EA    A$uip$3328
  0C:2B3EB    A$uip$3329
  0C:2B3EE    A$uip$3332
  0C:2B3EE    C$uip.c$1254$1$1
  0C:2B3F1    A$uip$3333
  0C:2B3F4    A$uip$3334
  0C:2B3F7    A$uip$3335
  0C:2B3F8    A$uip$3338
  0C:2B3F8    C$uip.c$1255$1$1
  0C:2B3FB    A$uip$3339
  0C:2B3FE    A$uip$3340
  0C:2B401    A$uip$3341
  0C:2B402    A$uip$3342
  0C:2B405    A$uip$3343
  0C:2B408    A$uip$3344
  0C:2B409    A$uip$3345
  0C:2B40C    A$uip$3348
  0C:2B40C    C$uip.c$1256$1$1
  0C:2B40F    A$uip$3349
  0C:2B412    A$uip$3350
  0C:2B413    A$uip$3351
  0C:2B416    A$uip$3354
  0C:2B416    C$uip.c$1258$1$1
  0C:2B418    A$uip$3355
  0C:2B41A    A$uip$3356
  0C:2B41C    A$uip$3357
  0C:2B41E    A$uip$3358
  0C:2B420    A$uip$3359
  0C:2B422    A$uip$3360
  0C:2B425    A$uip$3361
  0C:2B426    A$uip$3362
  0C:2B429    A$uip$3363
  0C:2B42A    A$uip$3366
  0C:2B42A    C$uip.c$1259$1$1
  0C:2B42C    A$uip$3367
  0C:2B42E    A$uip$3368
  0C:2B430    A$uip$3369
  0C:2B432    A$uip$3370
  0C:2B434    A$uip$3371
  0C:2B436    A$uip$3372
  0C:2B438    A$uip$3373
  0C:2B43A    A$uip$3374
  0C:2B43C    A$uip$3375
  0C:2B43F    A$uip$3376
  0C:2B440    A$uip$3377
  0C:2B442    A$uip$3378
  0C:2B444    A$uip$3379
  0C:2B446    A$uip$3380
  0C:2B449    A$uip$3383
  0C:2B449    C$uip.c$1260$1$1
  0C:2B44B    A$uip$3384
  0C:2B44D    A$uip$3385
  0C:2B44F    A$uip$3386
  0C:2B451    A$uip$3387
  0C:2B453    A$uip$3388
  0C:2B455    A$uip$3389
  0C:2B456    A$uip$3390
  0C:2B459    A$uip$3393
  0C:2B459    C$uip.c$1265$1$1
  0C:2B45C    A$uip$3394
  0C:2B45F    A$uip$3395
  0C:2B462    A$uip$3396
  0C:2B463    A$uip$3397
  0C:2B464    A$uip$3398
  0C:2B467    A$uip$3399
  0C:2B46A    A$uip$3400
  0C:2B46B    A$uip$3401
  0C:2B46E    A$uip$3404
  0C:2B46E    C$uip.c$1266$2$38
  0C:2B470    A$uip$3405
  0C:2B473    A$uip$3406
  0C:2B475    A$uip$3407
  0C:2B478    A$uip$3408
  0C:2B479    A$uip$3409
  0C:2B47A    A$uip$3410
  0C:2B47D    A$uip$3411
  0C:2B480    A$uip$3412
  0C:2B481    A$uip$3413
  0C:2B484    A$uip$3416
  0C:2B484    C$uip.c$1267$3$39
  0C:2B486    A$uip$3417
  0C:2B489    A$uip$3418
  0C:2B48B    A$uip$3419
  0C:2B48E    A$uip$3420
  0C:2B48F    A$uip$3421
  0C:2B490    A$uip$3422
  0C:2B493    A$uip$3423
  0C:2B496    A$uip$3424
  0C:2B497    A$uip$3425
  0C:2B49A    A$uip$3428
  0C:2B49A    C$uip.c$1268$4$40
  0C:2B49C    A$uip$3429
  0C:2B49E    A$uip$3430
  0C:2B4A0    A$uip$3431
  0C:2B4A1    A$uip$3432
  0C:2B4A3    A$uip$3433
  0C:2B4A5    A$uip$3434
  0C:2B4A7    A$uip$3435
  0C:2B4AA    A$uip$3436
  0C:2B4AB    A$uip$3437
  0C:2B4AC    A$uip$3438
  0C:2B4AE    A$uip$3439
  0C:2B4B0    A$uip$3440
  0C:2B4B2    A$uip$3441
  0C:2B4B3    A$uip$3442
  0C:2B4B6    A$uip$3446
  0C:2B4B6    C$uip.c$1274$1$1
  0C:2B4B9    A$uip$3447
  0C:2B4BC    A$uip$3448
  0C:2B4BF    A$uip$3449
  0C:2B4C0    A$uip$3450
  0C:2B4C1    A$uip$3451
  0C:2B4C4    A$uip$3452
  0C:2B4C5    A$uip$3453
  0C:2B4C8    A$uip$3454
  0C:2B4C9    A$uip$3455
  0C:2B4CA    A$uip$3456
  0C:2B4CB    A$uip$3457
  0C:2B4CC    A$uip$3458
  0C:2B4CD    A$uip$3461
  0C:2B4CD    C$uip.c$1275$1$1
  0C:2B4D0    A$uip$3462
  0C:2B4D3    A$uip$3463
  0C:2B4D6    A$uip$3464
  0C:2B4D7    A$uip$3465
  0C:2B4D8    A$uip$3466
  0C:2B4DB    A$uip$3467
  0C:2B4DC    A$uip$3468
  0C:2B4DF    A$uip$3469
  0C:2B4E2    A$uip$3470
  0C:2B4E3    A$uip$3471
  0C:2B4E6    A$uip$3472
  0C:2B4E7    A$uip$3473
  0C:2B4E8    A$uip$3474
  0C:2B4EB    A$uip$3477
  0C:2B4EB    C$uip.c$1276$1$1
  0C:2B4EE    A$uip$3478
  0C:2B4F1    A$uip$3479
  0C:2B4F2    A$uip$3480
  0C:2B4F5    A$uip$3481
  0C:2B4F6    A$uip$3482
  0C:2B4F7    A$uip$3483
  0C:2B4FA    A$uip$3486
  0C:2B4FA    C$uip.c$1279$2$41
  0C:2B4FD    A$uip$3487
  0C:2B500    A$uip$3488
  0C:2B503    A$uip$3489
  0C:2B504    A$uip$3490
  0C:2B505    A$uip$3491
  0C:2B508    A$uip$3492
  0C:2B509    A$uip$3493
  0C:2B50C    A$uip$3494
  0C:2B50F    A$uip$3495
  0C:2B510    A$uip$3496
  0C:2B513    A$uip$3497
  0C:2B514    A$uip$3498
  0C:2B515    A$uip$3499
  0C:2B518    A$uip$3500
  0C:2B51B    A$uip$3501
  0C:2B51E    A$uip$3502
  0C:2B521    A$uip$3503
  0C:2B522    A$uip$3504
  0C:2B523    A$uip$3505
  0C:2B526    A$uip$3506
  0C:2B527    A$uip$3507
  0C:2B52A    A$uip$3508
  0C:2B52D    A$uip$3509
  0C:2B52E    A$uip$3510
  0C:2B531    A$uip$3511
  0C:2B532    A$uip$3512
  0C:2B533    A$uip$3513
  0C:2B536    A$uip$3516
  0C:2B536    C$uip.c$1280$2$42
  0C:2B539    A$uip$3517
  0C:2B53A    A$uip$3518
  0C:2B53B    A$uip$3519
  0C:2B53C    A$uip$3520
  0C:2B53D    A$uip$3521
  0C:2B53E    A$uip$3522
  0C:2B541    A$uip$3523
  0C:2B544    A$uip$3524
  0C:2B545    A$uip$3525
  0C:2B548    A$uip$3526
  0C:2B549    A$uip$3527
  0C:2B54A    A$uip$3528
  0C:2B54D    A$uip$3529
  0C:2B550    A$uip$3530
  0C:2B553    A$uip$3531
  0C:2B556    A$uip$3532
  0C:2B557    A$uip$3533
  0C:2B558    A$uip$3534
  0C:2B55B    A$uip$3535
  0C:2B55C    A$uip$3536
  0C:2B55F    A$uip$3537
  0C:2B562    A$uip$3538
  0C:2B563    A$uip$3539
  0C:2B566    A$uip$3540
  0C:2B567    A$uip$3541
  0C:2B568    A$uip$3542
  0C:2B56B    A$uip$3545
  0C:2B56B    C$uip.c$1283$1$1
  0C:2B56E    A$uip$3551
  0C:2B56E    C$uip.c$1288$1$1
  0C:2B56E    C$uip.c$1295$1$1
  0C:2B571    A$uip$3554
  0C:2B572    A$uip$3555
  0C:2B573    A$uip$3556
  0C:2B574    A$uip$3557
  0C:2B575    A$uip$3558
  0C:2B576    A$uip$3559
  0C:2B577    A$uip$3560
  0C:2B57A    A$uip$3561
  0C:2B57B    A$uip$3563
  0C:2B57E    A$uip$3564
  0C:2B57F    A$uip$3565
  0C:2B580    A$uip$3566
  0C:2B583    A$uip$3568
  0C:2B585    A$uip$3569
  0C:2B588    A$uip$3573
  0C:2B588    C$uip.c$1297$2$43
  0C:2B58B    A$uip$3574
  0C:2B58C    A$uip$3575
  0C:2B58D    A$uip$3576
  0C:2B58E    A$uip$3577
  0C:2B58F    A$uip$3578
  0C:2B590    A$uip$3579
  0C:2B593    A$uip$3580
  0C:2B596    A$uip$3581
  0C:2B598    A$uip$3582
  0C:2B59A    A$uip$3583
  0C:2B59B    A$uip$3584
  0C:2B59D    A$uip$3585
  0C:2B59E    A$uip$3586
  0C:2B59F    A$uip$3587
  0C:2B5A1    A$uip$3588
  0C:2B5A2    A$uip$3589
  0C:2B5A4    A$uip$3590
  0C:2B5A5    A$uip$3591
  0C:2B5A7    A$uip$3592
  0C:2B5A8    A$uip$3593
  0C:2B5A9    A$uip$3594
  0C:2B5AB    A$uip$3595
  0C:2B5AC    A$uip$3596
  0C:2B5AD    A$uip$3597
  0C:2B5AF    A$uip$3600
  0C:2B5AF    C$uip.c$1298$3$44
  0C:2B5B1    A$uip$3601
  0C:2B5B3    A$uip$3602
  0C:2B5B6    A$uip$3603
  0C:2B5B7    A$uip$3604
  0C:2B5B8    A$uip$3605
  0C:2B5B9    A$uip$3606
  0C:2B5BA    A$uip$3607
  0C:2B5BB    A$uip$3608
  0C:2B5BC    A$uip$3609
  0C:2B5BD    A$uip$3610
  0C:2B5BE    A$uip$3613
  0C:2B5BE    C$uip.c$1299$3$44
  0C:2B5C0    A$uip$3617
  0C:2B5C0    C$uip.c$1301$2$43
  0C:2B5C3    A$uip$3620
  0C:2B5C3    C$uip.c$1302$3$45
  0C:2B5C6    A$uip$3621
  0C:2B5C7    A$uip$3622
  0C:2B5C8    A$uip$3623
  0C:2B5C9    A$uip$3624
  0C:2B5CA    A$uip$3625
  0C:2B5CB    A$uip$3626
  0C:2B5CC    A$uip$3627
  0C:2B5CD    A$uip$3628
  0C:2B5CE    A$uip$3629
  0C:2B5CF    A$uip$3630
  0C:2B5D0    A$uip$3631
  0C:2B5D1    A$uip$3632
  0C:2B5D3    A$uip$3635
  0C:2B5D3    C$uip.c$1303$3$45
  0C:2B5D5    A$uip$3636
  0C:2B5D6    A$uip$3637
  0C:2B5D8    A$uip$3638
  0C:2B5D9    A$uip$3639
  0C:2B5DA    A$uip$3640
  0C:2B5DC    A$uip$3641
  0C:2B5DD    A$uip$3642
  0C:2B5DE    A$uip$3643
  0C:2B5E0    A$uip$3644
  0C:2B5E1    A$uip$3645
  0C:2B5E2    A$uip$3646
  0C:2B5E3    A$uip$3647
  0C:2B5E4    A$uip$3648
  0C:2B5E5    A$uip$3649
  0C:2B5E7    A$uip$3650
  0C:2B5E9    A$uip$3651
  0C:2B5EB    A$uip$3652
  0C:2B5EE    A$uip$3653
  0C:2B5EF    A$uip$3654
  0C:2B5F0    A$uip$3655
  0C:2B5F1    A$uip$3656
  0C:2B5F3    A$uip$3660
  0C:2B5F3    C$uip.c$1304$4$46
  0C:2B5F6    A$uip$3661
  0C:2B5F7    A$uip$3662
  0C:2B5FA    A$uip$3663
  0C:2B5FB    A$uip$3664
  0C:2B5FC    A$uip$3665
  0C:2B5FD    A$uip$3666
  0C:2B5FE    A$uip$3667
  0C:2B601    A$uip$3668
  0C:2B604    A$uip$3669
  0C:2B606    A$uip$3670
  0C:2B608    A$uip$3671
  0C:2B609    A$uip$3672
  0C:2B60B    A$uip$3673
  0C:2B60C    A$uip$3674
  0C:2B60D    A$uip$3675
  0C:2B60F    A$uip$3676
  0C:2B610    A$uip$3677
  0C:2B613    A$uip$3678
  0C:2B614    A$uip$3679
  0C:2B615    A$uip$3680
  0C:2B616    A$uip$3681
  0C:2B617    A$uip$3682
  0C:2B618    A$uip$3683
  0C:2B619    A$uip$3684
  0C:2B61A    A$uip$3685
  0C:2B61B    A$uip$3689
  0C:2B61B    C$uip.c$1296$1$1
  0C:2B61E    A$uip$3690
  0C:2B61F    A$uip$3691
  0C:2B621    A$uip$3692
  0C:2B622    A$uip$3693
  0C:2B625    A$uip$3697
  0C:2B625    C$uip.c$1309$1$1
  0C:2B628    A$uip$3698
  0C:2B629    A$uip$3699
  0C:2B62A    A$uip$3700
  0C:2B62B    A$uip$3701
  0C:2B62C    A$uip$3702
  0C:2B62D    A$uip$3703
  0C:2B62E    A$uip$3704
  0C:2B62F    A$uip$3705
  0C:2B630    A$uip$3706
  0C:2B631    A$uip$3707
  0C:2B632    A$uip$3708
  0C:2B633    A$uip$3709
  0C:2B635    A$uip$3710
  0C:2B638    A$uip$3714
  0C:2B638    C$uip.c$1317$1$1
  0C:2B63B    A$uip$3715
  0C:2B63C    A$uip$3716
  0C:2B63D    A$uip$3717
  0C:2B63E    A$uip$3718
  0C:2B63F    A$uip$3719
  0C:2B640    A$uip$3720
  0C:2B641    A$uip$3721
  0C:2B642    A$uip$3722
  0C:2B643    A$uip$3725
  0C:2B643    C$uip.c$1320$1$1
  0C:2B645    A$uip$3726
  0C:2B646    A$uip$3727
  0C:2B648    A$uip$3728
  0C:2B649    A$uip$3729
  0C:2B64A    A$uip$3730
  0C:2B64C    A$uip$3731
  0C:2B64E    A$uip$3732
  0C:2B650    A$uip$3733
  0C:2B651    A$uip$3734
  0C:2B652    A$uip$3735
  0C:2B653    A$uip$3736
  0C:2B654    A$uip$3737
  0C:2B655    A$uip$3738
  0C:2B657    A$uip$3739
  0C:2B659    A$uip$3740
  0C:2B65B    A$uip$3741
  0C:2B65D    A$uip$3742
  0C:2B65F    A$uip$3743
  0C:2B662    A$uip$3744
  0C:2B665    A$uip$3745
  0C:2B668    A$uip$3746
  0C:2B66B    A$uip$3747
  0C:2B66D    A$uip$3748
  0C:2B670    A$uip$3751
  0C:2B670    C$uip.c$1321$1$1
  0C:2B672    A$uip$3752
  0C:2B673    A$uip$3753
  0C:2B674    A$uip$3754
  0C:2B675    A$uip$3755
  0C:2B676    A$uip$3756
  0C:2B677    A$uip$3757
  0C:2B679    A$uip$3758
  0C:2B67B    A$uip$3759
  0C:2B67D    A$uip$3760
  0C:2B67F    A$uip$3761
  0C:2B680    A$uip$3762
  0C:2B683    A$uip$3765
  0C:2B683    C$uip.c$1322$1$1
  0C:2B685    A$uip$3766
  0C:2B686    A$uip$3767
  0C:2B687    A$uip$3768
  0C:2B688    A$uip$3769
  0C:2B689    A$uip$3770
  0C:2B68A    A$uip$3771
  0C:2B68C    A$uip$3772
  0C:2B68E    A$uip$3773
  0C:2B690    A$uip$3774
  0C:2B692    A$uip$3775
  0C:2B694    A$uip$3776
  0C:2B697    A$uip$3779
  0C:2B697    C$uip.c$1323$1$1
  0C:2B699    A$uip$3780
  0C:2B69A    A$uip$3781
  0C:2B69B    A$uip$3782
  0C:2B69C    A$uip$3783
  0C:2B69D    A$uip$3784
  0C:2B69E    A$uip$3785
  0C:2B6A0    A$uip$3786
  0C:2B6A2    A$uip$3787
  0C:2B6A4    A$uip$3788
  0C:2B6A6    A$uip$3789
  0C:2B6A7    A$uip$3790
  0C:2B6AA    A$uip$3793
  0C:2B6AA    C$uip.c$1324$1$1
  0C:2B6AC    A$uip$3794
  0C:2B6AD    A$uip$3795
  0C:2B6AE    A$uip$3796
  0C:2B6AF    A$uip$3797
  0C:2B6B0    A$uip$3798
  0C:2B6B1    A$uip$3799
  0C:2B6B3    A$uip$3800
  0C:2B6B6    A$uip$3801
  0C:2B6B9    A$uip$3802
  0C:2B6BC    A$uip$3803
  0C:2B6BD    A$uip$3804
  0C:2B6BE    A$uip$3805
  0C:2B6C1    A$uip$3806
  0C:2B6C2    A$uip$3807
  0C:2B6C4    A$uip$3808
  0C:2B6C6    A$uip$3809
  0C:2B6C8    A$uip$3810
  0C:2B6C9    A$uip$3811
  0C:2B6CC    A$uip$3812
  0C:2B6CD    A$uip$3813
  0C:2B6CE    A$uip$3814
  0C:2B6D1    A$uip$3817
  0C:2B6D1    C$uip.c$1325$1$1
  0C:2B6D3    A$uip$3818
  0C:2B6D4    A$uip$3819
  0C:2B6D5    A$uip$3820
  0C:2B6D6    A$uip$3821
  0C:2B6D7    A$uip$3822
  0C:2B6D8    A$uip$3823
  0C:2B6DA    A$uip$3824
  0C:2B6DD    A$uip$3825
  0C:2B6E0    A$uip$3826
  0C:2B6E3    A$uip$3827
  0C:2B6E4    A$uip$3828
  0C:2B6E5    A$uip$3829
  0C:2B6E8    A$uip$3830
  0C:2B6E9    A$uip$3831
  0C:2B6EB    A$uip$3832
  0C:2B6ED    A$uip$3833
  0C:2B6EF    A$uip$3834
  0C:2B6F0    A$uip$3835
  0C:2B6F3    A$uip$3836
  0C:2B6F4    A$uip$3837
  0C:2B6F5    A$uip$3838
  0C:2B6F8    A$uip$3841
  0C:2B6F8    C$uip.c$1326$2$48
  0C:2B6FB    A$uip$3842
  0C:2B6FE    A$uip$3843
  0C:2B701    A$uip$3844
  0C:2B702    A$uip$3845
  0C:2B703    A$uip$3846
  0C:2B706    A$uip$3847
  0C:2B707    A$uip$3848
  0C:2B709    A$uip$3849
  0C:2B70B    A$uip$3850
  0C:2B70D    A$uip$3851
  0C:2B70E    A$uip$3852
  0C:2B711    A$uip$3853
  0C:2B712    A$uip$3854
  0C:2B713    A$uip$3855
  0C:2B716    A$uip$3856
  0C:2B718    A$uip$3857
  0C:2B719    A$uip$3858
  0C:2B71A    A$uip$3859
  0C:2B71B    A$uip$3860
  0C:2B71C    A$uip$3861
  0C:2B71D    A$uip$3862
  0C:2B71F    A$uip$3863
  0C:2B722    A$uip$3864
  0C:2B725    A$uip$3865
  0C:2B728    A$uip$3866
  0C:2B729    A$uip$3867
  0C:2B72A    A$uip$3868
  0C:2B72D    A$uip$3869
  0C:2B72E    A$uip$3870
  0C:2B730    A$uip$3871
  0C:2B732    A$uip$3872
  0C:2B734    A$uip$3873
  0C:2B735    A$uip$3874
  0C:2B738    A$uip$3875
  0C:2B739    A$uip$3876
  0C:2B73A    A$uip$3877
  0C:2B73D    A$uip$3880
  0C:2B73D    C$uip.c$1327$1$1
  0C:2B73F    A$uip$3881
  0C:2B740    A$uip$3882
  0C:2B741    A$uip$3883
  0C:2B742    A$uip$3884
  0C:2B743    A$uip$3885
  0C:2B744    A$uip$3886
  0C:2B746    A$uip$3887
  0C:2B748    A$uip$3888
  0C:2B74A    A$uip$3889
  0C:2B74C    A$uip$3890
  0C:2B74E    A$uip$3891
  0C:2B751    A$uip$3894
  0C:2B751    C$uip.c$1329$1$1
  0C:2B753    A$uip$3895
  0C:2B754    A$uip$3896
  0C:2B755    A$uip$3897
  0C:2B756    A$uip$3898
  0C:2B757    A$uip$3899
  0C:2B758    A$uip$3900
  0C:2B75A    A$uip$3901
  0C:2B75D    A$uip$3902
  0C:2B75E    A$uip$3903
  0C:2B760    A$uip$3904
  0C:2B762    A$uip$3905
  0C:2B764    A$uip$3906
  0C:2B767    A$uip$3909
  0C:2B767    C$uip.c$1330$1$1
  0C:2B769    A$uip$3910
  0C:2B76A    A$uip$3911
  0C:2B76C    A$uip$3912
  0C:2B76D    A$uip$3913
  0C:2B76E    A$uip$3914
  0C:2B770    A$uip$3915
  0C:2B772    A$uip$3916
  0C:2B774    A$uip$3917
  0C:2B776    A$uip$3918
  0C:2B777    A$uip$3919
  0C:2B778    A$uip$3920
  0C:2B77A    A$uip$3921
  0C:2B77B    A$uip$3922
  0C:2B77D    A$uip$3923
  0C:2B780    A$uip$3924
  0C:2B781    A$uip$3925
  0C:2B783    A$uip$3926
  0C:2B785    A$uip$3927
  0C:2B787    A$uip$3928
  0C:2B78A    A$uip$3931
  0C:2B78A    C$uip.c$1331$1$1
  0C:2B78C    A$uip$3932
  0C:2B78E    A$uip$3933
  0C:2B78F    A$uip$3934
  0C:2B790    A$uip$3935
  0C:2B792    A$uip$3936
  0C:2B793    A$uip$3937
  0C:2B795    A$uip$3938
  0C:2B798    A$uip$3939
  0C:2B799    A$uip$3940
  0C:2B79B    A$uip$3941
  0C:2B79D    A$uip$3942
  0C:2B79F    A$uip$3943
  0C:2B7A2    A$uip$3946
  0C:2B7A2    C$uip.c$1332$1$1
  0C:2B7A4    A$uip$3947
  0C:2B7A6    A$uip$3948
  0C:2B7A7    A$uip$3949
  0C:2B7A8    A$uip$3950
  0C:2B7AA    A$uip$3951
  0C:2B7AB    A$uip$3952
  0C:2B7AD    A$uip$3953
  0C:2B7B0    A$uip$3954
  0C:2B7B1    A$uip$3955
  0C:2B7B3    A$uip$3956
  0C:2B7B5    A$uip$3957
  0C:2B7B7    A$uip$3958
  0C:2B7BA    A$uip$3961
  0C:2B7BA    C$uip.c$1333$1$1
  0C:2B7BC    A$uip$3962
  0C:2B7BD    A$uip$3963
  0C:2B7BE    A$uip$3964
  0C:2B7BF    A$uip$3965
  0C:2B7C0    A$uip$3966
  0C:2B7C1    A$uip$3967
  0C:2B7C3    A$uip$3968
  0C:2B7C5    A$uip$3969
  0C:2B7C7    A$uip$3970
  0C:2B7C9    A$uip$3971
  0C:2B7CB    A$uip$3972
  0C:2B7CE    A$uip$3973
  0C:2B7CF    A$uip$3974
  0C:2B7D0    A$uip$3975
  0C:2B7D3    A$uip$3978
  0C:2B7D3    C$uip.c$1336$1$1
  0C:2B7D5    A$uip$3979
  0C:2B7D6    A$uip$3980
  0C:2B7D7    A$uip$3981
  0C:2B7D8    A$uip$3982
  0C:2B7D9    A$uip$3983
  0C:2B7DA    A$uip$3984
  0C:2B7DC    A$uip$3985
  0C:2B7DD    A$uip$3986
  0C:2B7DE    A$uip$3987
  0C:2B7DF    A$uip$3988
  0C:2B7E0    A$uip$3989
  0C:2B7E1    A$uip$3990
  0C:2B7E3    A$uip$3991
  0C:2B7E6    A$uip$3992
  0C:2B7E9    A$uip$3993
  0C:2B7EC    A$uip$3994
  0C:2B7EE    A$uip$3995
  0C:2B7F0    A$uip$3996
  0C:2B7F2    A$uip$3997
  0C:2B7F5    A$uip$4000
  0C:2B7F5    C$uip.c$1337$1$1
  0C:2B7F7    A$uip$4001
  0C:2B7F8    A$uip$4002
  0C:2B7F9    A$uip$4003
  0C:2B7FA    A$uip$4004
  0C:2B7FB    A$uip$4005
  0C:2B7FC    A$uip$4006
  0C:2B7FE    A$uip$4007
  0C:2B801    A$uip$4008
  0C:2B804    A$uip$4009
  0C:2B807    A$uip$4010
  0C:2B809    A$uip$4011
  0C:2B80B    A$uip$4012
  0C:2B80D    A$uip$4013
  0C:2B810    A$uip$4016
  0C:2B810    C$uip.c$1338$1$1
  0C:2B812    A$uip$4017
  0C:2B813    A$uip$4018
  0C:2B814    A$uip$4019
  0C:2B815    A$uip$4020
  0C:2B816    A$uip$4021
  0C:2B817    A$uip$4022
  0C:2B819    A$uip$4023
  0C:2B81C    A$uip$4024
  0C:2B81F    A$uip$4025
  0C:2B822    A$uip$4026
  0C:2B824    A$uip$4027
  0C:2B826    A$uip$4028
  0C:2B828    A$uip$4029
  0C:2B82B    A$uip$4032
  0C:2B82B    C$uip.c$1339$1$1
  0C:2B82D    A$uip$4033
  0C:2B82F    A$uip$4034
  0C:2B831    A$uip$4035
  0C:2B833    A$uip$4036
  0C:2B835    A$uip$4037
  0C:2B837    A$uip$4038
  0C:2B83A    A$uip$4039
  0C:2B83C    A$uip$4040
  0C:2B83E    A$uip$4041
  0C:2B840    A$uip$4042
  0C:2B843    A$uip$4045
  0C:2B843    C$uip.c$1340$1$1
  0C:2B846    A$uip$4046
  0C:2B849    A$uip$4049
  0C:2B849    C$uip.c$1343$1$1
  0C:2B84C    A$uip$4050
  0C:2B84F    A$uip$4051
  0C:2B852    A$uip$4052
  0C:2B854    A$uip$4053
  0C:2B855    A$uip$4054
  0C:2B857    A$uip$4055
  0C:2B859    A$uip$4056
  0C:2B85C    A$uip$4060
  0C:2B85C    C$uip.c$1344$2$49
  0C:2B85F    A$uip$4061
  0C:2B860    A$uip$4062
  0C:2B861    A$uip$4064
  0C:2B864    A$uip$4065
  0C:2B867    A$uip$4066
  0C:2B86A    A$uip$4067
  0C:2B86B    A$uip$4068
  0C:2B86D    A$uip$4069
  0C:2B86F    A$uip$4070
  0C:2B871    A$uip$4071
  0C:2B872    A$uip$4072
  0C:2B873    A$uip$4073
  0C:2B875    A$uip$4074
  0C:2B876    A$uip$4075
  0C:2B878    A$uip$4076
  0C:2B879    A$uip$4077
  0C:2B87A    A$uip$4078
  0C:2B87B    A$uip$4079
  0C:2B87D    A$uip$4080
  0C:2B87E    A$uip$4081
  0C:2B87F    A$uip$4082
  0C:2B880    A$uip$4083
  0C:2B883    A$uip$4084
  0C:2B884    A$uip$4085
  0C:2B885    A$uip$4086
  0C:2B886    A$uip$4087
  0C:2B888    A$uip$4088
  0C:2B889    A$uip$4089
  0C:2B88A    A$uip$4090
  0C:2B88B    A$uip$4091
  0C:2B88C    A$uip$4092
  0C:2B88E    A$uip$4093
  0C:2B890    A$uip$4094
  0C:2B893    A$uip$4095
  0C:2B895    A$uip$4096
  0C:2B897    A$uip$4097
  0C:2B89A    A$uip$4101
  0C:2B89A    C$uip.c$1345$3$50
  0C:2B89C    A$uip$4102
  0C:2B89D    A$uip$4103
  0C:2B89E    A$uip$4104
  0C:2B89F    A$uip$4105
  0C:2B8A0    A$uip$4106
  0C:2B8A1    A$uip$4107
  0C:2B8A2    A$uip$4108
  0C:2B8A4    A$uip$4109
  0C:2B8A6    A$uip$4110
  0C:2B8A7    A$uip$4111
  0C:2B8A9    A$uip$4112
  0C:2B8AB    A$uip$4113
  0C:2B8AC    A$uip$4114
  0C:2B8AD    A$uip$4115
  0C:2B8B0    A$uip$4116
  0C:2B8B1    A$uip$4119
  0C:2B8B1    C$uip.c$1346$3$50
  0C:2B8B2    A$uip$4120
  0C:2B8B4    A$uip$4121
  0C:2B8B7    A$uip$4125
  0C:2B8B7    C$uip.c$1349$3$50
  0C:2B8BA    A$uip$4128
  0C:2B8BA    C$uip.c$1350$4$52
  0C:2B8BD    A$uip$4129
  0C:2B8BE    A$uip$4130
  0C:2B8BF    A$uip$4131
  0C:2B8C0    A$uip$4132
  0C:2B8C2    A$uip$4136
  0C:2B8C2    C$uip.c$1352$3$50
  0C:2B8C5    A$uip$4137
  0C:2B8C7    A$uip$4139
  0C:2B8CA    A$uip$4143
  0C:2B8CA    C$uip.c$1353$3$50
  0C:2B8CC    A$uip$4144
  0C:2B8CD    A$uip$4145
  0C:2B8CE    A$uip$4146
  0C:2B8CF    A$uip$4147
  0C:2B8D0    A$uip$4148
  0C:2B8D1    A$uip$4149
  0C:2B8D2    A$uip$4150
  0C:2B8D4    A$uip$4151
  0C:2B8D6    A$uip$4152
  0C:2B8D7    A$uip$4153
  0C:2B8D9    A$uip$4154
  0C:2B8DB    A$uip$4155
  0C:2B8DC    A$uip$4156
  0C:2B8DD    A$uip$4157
  0C:2B8E0    A$uip$4158
  0C:2B8E2    A$uip$4160
  0C:2B8E5    A$uip$4164
  0C:2B8E5    C$uip.c$1355$4$53
  0C:2B8E7    A$uip$4165
  0C:2B8E8    A$uip$4166
  0C:2B8E9    A$uip$4167
  0C:2B8EA    A$uip$4168
  0C:2B8EB    A$uip$4169
  0C:2B8EC    A$uip$4170
  0C:2B8ED    A$uip$4171
  0C:2B8EF    A$uip$4172
  0C:2B8F1    A$uip$4173
  0C:2B8F2    A$uip$4174
  0C:2B8F4    A$uip$4175
  0C:2B8F6    A$uip$4176
  0C:2B8F7    A$uip$4177
  0C:2B8F8    A$uip$4178
  0C:2B8FA    A$uip$4181
  0C:2B8FA    C$uip.c$1356$4$53
  0C:2B8FC    A$uip$4182
  0C:2B8FD    A$uip$4183
  0C:2B8FE    A$uip$4184
  0C:2B8FF    A$uip$4185
  0C:2B900    A$uip$4186
  0C:2B901    A$uip$4187
  0C:2B902    A$uip$4188
  0C:2B904    A$uip$4189
  0C:2B906    A$uip$4190
  0C:2B907    A$uip$4191
  0C:2B909    A$uip$4192
  0C:2B90B    A$uip$4193
  0C:2B90C    A$uip$4194
  0C:2B90E    A$uip$4195
  0C:2B910    A$uip$4196
  0C:2B911    A$uip$4197
  0C:2B913    A$uip$4198
  0C:2B916    A$uip$4199
  0C:2B917    A$uip$4200
  0C:2B918    A$uip$4201
  0C:2B919    A$uip$4202
  0C:2B91A    A$uip$4203
  0C:2B91B    A$uip$4206
  0C:2B91B    C$uip.c$1357$4$53
  0C:2B91E    A$uip$4207
  0C:2B91F    A$uip$4208
  0C:2B920    A$uip$4209
  0C:2B921    A$uip$4210
  0C:2B922    A$uip$4211
  0C:2B923    A$uip$4212
  0C:2B924    A$uip$4213
  0C:2B925    A$uip$4214
  0C:2B926    A$uip$4215
  0C:2B928    A$uip$4216
  0C:2B929    A$uip$4217
  0C:2B92A    A$uip$4218
  0C:2B92B    A$uip$4219
  0C:2B92C    A$uip$4220
  0C:2B92D    A$uip$4221
  0C:2B92F    A$uip$4222
  0C:2B931    A$uip$4223
  0C:2B932    A$uip$4224
  0C:2B933    A$uip$4225
  0C:2B934    A$uip$4226
  0C:2B935    A$uip$4227
  0C:2B936    A$uip$4230
  0C:2B936    C$uip.c$1358$4$53
  0C:2B937    A$uip$4231
  0C:2B939    A$uip$4232
  0C:2B93A    A$uip$4233
  0C:2B93C    A$uip$4234
  0C:2B93D    A$uip$4235
  0C:2B93F    A$uip$4236
  0C:2B942    A$uip$4237
  0C:2B945    A$uip$4238
  0C:2B947    A$uip$4240
  0C:2B949    A$uip$4241
  0C:2B94B    A$uip$4243
  0C:2B94D    A$uip$4244
  0C:2B94F    A$uip$4245
  0C:2B951    A$uip$4246
  0C:2B953    A$uip$4247
  0C:2B956    A$uip$4248
  0C:2B957    A$uip$4249
  0C:2B959    A$uip$4250
  0C:2B95C    A$uip$4251
  0C:2B95E    A$uip$4252
  0C:2B960    A$uip$4253
  0C:2B962    A$uip$4254
  0C:2B964    A$uip$4255
  0C:2B967    A$uip$4256
  0C:2B968    A$uip$4257
  0C:2B96A    A$uip$4258
  0C:2B96D    A$uip$4261
  0C:2B96D    C$uip.c$1361$4$53
  0C:2B96F    A$uip$4265
  0C:2B96F    C$uip.c$1365$4$54
  0C:2B972    A$uip$4266
  0C:2B973    A$uip$4267
  0C:2B974    A$uip$4268
  0C:2B975    A$uip$4269
  0C:2B977    A$uip$4270
  0C:2B979    A$uip$4271
  0C:2B97A    A$uip$4272
  0C:2B97B    A$uip$4273
  0C:2B97C    A$uip$4274
  0C:2B97D    A$uip$4275
  0C:2B97E    A$uip$4276
  0C:2B97F    A$uip$4277
  0C:2B981    A$uip$4278
  0C:2B982    A$uip$4279
  0C:2B983    A$uip$4280
  0C:2B985    A$uip$4281
  0C:2B986    A$uip$4282
  0C:2B988    A$uip$4283
  0C:2B98A    A$uip$4284
  0C:2B98B    A$uip$4285
  0C:2B98D    A$uip$4288
  0C:2B98D    C$uip.c$1370$4$54
  0C:2B98F    A$uip$4289
  0C:2B990    A$uip$4290
  0C:2B991    A$uip$4291
  0C:2B992    A$uip$4292
  0C:2B993    A$uip$4293
  0C:2B994    A$uip$4294
  0C:2B995    A$uip$4295
  0C:2B997    A$uip$4296
  0C:2B999    A$uip$4297
  0C:2B99A    A$uip$4298
  0C:2B99C    A$uip$4299
  0C:2B99E    A$uip$4300
  0C:2B99F    A$uip$4301
  0C:2B9A0    A$uip$4302
  0C:2B9A3    A$uip$4303
  0C:2B9A4    A$uip$4304
  0C:2B9A5    A$uip$4305
  0C:2B9A8    A$uip$4311
  0C:2B9A8    C$uip.c$1377$1$1
  0C:2B9A8    C$uip.c$1378$1$1
  0C:2B9AB    A$uip$4312
  0C:2B9AE    A$uip$4313
  0C:2B9B0    A$uip$4314
  0C:2B9B3    A$uip$4320
  0C:2B9B3    C$uip.c$1380$1$1
  0C:2B9B3    C$uip.c$1381$1$1
  0C:2B9B6    A$uip$4321
  0C:2B9B9    A$uip$4322
  0C:2B9BC    A$uip$4323
  0C:2B9BD    A$uip$4324
  0C:2B9C0    A$uip$4325
  0C:2B9C3    A$uip$4326
  0C:2B9C6    A$uip$4327
  0C:2B9C7    A$uip$4328
  0C:2B9CA    A$uip$4331
  0C:2B9CA    C$uip.c$1389$1$1
  0C:2B9CC    A$uip$4332
  0C:2B9CE    A$uip$4333
  0C:2B9D0    A$uip$4334
  0C:2B9D2    A$uip$4335
  0C:2B9D4    A$uip$4336
  0C:2B9D6    A$uip$4337
  0C:2B9D8    A$uip$4338
  0C:2B9DB    A$uip$4341
  0C:2B9DB    C$uip.c$1390$1$1
  0C:2B9DE    A$uip$4342
  0C:2B9E1    A$uip$4343
  0C:2B9E3    A$uip$4344
  0C:2B9E6    A$uip$4347
  0C:2B9E6    C$uip.c$1391$1$1
  0C:2B9E9    A$uip$4348
  0C:2B9EC    A$uip$4349
  0C:2B9EE    A$uip$4350
  0C:2B9F1    A$uip$4353
  0C:2B9F1    C$uip.c$1392$1$1
  0C:2B9F4    A$uip$4354
  0C:2B9F7    A$uip$4355
  0C:2B9F9    A$uip$4356
  0C:2B9FC    A$uip$4359
  0C:2B9FC    C$uip.c$1393$1$1
  0C:2B9FF    A$uip$4360
  0C:2BA01    A$uip$4361
  0C:2BA02    A$uip$4362
  0C:2BA03    A$uip$4363
  0C:2BA04    A$uip$4364
  0C:2BA05    A$uip$4367
  0C:2BA05    C$uip.c$1394$1$1
  0C:2BA08    A$uip$4368
  0C:2BA0B    A$uip$4369
  0C:2BA0D    A$uip$4370
  0C:2BA10    A$uip$4373
  0C:2BA10    C$uip.c$1395$1$1
  0C:2BA13    A$uip$4379
  0C:2BA13    C$uip.c$1398$1$1
  0C:2BA13    C$uip.c$1399$1$1
  0C:2BA16    A$uip$4380
  0C:2BA17    A$uip$4381
  0C:2BA18    A$uip$4382
  0C:2BA19    A$uip$4383
  0C:2BA1A    A$uip$4384
  0C:2BA1B    A$uip$4385
  0C:2BA1C    A$uip$4386
  0C:2BA1D    A$uip$4387
  0C:2BA1E    A$uip$4388
  0C:2BA21    A$uip$4389
  0C:2BA22    A$uip$4390
  0C:2BA23    A$uip$4391
  0C:2BA24    A$uip$4392
  0C:2BA25    A$uip$4393
  0C:2BA26    A$uip$4394
  0C:2BA27    A$uip$4395
  0C:2BA28    A$uip$4396
  0C:2BA29    A$uip$4399
  0C:2BA29    C$uip.c$1400$1$1
  0C:2BA2C    A$uip$4400
  0C:2BA2D    A$uip$4401
  0C:2BA2E    A$uip$4404
  0C:2BA2E    C$uip.c$1405$1$1
  0C:2BA31    A$uip$4405
  0C:2BA34    A$uip$4406
  0C:2BA37    A$uip$4407
  0C:2BA38    A$uip$4408
  0C:2BA3B    A$uip$4411
  0C:2BA3B    C$uip.c$1406$2$56
  0C:2BA3D    A$uip$4412
  0C:2BA3E    A$uip$4413
  0C:2BA3F    A$uip$4414
  0C:2BA40    A$uip$4415
  0C:2BA41    A$uip$4416
  0C:2BA42    A$uip$4417
  0C:2BA44    A$uip$4418
  0C:2BA46    A$uip$4419
  0C:2BA48    A$uip$4420
  0C:2BA4A    A$uip$4421
  0C:2BA4B    A$uip$4422
  0C:2BA4E    A$uip$4425
  0C:2BA4E    C$uip.c$1408$2$56
  0C:2BA51    A$uip$4426
  0C:2BA53    A$uip$4427
  0C:2BA54    A$uip$4430
  0C:2BA54    C$uip.c$1409$2$56
  0C:2BA57    A$uip$4433
  0C:2BA57    C$uip.c$1410$2$56
  0C:2BA5A    A$uip$4437
  0C:2BA5A    C$uip.c$1414$1$1
  0C:2BA5D    A$uip$4438
  0C:2BA60    A$uip$4439
  0C:2BA63    A$uip$4440
  0C:2BA64    A$uip$4441
  0C:2BA66    A$uip$4442
  0C:2BA68    A$uip$4443
  0C:2BA6A    A$uip$4444
  0C:2BA6B    A$uip$4445
  0C:2BA6E    A$uip$4446
  0C:2BA6F    A$uip$4449
  0C:2BA6F    C$uip.c$1418$1$1
  0C:2BA71    A$uip$4450
  0C:2BA74    A$uip$4451
  0C:2BA75    A$uip$4452
  0C:2BA76    A$uip$4453
  0C:2BA77    A$uip$4454
  0C:2BA78    A$uip$4455
  0C:2BA79    A$uip$4456
  0C:2BA7A    A$uip$4457
  0C:2BA7B    A$uip$4458
  0C:2BA7C    A$uip$4459
  0C:2BA7D    A$uip$4460
  0C:2BA7E    A$uip$4461
  0C:2BA7F    A$uip$4462
  0C:2BA80    A$uip$4463
  0C:2BA81    A$uip$4464
  0C:2BA83    A$uip$4465
  0C:2BA84    A$uip$4466
  0C:2BA85    A$uip$4467
  0C:2BA87    A$uip$4468
  0C:2BA88    A$uip$4469
  0C:2BA8B    A$uip$4470
  0C:2BA8C    A$uip$4471
  0C:2BA8D    A$uip$4472
  0C:2BA8E    A$uip$4473
  0C:2BA8F    A$uip$4474
  0C:2BA90    A$uip$4477
  0C:2BA90    C$uip.c$1423$1$1
  0C:2BA92    A$uip$4478
  0C:2BA93    A$uip$4479
  0C:2BA94    A$uip$4480
  0C:2BA95    A$uip$4481
  0C:2BA96    A$uip$4482
  0C:2BA97    A$uip$4483
  0C:2BA99    A$uip$4484
  0C:2BA9B    A$uip$4485
  0C:2BA9D    A$uip$4486
  0C:2BAA0    A$uip$4487
  0C:2BAA1    A$uip$4488
  0C:2BAA4    A$uip$4489
  0C:2BAA7    A$uip$4492
  0C:2BAA7    C$uip.c$1424$1$1
  0C:2BAAA    A$uip$4493
  0C:2BAAD    A$uip$4494
  0C:2BAB0    A$uip$4495
  0C:2BAB1    A$uip$4496
  0C:2BAB4    A$uip$4497
  0C:2BAB7    A$uip$4498
  0C:2BABA    A$uip$4503
  0C:2BABA    C$uip.c$1425$1$1
  0C:2BABD    A$uip$4504
  0C:2BABE    A$uip$4505
  0C:2BABF    A$uip$4506
  0C:2BAC0    A$uip$4507
  0C:2BAC1    A$uip$4508
  0C:2BAC2    A$uip$4509
  0C:2BAC3    A$uip$4510
  0C:2BAC4    A$uip$4511
  0C:2BAC5    A$uip$4512
  0C:2BAC7    A$uip$4513
  0C:2BAC8    A$uip$4514
  0C:2BAC9    A$uip$4515
  0C:2BACA    A$uip$4516
  0C:2BACB    A$uip$4517
  0C:2BACC    A$uip$4518
  0C:2BACE    A$uip$4519
  0C:2BAD0    A$uip$4520
  0C:2BAD2    A$uip$4521
  0C:2BAD5    A$uip$4522
  0C:2BAD6    A$uip$4523
  0C:2BAD9    A$uip$4524
  0C:2BADC    A$uip$4527
  0C:2BADC    C$uip.c$1426$1$1
  0C:2BADF    A$uip$4528
  0C:2BAE2    A$uip$4529
  0C:2BAE5    A$uip$4530
  0C:2BAE6    A$uip$4531
  0C:2BAE9    A$uip$4532
  0C:2BAEC    A$uip$4533
  0C:2BAEF    A$uip$4538
  0C:2BAEF    C$uip.c$1427$2$57
  0C:2BAF2    A$uip$4539
  0C:2BAF3    A$uip$4540
  0C:2BAF4    A$uip$4541
  0C:2BAF5    A$uip$4542
  0C:2BAF6    A$uip$4543
  0C:2BAF7    A$uip$4544
  0C:2BAF8    A$uip$4545
  0C:2BAFA    A$uip$4546
  0C:2BAFD    A$uip$4547
  0C:2BAFF    A$uip$4548
  0C:2BB02    A$uip$4549
  0C:2BB03    A$uip$4550
  0C:2BB05    A$uip$4551
  0C:2BB07    A$uip$4552
  0C:2BB0A    A$uip$4557
  0C:2BB0A    C$uip.c$1428$2$57
  0C:2BB0D    A$uip$4558
  0C:2BB10    A$uip$4559
  0C:2BB13    A$uip$4560
  0C:2BB16    A$uip$4561
  0C:2BB17    A$uip$4562
  0C:2BB18    A$uip$4563
  0C:2BB19    A$uip$4564
  0C:2BB1A    A$uip$4565
  0C:2BB1B    A$uip$4566
  0C:2BB1C    A$uip$4567
  0C:2BB1D    A$uip$4568
  0C:2BB1E    A$uip$4569
  0C:2BB20    A$uip$4570
  0C:2BB21    A$uip$4571
  0C:2BB22    A$uip$4572
  0C:2BB23    A$uip$4573
  0C:2BB24    A$uip$4574
  0C:2BB25    A$uip$4575
  0C:2BB27    A$uip$4576
  0C:2BB2A    A$uip$4577
  0C:2BB2D    A$uip$4578
  0C:2BB30    A$uip$4579
  0C:2BB33    A$uip$4580
  0C:2BB34    A$uip$4581
  0C:2BB36    A$uip$4582
  0C:2BB38    A$uip$4583
  0C:2BB3A    A$uip$4584
  0C:2BB3D    A$uip$4585
  0C:2BB3E    A$uip$4586
  0C:2BB3F    A$uip$4587
  0C:2BB42    A$uip$4588
  0C:2BB44    A$uip$4590
  0C:2BB47    A$uip$4594
  0C:2BB47    C$uip.c$1429$2$57
  0C:2BB49    A$uip$4595
  0C:2BB4A    A$uip$4596
  0C:2BB4B    A$uip$4597
  0C:2BB4C    A$uip$4598
  0C:2BB4D    A$uip$4599
  0C:2BB4E    A$uip$4600
  0C:2BB50    A$uip$4601
  0C:2BB51    A$uip$4602
  0C:2BB54    A$uip$4603
  0C:2BB55    A$uip$4605
  0C:2BB58    A$uip$4606
  0C:2BB5B    A$uip$4607
  0C:2BB5E    A$uip$4608
  0C:2BB5F    A$uip$4609
  0C:2BB61    A$uip$4610
  0C:2BB63    A$uip$4611
  0C:2BB65    A$uip$4612
  0C:2BB68    A$uip$4613
  0C:2BB69    A$uip$4614
  0C:2BB6A    A$uip$4615
  0C:2BB6D    A$uip$4616
  0C:2BB6F    A$uip$4618
  0C:2BB72    A$uip$4622
  0C:2BB72    C$uip.c$1430$2$57
  0C:2BB74    A$uip$4623
  0C:2BB75    A$uip$4624
  0C:2BB76    A$uip$4625
  0C:2BB77    A$uip$4626
  0C:2BB78    A$uip$4627
  0C:2BB79    A$uip$4628
  0C:2BB7B    A$uip$4629
  0C:2BB7D    A$uip$4630
  0C:2BB7E    A$uip$4631
  0C:2BB7F    A$uip$4632
  0C:2BB80    A$uip$4633
  0C:2BB81    A$uip$4634
  0C:2BB82    A$uip$4635
  0C:2BB85    A$uip$4636
  0C:2BB88    A$uip$4637
  0C:2BB8B    A$uip$4638
  0C:2BB8C    A$uip$4639
  0C:2BB8E    A$uip$4640
  0C:2BB90    A$uip$4641
  0C:2BB92    A$uip$4642
  0C:2BB95    A$uip$4643
  0C:2BB96    A$uip$4644
  0C:2BB97    A$uip$4645
  0C:2BB9A    A$uip$4646
  0C:2BB9C    A$uip$4648
  0C:2BB9F    A$uip$4652
  0C:2BB9F    C$uip.c$1431$2$57
  0C:2BBA1    A$uip$4653
  0C:2BBA2    A$uip$4654
  0C:2BBA3    A$uip$4655
  0C:2BBA4    A$uip$4656
  0C:2BBA5    A$uip$4657
  0C:2BBA6    A$uip$4658
  0C:2BBA8    A$uip$4659
  0C:2BBA9    A$uip$4660
  0C:2BBAA    A$uip$4661
  0C:2BBAB    A$uip$4662
  0C:2BBAC    A$uip$4663
  0C:2BBAD    A$uip$4664
  0C:2BBB0    A$uip$4665
  0C:2BBB3    A$uip$4666
  0C:2BBB6    A$uip$4667
  0C:2BBB7    A$uip$4668
  0C:2BBB9    A$uip$4669
  0C:2BBBB    A$uip$4670
  0C:2BBBD    A$uip$4671
  0C:2BBC0    A$uip$4672
  0C:2BBC1    A$uip$4673
  0C:2BBC2    A$uip$4674
  0C:2BBC5    A$uip$4675
  0C:2BBC7    A$uip$4677
  0C:2BBCA    A$uip$4684
  0C:2BBCA    C$uip.c$1432$1$1
  0C:2BBCA    C$uip.c$1440$1$1
  0C:2BBCD    A$uip$4685
  0C:2BBD0    A$uip$4686
  0C:2BBD3    A$uip$4687
  0C:2BBD4    A$uip$4688
  0C:2BBD7    A$uip$4689
  0C:2BBDA    A$uip$4691
  0C:2BBDD    A$uip$4692
  0C:2BBDE    A$uip$4693
  0C:2BBDF    A$uip$4694
  0C:2BBE0    A$uip$4695
  0C:2BBE1    A$uip$4696
  0C:2BBE2    A$uip$4697
  0C:2BBE3    A$uip$4698
  0C:2BBE4    A$uip$4699
  0C:2BBE5    A$uip$4700
  0C:2BBE7    A$uip$4701
  0C:2BBE8    A$uip$4702
  0C:2BBE9    A$uip$4703
  0C:2BBEA    A$uip$4704
  0C:2BBEB    A$uip$4705
  0C:2BBEC    A$uip$4706
  0C:2BBEE    A$uip$4707
  0C:2BBF0    A$uip$4708
  0C:2BBF2    A$uip$4709
  0C:2BBF4    A$uip$4710
  0C:2BBF7    A$uip$4711
  0C:2BBF8    A$uip$4712
  0C:2BBF9    A$uip$4713
  0C:2BBFC    A$uip$4714
  0C:2BBFD    A$uip$4715
  0C:2BBFE    A$uip$4716
  0C:2BC00    A$uip$4717
  0C:2BC03    A$uip$4721
  0C:2BC03    C$uip.c$1441$2$59
  0C:2BC05    A$uip$4722
  0C:2BC06    A$uip$4723
  0C:2BC07    A$uip$4724
  0C:2BC08    A$uip$4725
  0C:2BC09    A$uip$4726
  0C:2BC0A    A$uip$4727
  0C:2BC0C    A$uip$4728
  0C:2BC0E    A$uip$4729
  0C:2BC10    A$uip$4730
  0C:2BC12    A$uip$4731
  0C:2BC14    A$uip$4732
  0C:2BC16    A$uip$4733
  0C:2BC18    A$uip$4734
  0C:2BC1A    A$uip$4735
  0C:2BC1C    A$uip$4736
  0C:2BC1F    A$uip$4737
  0C:2BC21    A$uip$4738
  0C:2BC23    A$uip$4739
  0C:2BC25    A$uip$4740
  0C:2BC27    A$uip$4741
  0C:2BC29    A$uip$4744
  0C:2BC29    C$uip.c$1443$2$59
  0C:2BC2B    A$uip$4745
  0C:2BC2D    A$uip$4746
  0C:2BC2F    A$uip$4747
  0C:2BC32    A$uip$4748
  0C:2BC33    A$uip$4749
  0C:2BC34    A$uip$4750
  0C:2BC36    A$uip$4751
  0C:2BC38    A$uip$4752
  0C:2BC3A    A$uip$4753
  0C:2BC3D    A$uip$4754
  0C:2BC3E    A$uip$4755
  0C:2BC41    A$uip$4756
  0C:2BC43    A$uip$4758
  0C:2BC46    A$uip$4762
  0C:2BC46    C$uip.c$1444$2$59
  0C:2BC49    A$uip$4763
  0C:2BC4A    A$uip$4764
  0C:2BC4C    A$uip$4765
  0C:2BC4F    A$uip$4766
  0C:2BC52    A$uip$4767
  0C:2BC55    A$uip$4768
  0C:2BC56    A$uip$4769
  0C:2BC59    A$uip$4770
  0C:2BC5B    A$uip$4772
  0C:2BC5E    A$uip$4776
  0C:2BC5E    C$uip.c$1445$2$59
  0C:2BC61    A$uip$4777
  0C:2BC62    A$uip$4778
  0C:2BC64    A$uip$4779
  0C:2BC67    A$uip$4780
  0C:2BC6A    A$uip$4781
  0C:2BC6D    A$uip$4782
  0C:2BC6E    A$uip$4783
  0C:2BC71    A$uip$4784
  0C:2BC73    A$uip$4786
  0C:2BC76    A$uip$4790
  0C:2BC76    C$uip.c$1446$2$59
  0C:2BC79    A$uip$4791
  0C:2BC7A    A$uip$4792
  0C:2BC7C    A$uip$4793
  0C:2BC7F    A$uip$4794
  0C:2BC82    A$uip$4795
  0C:2BC85    A$uip$4796
  0C:2BC86    A$uip$4797
  0C:2BC89    A$uip$4798
  0C:2BC8B    A$uip$4800
  0C:2BC8E    A$uip$4804
  0C:2BC8E    C$uip.c$1448$3$60
  0C:2BC90    A$uip$4805
  0C:2BC91    A$uip$4806
  0C:2BC92    A$uip$4807
  0C:2BC93    A$uip$4808
  0C:2BC94    A$uip$4809
  0C:2BC95    A$uip$4810
  0C:2BC97    A$uip$4811
  0C:2BC99    A$uip$4812
  0C:2BC9B    A$uip$4813
  0C:2BC9D    A$uip$4814
  0C:2BC9E    A$uip$4815
  0C:2BCA1    A$uip$4818
  0C:2BCA1    C$uip.c$1449$3$60
  0C:2BCA3    A$uip$4819
  0C:2BCA4    A$uip$4820
  0C:2BCA6    A$uip$4821
  0C:2BCA7    A$uip$4822
  0C:2BCA8    A$uip$4823
  0C:2BCAA    A$uip$4824
  0C:2BCAC    A$uip$4825
  0C:2BCAE    A$uip$4826
  0C:2BCB0    A$uip$4827
  0C:2BCB1    A$uip$4828
  0C:2BCB2    A$uip$4829
  0C:2BCB4    A$uip$4830
  0C:2BCB5    A$uip$4831
  0C:2BCB7    A$uip$4832
  0C:2BCB9    A$uip$4833
  0C:2BCBB    A$uip$4834
  0C:2BCBD    A$uip$4835
  0C:2BCBF    A$uip$4836
  0C:2BCC2    A$uip$4839
  0C:2BCC2    C$uip.c$1450$3$60
  0C:2BCC4    A$uip$4840
  0C:2BCC6    A$uip$4841
  0C:2BCC7    A$uip$4842
  0C:2BCC8    A$uip$4843
  0C:2BCCA    A$uip$4844
  0C:2BCCB    A$uip$4845
  0C:2BCCD    A$uip$4846
  0C:2BCCF    A$uip$4847
  0C:2BCD1    A$uip$4848
  0C:2BCD3    A$uip$4849
  0C:2BCD5    A$uip$4850
  0C:2BCD8    A$uip$4853
  0C:2BCD8    C$uip.c$1451$3$60
  0C:2BCDA    A$uip$4854
  0C:2BCDC    A$uip$4855
  0C:2BCDD    A$uip$4856
  0C:2BCDE    A$uip$4857
  0C:2BCE0    A$uip$4858
  0C:2BCE1    A$uip$4859
  0C:2BCE3    A$uip$4860
  0C:2BCE5    A$uip$4861
  0C:2BCE7    A$uip$4862
  0C:2BCE9    A$uip$4863
  0C:2BCEB    A$uip$4864
  0C:2BCEE    A$uip$4867
  0C:2BCEE    C$uip.c$1455$3$60
  0C:2BCF0    A$uip$4868
  0C:2BCF1    A$uip$4869
  0C:2BCF2    A$uip$4870
  0C:2BCF3    A$uip$4871
  0C:2BCF4    A$uip$4872
  0C:2BCF5    A$uip$4873
  0C:2BCF7    A$uip$4874
  0C:2BCF9    A$uip$4875
  0C:2BCFB    A$uip$4876
  0C:2BCFD    A$uip$4877
  0C:2BD00    A$uip$4878
  0C:2BD02    A$uip$4879
  0C:2BD05    A$uip$4883
  0C:2BD05    C$uip.c$1457$4$61
  0C:2BD07    A$uip$4884
  0C:2BD08    A$uip$4885
  0C:2BD09    A$uip$4886
  0C:2BD0A    A$uip$4887
  0C:2BD0B    A$uip$4888
  0C:2BD0C    A$uip$4889
  0C:2BD0E    A$uip$4890
  0C:2BD10    A$uip$4891
  0C:2BD12    A$uip$4892
  0C:2BD14    A$uip$4893
  0C:2BD17    A$uip$4894
  0C:2BD18    A$uip$4895
  0C:2BD1A    A$uip$4896
  0C:2BD1B    A$uip$4897
  0C:2BD1C    A$uip$4898
  0C:2BD1D    A$uip$4899
  0C:2BD1E    A$uip$4900
  0C:2BD1F    A$uip$4901
  0C:2BD21    A$uip$4902
  0C:2BD23    A$uip$4903
  0C:2BD25    A$uip$4904
  0C:2BD27    A$uip$4905
  0C:2BD2A    A$uip$4906
  0C:2BD2B    A$uip$4907
  0C:2BD2C    A$uip$4908
  0C:2BD2D    A$uip$4909
  0C:2BD2E    A$uip$4910
  0C:2BD2F    A$uip$4913
  0C:2BD2F    C$uip.c$1459$4$61
  0C:2BD31    A$uip$4914
  0C:2BD32    A$uip$4915
  0C:2BD33    A$uip$4916
  0C:2BD34    A$uip$4917
  0C:2BD35    A$uip$4918
  0C:2BD36    A$uip$4919
  0C:2BD38    A$uip$4920
  0C:2BD3A    A$uip$4921
  0C:2BD3C    A$uip$4922
  0C:2BD3F    A$uip$4923
  0C:2BD40    A$uip$4924
  0C:2BD41    A$uip$4925
  0C:2BD42    A$uip$4926
  0C:2BD44    A$uip$4927
  0C:2BD45    A$uip$4928
  0C:2BD46    A$uip$4929
  0C:2BD47    A$uip$4930
  0C:2BD48    A$uip$4931
  0C:2BD49    A$uip$4932
  0C:2BD4C    A$uip$4933
  0C:2BD4D    A$uip$4936
  0C:2BD4D    C$uip.c$1460$4$61
  0C:2BD4E    A$uip$4937
  0C:2BD4F    A$uip$4938
  0C:2BD50    A$uip$4939
  0C:2BD52    A$uip$4940
  0C:2BD54    A$uip$4941
  0C:2BD56    A$uip$4942
  0C:2BD59    A$uip$4945
  0C:2BD59    C$uip.c$1461$4$61
  0C:2BD5A    A$uip$4946
  0C:2BD5D    A$uip$4949
  0C:2BD5D    C$uip.c$1462$5$62
  0C:2BD60    A$uip$4950
  0C:2BD61    A$uip$4951
  0C:2BD62    A$uip$4952
  0C:2BD63    A$uip$4953
  0C:2BD64    A$uip$4957
  0C:2BD64    C$uip.c$1464$4$61
  0C:2BD67    A$uip$4958
  0C:2BD68    A$uip$4959
  0C:2BD69    A$uip$4960
  0C:2BD6A    A$uip$4961
  0C:2BD6B    A$uip$4962
  0C:2BD6C    A$uip$4963
  0C:2BD6D    A$uip$4964
  0C:2BD6E    A$uip$4965
  0C:2BD6F    A$uip$4966
  0C:2BD71    A$uip$4967
  0C:2BD72    A$uip$4968
  0C:2BD74    A$uip$4969
  0C:2BD75    A$uip$4970
  0C:2BD76    A$uip$4971
  0C:2BD78    A$uip$4972
  0C:2BD7A    A$uip$4973
  0C:2BD7D    A$uip$4974
  0C:2BD80    A$uip$4975
  0C:2BD83    A$uip$4976
  0C:2BD86    A$uip$4977
  0C:2BD87    A$uip$4978
  0C:2BD88    A$uip$4979
  0C:2BD89    A$uip$4980
  0C:2BD8B    A$uip$4981
  0C:2BD8D    A$uip$4982
  0C:2BD90    A$uip$4983
  0C:2BD91    A$uip$4984
  0C:2BD94    A$uip$4985
  0C:2BD95    A$uip$4986
  0C:2BD97    A$uip$4987
  0C:2BD98    A$uip$4990
  0C:2BD98    C$uip.c$1465$4$61
  0C:2BD9B    A$uip$4991
  0C:2BD9C    A$uip$4992
  0C:2BD9D    A$uip$4993
  0C:2BDA0    A$uip$4994
  0C:2BDA3    A$uip$4995
  0C:2BDA6    A$uip$4996
  0C:2BDA9    A$uip$4999
  0C:2BDA9    C$uip.c$1466$4$61
  0C:2BDAB    A$uip$5000
  0C:2BDAC    A$uip$5001
  0C:2BDAD    A$uip$5002
  0C:2BDAE    A$uip$5003
  0C:2BDAF    A$uip$5004
  0C:2BDB0    A$uip$5005
  0C:2BDB2    A$uip$5006
  0C:2BDB4    A$uip$5007
  0C:2BDB5    A$uip$5008
  0C:2BDB6    A$uip$5009
  0C:2BDB7    A$uip$5010
  0C:2BDB8    A$uip$5011
  0C:2BDB9    A$uip$5012
  0C:2BDBB    A$uip$5013
  0C:2BDBD    A$uip$5014
  0C:2BDBF    A$uip$5015
  0C:2BDC2    A$uip$5016
  0C:2BDC3    A$uip$5017
  0C:2BDC4    A$uip$5018
  0C:2BDC6    A$uip$5019
  0C:2BDC7    A$uip$5020
  0C:2BDCA    A$uip$5021
  0C:2BDCD    A$uip$5022
  0C:2BDD0    A$uip$5023
  0C:2BDD3    A$uip$5024
  0C:2BDD4    A$uip$5025
  0C:2BDD5    A$uip$5026
  0C:2BDD6    A$uip$5027
  0C:2BDD8    A$uip$5028
  0C:2BDDA    A$uip$5029
  0C:2BDDC    A$uip$5030
  0C:2BDDF    A$uip$5034
  0C:2BDDF    C$uip.c$1470$3$60
  0C:2BDE2    A$uip$5035
  0C:2BDE4    A$uip$5036
  0C:2BDE5    A$uip$5039
  0C:2BDE5    C$uip.c$1472$3$60
  0C:2BDE8    A$uip$5040
  0C:2BDE9    A$uip$5041
  0C:2BDEA    A$uip$5042
  0C:2BDEB    A$uip$5043
  0C:2BDEC    A$uip$5044
  0C:2BDED    A$uip$5045
  0C:2BDEE    A$uip$5046
  0C:2BDEF    A$uip$5047
  0C:2BDF0    A$uip$5048
  0C:2BDF2    A$uip$5049
  0C:2BDF3    A$uip$5050
  0C:2BDF5    A$uip$5051
  0C:2BDF6    A$uip$5052
  0C:2BDF7    A$uip$5053
  0C:2BDF9    A$uip$5054
  0C:2BDFB    A$uip$5055
  0C:2BDFD    A$uip$5056
  0C:2BDFE    A$uip$5057
  0C:2BDFF    A$uip$5058
  0C:2BE00    A$uip$5059
  0C:2BE01    A$uip$5060
  0C:2BE02    A$uip$5061
  0C:2BE04    A$uip$5062
  0C:2BE06    A$uip$5063
  0C:2BE08    A$uip$5064
  0C:2BE0A    A$uip$5065
  0C:2BE0D    A$uip$5066
  0C:2BE0E    A$uip$5067
  0C:2BE11    A$uip$5068
  0C:2BE14    A$uip$5069
  0C:2BE17    A$uip$5070
  0C:2BE1A    A$uip$5073
  0C:2BE1A    C$uip.c$1475$3$60
  0C:2BE1C    A$uip$5074
  0C:2BE1D    A$uip$5075
  0C:2BE1E    A$uip$5076
  0C:2BE1F    A$uip$5077
  0C:2BE20    A$uip$5078
  0C:2BE21    A$uip$5079
  0C:2BE23    A$uip$5080
  0C:2BE25    A$uip$5081
  0C:2BE27    A$uip$5082
  0C:2BE28    A$uip$5083
  0C:2BE2B    A$uip$5084
  0C:2BE2C    A$uip$5085
  0C:2BE2D    A$uip$5086
  0C:2BE30    A$uip$5090
  0C:2BE30    C$uip.c$1481$1$1
  0C:2BE33    A$uip$5091
  0C:2BE34    A$uip$5092
  0C:2BE36    A$uip$5093
  0C:2BE37    A$uip$5094
  0C:2BE38    A$uip$5095
  0C:2BE3A    A$uip$5096
  0C:2BE3B    A$uip$5097
  0C:2BE3C    A$uip$5098
  0C:2BE3E    A$uip$5099
  0C:2BE40    A$uip$5100
  0C:2BE42    A$uip$5101
  0C:2BE43    A$uip$5102
  0C:2BE44    A$uip$5103
  0C:2BE46    A$uip$5104
  0C:2BE47    A$uip$5105
  0C:2BE49    A$uip$5106
  0C:2BE4B    A$uip$5107
  0C:2BE4D    A$uip$5108
  0C:2BE4F    A$uip$5109
  0C:2BE52    A$uip$5110
  0C:2BE53    A$uip$5111
  0C:2BE55    A$uip$5112
  0C:2BE56    A$uip$5113
  0C:2BE57    A$uip$5114
  0C:2BE59    A$uip$5115
  0C:2BE5B    A$uip$5116
  0C:2BE5E    A$uip$5118
  0C:2BE5F    A$uip$5119
  0C:2BE60    A$uip$5120
  0C:2BE61    A$uip$5121
  0C:2BE64    A$uip$5122
  0C:2BE65    A$uip$5124
  0C:2BE68    A$uip$5125
  0C:2BE6B    A$uip$5126
  0C:2BE6E    A$uip$5127
  0C:2BE71    A$uip$5128
  0C:2BE74    A$uip$5129
  0C:2BE77    A$uip$5130
  0C:2BE7A    A$uip$5131
  0C:2BE7D    A$uip$5132
  0C:2BE80    A$uip$5138
  0C:2BE80    C$uip.c$1486$2$63
  0C:2BE80    C$uip.c$1491$2$63
  0C:2BE83    A$uip$5139
  0C:2BE84    A$uip$5140
  0C:2BE85    A$uip$5141
  0C:2BE88    A$uip$5144
  0C:2BE88    C$uip.c$1492$3$64
  0C:2BE8A    A$uip$5145
  0C:2BE8C    A$uip$5146
  0C:2BE8E    A$uip$5147
  0C:2BE90    A$uip$5148
  0C:2BE93    A$uip$5151
  0C:2BE93    C$uip.c$1493$3$64
  0C:2BE96    A$uip$5152
  0C:2BE98    A$uip$5153
  0C:2BE99    A$uip$5156
  0C:2BE99    C$uip.c$1494$3$64
  0C:2BE9B    A$uip$5157
  0C:2BE9D    A$uip$5158
  0C:2BE9E    A$uip$5159
  0C:2BE9F    A$uip$5160
  0C:2BEA1    A$uip$5161
  0C:2BEA2    A$uip$5162
  0C:2BEA4    A$uip$5163
  0C:2BEA6    A$uip$5164
  0C:2BEA8    A$uip$5165
  0C:2BEAA    A$uip$5166
  0C:2BEAB    A$uip$5167
  0C:2BEAE    A$uip$5168
  0C:2BEAF    A$uip$5169
  0C:2BEB0    A$uip$5170
  0C:2BEB3    A$uip$5173
  0C:2BEB3    C$uip.c$1495$3$64
  0C:2BEB6    A$uip$5174
  0C:2BEB7    A$uip$5175
  0C:2BEB8    A$uip$5176
  0C:2BEB9    A$uip$5177
  0C:2BEBA    A$uip$5178
  0C:2BEBB    A$uip$5179
  0C:2BEBC    A$uip$5180
  0C:2BEBE    A$uip$5183
  0C:2BEBE    C$uip.c$1496$4$65
  0C:2BEC1    A$uip$5184
  0C:2BEC3    A$uip$5185
  0C:2BEC4    A$uip$5188
  0C:2BEC4    C$uip.c$1497$4$65
  0C:2BEC6    A$uip$5189
  0C:2BEC8    A$uip$5190
  0C:2BECB    A$uip$5194
  0C:2BECB    C$uip.c$1499$3$64
  0C:2BECE    A$uip$5195
  0C:2BECF    A$uip$5196
  0C:2BED0    A$uip$5197
  0C:2BED1    A$uip$5198
  0C:2BED2    A$uip$5201
  0C:2BED2    C$uip.c$1500$3$64
  0C:2BED5    A$uip$5204
  0C:2BED5    C$uip.c$1501$3$64
  0C:2BED8    A$uip$5208
  0C:2BED8    C$uip.c$1504$2$63
  0C:2BEDB    A$uip$5209
  0C:2BEDE    A$uip$5210
  0C:2BEE1    A$uip$5211
  0C:2BEE2    A$uip$5212
  0C:2BEE5    A$uip$5213
  0C:2BEE8    A$uip$5214
  0C:2BEEA    A$uip$5216
  0C:2BEED    A$uip$5220
  0C:2BEED    C$uip.c$1505$3$66
  0C:2BEF0    A$uip$5226
  0C:2BEF0    C$uip.c$1509$2$63
  0C:2BEF0    C$uip.c$1514$2$63
  0C:2BEF3    A$uip$5227
  0C:2BEF4    A$uip$5228
  0C:2BEF5    A$uip$5229
  0C:2BEF8    A$uip$5230
  0C:2BEFB    A$uip$5234
  0C:2BEFB    C$uip.c$1515$2$63
  0C:2BEFE    A$uip$5235
  0C:2BF01    A$uip$5236
  0C:2BF04    A$uip$5237
  0C:2BF05    A$uip$5238
  0C:2BF08    A$uip$5239
  0C:2BF0B    A$uip$5240
  0C:2BF0D    A$uip$5242
  0C:2BF10    A$uip$5246
  0C:2BF10    C$uip.c$1518$3$67
  0C:2BF13    A$uip$5247
  0C:2BF16    A$uip$5248
  0C:2BF19    A$uip$5249
  0C:2BF1B    A$uip$5250
  0C:2BF1C    A$uip$5251
  0C:2BF1E    A$uip$5252
  0C:2BF20    A$uip$5253
  0C:2BF23    A$uip$5257
  0C:2BF23    C$uip.c$1519$4$68
  0C:2BF26    A$uip$5258
  0C:2BF27    A$uip$5259
  0C:2BF28    A$uip$5261
  0C:2BF2B    A$uip$5262
  0C:2BF2E    A$uip$5263
  0C:2BF31    A$uip$5264
  0C:2BF32    A$uip$5265
  0C:2BF34    A$uip$5266
  0C:2BF36    A$uip$5267
  0C:2BF38    A$uip$5268
  0C:2BF39    A$uip$5269
  0C:2BF3A    A$uip$5270
  0C:2BF3C    A$uip$5271
  0C:2BF3D    A$uip$5272
  0C:2BF3F    A$uip$5273
  0C:2BF40    A$uip$5274
  0C:2BF41    A$uip$5275
  0C:2BF42    A$uip$5276
  0C:2BF44    A$uip$5277
  0C:2BF45    A$uip$5278
  0C:2BF46    A$uip$5279
  0C:2BF47    A$uip$5280
  0C:2BF4A    A$uip$5281
  0C:2BF4B    A$uip$5282
  0C:2BF4C    A$uip$5283
  0C:2BF4E    A$uip$5284
  0C:2BF51    A$uip$5285
  0C:2BF52    A$uip$5286
  0C:2BF54    A$uip$5287
  0C:2BF55    A$uip$5288
  0C:2BF57    A$uip$5289
  0C:2BF59    A$uip$5290
  0C:2BF5B    A$uip$5291
  0C:2BF5E    A$uip$5292
  0C:2BF60    A$uip$5293
  0C:2BF62    A$uip$5294
  0C:2BF65    A$uip$5298
  0C:2BF65    C$uip.c$1520$5$69
  0C:2BF67    A$uip$5299
  0C:2BF69    A$uip$5300
  0C:2BF6A    A$uip$5301
  0C:2BF6B    A$uip$5302
  0C:2BF6D    A$uip$5303
  0C:2BF6E    A$uip$5304
  0C:2BF6F    A$uip$5305
  0C:2BF71    A$uip$5306
  0C:2BF73    A$uip$5307
  0C:2BF74    A$uip$5308
  0C:2BF76    A$uip$5309
  0C:2BF78    A$uip$5310
  0C:2BF79    A$uip$5311
  0C:2BF7A    A$uip$5312
  0C:2BF7D    A$uip$5313
  0C:2BF7E    A$uip$5316
  0C:2BF7E    C$uip.c$1521$5$69
  0C:2BF7F    A$uip$5317
  0C:2BF81    A$uip$5318
  0C:2BF84    A$uip$5322
  0C:2BF84    C$uip.c$1524$5$69
  0C:2BF87    A$uip$5325
  0C:2BF87    C$uip.c$1525$6$71
  0C:2BF8A    A$uip$5326
  0C:2BF8B    A$uip$5327
  0C:2BF8C    A$uip$5328
  0C:2BF8D    A$uip$5329
  0C:2BF8F    A$uip$5333
  0C:2BF8F    C$uip.c$1527$5$69
  0C:2BF92    A$uip$5334
  0C:2BF94    A$uip$5336
  0C:2BF97    A$uip$5340
  0C:2BF97    C$uip.c$1528$5$69
  0C:2BF99    A$uip$5341
  0C:2BF9B    A$uip$5342
  0C:2BF9C    A$uip$5343
  0C:2BF9D    A$uip$5344
  0C:2BF9F    A$uip$5345
  0C:2BFA0    A$uip$5346
  0C:2BFA1    A$uip$5347
  0C:2BFA3    A$uip$5348
  0C:2BFA5    A$uip$5349
  0C:2BFA6    A$uip$5350
  0C:2BFA8    A$uip$5351
  0C:2BFAA    A$uip$5352
  0C:2BFAB    A$uip$5353
  0C:2BFAC    A$uip$5354
  0C:2BFAF    A$uip$5355
  0C:2BFB1    A$uip$5357
  0C:2BFB4    A$uip$5361
  0C:2BFB4    C$uip.c$1530$6$72
  0C:2BFB6    A$uip$5362
  0C:2BFB8    A$uip$5363
  0C:2BFB9    A$uip$5364
  0C:2BFBA    A$uip$5365
  0C:2BFBC    A$uip$5366
  0C:2BFBD    A$uip$5367
  0C:2BFBE    A$uip$5368
  0C:2BFC0    A$uip$5369
  0C:2BFC2    A$uip$5370
  0C:2BFC3    A$uip$5371
  0C:2BFC5    A$uip$5372
  0C:2BFC7    A$uip$5373
  0C:2BFC8    A$uip$5374
  0C:2BFC9    A$uip$5375
  0C:2BFCB    A$uip$5378
  0C:2BFCB    C$uip.c$1531$6$72
  0C:2BFCD    A$uip$5379
  0C:2BFCF    A$uip$5380
  0C:2BFD0    A$uip$5381
  0C:2BFD1    A$uip$5382
  0C:2BFD3    A$uip$5383
  0C:2BFD4    A$uip$5384
  0C:2BFD5    A$uip$5385
  0C:2BFD7    A$uip$5386
  0C:2BFD9    A$uip$5387
  0C:2BFDA    A$uip$5388
  0C:2BFDC    A$uip$5389
  0C:2BFDE    A$uip$5390
  0C:2BFDF    A$uip$5391
  0C:2BFE1    A$uip$5392
  0C:2BFE2    A$uip$5393
  0C:2BFE4    A$uip$5394
  0C:2BFE5    A$uip$5395
  0C:2BFE6    A$uip$5396
  0C:2BFE8    A$uip$5397
  0C:2BFEB    A$uip$5398
  0C:2BFED    A$uip$5399
  0C:2BFEE    A$uip$5400
  0C:2BFEF    A$uip$5401
  0C:2BFF1    A$uip$5402
  0C:2BFF2    A$uip$5405
  0C:2BFF2    C$uip.c$1532$6$72
  0C:2BFF5    A$uip$5406
  0C:2BFF6    A$uip$5407
  0C:2BFF7    A$uip$5408
  0C:2BFF8    A$uip$5409
  0C:2BFF9    A$uip$5410
  0C:2BFFA    A$uip$5411
  0C:2BFFB    A$uip$5412
  0C:2BFFC    A$uip$5413
  0C:2BFFD    A$uip$5414
  0C:2BFFF    A$uip$5415
  0C:2C000    A$uip$5416
  0C:2C002    A$uip$5417
  0C:2C003    A$uip$5418
  0C:2C004    A$uip$5419
  0C:2C006    A$uip$5420
  0C:2C008    A$uip$5423
  0C:2C008    C$uip.c$1533$6$72
  0C:2C00A    A$uip$5424
  0C:2C00B    A$uip$5425
  0C:2C00D    A$uip$5426
  0C:2C00E    A$uip$5427
  0C:2C00F    A$uip$5428
  0C:2C011    A$uip$5429
  0C:2C013    A$uip$5430
  0C:2C015    A$uip$5431
  0C:2C017    A$uip$5432
  0C:2C018    A$uip$5433
  0C:2C01A    A$uip$5434
  0C:2C01B    A$uip$5435
  0C:2C01D    A$uip$5436
  0C:2C01E    A$uip$5437
  0C:2C020    A$uip$5438
  0C:2C022    A$uip$5439
  0C:2C024    A$uip$5440
  0C:2C026    A$uip$5442
  0C:2C028    A$uip$5443
  0C:2C02A    A$uip$5445
  0C:2C02D    A$uip$5446
  0C:2C030    A$uip$5447
  0C:2C033    A$uip$5448
  0C:2C034    A$uip$5449
  0C:2C037    A$uip$5450
  0C:2C038    A$uip$5451
  0C:2C039    A$uip$5452
  0C:2C03C    A$uip$5453
  0C:2C03F    A$uip$5454
  0C:2C042    A$uip$5455
  0C:2C045    A$uip$5456
  0C:2C046    A$uip$5457
  0C:2C049    A$uip$5458
  0C:2C04A    A$uip$5459
  0C:2C04B    A$uip$5460
  0C:2C04E    A$uip$5463
  0C:2C04E    C$uip.c$1536$6$72
  0C:2C050    A$uip$5467
  0C:2C050    C$uip.c$1540$6$73
  0C:2C053    A$uip$5468
  0C:2C054    A$uip$5469
  0C:2C056    A$uip$5470
  0C:2C058    A$uip$5471
  0C:2C05A    A$uip$5472
  0C:2C05C    A$uip$5473
  0C:2C05D    A$uip$5474
  0C:2C05E    A$uip$5475
  0C:2C05F    A$uip$5476
  0C:2C060    A$uip$5477
  0C:2C061    A$uip$5478
  0C:2C062    A$uip$5479
  0C:2C064    A$uip$5480
  0C:2C065    A$uip$5481
  0C:2C066    A$uip$5482
  0C:2C068    A$uip$5483
  0C:2C069    A$uip$5484
  0C:2C06B    A$uip$5485
  0C:2C06D    A$uip$5486
  0C:2C06E    A$uip$5487
  0C:2C070    A$uip$5490
  0C:2C070    C$uip.c$1545$6$73
  0C:2C072    A$uip$5491
  0C:2C073    A$uip$5492
  0C:2C074    A$uip$5493
  0C:2C075    A$uip$5494
  0C:2C076    A$uip$5495
  0C:2C077    A$uip$5496
  0C:2C078    A$uip$5497
  0C:2C07A    A$uip$5498
  0C:2C07C    A$uip$5499
  0C:2C07D    A$uip$5500
  0C:2C07F    A$uip$5501
  0C:2C081    A$uip$5502
  0C:2C082    A$uip$5503
  0C:2C083    A$uip$5504
  0C:2C086    A$uip$5505
  0C:2C088    A$uip$5506
  0C:2C089    A$uip$5507
  0C:2C08C    A$uip$5511
  0C:2C08C    C$uip.c$1549$3$67
  0C:2C08F    A$uip$5512
  0C:2C090    A$uip$5513
  0C:2C092    A$uip$5514
  0C:2C093    A$uip$5515
  0C:2C094    A$uip$5516
  0C:2C096    A$uip$5517
  0C:2C097    A$uip$5518
  0C:2C098    A$uip$5519
  0C:2C09A    A$uip$5520
  0C:2C09C    A$uip$5521
  0C:2C09E    A$uip$5522
  0C:2C09F    A$uip$5523
  0C:2C0A0    A$uip$5524
  0C:2C0A2    A$uip$5525
  0C:2C0A3    A$uip$5526
  0C:2C0A5    A$uip$5527
  0C:2C0A7    A$uip$5528
  0C:2C0A9    A$uip$5529
  0C:2C0AB    A$uip$5530
  0C:2C0AD    A$uip$5531
  0C:2C0B0    A$uip$5534
  0C:2C0B0    C$uip.c$1550$3$67
  0C:2C0B2    A$uip$5535
  0C:2C0B4    A$uip$5536
  0C:2C0B6    A$uip$5537
  0C:2C0B7    A$uip$5538
  0C:2C0B9    A$uip$5539
  0C:2C0BB    A$uip$5540
  0C:2C0BE    A$uip$5541
  0C:2C0C0    A$uip$5542
  0C:2C0C2    A$uip$5543
  0C:2C0C4    A$uip$5544
  0C:2C0C6    A$uip$5545
  0C:2C0C8    A$uip$5546
  0C:2C0CA    A$uip$5547
  0C:2C0CD    A$uip$5548
  0C:2C0D0    A$uip$5549
  0C:2C0D3    A$uip$5550
  0C:2C0D6    A$uip$5551
  0C:2C0D9    A$uip$5554
  0C:2C0D9    C$uip.c$1551$3$67
  0C:2C0DB    A$uip$5555
  0C:2C0DD    A$uip$5556
  0C:2C0DF    A$uip$5557
  0C:2C0E0    A$uip$5558
  0C:2C0E2    A$uip$5559
  0C:2C0E4    A$uip$5560
  0C:2C0E7    A$uip$5561
  0C:2C0E9    A$uip$5562
  0C:2C0EB    A$uip$5563
  0C:2C0EC    A$uip$5564
  0C:2C0ED    A$uip$5565
  0C:2C0EF    A$uip$5566
  0C:2C0F0    A$uip$5567
  0C:2C0F2    A$uip$5568
  0C:2C0F5    A$uip$5569
  0C:2C0F8    A$uip$5570
  0C:2C0FB    A$uip$5571
  0C:2C0FD    A$uip$5572
  0C:2C0FF    A$uip$5573
  0C:2C101    A$uip$5574
  0C:2C104    A$uip$5577
  0C:2C104    C$uip.c$1552$3$67
  0C:2C106    A$uip$5578
  0C:2C108    A$uip$5579
  0C:2C109    A$uip$5580
  0C:2C10A    A$uip$5581
  0C:2C10C    A$uip$5582
  0C:2C10D    A$uip$5583
  0C:2C10F    A$uip$5584
  0C:2C112    A$uip$5585
  0C:2C115    A$uip$5586
  0C:2C118    A$uip$5587
  0C:2C11A    A$uip$5588
  0C:2C11C    A$uip$5589
  0C:2C11E    A$uip$5590
  0C:2C121    A$uip$5593
  0C:2C121    C$uip.c$1553$3$67
  0C:2C123    A$uip$5594
  0C:2C125    A$uip$5595
  0C:2C126    A$uip$5596
  0C:2C127    A$uip$5597
  0C:2C129    A$uip$5598
  0C:2C12A    A$uip$5599
  0C:2C12C    A$uip$5600
  0C:2C12F    A$uip$5601
  0C:2C132    A$uip$5602
  0C:2C135    A$uip$5603
  0C:2C137    A$uip$5604
  0C:2C139    A$uip$5605
  0C:2C13B    A$uip$5606
  0C:2C13E    A$uip$5609
  0C:2C13E    C$uip.c$1554$3$67
  0C:2C141    A$uip$5610
  0C:2C144    A$uip$5613
  0C:2C144    C$uip.c$1555$3$67
  0C:2C147    A$uip$5614
  0C:2C149    A$uip$5615
  0C:2C14A    A$uip$5618
  0C:2C14A    C$uip.c$1556$3$67
  0C:2C14C    A$uip$5619
  0C:2C14E    A$uip$5620
  0C:2C14F    A$uip$5621
  0C:2C150    A$uip$5622
  0C:2C152    A$uip$5623
  0C:2C153    A$uip$5624
  0C:2C155    A$uip$5625
  0C:2C157    A$uip$5626
  0C:2C159    A$uip$5627
  0C:2C15B    A$uip$5628
  0C:2C15C    A$uip$5629
  0C:2C15F    A$uip$5630
  0C:2C160    A$uip$5631
  0C:2C161    A$uip$5632
  0C:2C164    A$uip$5635
  0C:2C164    C$uip.c$1557$3$67
  0C:2C167    A$uip$5636
  0C:2C168    A$uip$5637
  0C:2C169    A$uip$5638
  0C:2C16A    A$uip$5639
  0C:2C16B    A$uip$5642
  0C:2C16B    C$uip.c$1558$3$67
  0C:2C16E    A$uip$5643
  0C:2C16F    A$uip$5644
  0C:2C170    A$uip$5645
  0C:2C171    A$uip$5646
  0C:2C172    A$uip$5649
  0C:2C172    C$uip.c$1559$3$67
  0C:2C175    A$uip$5652
  0C:2C175    C$uip.c$1560$3$67
  0C:2C178    A$uip$5656
  0C:2C178    C$uip.c$1563$2$63
  0C:2C17B    A$uip$5657
  0C:2C17D    A$uip$5658
  0C:2C17E    A$uip$5661
  0C:2C17E    C$uip.c$1564$2$63
  0C:2C181    A$uip$5664
  0C:2C181    C$uip.c$1566$2$63
  0C:2C184    A$uip$5665
  0C:2C185    A$uip$5666
  0C:2C186    A$uip$5667
  0C:2C187    A$uip$5668
  0C:2C188    A$uip$5669
  0C:2C189    A$uip$5670
  0C:2C18A    A$uip$5671
  0C:2C18B    A$uip$5672
  0C:2C18C    A$uip$5673
  0C:2C18E    A$uip$5674
  0C:2C18F    A$uip$5675
  0C:2C190    A$uip$5676
  0C:2C191    A$uip$5677
  0C:2C192    A$uip$5678
  0C:2C193    A$uip$5679
  0C:2C195    A$uip$5680
  0C:2C197    A$uip$5681
  0C:2C199    A$uip$5682
  0C:2C19A    A$uip$5683
  0C:2C19D    A$uip$5686
  0C:2C19D    C$uip.c$1567$2$63
  0C:2C1A0    A$uip$5692
  0C:2C1A0    C$uip.c$1570$2$63
  0C:2C1A0    C$uip.c$1582$2$63
  0C:2C1A3    A$uip$5693
  0C:2C1A6    A$uip$5694
  0C:2C1A9    A$uip$5695
  0C:2C1AA    A$uip$5696
  0C:2C1AD    A$uip$5697
  0C:2C1B0    A$uip$5699
  0C:2C1B1    A$uip$5700
  0C:2C1B4    A$uip$5701
  0C:2C1B7    A$uip$5705
  0C:2C1B7    C$uip.c$1583$3$75
  0C:2C1B9    A$uip$5706
  0C:2C1BB    A$uip$5707
  0C:2C1BC    A$uip$5708
  0C:2C1BD    A$uip$5709
  0C:2C1BF    A$uip$5710
  0C:2C1C0    A$uip$5711
  0C:2C1C2    A$uip$5712
  0C:2C1C4    A$uip$5713
  0C:2C1C6    A$uip$5714
  0C:2C1C8    A$uip$5715
  0C:2C1CB    A$uip$5716
  0C:2C1CC    A$uip$5717
  0C:2C1CD    A$uip$5718
  0C:2C1D0    A$uip$5719
  0C:2C1D1    A$uip$5720
  0C:2C1D2    A$uip$5721
  0C:2C1D4    A$uip$5722
  0C:2C1D7    A$uip$5726
  0C:2C1D7    C$uip.c$1586$3$75
  0C:2C1DA    A$uip$5727
  0C:2C1DB    A$uip$5728
  0C:2C1DC    A$uip$5729
  0C:2C1DD    A$uip$5730
  0C:2C1DE    A$uip$5731
  0C:2C1DF    A$uip$5732
  0C:2C1E0    A$uip$5733
  0C:2C1E3    A$uip$5734
  0C:2C1E4    A$uip$5736
  0C:2C1E6    A$uip$5737
  0C:2C1E8    A$uip$5738
  0C:2C1EB    A$uip$5741
  0C:2C1EB    C$uip.c$1587$3$75
  0C:2C1EE    A$uip$5742
  0C:2C1EF    A$uip$5743
  0C:2C1F1    A$uip$5744
  0C:2C1F2    A$uip$5747
  0C:2C1F2    C$uip.c$1588$3$75
  0C:2C1F5    A$uip$5748
  0C:2C1F6    A$uip$5749
  0C:2C1F7    A$uip$5750
  0C:2C1F8    A$uip$5751
  0C:2C1F9    A$uip$5752
  0C:2C1FA    A$uip$5753
  0C:2C1FB    A$uip$5754
  0C:2C1FD    A$uip$5757
  0C:2C1FD    C$uip.c$1589$4$77
  0C:2C200    A$uip$5758
  0C:2C201    A$uip$5759
  0C:2C202    A$uip$5760
  0C:2C204    A$uip$5761
  0C:2C205    A$uip$5765
  0C:2C205    C$uip.c$1591$3$75
  0C:2C208    A$uip$5768
  0C:2C208    C$uip.c$1592$3$75
  0C:2C20B    A$uip$5769
  0C:2C20C    A$uip$5770
  0C:2C20E    A$uip$5771
  0C:2C20F    A$uip$5772
  0C:2C210    A$uip$5773
  0C:2C212    A$uip$5774
  0C:2C213    A$uip$5775
  0C:2C214    A$uip$5776
  0C:2C216    A$uip$5777
  0C:2C218    A$uip$5778
  0C:2C21A    A$uip$5779
  0C:2C21B    A$uip$5780
  0C:2C21C    A$uip$5781
  0C:2C21E    A$uip$5782
  0C:2C21F    A$uip$5783
  0C:2C221    A$uip$5784
  0C:2C223    A$uip$5785
  0C:2C225    A$uip$5786
  0C:2C227    A$uip$5787
  0C:2C229    A$uip$5788
  0C:2C22C    A$uip$5789
  0C:2C22D    A$uip$5790
  0C:2C22E    A$uip$5791
  0C:2C231    A$uip$5794
  0C:2C231    C$uip.c$1593$3$75
  0C:2C233    A$uip$5795
  0C:2C235    A$uip$5796
  0C:2C236    A$uip$5797
  0C:2C237    A$uip$5798
  0C:2C239    A$uip$5799
  0C:2C23A    A$uip$5800
  0C:2C23C    A$uip$5801
  0C:2C23E    A$uip$5802
  0C:2C240    A$uip$5803
  0C:2C242    A$uip$5804
  0C:2C244    A$uip$5805
  0C:2C247    A$uip$5808
  0C:2C247    C$uip.c$1594$3$75
  0C:2C249    A$uip$5809
  0C:2C24B    A$uip$5810
  0C:2C24C    A$uip$5811
  0C:2C24D    A$uip$5812
  0C:2C24F    A$uip$5813
  0C:2C250    A$uip$5814
  0C:2C252    A$uip$5815
  0C:2C254    A$uip$5816
  0C:2C256    A$uip$5817
  0C:2C258    A$uip$5818
  0C:2C259    A$uip$5819
  0C:2C25C    A$uip$5825
  0C:2C25C    C$uip.c$1595$3$75
  0C:2C25C    C$uip.c$1596$3$75
  0C:2C25F    A$uip$5826
  0C:2C262    A$uip$5827
  0C:2C264    A$uip$5828
  0C:2C267    A$uip$5831
  0C:2C267    C$uip.c$1597$3$75
  0C:2C26A    A$uip$5835
  0C:2C26A    C$uip.c$1602$2$63
  0C:2C26D    A$uip$5836
  0C:2C270    A$uip$5837
  0C:2C273    A$uip$5838
  0C:2C274    A$uip$5839
  0C:2C277    A$uip$5842
  0C:2C277    C$uip.c$1616$3$78
  0C:2C27A    A$uip$5843
  0C:2C27B    A$uip$5844
  0C:2C27D    A$uip$5845
  0C:2C27E    A$uip$5846
  0C:2C27F    A$uip$5847
  0C:2C281    A$uip$5848
  0C:2C282    A$uip$5849
  0C:2C283    A$uip$5850
  0C:2C285    A$uip$5851
  0C:2C287    A$uip$5852
  0C:2C289    A$uip$5853
  0C:2C28B    A$uip$5854
  0C:2C28D    A$uip$5855
  0C:2C28F    A$uip$5856
  0C:2C291    A$uip$5857
  0C:2C294    A$uip$5858
  0C:2C295    A$uip$5859
  0C:2C297    A$uip$5860
  0C:2C29A    A$uip$5861
  0C:2C29D    A$uip$5862
  0C:2C2A0    A$uip$5863
  0C:2C2A2    A$uip$5864
  0C:2C2A4    A$uip$5865
  0C:2C2A5    A$uip$5866
  0C:2C2A7    A$uip$5867
  0C:2C2AA    A$uip$5868
  0C:2C2AB    A$uip$5869
  0C:2C2AD    A$uip$5870
  0C:2C2AE    A$uip$5871
  0C:2C2AF    A$uip$5872
  0C:2C2B1    A$uip$5873
  0C:2C2B2    A$uip$5874
  0C:2C2B3    A$uip$5875
  0C:2C2B4    A$uip$5876
  0C:2C2B6    A$uip$5877
  0C:2C2B7    A$uip$5880
  0C:2C2B7    C$uip.c$1617$3$78
  0C:2C2B9    A$uip$5881
  0C:2C2BB    A$uip$5882
  0C:2C2BD    A$uip$5883
  0C:2C2BF    A$uip$5884
  0C:2C2C1    A$uip$5885
  0C:2C2C3    A$uip$5886
  0C:2C2C6    A$uip$5887
  0C:2C2C7    A$uip$5888
  0C:2C2C9    A$uip$5889
  0C:2C2CC    A$uip$5890
  0C:2C2CF    A$uip$5891
  0C:2C2D2    A$uip$5892
  0C:2C2D4    A$uip$5893
  0C:2C2D6    A$uip$5894
  0C:2C2D7    A$uip$5895
  0C:2C2D9    A$uip$5896
  0C:2C2DC    A$uip$5897
  0C:2C2DD    A$uip$5898
  0C:2C2DE    A$uip$5899
  0C:2C2DF    A$uip$5900
  0C:2C2E0    A$uip$5901
  0C:2C2E1    A$uip$5902
  0C:2C2E4    A$uip$5903
  0C:2C2E5    A$uip$5904
  0C:2C2E6    A$uip$5905
  0C:2C2E7    A$uip$5906
  0C:2C2E8    A$uip$5907
  0C:2C2E9    A$uip$5908
  0C:2C2EA    A$uip$5909
  0C:2C2EB    A$uip$5910
  0C:2C2EC    A$uip$5914
  0C:2C2EC    C$uip.c$1626$2$63
  0C:2C2EF    A$uip$5915
  0C:2C2F0    A$uip$5916
  0C:2C2F1    A$uip$5917
  0C:2C2F2    A$uip$5918
  0C:2C2F3    A$uip$5919
  0C:2C2F4    A$uip$5920
  0C:2C2F5    A$uip$5921
  0C:2C2F7    A$uip$5922
  0C:2C2FA    A$uip$5923
  0C:2C2FB    A$uip$5924
  0C:2C2FC    A$uip$5925
  0C:2C2FD    A$uip$5926
  0C:2C2FE    A$uip$5927
  0C:2C2FF    A$uip$5928
  0C:2C300    A$uip$5929
  0C:2C301    A$uip$5930
  0C:2C302    A$uip$5931
  0C:2C304    A$uip$5932
  0C:2C305    A$uip$5933
  0C:2C306    A$uip$5934
  0C:2C307    A$uip$5935
  0C:2C308    A$uip$5936
  0C:2C309    A$uip$5937
  0C:2C30B    A$uip$5938
  0C:2C30D    A$uip$5939
  0C:2C30F    A$uip$5940
  0C:2C312    A$uip$5941
  0C:2C313    A$uip$5942
  0C:2C316    A$uip$5945
  0C:2C316    C$uip.c$1627$3$79
  0C:2C319    A$uip$5946
  0C:2C31A    A$uip$5947
  0C:2C31C    A$uip$5948
  0C:2C31D    A$uip$5951
  0C:2C31D    C$uip.c$1628$3$79
  0C:2C31F    A$uip$5952
  0C:2C321    A$uip$5953
  0C:2C324    A$uip$5957
  0C:2C324    C$uip.c$1643$2$63
  0C:2C326    A$uip$5958
  0C:2C328    A$uip$5959
  0C:2C32A    A$uip$5960
  0C:2C32C    A$uip$5961
  0C:2C32E    A$uip$5962
  0C:2C330    A$uip$5963
  0C:2C333    A$uip$5964
  0C:2C334    A$uip$5965
  0C:2C336    A$uip$5966
  0C:2C339    A$uip$5967
  0C:2C33C    A$uip$5968
  0C:2C33F    A$uip$5969
  0C:2C341    A$uip$5970
  0C:2C342    A$uip$5971
  0C:2C343    A$uip$5972
  0C:2C344    A$uip$5973
  0C:2C345    A$uip$5974
  0C:2C346    A$uip$5975
  0C:2C349    A$uip$5976
  0C:2C34A    A$uip$5977
  0C:2C34B    A$uip$5978
  0C:2C34C    A$uip$5979
  0C:2C34D    A$uip$5980
  0C:2C34E    A$uip$5983
  0C:2C34E    C$uip.c$1644$2$63
  0C:2C351    A$uip$5984
  0C:2C352    A$uip$5985
  0C:2C353    A$uip$5986
  0C:2C354    A$uip$5987
  0C:2C355    A$uip$5988
  0C:2C356    A$uip$5989
  0C:2C357    A$uip$5990
  0C:2C358    A$uip$5991
  0C:2C359    A$uip$5992
  0C:2C35B    A$uip$5993
  0C:2C35C    A$uip$5994
  0C:2C35D    A$uip$5995
  0C:2C35E    A$uip$5996
  0C:2C35F    A$uip$5997
  0C:2C360    A$uip$5998
  0C:2C362    A$uip$5999
  0C:2C364    A$uip$6000
  0C:2C366    A$uip$6001
  0C:2C369    A$uip$6002
  0C:2C36A    A$uip$6003
  0C:2C36B    A$uip$6004
  0C:2C36E    A$uip$6005
  0C:2C36F    A$uip$6006
  0C:2C370    A$uip$6007
  0C:2C371    A$uip$6008
  0C:2C372    A$uip$6009
  0C:2C373    A$uip$6010
  0C:2C374    A$uip$6011
  0C:2C376    A$uip$6014
  0C:2C376    C$uip.c$1645$2$63
  0C:2C377    A$uip$6015
  0C:2C378    A$uip$6016
  0C:2C37A    A$uip$6020
  0C:2C37A    C$uip.c$1646$3$80
  0C:2C37D    A$uip$6021
  0C:2C37E    A$uip$6022
  0C:2C37F    A$uip$6023
  0C:2C380    A$uip$6024
  0C:2C381    A$uip$6025
  0C:2C382    A$uip$6026
  0C:2C383    A$uip$6027
  0C:2C384    A$uip$6028
  0C:2C385    A$uip$6029
  0C:2C387    A$uip$6030
  0C:2C388    A$uip$6031
  0C:2C389    A$uip$6032
  0C:2C38A    A$uip$6033
  0C:2C38B    A$uip$6034
  0C:2C38C    A$uip$6035
  0C:2C38E    A$uip$6036
  0C:2C390    A$uip$6037
  0C:2C392    A$uip$6038
  0C:2C395    A$uip$6039
  0C:2C396    A$uip$6040
  0C:2C397    A$uip$6041
  0C:2C39A    A$uip$6042
  0C:2C39B    A$uip$6043
  0C:2C39E    A$uip$6044
  0C:2C39F    A$uip$6045
  0C:2C3A0    A$uip$6046
  0C:2C3A1    A$uip$6047
  0C:2C3A2    A$uip$6048
  0C:2C3A3    A$uip$6052
  0C:2C3A3    C$uip.c$1648$2$63
  0C:2C3A6    A$uip$6053
  0C:2C3A7    A$uip$6054
  0C:2C3A8    A$uip$6055
  0C:2C3A9    A$uip$6056
  0C:2C3AA    A$uip$6057
  0C:2C3AB    A$uip$6058
  0C:2C3AC    A$uip$6059
  0C:2C3AD    A$uip$6060
  0C:2C3AE    A$uip$6061
  0C:2C3B0    A$uip$6062
  0C:2C3B1    A$uip$6063
  0C:2C3B2    A$uip$6064
  0C:2C3B3    A$uip$6065
  0C:2C3B4    A$uip$6066
  0C:2C3B5    A$uip$6067
  0C:2C3B8    A$uip$6068
  0C:2C3B9    A$uip$6069
  0C:2C3BA    A$uip$6070
  0C:2C3BB    A$uip$6071
  0C:2C3BC    A$uip$6072
  0C:2C3BD    A$uip$6073
  0C:2C3BF    A$uip$6074
  0C:2C3C1    A$uip$6075
  0C:2C3C3    A$uip$6076
  0C:2C3C4    A$uip$6077
  0C:2C3C7    A$uip$6078
  0C:2C3C8    A$uip$6079
  0C:2C3C9    A$uip$6080
  0C:2C3CC    A$uip$6083
  0C:2C3CC    C$uip.c$1666$2$63
  0C:2C3CF    A$uip$6084
  0C:2C3D0    A$uip$6085
  0C:2C3D1    A$uip$6086
  0C:2C3D3    A$uip$6087
  0C:2C3D5    A$uip$6088
  0C:2C3D8    A$uip$6092
  0C:2C3D8    C$uip.c$1667$3$81
  0C:2C3DB    A$uip$6093
  0C:2C3DC    A$uip$6094
  0C:2C3DD    A$uip$6095
  0C:2C3DE    A$uip$6096
  0C:2C3DF    A$uip$6099
  0C:2C3DF    C$uip.c$1668$3$81
  0C:2C3E2    A$uip$6105
  0C:2C3E2    C$uip.c$1670$3$81
  0C:2C3E2    C$uip.c$1672$3$81
  0C:2C3E5    A$uip$6106
  0C:2C3E6    A$uip$6107
  0C:2C3E7    A$uip$6108
  0C:2C3EA    A$uip$6111
  0C:2C3EA    C$uip.c$1673$4$82
  0C:2C3ED    A$uip$6112
  0C:2C3EE    A$uip$6113
  0C:2C3EF    A$uip$6114
  0C:2C3F0    A$uip$6115
  0C:2C3F1    A$uip$6118
  0C:2C3F1    C$uip.c$1674$4$82
  0C:2C3F4    A$uip$6119
  0C:2C3F5    A$uip$6120
  0C:2C3F6    A$uip$6121
  0C:2C3F7    A$uip$6122
  0C:2C3F8    A$uip$6123
  0C:2C3F9    A$uip$6124
  0C:2C3FA    A$uip$6125
  0C:2C3FB    A$uip$6126
  0C:2C3FC    A$uip$6127
  0C:2C3FE    A$uip$6128
  0C:2C3FF    A$uip$6129
  0C:2C400    A$uip$6130
  0C:2C401    A$uip$6131
  0C:2C402    A$uip$6132
  0C:2C403    A$uip$6133
  0C:2C405    A$uip$6134
  0C:2C407    A$uip$6135
  0C:2C409    A$uip$6136
  0C:2C40A    A$uip$6137
  0C:2C40D    A$uip$6140
  0C:2C40D    C$uip.c$1675$4$82
  0C:2C410    A$uip$6141
  0C:2C413    A$uip$6142
  0C:2C415    A$uip$6143
  0C:2C418    A$uip$6146
  0C:2C418    C$uip.c$1676$4$82
  0C:2C41B    A$uip$6150
  0C:2C41B    C$uip.c$1679$3$81
  0C:2C41C    A$uip$6151
  0C:2C41F    A$uip$6154
  0C:2C41F    C$uip.c$1680$4$83
  0C:2C422    A$uip$6155
  0C:2C423    A$uip$6156
  0C:2C424    A$uip$6157
  0C:2C425    A$uip$6158
  0C:2C426    A$uip$6161
  0C:2C426    C$uip.c$1681$4$83
  0C:2C429    A$uip$6162
  0C:2C42A    A$uip$6163
  0C:2C42C    A$uip$6164
  0C:2C42D    A$uip$6165
  0C:2C42E    A$uip$6166
  0C:2C430    A$uip$6167
  0C:2C431    A$uip$6168
  0C:2C432    A$uip$6169
  0C:2C434    A$uip$6170
  0C:2C436    A$uip$6171
  0C:2C438    A$uip$6172
  0C:2C439    A$uip$6173
  0C:2C43A    A$uip$6174
  0C:2C43C    A$uip$6175
  0C:2C43D    A$uip$6176
  0C:2C43F    A$uip$6177
  0C:2C441    A$uip$6178
  0C:2C443    A$uip$6179
  0C:2C445    A$uip$6180
  0C:2C447    A$uip$6181
  0C:2C44A    A$uip$6182
  0C:2C44B    A$uip$6183
  0C:2C44C    A$uip$6184
  0C:2C44F    A$uip$6187
  0C:2C44F    C$uip.c$1682$4$83
  0C:2C451    A$uip$6188
  0C:2C453    A$uip$6189
  0C:2C454    A$uip$6190
  0C:2C455    A$uip$6191
  0C:2C457    A$uip$6192
  0C:2C458    A$uip$6193
  0C:2C45A    A$uip$6194
  0C:2C45C    A$uip$6195
  0C:2C45E    A$uip$6196
  0C:2C460    A$uip$6197
  0C:2C462    A$uip$6198
  0C:2C465    A$uip$6201
  0C:2C465    C$uip.c$1683$4$83
  0C:2C467    A$uip$6202
  0C:2C469    A$uip$6203
  0C:2C46A    A$uip$6204
  0C:2C46B    A$uip$6205
  0C:2C46D    A$uip$6206
  0C:2C46E    A$uip$6207
  0C:2C470    A$uip$6208
  0C:2C472    A$uip$6209
  0C:2C474    A$uip$6210
  0C:2C476    A$uip$6211
  0C:2C477    A$uip$6212
  0C:2C47A    A$uip$6215
  0C:2C47A    C$uip.c$1684$4$83
  0C:2C47D    A$uip$6216
  0C:2C480    A$uip$6217
  0C:2C482    A$uip$6218
  0C:2C485    A$uip$6221
  0C:2C485    C$uip.c$1685$4$83
  0C:2C488    A$uip$6225
  0C:2C488    C$uip.c$1689$3$81
  0C:2C48B    A$uip$6226
  0C:2C48C    A$uip$6227
  0C:2C48D    A$uip$6228
  0C:2C48E    A$uip$6229
  0C:2C48F    A$uip$6230
  0C:2C490    A$uip$6231
  0C:2C491    A$uip$6232
  0C:2C493    A$uip$6233
  0C:2C496    A$uip$6237
  0C:2C496    C$uip.c$1693$4$84
  0C:2C497    A$uip$6238
  0C:2C49A    A$uip$6241
  0C:2C49A    C$uip.c$1694$5$85
  0C:2C49D    A$uip$6242
  0C:2C49E    A$uip$6243
  0C:2C49F    A$uip$6244
  0C:2C4A0    A$uip$6245
  0C:2C4A1    A$uip$6246
  0C:2C4A2    A$uip$6247
  0C:2C4A3    A$uip$6248
  0C:2C4A4    A$uip$6249
  0C:2C4A5    A$uip$6250
  0C:2C4A7    A$uip$6251
  0C:2C4A8    A$uip$6252
  0C:2C4A9    A$uip$6253
  0C:2C4AA    A$uip$6254
  0C:2C4AB    A$uip$6255
  0C:2C4AC    A$uip$6256
  0C:2C4AE    A$uip$6257
  0C:2C4B0    A$uip$6258
  0C:2C4B2    A$uip$6259
  0C:2C4B3    A$uip$6260
  0C:2C4B6    A$uip$6261
  0C:2C4B7    A$uip$6262
  0C:2C4B8    A$uip$6263
  0C:2C4BB    A$uip$6267
  0C:2C4BB    C$uip.c$1700$4$84
  0C:2C4BE    A$uip$6268
  0C:2C4BF    A$uip$6269
  0C:2C4C1    A$uip$6270
  0C:2C4C2    A$uip$6271
  0C:2C4C3    A$uip$6272
  0C:2C4C5    A$uip$6273
  0C:2C4C6    A$uip$6274
  0C:2C4C7    A$uip$6275
  0C:2C4C9    A$uip$6276
  0C:2C4CB    A$uip$6277
  0C:2C4CD    A$uip$6278
  0C:2C4CE    A$uip$6279
  0C:2C4CF    A$uip$6280
  0C:2C4D1    A$uip$6281
  0C:2C4D2    A$uip$6282
  0C:2C4D4    A$uip$6283
  0C:2C4D6    A$uip$6284
  0C:2C4D8    A$uip$6285
  0C:2C4DA    A$uip$6286
  0C:2C4DD    A$uip$6287
  0C:2C4DE    A$uip$6288
  0C:2C4DF    A$uip$6289
  0C:2C4E2    A$uip$6290
  0C:2C4E3    A$uip$6291
  0C:2C4E4    A$uip$6292
  0C:2C4E6    A$uip$6295
  0C:2C4E6    C$uip.c$1705$5$86
  0C:2C4E8    A$uip$6296
  0C:2C4EA    A$uip$6297
  0C:2C4EB    A$uip$6298
  0C:2C4EC    A$uip$6299
  0C:2C4EE    A$uip$6300
  0C:2C4EF    A$uip$6301
  0C:2C4F1    A$uip$6302
  0C:2C4F3    A$uip$6303
  0C:2C4F5    A$uip$6304
  0C:2C4F7    A$uip$6305
  0C:2C4FA    A$uip$6306
  0C:2C4FC    A$uip$6307
  0C:2C4FD    A$uip$6308
  0C:2C500    A$uip$6309
  0C:2C502    A$uip$6310
  0C:2C505    A$uip$6311
  0C:2C506    A$uip$6312
  0C:2C507    A$uip$6313
  0C:2C508    A$uip$6314
  0C:2C509    A$uip$6315
  0C:2C50A    A$uip$6316
  0C:2C50B    A$uip$6317
  0C:2C50D    A$uip$6318
  0C:2C50E    A$uip$6319
  0C:2C510    A$uip$6320
  0C:2C511    A$uip$6321
  0C:2C513    A$uip$6324
  0C:2C513    C$uip.c$1706$6$87
  0C:2C516    A$uip$6325
  0C:2C518    A$uip$6326
  0C:2C519    A$uip$6327
  0C:2C51A    A$uip$6328
  0C:2C51C    A$uip$6329
  0C:2C51D    A$uip$6333
  0C:2C51D    C$uip.c$1711$5$86
  0C:2C520    A$uip$6334
  0C:2C521    A$uip$6335
  0C:2C522    A$uip$6336
  0C:2C523    A$uip$6337
  0C:2C524    A$uip$6338
  0C:2C525    A$uip$6339
  0C:2C526    A$uip$6340
  0C:2C527    A$uip$6341
  0C:2C528    A$uip$6342
  0C:2C52A    A$uip$6343
  0C:2C52B    A$uip$6344
  0C:2C52D    A$uip$6345
  0C:2C52E    A$uip$6346
  0C:2C52F    A$uip$6347
  0C:2C531    A$uip$6348
  0C:2C533    A$uip$6349
  0C:2C536    A$uip$6350
  0C:2C537    A$uip$6351
  0C:2C538    A$uip$6352
  0C:2C539    A$uip$6353
  0C:2C53A    A$uip$6354
  0C:2C53B    A$uip$6355
  0C:2C53E    A$uip$6356
  0C:2C541    A$uip$6357
  0C:2C544    A$uip$6358
  0C:2C545    A$uip$6359
  0C:2C548    A$uip$6360
  0C:2C549    A$uip$6361
  0C:2C54A    A$uip$6362
  0C:2C54D    A$uip$6363
  0C:2C54F    A$uip$6367
  0C:2C54F    C$uip.c$1717$5$88
  0C:2C552    A$uip$6368
  0C:2C553    A$uip$6369
  0C:2C554    A$uip$6370
  0C:2C555    A$uip$6371
  0C:2C556    A$uip$6372
  0C:2C557    A$uip$6376
  0C:2C557    C$uip.c$1720$3$81
  0C:2C55A    A$uip$6377
  0C:2C55B    A$uip$6378
  0C:2C55C    A$uip$6379
  0C:2C55D    A$uip$6380
  0C:2C55E    A$uip$6381
  0C:2C55F    A$uip$6382
  0C:2C560    A$uip$6383
  0C:2C561    A$uip$6384
  0C:2C562    A$uip$6385
  0C:2C564    A$uip$6386
  0C:2C565    A$uip$6387
  0C:2C566    A$uip$6388
  0C:2C567    A$uip$6389
  0C:2C568    A$uip$6390
  0C:2C569    A$uip$6391
  0C:2C56B    A$uip$6392
  0C:2C56D    A$uip$6393
  0C:2C56F    A$uip$6394
  0C:2C570    A$uip$6395
  0C:2C573    A$uip$6401
  0C:2C573    C$uip.c$1721$3$81
  0C:2C573    C$uip.c$1722$3$81
  0C:2C576    A$uip$6402
  0C:2C577    A$uip$6403
  0C:2C578    A$uip$6404
  0C:2C579    A$uip$6405
  0C:2C57A    A$uip$6406
  0C:2C57B    A$uip$6407
  0C:2C57C    A$uip$6408
  0C:2C57D    A$uip$6409
  0C:2C57E    A$uip$6410
  0C:2C581    A$uip$6411
  0C:2C582    A$uip$6412
  0C:2C583    A$uip$6413
  0C:2C584    A$uip$6414
  0C:2C585    A$uip$6415
  0C:2C586    A$uip$6416
  0C:2C587    A$uip$6417
  0C:2C588    A$uip$6418
  0C:2C589    A$uip$6421
  0C:2C589    C$uip.c$1726$3$81
  0C:2C58C    A$uip$6422
  0C:2C58D    A$uip$6423
  0C:2C58E    A$uip$6424
  0C:2C58F    A$uip$6425
  0C:2C590    A$uip$6426
  0C:2C591    A$uip$6427
  0C:2C592    A$uip$6428
  0C:2C594    A$uip$6429
  0C:2C597    A$uip$6430
  0C:2C598    A$uip$6431
  0C:2C599    A$uip$6432
  0C:2C59A    A$uip$6433
  0C:2C59B    A$uip$6434
  0C:2C59C    A$uip$6435
  0C:2C59D    A$uip$6436
  0C:2C59E    A$uip$6437
  0C:2C59F    A$uip$6438
  0C:2C5A1    A$uip$6439
  0C:2C5A2    A$uip$6440
  0C:2C5A3    A$uip$6441
  0C:2C5A4    A$uip$6442
  0C:2C5A5    A$uip$6443
  0C:2C5A6    A$uip$6444
  0C:2C5A8    A$uip$6445
  0C:2C5AA    A$uip$6446
  0C:2C5AC    A$uip$6447
  0C:2C5AF    A$uip$6448
  0C:2C5B0    A$uip$6449
  0C:2C5B1    A$uip$6450
  0C:2C5B4    A$uip$6451
  0C:2C5B5    A$uip$6452
  0C:2C5B6    A$uip$6453
  0C:2C5B8    A$uip$6456
  0C:2C5B8    C$uip.c$1728$4$89
  0C:2C5BB    A$uip$6457
  0C:2C5BD    A$uip$6458
  0C:2C5BE    A$uip$6459
  0C:2C5BF    A$uip$6460
  0C:2C5C0    A$uip$6461
  0C:2C5C1    A$uip$6462
  0C:2C5C2    A$uip$6463
  0C:2C5C3    A$uip$6466
  0C:2C5C3    C$uip.c$1730$4$89
  0C:2C5C6    A$uip$6467
  0C:2C5C9    A$uip$6468
  0C:2C5CB    A$uip$6469
  0C:2C5CE    A$uip$6472
  0C:2C5CE    C$uip.c$1732$4$89
  0C:2C5D1    A$uip$6476
  0C:2C5D1    C$uip.c$1736$3$81
  0C:2C5D4    A$uip$6477
  0C:2C5D5    A$uip$6478
  0C:2C5D6    A$uip$6479
  0C:2C5D9    A$uip$6480
  0C:2C5DC    A$uip$6484
  0C:2C5DC    C$uip.c$1737$4$90
  0C:2C5DF    A$uip$6485
  0C:2C5E1    A$uip$6486
  0C:2C5E2    A$uip$6487
  0C:2C5E3    A$uip$6488
  0C:2C5E4    A$uip$6489
  0C:2C5E5    A$uip$6492
  0C:2C5E5    C$uip.c$1738$4$90
  0C:2C5E8    A$uip$6493
  0C:2C5EB    A$uip$6494
  0C:2C5ED    A$uip$6495
  0C:2C5F0    A$uip$6498
  0C:2C5F0    C$uip.c$1739$4$90
  0C:2C5F3    A$uip$6504
  0C:2C5F3    C$uip.c$1743$2$63
  0C:2C5F3    C$uip.c$1746$2$63
  0C:2C5F6    A$uip$6505
  0C:2C5F7    A$uip$6506
  0C:2C5F8    A$uip$6507
  0C:2C5FB    A$uip$6508
  0C:2C5FE    A$uip$6512
  0C:2C5FE    C$uip.c$1747$3$91
  0C:2C600    A$uip$6513
  0C:2C602    A$uip$6514
  0C:2C604    A$uip$6515
  0C:2C605    A$uip$6516
  0C:2C608    A$uip$6519
  0C:2C608    C$uip.c$1748$3$91
  0C:2C60B    A$uip$6520
  0C:2C60D    A$uip$6521
  0C:2C60E    A$uip$6524
  0C:2C60E    C$uip.c$1749$3$91
  0C:2C611    A$uip$6527
  0C:2C611    C$uip.c$1751$2$63
  0C:2C614    A$uip$6533
  0C:2C614    C$uip.c$1753$2$63
  0C:2C614    C$uip.c$1757$2$63
  0C:2C617    A$uip$6534
  0C:2C618    A$uip$6535
  0C:2C619    A$uip$6536
  0C:2C61A    A$uip$6537
  0C:2C61B    A$uip$6538
  0C:2C61C    A$uip$6539
  0C:2C61D    A$uip$6540
  0C:2C61F    A$uip$6543
  0C:2C61F    C$uip.c$1758$3$92
  0C:2C621    A$uip$6544
  0C:2C623    A$uip$6545
  0C:2C626    A$uip$6549
  0C:2C626    C$uip.c$1760$2$63
  0C:2C629    A$uip$6550
  0C:2C62C    A$uip$6551
  0C:2C62F    A$uip$6552
  0C:2C630    A$uip$6553
  0C:2C633    A$uip$6554
  0C:2C636    A$uip$6558
  0C:2C636    C$uip.c$1761$3$93
  0C:2C639    A$uip$6559
  0C:2C63A    A$uip$6560
  0C:2C63B    A$uip$6561
  0C:2C63E    A$uip$6564
  0C:2C63E    C$uip.c$1762$4$94
  0C:2C641    A$uip$6565
  0C:2C642    A$uip$6566
  0C:2C644    A$uip$6567
  0C:2C645    A$uip$6568
  0C:2C646    A$uip$6569
  0C:2C648    A$uip$6570
  0C:2C649    A$uip$6571
  0C:2C64A    A$uip$6572
  0C:2C64C    A$uip$6573
  0C:2C64E    A$uip$6574
  0C:2C650    A$uip$6575
  0C:2C651    A$uip$6576
  0C:2C652    A$uip$6577
  0C:2C654    A$uip$6578
  0C:2C655    A$uip$6579
  0C:2C657    A$uip$6580
  0C:2C659    A$uip$6581
  0C:2C65B    A$uip$6582
  0C:2C65D    A$uip$6583
  0C:2C65F    A$uip$6584
  0C:2C662    A$uip$6587
  0C:2C662    C$uip.c$1763$4$94
  0C:2C664    A$uip$6588
  0C:2C666    A$uip$6589
  0C:2C667    A$uip$6590
  0C:2C668    A$uip$6591
  0C:2C66A    A$uip$6592
  0C:2C66B    A$uip$6593
  0C:2C66D    A$uip$6594
  0C:2C66F    A$uip$6595
  0C:2C671    A$uip$6596
  0C:2C673    A$uip$6597
  0C:2C674    A$uip$6598
  0C:2C677    A$uip$6601
  0C:2C677    C$uip.c$1764$4$94
  0C:2C679    A$uip$6602
  0C:2C67B    A$uip$6603
  0C:2C67C    A$uip$6604
  0C:2C67D    A$uip$6605
  0C:2C67F    A$uip$6606
  0C:2C680    A$uip$6607
  0C:2C682    A$uip$6608
  0C:2C684    A$uip$6609
  0C:2C686    A$uip$6610
  0C:2C688    A$uip$6611
  0C:2C689    A$uip$6612
  0C:2C68C    A$uip$6613
  0C:2C68D    A$uip$6614
  0C:2C68E    A$uip$6615
  0C:2C691    A$uip$6616
  0C:2C693    A$uip$6620
  0C:2C693    C$uip.c$1766$4$95
  0C:2C696    A$uip$6621
  0C:2C697    A$uip$6622
  0C:2C698    A$uip$6623
  0C:2C699    A$uip$6624
  0C:2C69A    A$uip$6625
  0C:2C69B    A$uip$6626
  0C:2C69C    A$uip$6627
  0C:2C69D    A$uip$6628
  0C:2C69E    A$uip$6629
  0C:2C6A0    A$uip$6630
  0C:2C6A1    A$uip$6631
  0C:2C6A2    A$uip$6632
  0C:2C6A3    A$uip$6633
  0C:2C6A4    A$uip$6634
  0C:2C6A5    A$uip$6635
  0C:2C6A7    A$uip$6636
  0C:2C6A9    A$uip$6637
  0C:2C6AB    A$uip$6638
  0C:2C6AD    A$uip$6639
  0C:2C6B0    A$uip$6643
  0C:2C6B0    C$uip.c$1768$3$93
  0C:2C6B3    A$uip$6644
  0C:2C6B6    A$uip$6647
  0C:2C6B6    C$uip.c$1769$3$93
  0C:2C6B9    A$uip$6648
  0C:2C6BB    A$uip$6649
  0C:2C6BC    A$uip$6652
  0C:2C6BC    C$uip.c$1770$3$93
  0C:2C6BF    A$uip$6655
  0C:2C6BF    C$uip.c$1771$3$93
  0C:2C6C2    A$uip$6659
  0C:2C6C2    C$uip.c$1772$2$63
  0C:2C6C5    A$uip$6660
  0C:2C6C6    A$uip$6661
  0C:2C6C7    A$uip$6662
  0C:2C6CA    A$uip$6665
  0C:2C6CA    C$uip.c$1773$3$96
  0C:2C6CD    A$uip$6666
  0C:2C6CE    A$uip$6667
  0C:2C6D0    A$uip$6668
  0C:2C6D1    A$uip$6669
  0C:2C6D2    A$uip$6670
  0C:2C6D4    A$uip$6671
  0C:2C6D5    A$uip$6672
  0C:2C6D6    A$uip$6673
  0C:2C6D8    A$uip$6674
  0C:2C6DA    A$uip$6675
  0C:2C6DC    A$uip$6676
  0C:2C6DD    A$uip$6677
  0C:2C6DE    A$uip$6678
  0C:2C6E0    A$uip$6679
  0C:2C6E1    A$uip$6680
  0C:2C6E3    A$uip$6681
  0C:2C6E5    A$uip$6682
  0C:2C6E7    A$uip$6683
  0C:2C6E9    A$uip$6684
  0C:2C6EB    A$uip$6685
  0C:2C6EE    A$uip$6688
  0C:2C6EE    C$uip.c$1774$3$96
  0C:2C6F0    A$uip$6689
  0C:2C6F2    A$uip$6690
  0C:2C6F3    A$uip$6691
  0C:2C6F4    A$uip$6692
  0C:2C6F6    A$uip$6693
  0C:2C6F7    A$uip$6694
  0C:2C6F9    A$uip$6695
  0C:2C6FB    A$uip$6696
  0C:2C6FD    A$uip$6697
  0C:2C6FF    A$uip$6698
  0C:2C700    A$uip$6699
  0C:2C703    A$uip$6700
  0C:2C704    A$uip$6701
  0C:2C705    A$uip$6702
  0C:2C708    A$uip$6705
  0C:2C708    C$uip.c$1775$3$96
  0C:2C70B    A$uip$6709
  0C:2C70B    C$uip.c$1777$2$63
  0C:2C70E    A$uip$6710
  0C:2C70F    A$uip$6711
  0C:2C710    A$uip$6712
  0C:2C711    A$uip$6713
  0C:2C712    A$uip$6714
  0C:2C713    A$uip$6715
  0C:2C714    A$uip$6716
  0C:2C716    A$uip$6717
  0C:2C719    A$uip$6721
  0C:2C719    C$uip.c$1778$3$97
  0C:2C71C    A$uip$6727
  0C:2C71C    C$uip.c$1782$2$63
  0C:2C71C    C$uip.c$1783$2$63
  0C:2C71F    A$uip$6728
  0C:2C720    A$uip$6729
  0C:2C721    A$uip$6730
  0C:2C722    A$uip$6731
  0C:2C723    A$uip$6732
  0C:2C724    A$uip$6733
  0C:2C725    A$uip$6734
  0C:2C727    A$uip$6737
  0C:2C727    C$uip.c$1784$3$98
  0C:2C729    A$uip$6738
  0C:2C72B    A$uip$6739
  0C:2C72E    A$uip$6743
  0C:2C72E    C$uip.c$1786$2$63
  0C:2C731    A$uip$6744
  0C:2C734    A$uip$6745
  0C:2C737    A$uip$6746
  0C:2C738    A$uip$6747
  0C:2C73B    A$uip$6750
  0C:2C73B    C$uip.c$1787$3$99
  0C:2C73E    A$uip$6751
  0C:2C73F    A$uip$6752
  0C:2C741    A$uip$6753
  0C:2C742    A$uip$6754
  0C:2C743    A$uip$6755
  0C:2C745    A$uip$6756
  0C:2C746    A$uip$6757
  0C:2C747    A$uip$6758
  0C:2C749    A$uip$6759
  0C:2C74B    A$uip$6760
  0C:2C74D    A$uip$6761
  0C:2C74E    A$uip$6762
  0C:2C74F    A$uip$6763
  0C:2C751    A$uip$6764
  0C:2C752    A$uip$6765
  0C:2C754    A$uip$6766
  0C:2C756    A$uip$6767
  0C:2C758    A$uip$6768
  0C:2C75A    A$uip$6769
  0C:2C75C    A$uip$6770
  0C:2C75F    A$uip$6773
  0C:2C75F    C$uip.c$1788$3$99
  0C:2C761    A$uip$6774
  0C:2C763    A$uip$6775
  0C:2C764    A$uip$6776
  0C:2C765    A$uip$6777
  0C:2C767    A$uip$6778
  0C:2C768    A$uip$6779
  0C:2C76A    A$uip$6780
  0C:2C76C    A$uip$6781
  0C:2C76E    A$uip$6782
  0C:2C770    A$uip$6783
  0C:2C771    A$uip$6784
  0C:2C774    A$uip$6787
  0C:2C774    C$uip.c$1789$3$99
  0C:2C777    A$uip$6788
  0C:2C77A    A$uip$6791
  0C:2C77A    C$uip.c$1790$3$99
  0C:2C77D    A$uip$6792
  0C:2C77F    A$uip$6793
  0C:2C780    A$uip$6796
  0C:2C780    C$uip.c$1791$3$99
  0C:2C783    A$uip$6799
  0C:2C783    C$uip.c$1792$3$99
  0C:2C785    A$uip$6803
  0C:2C785    C$uip.c$1794$2$63
  0C:2C788    A$uip$6804
  0C:2C789    A$uip$6805
  0C:2C78A    A$uip$6806
  0C:2C78B    A$uip$6807
  0C:2C78C    A$uip$6808
  0C:2C78D    A$uip$6809
  0C:2C78E    A$uip$6810
  0C:2C790    A$uip$6811
  0C:2C793    A$uip$6817
  0C:2C793    C$uip.c$1795$3$100
  0C:2C793    C$uip.c$1799$2$63
  0C:2C795    A$uip$6823
  0C:2C795    C$uip.c$1800$2$63
  0C:2C795    C$uip.c$1802$2$63
  0C:2C797    A$uip$6827
  0C:2C797    C$uip.c$1803$2$63
  0C:2C79A    A$uip$6828
  0C:2C79B    A$uip$6829
  0C:2C79C    A$uip$6830
  0C:2C79F    A$uip$6831
  0C:2C7A2    A$uip$6835
  0C:2C7A2    C$uip.c$1804$3$101
  0C:2C7A4    A$uip$6836
  0C:2C7A6    A$uip$6837
  0C:2C7A8    A$uip$6838
  0C:2C7AA    A$uip$6839
  0C:2C7AD    A$uip$6842
  0C:2C7AD    C$uip.c$1805$3$101
  0C:2C7AF    A$uip$6843
  0C:2C7B1    A$uip$6844
  0C:2C7B2    A$uip$6845
  0C:2C7B3    A$uip$6846
  0C:2C7B5    A$uip$6847
  0C:2C7B6    A$uip$6848
  0C:2C7B8    A$uip$6849
  0C:2C7BA    A$uip$6850
  0C:2C7BC    A$uip$6851
  0C:2C7BE    A$uip$6852
  0C:2C7BF    A$uip$6853
  0C:2C7C2    A$uip$6859
  0C:2C7C2    C$uip.c$1807$1$1
  0C:2C7C2    C$uip.c$1808$1$1
  0C:2C7C5    A$uip$6865
  0C:2C7C5    C$uip.c$1813$1$1
  0C:2C7C5    C$uip.c$1814$1$1
  0C:2C7C8    A$uip$6866
  0C:2C7CB    A$uip$6867
  0C:2C7CD    A$uip$6868
  0C:2C7D0    A$uip$6874
  0C:2C7D0    C$uip.c$1815$1$1
  0C:2C7D0    C$uip.c$1816$1$1
  0C:2C7D3    A$uip$6875
  0C:2C7D5    A$uip$6876
  0C:2C7D6    A$uip$6877
  0C:2C7D7    A$uip$6878
  0C:2C7D8    A$uip$6879
  0C:2C7D9    A$uip$6885
  0C:2C7D9    C$uip.c$1817$1$1
  0C:2C7D9    C$uip.c$1818$1$1
  0C:2C7DC    A$uip$6886
  0C:2C7DF    A$uip$6887
  0C:2C7E1    A$uip$6888
  0C:2C7E4    A$uip$6894
  0C:2C7E4    C$uip.c$1819$1$1
  0C:2C7E4    C$uip.c$1824$1$1
  0C:2C7E7    A$uip$6895
  0C:2C7EA    A$uip$6896
  0C:2C7ED    A$uip$6897
  0C:2C7F0    A$uip$6898
  0C:2C7F1    A$uip$6899
  0C:2C7F2    A$uip$6900
  0C:2C7F3    A$uip$6901
  0C:2C7F4    A$uip$6902
  0C:2C7F5    A$uip$6903
  0C:2C7F6    A$uip$6904
  0C:2C7F7    A$uip$6905
  0C:2C7F8    A$uip$6906
  0C:2C7FA    A$uip$6907
  0C:2C7FB    A$uip$6908
  0C:2C7FD    A$uip$6909
  0C:2C7FE    A$uip$6910
  0C:2C7FF    A$uip$6911
  0C:2C801    A$uip$6912
  0C:2C803    A$uip$6913
  0C:2C806    A$uip$6914
  0C:2C809    A$uip$6915
  0C:2C80C    A$uip$6916
  0C:2C80F    A$uip$6917
  0C:2C812    A$uip$6918
  0C:2C815    A$uip$6919
  0C:2C818    A$uip$6920
  0C:2C81B    A$uip$6923
  0C:2C81B    C$uip.c$1825$1$1
  0C:2C81D    A$uip$6924
  0C:2C81F    A$uip$6925
  0C:2C820    A$uip$6926
  0C:2C821    A$uip$6927
  0C:2C823    A$uip$6928
  0C:2C824    A$uip$6929
  0C:2C826    A$uip$6930
  0C:2C828    A$uip$6931
  0C:2C82A    A$uip$6932
  0C:2C82C    A$uip$6933
  0C:2C82F    A$uip$6934
  0C:2C830    A$uip$6935
  0C:2C833    A$uip$6936
  0C:2C836    A$uip$6937
  0C:2C837    A$uip$6938
  0C:2C83A    A$uip$6941
  0C:2C83A    C$uip.c$1826$1$1
  0C:2C83C    A$uip$6942
  0C:2C83E    A$uip$6943
  0C:2C83F    A$uip$6944
  0C:2C840    A$uip$6945
  0C:2C842    A$uip$6946
  0C:2C843    A$uip$6947
  0C:2C845    A$uip$6948
  0C:2C847    A$uip$6949
  0C:2C849    A$uip$6950
  0C:2C84B    A$uip$6951
  0C:2C84E    A$uip$6952
  0C:2C84F    A$uip$6953
  0C:2C852    A$uip$6954
  0C:2C855    A$uip$6955
  0C:2C856    A$uip$6956
  0C:2C859    A$uip$6959
  0C:2C859    C$uip.c$1827$1$1
  0C:2C85B    A$uip$6960
  0C:2C85D    A$uip$6961
  0C:2C85E    A$uip$6962
  0C:2C85F    A$uip$6963
  0C:2C861    A$uip$6964
  0C:2C862    A$uip$6965
  0C:2C864    A$uip$6966
  0C:2C866    A$uip$6967
  0C:2C868    A$uip$6968
  0C:2C86A    A$uip$6969
  0C:2C86D    A$uip$6970
  0C:2C86E    A$uip$6971
  0C:2C871    A$uip$6972
  0C:2C874    A$uip$6973
  0C:2C875    A$uip$6974
  0C:2C878    A$uip$6977
  0C:2C878    C$uip.c$1829$1$1
  0C:2C87B    A$uip$6978
  0C:2C87E    A$uip$6979
  0C:2C881    A$uip$6980
  0C:2C883    A$uip$6981
  0C:2C884    A$uip$6982
  0C:2C886    A$uip$6983
  0C:2C887    A$uip$6984
  0C:2C888    A$uip$6985
  0C:2C88A    A$uip$6986
  0C:2C88C    A$uip$6987
  0C:2C88F    A$uip$6988
  0C:2C892    A$uip$6989
  0C:2C895    A$uip$6990
  0C:2C898    A$uip$6991
  0C:2C89B    A$uip$6992
  0C:2C89E    A$uip$6993
  0C:2C8A1    A$uip$6994
  0C:2C8A4    A$uip$6997
  0C:2C8A4    C$uip.c$1830$1$1
  0C:2C8A6    A$uip$6998
  0C:2C8A8    A$uip$6999
  0C:2C8A9    A$uip$7000
  0C:2C8AA    A$uip$7001
  0C:2C8AC    A$uip$7002
  0C:2C8AD    A$uip$7003
  0C:2C8AF    A$uip$7004
  0C:2C8B1    A$uip$7005
  0C:2C8B3    A$uip$7006
  0C:2C8B5    A$uip$7007
  0C:2C8B8    A$uip$7008
  0C:2C8B9    A$uip$7009
  0C:2C8BC    A$uip$7010
  0C:2C8BF    A$uip$7011
  0C:2C8C0    A$uip$7012
  0C:2C8C3    A$uip$7015
  0C:2C8C3    C$uip.c$1831$1$1
  0C:2C8C5    A$uip$7016
  0C:2C8C7    A$uip$7017
  0C:2C8C8    A$uip$7018
  0C:2C8C9    A$uip$7019
  0C:2C8CB    A$uip$7020
  0C:2C8CC    A$uip$7021
  0C:2C8CE    A$uip$7022
  0C:2C8D0    A$uip$7023
  0C:2C8D2    A$uip$7024
  0C:2C8D4    A$uip$7025
  0C:2C8D7    A$uip$7026
  0C:2C8D8    A$uip$7027
  0C:2C8DB    A$uip$7028
  0C:2C8DE    A$uip$7029
  0C:2C8DF    A$uip$7030
  0C:2C8E2    A$uip$7033
  0C:2C8E2    C$uip.c$1832$1$1
  0C:2C8E4    A$uip$7034
  0C:2C8E6    A$uip$7035
  0C:2C8E7    A$uip$7036
  0C:2C8E8    A$uip$7037
  0C:2C8EA    A$uip$7038
  0C:2C8EB    A$uip$7039
  0C:2C8ED    A$uip$7040
  0C:2C8EF    A$uip$7041
  0C:2C8F1    A$uip$7042
  0C:2C8F3    A$uip$7043
  0C:2C8F6    A$uip$7044
  0C:2C8F7    A$uip$7045
  0C:2C8FA    A$uip$7046
  0C:2C8FD    A$uip$7047
  0C:2C8FE    A$uip$7048
  0C:2C901    A$uip$7051
  0C:2C901    C$uip.c$1834$1$1
  0C:2C904    A$uip$7052
  0C:2C907    A$uip$7053
  0C:2C909    A$uip$7054
  0C:2C90C    A$uip$7057
  0C:2C90C    C$uip.c$1836$1$1
  0C:2C90E    A$uip$7058
  0C:2C90F    A$uip$7059
  0C:2C910    A$uip$7060
  0C:2C911    A$uip$7061
  0C:2C912    A$uip$7062
  0C:2C913    A$uip$7063
  0C:2C915    A$uip$7064
  0C:2C917    A$uip$7065
  0C:2C919    A$uip$7066
  0C:2C91B    A$uip$7067
  0C:2C91E    A$uip$7068
  0C:2C91F    A$uip$7069
  0C:2C920    A$uip$7070
  0C:2C923    A$uip$7071
  0C:2C924    A$uip$7072
  0C:2C927    A$uip$7073
  0C:2C92A    A$uip$7074
  0C:2C92B    A$uip$7075
  0C:2C92E    A$uip$7076
  0C:2C92F    A$uip$7077
  0C:2C930    A$uip$7078
  0C:2C933    A$uip$7081
  0C:2C933    C$uip.c$1837$1$1
  0C:2C935    A$uip$7082
  0C:2C936    A$uip$7083
  0C:2C937    A$uip$7084
  0C:2C938    A$uip$7085
  0C:2C939    A$uip$7086
  0C:2C93A    A$uip$7087
  0C:2C93C    A$uip$7088
  0C:2C93E    A$uip$7089
  0C:2C940    A$uip$7090
  0C:2C942    A$uip$7091
  0C:2C945    A$uip$7092
  0C:2C946    A$uip$7093
  0C:2C947    A$uip$7094
  0C:2C94A    A$uip$7095
  0C:2C94B    A$uip$7096
  0C:2C94E    A$uip$7097
  0C:2C951    A$uip$7098
  0C:2C952    A$uip$7099
  0C:2C955    A$uip$7100
  0C:2C956    A$uip$7101
  0C:2C957    A$uip$7102
  0C:2C95A    A$uip$7105
  0C:2C95A    C$uip.c$1839$2$102
  0C:2C95D    A$uip$7106
  0C:2C95E    A$uip$7107
  0C:2C95F    A$uip$7108
  0C:2C960    A$uip$7109
  0C:2C961    A$uip$7110
  0C:2C962    A$uip$7111
  0C:2C965    A$uip$7112
  0C:2C968    A$uip$7113
  0C:2C969    A$uip$7114
  0C:2C96C    A$uip$7115
  0C:2C96D    A$uip$7116
  0C:2C96E    A$uip$7117
  0C:2C971    A$uip$7118
  0C:2C974    A$uip$7119
  0C:2C977    A$uip$7120
  0C:2C97A    A$uip$7121
  0C:2C97B    A$uip$7122
  0C:2C97C    A$uip$7123
  0C:2C97F    A$uip$7124
  0C:2C980    A$uip$7125
  0C:2C983    A$uip$7126
  0C:2C986    A$uip$7127
  0C:2C987    A$uip$7128
  0C:2C98A    A$uip$7129
  0C:2C98B    A$uip$7130
  0C:2C98C    A$uip$7131
  0C:2C98F    A$uip$7134
  0C:2C98F    C$uip.c$1840$2$103
  0C:2C991    A$uip$7135
  0C:2C993    A$uip$7136
  0C:2C995    A$uip$7137
  0C:2C998    A$uip$7138
  0C:2C999    A$uip$7139
  0C:2C99A    A$uip$7140
  0C:2C99D    A$uip$7141
  0C:2C99E    A$uip$7142
  0C:2C9A1    A$uip$7143
  0C:2C9A4    A$uip$7144
  0C:2C9A5    A$uip$7145
  0C:2C9A8    A$uip$7146
  0C:2C9A9    A$uip$7147
  0C:2C9AA    A$uip$7148
  0C:2C9AD    A$uip$7149
  0C:2C9AF    A$uip$7150
  0C:2C9B0    A$uip$7151
  0C:2C9B1    A$uip$7152
  0C:2C9B2    A$uip$7153
  0C:2C9B3    A$uip$7154
  0C:2C9B4    A$uip$7155
  0C:2C9B6    A$uip$7156
  0C:2C9B8    A$uip$7157
  0C:2C9BA    A$uip$7158
  0C:2C9BC    A$uip$7159
  0C:2C9BF    A$uip$7160
  0C:2C9C0    A$uip$7161
  0C:2C9C1    A$uip$7162
  0C:2C9C4    A$uip$7163
  0C:2C9C5    A$uip$7164
  0C:2C9C8    A$uip$7165
  0C:2C9CB    A$uip$7166
  0C:2C9CC    A$uip$7167
  0C:2C9CF    A$uip$7168
  0C:2C9D0    A$uip$7169
  0C:2C9D1    A$uip$7170
  0C:2C9D4    A$uip$7173
  0C:2C9D4    C$uip.c$1842$1$1
  0C:2C9D6    A$uip$7174
  0C:2C9D7    A$uip$7175
  0C:2C9D8    A$uip$7176
  0C:2C9D9    A$uip$7177
  0C:2C9DA    A$uip$7178
  0C:2C9DB    A$uip$7179
  0C:2C9DD    A$uip$7180
  0C:2C9DF    A$uip$7181
  0C:2C9E1    A$uip$7182
  0C:2C9E4    A$uip$7183
  0C:2C9E5    A$uip$7184
  0C:2C9E8    A$uip$7187
  0C:2C9E8    C$uip.c$1845$2$104
  0C:2C9EA    A$uip$7188
  0C:2C9EC    A$uip$7189
  0C:2C9EE    A$uip$7190
  0C:2C9F1    A$uip$7191
  0C:2C9F2    A$uip$7192
  0C:2C9F4    A$uip$7193
  0C:2C9F7    A$uip$7194
  0C:2C9F9    A$uip$7195
  0C:2C9FB    A$uip$7196
  0C:2C9FD    A$uip$7197
  0C:2C9FE    A$uip$7198
  0C:2CA01    A$uip$7199
  0C:2CA03    A$uip$7203
  0C:2CA03    C$uip.c$1847$2$105
  0C:2CA05    A$uip$7204
  0C:2CA07    A$uip$7205
  0C:2CA09    A$uip$7206
  0C:2CA0B    A$uip$7207
  0C:2CA0D    A$uip$7208
  0C:2CA0F    A$uip$7209
  0C:2CA11    A$uip$7210
  0C:2CA14    A$uip$7213
  0C:2CA14    C$uip.c$1848$2$105
  0C:2CA17    A$uip$7214
  0C:2CA1A    A$uip$7215
  0C:2CA1C    A$uip$7216
  0C:2CA1F    A$uip$7222
  0C:2CA1F    C$uip.c$1851$1$1
  0C:2CA1F    C$uip.c$1852$1$1
  0C:2CA22    A$uip$7223
  0C:2CA25    A$uip$7224
  0C:2CA27    A$uip$7225
  0C:2CA2A    A$uip$7228
  0C:2CA2A    C$uip.c$1859$1$1
  0C:2CA2C    A$uip$7229
  0C:2CA2E    A$uip$7230
  0C:2CA30    A$uip$7231
  0C:2CA33    A$uip$7232
  0C:2CA34    A$uip$7233
  0C:2CA35    A$uip$7234
  0C:2CA36    A$uip$7235
  0C:2CA37    A$uip$7236
  0C:2CA39    A$uip$7237
  0C:2CA3B    A$uip$7238
  0C:2CA3D    A$uip$7239
  0C:2CA40    A$uip$7242
  0C:2CA40    C$uip.c$1860$1$1
  0C:2CA43    A$uip$7243
  0C:2CA46    A$uip$7244
  0C:2CA47    A$uip$7245
  0C:2CA4A    A$uip$7248
  0C:2CA4A    C$uip.c$1863$1$1
  0C:2CA4C    A$uip$7249
  0C:2CA4E    A$uip$7250
  0C:2CA50    A$uip$7251
  0C:2CA53    A$uip$7252
  0C:2CA54    A$uip$7253
  0C:2CA56    A$uip$7254
  0C:2CA59    A$uip$7255
  0C:2CA5B    A$uip$7256
  0C:2CA5D    A$uip$7257
  0C:2CA5F    A$uip$7258
  0C:2CA60    A$uip$7259
  0C:2CA63    A$uip$7262
  0C:2CA63    C$uip.c$1866$1$1
  0C:2CA66    A$uip$7263
  0C:2CA67    A$uip$7264
  0C:2CA69    A$uip$7265
  0C:2CA6C    A$uip$7266
  0C:2CA6D    A$uip$7267
  0C:2CA6E    A$uip$7268
  0C:2CA71    A$uip$7271
  0C:2CA71    C$uip.c$1867$1$1
  0C:2CA73    A$uip$7272
  0C:2CA75    A$uip$7273
  0C:2CA77    A$uip$7274
  0C:2CA7A    A$uip$7275
  0C:2CA7C    A$uip$7276
  0C:2CA7E    A$uip$7277
  0C:2CA7F    A$uip$7278
  0C:2CA80    A$uip$7279
  0C:2CA81    A$uip$7280
  0C:2CA82    A$uip$7281
  0C:2CA83    A$uip$7282
  0C:2CA84    A$uip$7283
  0C:2CA87    A$uip$7284
  0C:2CA8A    A$uip$7285
  0C:2CA8B    A$uip$7286
  0C:2CA8E    A$uip$7287
  0C:2CA8F    A$uip$7288
  0C:2CA90    A$uip$7289
  0C:2CA93    A$uip$7292
  0C:2CA93    C$uip.c$1876$1$1
  0C:2CA96    A$uip$7293
  0C:2CA98    A$uip$7294
  0C:2CA99    A$uip$7297
  0C:2CA99    C$uip.c$1877$1$1
  0C:2CA9C    A$uip$7298
  0C:2CA9D    A$uip$7299
  0C:2CA9F    A$uip$7300
  0C:2CAA2    A$uip$7303
  0C:2CAA2    C$uip.c$1878$1$1
  0C:2CAA4    A$uip$7304
  0C:2CAA6    A$uip$7305
  0C:2CAA8    A$uip$7306
  0C:2CAAB    A$uip$7307
  0C:2CAAC    A$uip$7308
  0C:2CAAE    A$uip$7309
  0C:2CAB1    A$uip$7310
  0C:2CAB3    A$uip$7311
  0C:2CAB5    A$uip$7312
  0C:2CAB7    A$uip$7313
  0C:2CAB8    A$uip$7314
  0C:2CABB    A$uip$7317
  0C:2CABB    C$uip.c$1879$1$1
  0C:2CABE    A$uip$7318
  0C:2CABF    A$uip$7319
  0C:2CAC1    A$uip$7320
  0C:2CAC2    A$uip$7321
  0C:2CAC3    A$uip$7322
  0C:2CAC4    A$uip$7323
  0C:2CAC6    A$uip$7324
  0C:2CAC7    A$uip$7327
  0C:2CAC7    C$uip.c$1880$1$1
  0C:2CAC9    A$uip$7328
  0C:2CACB    A$uip$7329
  0C:2CACD    A$uip$7330
  0C:2CAD0    A$uip$7331
  0C:2CAD1    A$uip$7332
  0C:2CAD2    A$uip$7333
  0C:2CAD3    A$uip$7334
  0C:2CAD4    A$uip$7335
  0C:2CAD6    A$uip$7336
  0C:2CAD8    A$uip$7337
  0C:2CADA    A$uip$7338
  0C:2CADD    A$uip$7341
  0C:2CADD    C$uip.c$1881$1$1
  0C:2CAE0    A$uip$7342
  0C:2CAE3    A$uip$7343
  0C:2CAE4    A$uip$7344
  0C:2CAE7    A$uip$7347
  0C:2CAE7    C$uip.c$1883$1$1
  0C:2CAEA    A$uip$7348
  0C:2CAEB    A$uip$7349
  0C:2CAED    A$uip$7350
  0C:2CAF0    A$uip$7351
  0C:2CAF1    A$uip$7352
  0C:2CAF2    A$uip$7353
  0C:2CAF5    A$uip$7356
  0C:2CAF5    C$uip.c$1884$1$1
  0C:2CAF7    A$uip$7357
  0C:2CAF9    A$uip$7358
  0C:2CAFB    A$uip$7359
  0C:2CAFE    A$uip$7360
  0C:2CB00    A$uip$7361
  0C:2CB02    A$uip$7362
  0C:2CB03    A$uip$7363
  0C:2CB04    A$uip$7364
  0C:2CB05    A$uip$7365
  0C:2CB06    A$uip$7366
  0C:2CB07    A$uip$7367
  0C:2CB08    A$uip$7368
  0C:2CB0B    A$uip$7369
  0C:2CB0E    A$uip$7370
  0C:2CB0F    A$uip$7371
  0C:2CB12    A$uip$7372
  0C:2CB13    A$uip$7373
  0C:2CB14    A$uip$7374
  0C:2CB17    A$uip$7377
  0C:2CB17    C$uip.c$1885$1$1
  0C:2CB19    A$uip$7378
  0C:2CB1B    A$uip$7379
  0C:2CB1D    A$uip$7380
  0C:2CB20    A$uip$7386
  0C:2CB20    C$uip.c$1889$1$1
  0C:2CB20    C$uip.c$1895$1$1
  0C:2CB23    A$uip$7387
  0C:2CB24    A$uip$7388
  0C:2CB25    A$uip$7393
  0C:2CB25    C$uip.c$1896$1$1
  0C:2CB25    C$uip.c$1897$1$1
  0C:2CB27    A$uip$7397
  0C:2CB27    C$uip.c$1898$1$1
  0C:2CB2A    A$uip$7398
  0C:2CB2B    A$uip$7399
  0C:2CB2C    A$uip$7400
  0C:2CB2D    A$uip$7401
  0C:2CB2E    A$uip$7404
  0C:2CB2E    C$uip.c$1899$1$1
  0C:2CB31    A$uip$7405
  0C:2CB32    A$uip$7406
  0C:2CB33    A$uip$7412
  0C:2CB33    C$uip.c$1900$1$1
  0C:2CB33    C$uip.c$1901$1$1
  0C:2CB33    XG$uip_process$0$0
  0C:2CB36    A$uip$7425
  0C:2CB36    C$uip.c$1904$1$1
  0C:2CB36    G$htons$0$0
  0C:2CB36    _htons
  0C:2CB38    A$uip$7426
  0C:2CB3A    A$uip$7427
  0C:2CB3D    A$uip$7428
  0C:2CB3E    A$uip$7429
  0C:2CB3F    A$uip$7430
  0C:2CB40    A$uip$7431
  0C:2CB41    A$uip$7434
  0C:2CB41    C$uip.c$1906$1$1
  0C:2CB44    A$uip$7435
  0C:2CB45    A$uip$7436
  0C:2CB46    A$uip$7437
  0C:2CB47    A$uip$7438
  0C:2CB48    A$uip$7439
  0C:2CB49    A$uip$7440
  0C:2CB4A    A$uip$7441
  0C:2CB4C    A$uip$7442
  0C:2CB4D    A$uip$7443
  0C:2CB4F    A$uip$7444
  0C:2CB51    A$uip$7447
  0C:2CB51    C$uip.c$1907$1$1
  0C:2CB51    XG$htons$0$0
  0C:2CB54    A$uip$7461
  0C:2CB54    C$uip.c$1910$1$1
  0C:2CB54    G$uip_send$0$0
  0C:2CB54    _uip_send
  0C:2CB56    A$uip$7462
  0C:2CB58    A$uip$7463
  0C:2CB5A    A$uip$7464
  0C:2CB5D    A$uip$7465
  0C:2CB5E    A$uip$7466
  0C:2CB5F    A$uip$7467
  0C:2CB60    A$uip$7468
  0C:2CB61    A$uip$7469
  0C:2CB62    A$uip$7470
  0C:2CB63    A$uip$7471
  0C:2CB64    A$uip$7474
  0C:2CB64    C$uip.c$1912$1$1
  0C:2CB67    A$uip$7475
  0C:2CB68    A$uip$7476
  0C:2CB69    A$uip$7477
  0C:2CB6A    A$uip$7478
  0C:2CB6B    A$uip$7479
  0C:2CB6C    A$uip$7480
  0C:2CB6D    A$uip$7481
  0C:2CB6E    A$uip$7482
  0C:2CB6F    A$uip$7483
  0C:2CB71    A$uip$7484
  0C:2CB73    A$uip$7485
  0C:2CB76    A$uip$7486
  0C:2CB78    A$uip$7487
  0C:2CB7A    A$uip$7490
  0C:2CB7A    C$uip.c$1913$2$2
  0C:2CB7D    A$uip$7491
  0C:2CB7E    A$uip$7492
  0C:2CB7F    A$uip$7493
  0C:2CB80    A$uip$7494
  0C:2CB81    A$uip$7495
  0C:2CB82    A$uip$7498
  0C:2CB82    C$uip.c$1914$2$2
  0C:2CB85    A$uip$7499
  0C:2CB86    A$uip$7500
  0C:2CB87    A$uip$7501
  0C:2CB88    A$uip$7502
  0C:2CB89    A$uip$7503
  0C:2CB8A    A$uip$7504
  0C:2CB8B    A$uip$7505
  0C:2CB8C    A$uip$7506
  0C:2CB8D    A$uip$7507
  0C:2CB90    A$uip$7508
  0C:2CB91    A$uip$7509
  0C:2CB92    A$uip$7510
  0C:2CB93    A$uip$7511
  0C:2CB94    A$uip$7512
  0C:2CB95    A$uip$7513
  0C:2CB96    A$uip$7514
  0C:2CB97    A$uip$7515
  0C:2CB98    A$uip$7516
  0C:2CB99    A$uip$7517
  0C:2CB9C    A$uip$7518
  0C:2CB9D    A$uip$7519
  0C:2CBA0    A$uip$7520
  0C:2CBA1    A$uip$7521
  0C:2CBA4    A$uip$7522
  0C:2CBA6    A$uip$7526
  0C:2CBA6    C$uip.c$1915$3$3
  0C:2CBA9    A$uip$7527
  0C:2CBAA    A$uip$7528
  0C:2CBAB    A$uip$7529
  0C:2CBAC    A$uip$7530
  0C:2CBAD    A$uip$7531
  0C:2CBAE    A$uip$7532
  0C:2CBAF    A$uip$7533
  0C:2CBB0    A$uip$7534
  0C:2CBB1    A$uip$7535
  0C:2CBB4    A$uip$7536
  0C:2CBB5    A$uip$7537
  0C:2CBB6    A$uip$7538
  0C:2CBB7    A$uip$7539
  0C:2CBB8    A$uip$7540
  0C:2CBB9    A$uip$7541
  0C:2CBBB    A$uip$7542
  0C:2CBBD    A$uip$7543
  0C:2CBBF    A$uip$7544
  0C:2CBC2    A$uip$7548
  0C:2CBC2    C$uip.c$1918$1$1
  0C:2CBC2    XG$uip_send$0$0
  0C:2CBC5    A$uip_arp$131
  0C:2CBC5    C$uip_arp.c$128$0$0
  0C:2CBC5    G$uip_arp_init$0$0
  0C:2CBC5    _uip_arp_init
  0C:2CBC8    A$uip_arp$132
  0C:2CBC9    A$uip_arp$133
  0C:2CBCA    A$uip_arp$135
  0C:2CBCD    A$uip_arp$136
  0C:2CBCE    A$uip_arp$137
  0C:2CBCF    A$uip_arp$138
  0C:2CBD2    A$uip_arp$140
  0C:2CBD4    A$uip_arp$143
  0C:2CBD4    C$uip_arp.c$131$2$2
  0C:2CBD5    A$uip_arp$144
  0C:2CBD8    A$uip_arp$145
  0C:2CBD9    A$uip_arp$146
  0C:2CBDB    A$uip_arp$147
  0C:2CBDC    A$uip_arp$148
  0C:2CBDD    A$uip_arp$149
  0C:2CBDF    A$uip_arp$150
  0C:2CBE0    A$uip_arp$151
  0C:2CBE2    A$uip_arp$152
  0C:2CBE5    A$uip_arp$153
  0C:2CBE6    A$uip_arp$154
  0C:2CBE7    A$uip_arp$155
  0C:2CBEA    A$uip_arp$156
  0C:2CBEC    A$uip_arp$157
  0C:2CBED    A$uip_arp$158
  0C:2CBEE    A$uip_arp$159
  0C:2CBEF    A$uip_arp$160
  0C:2CBF0    A$uip_arp$161
  0C:2CBF2    A$uip_arp$162
  0C:2CBF4    A$uip_arp$163
  0C:2CBF6    A$uip_arp$164
  0C:2CBF9    A$uip_arp$167
  0C:2CBF9    C$uip_arp.c$130$1$1
  0C:2CBFC    A$uip_arp$168
  0C:2CBFD    A$uip_arp$169
  0C:2CBFF    A$uip_arp$170
  0C:2CC00    A$uip_arp$171
  0C:2CC02    A$uip_arp$175
  0C:2CC02    C$uip_arp.c$133$1$1
  0C:2CC02    XG$uip_arp_init$0$0
  0C:2CC05    A$uip_arp$188
  0C:2CC05    C$uip_arp.c$145$1$1
  0C:2CC05    G$uip_arp_timer$0$0
  0C:2CC05    _uip_arp_timer
  0C:2CC07    A$uip_arp$189
  0C:2CC0A    A$uip_arp$190
  0C:2CC0C    A$uip_arp$191
  0C:2CC0E    A$uip_arp$192
  0C:2CC10    A$uip_arp$195
  0C:2CC10    C$uip_arp.c$149$1$1
  0C:2CC13    A$uip_arp$196
  0C:2CC14    A$uip_arp$197
  0C:2CC16    A$uip_arp$198
  0C:2CC17    A$uip_arp$201
  0C:2CC1A    A$uip_arp$202
  0C:2CC1B    A$uip_arp$203
  0C:2CC1C    A$uip_arp$205
  0C:2CC1F    A$uip_arp$206
  0C:2CC20    A$uip_arp$207
  0C:2CC21    A$uip_arp$208
  0C:2CC24    A$uip_arp$210
  0C:2CC26    A$uip_arp$211
  0C:2CC29    A$uip_arp$215
  0C:2CC29    C$uip_arp.c$151$2$2
  0C:2CC2A    A$uip_arp$216
  0C:2CC2D    A$uip_arp$217
  0C:2CC2E    A$uip_arp$218
  0C:2CC30    A$uip_arp$219
  0C:2CC31    A$uip_arp$220
  0C:2CC32    A$uip_arp$221
  0C:2CC34    A$uip_arp$222
  0C:2CC35    A$uip_arp$223
  0C:2CC37    A$uip_arp$224
  0C:2CC38    A$uip_arp$225
  0C:2CC3A    A$uip_arp$226
  0C:2CC3B    A$uip_arp$227
  0C:2CC3D    A$uip_arp$228
  0C:2CC3E    A$uip_arp$229
  0C:2CC40    A$uip_arp$232
  0C:2CC40    C$uip_arp.c$152$2$2
  0C:2CC42    A$uip_arp$233
  0C:2CC43    A$uip_arp$234
  0C:2CC45    A$uip_arp$235
  0C:2CC46    A$uip_arp$236
  0C:2CC47    A$uip_arp$237
  0C:2CC48    A$uip_arp$238
  0C:2CC49    A$uip_arp$239
  0C:2CC4A    A$uip_arp$240
  0C:2CC4B    A$uip_arp$241
  0C:2CC4C    A$uip_arp$242
  0C:2CC4E    A$uip_arp$243
  0C:2CC50    A$uip_arp$244
  0C:2CC52    A$uip_arp$245
  0C:2CC54    A$uip_arp$246
  0C:2CC57    A$uip_arp$247
  0C:2CC58    A$uip_arp$248
  0C:2CC59    A$uip_arp$249
  0C:2CC5C    A$uip_arp$250
  0C:2CC5D    A$uip_arp$251
  0C:2CC5F    A$uip_arp$252
  0C:2CC60    A$uip_arp$253
  0C:2CC62    A$uip_arp$254
  0C:2CC63    A$uip_arp$255
  0C:2CC65    A$uip_arp$256
  0C:2CC66    A$uip_arp$257
  0C:2CC68    A$uip_arp$258
  0C:2CC6B    A$uip_arp$259
  0C:2CC6C    A$uip_arp$260
  0C:2CC6D    A$uip_arp$261
  0C:2CC70    A$uip_arp$262
  0C:2CC71    A$uip_arp$263
  0C:2CC72    A$uip_arp$264
  0C:2CC74    A$uip_arp$265
  0C:2CC75    A$uip_arp$266
  0C:2CC77    A$uip_arp$267
  0C:2CC78    A$uip_arp$268
  0C:2CC79    A$uip_arp$269
  0C:2CC7B    A$uip_arp$272
  0C:2CC7B    C$uip_arp.c$153$2$2
  0C:2CC7E    A$uip_arp$273
  0C:2CC7F    A$uip_arp$274
  0C:2CC80    A$uip_arp$275
  0C:2CC82    A$uip_arp$276
  0C:2CC84    A$uip_arp$277
  0C:2CC85    A$uip_arp$278
  0C:2CC87    A$uip_arp$279
  0C:2CC88    A$uip_arp$280
  0C:2CC89    A$uip_arp$281
  0C:2CC8A    A$uip_arp$282
  0C:2CC8B    A$uip_arp$283
  0C:2CC8C    A$uip_arp$284
  0C:2CC8D    A$uip_arp$285
  0C:2CC8E    A$uip_arp$286
  0C:2CC90    A$uip_arp$287
  0C:2CC92    A$uip_arp$288
  0C:2CC94    A$uip_arp$289
  0C:2CC96    A$uip_arp$290
  0C:2CC99    A$uip_arp$291
  0C:2CC9A    A$uip_arp$292
  0C:2CC9C    A$uip_arp$293
  0C:2CC9D    A$uip_arp$294
  0C:2CC9E    A$uip_arp$295
  0C:2CC9F    A$uip_arp$296
  0C:2CCA0    A$uip_arp$297
  0C:2CCA1    A$uip_arp$298
  0C:2CCA2    A$uip_arp$299
  0C:2CCA3    A$uip_arp$300
  0C:2CCA4    A$uip_arp$301
  0C:2CCA5    A$uip_arp$302
  0C:2CCA7    A$uip_arp$303
  0C:2CCA8    A$uip_arp$304
  0C:2CCAA    A$uip_arp$305
  0C:2CCAC    A$uip_arp$306
  0C:2CCAE    A$uip_arp$309
  0C:2CCAE    C$uip_arp.c$154$3$3
  0C:2CCB1    A$uip_arp$310
  0C:2CCB2    A$uip_arp$311
  0C:2CCB3    A$uip_arp$312
  0C:2CCB6    A$uip_arp$313
  0C:2CCB8    A$uip_arp$314
  0C:2CCB9    A$uip_arp$315
  0C:2CCBA    A$uip_arp$316
  0C:2CCBB    A$uip_arp$317
  0C:2CCBC    A$uip_arp$318
  0C:2CCBE    A$uip_arp$319
  0C:2CCBF    A$uip_arp$320
  0C:2CCC1    A$uip_arp$321
  0C:2CCC2    A$uip_arp$322
  0C:2CCC4    A$uip_arp$323
  0C:2CCC5    A$uip_arp$324
  0C:2CCC7    A$uip_arp$325
  0C:2CCCA    A$uip_arp$329
  0C:2CCCA    C$uip_arp.c$150$1$1
  0C:2CCCD    A$uip_arp$330
  0C:2CCCE    A$uip_arp$331
  0C:2CCD0    A$uip_arp$332
  0C:2CCD1    A$uip_arp$333
  0C:2CCD4    A$uip_arp$335
  0C:2CCD7    A$uip_arp$336
  0C:2CCD9    A$uip_arp$339
  0C:2CCD9    C$uip_arp.c$158$1$1
  0C:2CCD9    XG$uip_arp_timer$0$0
  0C:2CCDC    A$uip_arp$358
  0C:2CCDC    C$uip_arp.c$161$1$1
  0C:2CCDC    Fuip_arp$uip_arp_update$0$0
  0C:2CCDE    A$uip_arp$359
  0C:2CCE1    A$uip_arp$360
  0C:2CCE3    A$uip_arp$361
  0C:2CCE5    A$uip_arp$362
  0C:2CCE7    A$uip_arp$363
  0C:2CCE9    A$uip_arp$364
  0C:2CCEB    A$uip_arp$365
  0C:2CCED    A$uip_arp$368
  0C:2CCED    C$uip_arp.c$163$1$1
  0C:2CCEF    A$uip_arp$369
  0C:2CCF1    A$uip_arp$370
  0C:2CCF2    A$uip_arp$371
  0C:2CCF3    A$uip_arp$372
  0C:2CCF4    A$uip_arp$373
  0C:2CCF5    A$uip_arp$374
  0C:2CCF6    A$uip_arp$375
  0C:2CCF7    A$uip_arp$376
  0C:2CCF9    A$uip_arp$379
  0C:2CCFC    A$uip_arp$380
  0C:2CCFD    A$uip_arp$381
  0C:2CCFE    A$uip_arp$382
  0C:2CD00    A$uip_arp$383
  0C:2CD01    A$uip_arp$384
  0C:2CD03    A$uip_arp$385
  0C:2CD04    A$uip_arp$386
  0C:2CD05    A$uip_arp$387
  0C:2CD06    A$uip_arp$388
  0C:2CD07    A$uip_arp$389
  0C:2CD08    A$uip_arp$390
  0C:2CD09    A$uip_arp$391
  0C:2CD0A    A$uip_arp$392
  0C:2CD0C    A$uip_arp$393
  0C:2CD0E    A$uip_arp$394
  0C:2CD10    A$uip_arp$395
  0C:2CD12    A$uip_arp$396
  0C:2CD14    A$uip_arp$397
  0C:2CD16    A$uip_arp$398
  0C:2CD17    A$uip_arp$399
  0C:2CD1A    A$uip_arp$400
  0C:2CD1B    A$uip_arp$401
  0C:2CD1C    A$uip_arp$402
  0C:2CD1F    A$uip_arp$403
  0C:2CD20    A$uip_arp$404
  0C:2CD21    A$uip_arp$405
  0C:2CD23    A$uip_arp$406
  0C:2CD24    A$uip_arp$407
  0C:2CD26    A$uip_arp$408
  0C:2CD27    A$uip_arp$409
  0C:2CD29    A$uip_arp$410
  0C:2CD2A    A$uip_arp$411
  0C:2CD2C    A$uip_arp$412
  0C:2CD2F    A$uip_arp$413
  0C:2CD30    A$uip_arp$414
  0C:2CD31    A$uip_arp$415
  0C:2CD34    A$uip_arp$416
  0C:2CD35    A$uip_arp$422
  0C:2CD38    A$uip_arp$423
  0C:2CD39    A$uip_arp$424
  0C:2CD3A    A$uip_arp$425
  0C:2CD3D    A$uip_arp$427
  0C:2CD3F    A$uip_arp$428
  0C:2CD42    A$uip_arp$432
  0C:2CD42    C$uip_arp.c$169$2$2
  0C:2CD43    A$uip_arp$433
  0C:2CD46    A$uip_arp$434
  0C:2CD47    A$uip_arp$435
  0C:2CD49    A$uip_arp$436
  0C:2CD4A    A$uip_arp$437
  0C:2CD4B    A$uip_arp$438
  0C:2CD4D    A$uip_arp$439
  0C:2CD4E    A$uip_arp$440
  0C:2CD50    A$uip_arp$441
  0C:2CD52    A$uip_arp$442
  0C:2CD53    A$uip_arp$443
  0C:2CD55    A$uip_arp$444
  0C:2CD56    A$uip_arp$445
  0C:2CD58    A$uip_arp$446
  0C:2CD59    A$uip_arp$447
  0C:2CD5B    A$uip_arp$450
  0C:2CD5B    C$uip_arp.c$171$2$2
  0C:2CD5D    A$uip_arp$451
  0C:2CD5F    A$uip_arp$452
  0C:2CD60    A$uip_arp$453
  0C:2CD62    A$uip_arp$454
  0C:2CD63    A$uip_arp$455
  0C:2CD65    A$uip_arp$456
  0C:2CD66    A$uip_arp$457
  0C:2CD68    A$uip_arp$458
  0C:2CD6B    A$uip_arp$459
  0C:2CD6C    A$uip_arp$460
  0C:2CD6D    A$uip_arp$461
  0C:2CD70    A$uip_arp$462
  0C:2CD71    A$uip_arp$463
  0C:2CD72    A$uip_arp$464
  0C:2CD74    A$uip_arp$465
  0C:2CD77    A$uip_arp$469
  0C:2CD77    C$uip_arp.c$172$1$1
  0C:2CD79    A$uip_arp$470
  0C:2CD7B    A$uip_arp$471
  0C:2CD7D    A$uip_arp$472
  0C:2CD7F    A$uip_arp$473
  0C:2CD80    A$uip_arp$474
  0C:2CD82    A$uip_arp$475
  0C:2CD83    A$uip_arp$476
  0C:2CD84    A$uip_arp$477
  0C:2CD85    A$uip_arp$478
  0C:2CD86    A$uip_arp$479
  0C:2CD87    A$uip_arp$480
  0C:2CD88    A$uip_arp$481
  0C:2CD89    A$uip_arp$482
  0C:2CD8B    A$uip_arp$483
  0C:2CD8D    A$uip_arp$484
  0C:2CD8F    A$uip_arp$485
  0C:2CD91    A$uip_arp$486
  0C:2CD94    A$uip_arp$487
  0C:2CD95    A$uip_arp$488
  0C:2CD96    A$uip_arp$489
  0C:2CD99    A$uip_arp$490
  0C:2CD9A    A$uip_arp$491
  0C:2CD9C    A$uip_arp$492
  0C:2CD9E    A$uip_arp$493
  0C:2CD9F    A$uip_arp$494
  0C:2CDA0    A$uip_arp$495
  0C:2CDA2    A$uip_arp$498
  0C:2CDA2    C$uip_arp.c$176$3$3
  0C:2CDA3    A$uip_arp$499
  0C:2CDA6    A$uip_arp$500
  0C:2CDA7    A$uip_arp$501
  0C:2CDAA    A$uip_arp$504
  0C:2CDAA    C$uip_arp.c$177$3$3
  0C:2CDAC    A$uip_arp$505
  0C:2CDAE    A$uip_arp$506
  0C:2CDAF    A$uip_arp$507
  0C:2CDB0    A$uip_arp$508
  0C:2CDB3    A$uip_arp$509
  0C:2CDB4    A$uip_arp$510
  0C:2CDB5    A$uip_arp$511
  0C:2CDB8    A$uip_arp$512
  0C:2CDBA    A$uip_arp$514
  0C:2CDBC    A$uip_arp$518
  0C:2CDBC    C$uip_arp.c$180$4$4
  0C:2CDBE    A$uip_arp$519
  0C:2CDC0    A$uip_arp$520
  0C:2CDC1    A$uip_arp$521
  0C:2CDC3    A$uip_arp$522
  0C:2CDC4    A$uip_arp$523
  0C:2CDC5    A$uip_arp$524
  0C:2CDC6    A$uip_arp$525
  0C:2CDC7    A$uip_arp$526
  0C:2CDC8    A$uip_arp$527
  0C:2CDC9    A$uip_arp$528
  0C:2CDCA    A$uip_arp$529
  0C:2CDCC    A$uip_arp$530
  0C:2CDCE    A$uip_arp$531
  0C:2CDD0    A$uip_arp$532
  0C:2CDD1    A$uip_arp$533
  0C:2CDD4    A$uip_arp$534
  0C:2CDD5    A$uip_arp$535
  0C:2CDD6    A$uip_arp$536
  0C:2CDD7    A$uip_arp$537
  0C:2CDD8    A$uip_arp$538
  0C:2CDD9    A$uip_arp$539
  0C:2CDDA    A$uip_arp$540
  0C:2CDDB    A$uip_arp$541
  0C:2CDDC    A$uip_arp$542
  0C:2CDDD    A$uip_arp$543
  0C:2CDDE    A$uip_arp$544
  0C:2CDE1    A$uip_arp$545
  0C:2CDE3    A$uip_arp$546
  0C:2CDE4    A$uip_arp$547
  0C:2CDE5    A$uip_arp$548
  0C:2CDE6    A$uip_arp$549
  0C:2CDE7    A$uip_arp$550
  0C:2CDE9    A$uip_arp$551
  0C:2CDEB    A$uip_arp$552
  0C:2CDED    A$uip_arp$553
  0C:2CDF0    A$uip_arp$556
  0C:2CDF0    C$uip_arp.c$181$4$4
  0C:2CDF2    A$uip_arp$557
  0C:2CDF4    A$uip_arp$558
  0C:2CDF5    A$uip_arp$559
  0C:2CDF7    A$uip_arp$560
  0C:2CDF8    A$uip_arp$561
  0C:2CDF9    A$uip_arp$562
  0C:2CDFA    A$uip_arp$563
  0C:2CDFB    A$uip_arp$564
  0C:2CDFC    A$uip_arp$565
  0C:2CDFD    A$uip_arp$566
  0C:2CDFE    A$uip_arp$567
  0C:2CE00    A$uip_arp$568
  0C:2CE03    A$uip_arp$569
  0C:2CE04    A$uip_arp$570
  0C:2CE05    A$uip_arp$571
  0C:2CE07    A$uip_arp$572
  0C:2CE09    A$uip_arp$573
  0C:2CE0B    A$uip_arp$574
  0C:2CE0E    A$uip_arp$577
  0C:2CE0E    C$uip_arp.c$183$4$4
  0C:2CE11    A$uip_arp$581
  0C:2CE11    C$uip_arp.c$167$1$1
  0C:2CE14    A$uip_arp$582
  0C:2CE15    A$uip_arp$583
  0C:2CE17    A$uip_arp$584
  0C:2CE18    A$uip_arp$585
  0C:2CE1B    A$uip_arp$589
  0C:2CE1E    A$uip_arp$590
  0C:2CE1F    A$uip_arp$591
  0C:2CE20    A$uip_arp$593
  0C:2CE23    A$uip_arp$594
  0C:2CE24    A$uip_arp$595
  0C:2CE25    A$uip_arp$596
  0C:2CE28    A$uip_arp$598
  0C:2CE2A    A$uip_arp$601
  0C:2CE2A    C$uip_arp.c$193$2$5
  0C:2CE2B    A$uip_arp$602
  0C:2CE2E    A$uip_arp$603
  0C:2CE2F    A$uip_arp$604
  0C:2CE31    A$uip_arp$605
  0C:2CE32    A$uip_arp$606
  0C:2CE33    A$uip_arp$607
  0C:2CE35    A$uip_arp$608
  0C:2CE36    A$uip_arp$609
  0C:2CE38    A$uip_arp$610
  0C:2CE3A    A$uip_arp$611
  0C:2CE3B    A$uip_arp$612
  0C:2CE3D    A$uip_arp$613
  0C:2CE3E    A$uip_arp$614
  0C:2CE40    A$uip_arp$615
  0C:2CE41    A$uip_arp$616
  0C:2CE43    A$uip_arp$619
  0C:2CE43    C$uip_arp.c$194$2$5
  0C:2CE45    A$uip_arp$620
  0C:2CE47    A$uip_arp$621
  0C:2CE48    A$uip_arp$622
  0C:2CE4A    A$uip_arp$623
  0C:2CE4B    A$uip_arp$624
  0C:2CE4D    A$uip_arp$625
  0C:2CE4E    A$uip_arp$626
  0C:2CE50    A$uip_arp$627
  0C:2CE53    A$uip_arp$628
  0C:2CE54    A$uip_arp$629
  0C:2CE55    A$uip_arp$630
  0C:2CE58    A$uip_arp$631
  0C:2CE59    A$uip_arp$632
  0C:2CE5A    A$uip_arp$633
  0C:2CE5C    A$uip_arp$636
  0C:2CE5C    C$uip_arp.c$195$2$5
  0C:2CE5E    A$uip_arp$637
  0C:2CE60    A$uip_arp$638
  0C:2CE61    A$uip_arp$639
  0C:2CE63    A$uip_arp$640
  0C:2CE64    A$uip_arp$641
  0C:2CE65    A$uip_arp$642
  0C:2CE66    A$uip_arp$643
  0C:2CE67    A$uip_arp$644
  0C:2CE68    A$uip_arp$645
  0C:2CE69    A$uip_arp$646
  0C:2CE6A    A$uip_arp$647
  0C:2CE6C    A$uip_arp$648
  0C:2CE6E    A$uip_arp$649
  0C:2CE70    A$uip_arp$650
  0C:2CE72    A$uip_arp$651
  0C:2CE75    A$uip_arp$652
  0C:2CE76    A$uip_arp$653
  0C:2CE77    A$uip_arp$654
  0C:2CE7A    A$uip_arp$655
  0C:2CE7B    A$uip_arp$656
  0C:2CE7C    A$uip_arp$657
  0C:2CE7E    A$uip_arp$663
  0C:2CE7E    C$uip_arp.c$192$1$1
  0C:2CE7E    C$uip_arp.c$196$1$1
  0C:2CE81    A$uip_arp$664
  0C:2CE82    A$uip_arp$665
  0C:2CE84    A$uip_arp$666
  0C:2CE85    A$uip_arp$667
  0C:2CE87    A$uip_arp$671
  0C:2CE87    C$uip_arp.c$202$1$1
  0C:2CE8A    A$uip_arp$672
  0C:2CE8B    A$uip_arp$673
  0C:2CE8C    A$uip_arp$674
  0C:2CE8F    A$uip_arp$675
  0C:2CE91    A$uip_arp$677
  0C:2CE94    A$uip_arp$681
  0C:2CE94    C$uip_arp.c$203$2$7
  0C:2CE97    A$uip_arp$686
  0C:2CE97    C$uip_arp.c$204$2$7
  0C:2CE98    A$uip_arp$687
  0C:2CE99    A$uip_arp$688
  0C:2CE9C    A$uip_arp$689
  0C:2CE9D    A$uip_arp$690
  0C:2CEA0    A$uip_arp$691
  0C:2CEA1    A$uip_arp$693
  0C:2CEA4    A$uip_arp$694
  0C:2CEA5    A$uip_arp$695
  0C:2CEA6    A$uip_arp$696
  0C:2CEA9    A$uip_arp$698
  0C:2CEAB    A$uip_arp$701
  0C:2CEAB    C$uip_arp.c$206$3$8
  0C:2CEAC    A$uip_arp$702
  0C:2CEAF    A$uip_arp$703
  0C:2CEB0    A$uip_arp$704
  0C:2CEB2    A$uip_arp$705
  0C:2CEB3    A$uip_arp$706
  0C:2CEB4    A$uip_arp$707
  0C:2CEB6    A$uip_arp$708
  0C:2CEB7    A$uip_arp$709
  0C:2CEB9    A$uip_arp$710
  0C:2CEBB    A$uip_arp$711
  0C:2CEBC    A$uip_arp$712
  0C:2CEBE    A$uip_arp$713
  0C:2CEBF    A$uip_arp$714
  0C:2CEC1    A$uip_arp$715
  0C:2CEC2    A$uip_arp$716
  0C:2CEC4    A$uip_arp$719
  0C:2CEC4    C$uip_arp.c$207$3$8
  0C:2CEC7    A$uip_arp$720
  0C:2CEC8    A$uip_arp$721
  0C:2CEC9    A$uip_arp$722
  0C:2CECB    A$uip_arp$723
  0C:2CECD    A$uip_arp$724
  0C:2CECF    A$uip_arp$725
  0C:2CED1    A$uip_arp$726
  0C:2CED3    A$uip_arp$727
  0C:2CED4    A$uip_arp$728
  0C:2CED6    A$uip_arp$729
  0C:2CED7    A$uip_arp$730
  0C:2CED8    A$uip_arp$731
  0C:2CED9    A$uip_arp$732
  0C:2CEDA    A$uip_arp$733
  0C:2CEDB    A$uip_arp$734
  0C:2CEDC    A$uip_arp$735
  0C:2CEDD    A$uip_arp$736
  0C:2CEDF    A$uip_arp$737
  0C:2CEE1    A$uip_arp$738
  0C:2CEE3    A$uip_arp$739
  0C:2CEE5    A$uip_arp$740
  0C:2CEE8    A$uip_arp$741
  0C:2CEE9    A$uip_arp$742
  0C:2CEEA    A$uip_arp$743
  0C:2CEEC    A$uip_arp$744
  0C:2CEED    A$uip_arp$745
  0C:2CEEE    A$uip_arp$746
  0C:2CEEF    A$uip_arp$747
  0C:2CEF0    A$uip_arp$748
  0C:2CEF1    A$uip_arp$749
  0C:2CEF2    A$uip_arp$750
  0C:2CEF3    A$uip_arp$751
  0C:2CEF6    A$uip_arp$752
  0C:2CEF7    A$uip_arp$753
  0C:2CEF8    A$uip_arp$754
  0C:2CEFA    A$uip_arp$755
  0C:2CEFB    A$uip_arp$756
  0C:2CEFC    A$uip_arp$757
  0C:2CEFD    A$uip_arp$758
  0C:2CEFE    A$uip_arp$759
  0C:2CF00    A$uip_arp$760
  0C:2CF02    A$uip_arp$761
  0C:2CF05    A$uip_arp$762
  0C:2CF07    A$uip_arp$763
  0C:2CF08    A$uip_arp$764
  0C:2CF09    A$uip_arp$765
  0C:2CF0B    A$uip_arp$766
  0C:2CF0D    A$uip_arp$769
  0C:2CF0D    C$uip_arp.c$208$4$9
  0C:2CF10    A$uip_arp$770
  0C:2CF11    A$uip_arp$771
  0C:2CF12    A$uip_arp$772
  0C:2CF13    A$uip_arp$773
  0C:2CF14    A$uip_arp$776
  0C:2CF14    C$uip_arp.c$209$4$9
  0C:2CF17    A$uip_arp$777
  0C:2CF18    A$uip_arp$778
  0C:2CF19    A$uip_arp$782
  0C:2CF19    C$uip_arp.c$205$2$7
  0C:2CF1C    A$uip_arp$783
  0C:2CF1D    A$uip_arp$784
  0C:2CF1F    A$uip_arp$785
  0C:2CF20    A$uip_arp$786
  0C:2CF23    A$uip_arp$790
  0C:2CF23    C$uip_arp.c$212$2$7
  0C:2CF26    A$uip_arp$791
  0C:2CF27    A$uip_arp$792
  0C:2CF28    A$uip_arp$793
  0C:2CF2B    A$uip_arp$794
  0C:2CF2C    A$uip_arp$797
  0C:2CF2C    C$uip_arp.c$213$2$7
  0C:2CF2D    A$uip_arp$798
  0C:2CF30    A$uip_arp$799
  0C:2CF31    A$uip_arp$800
  0C:2CF33    A$uip_arp$801
  0C:2CF34    A$uip_arp$802
  0C:2CF35    A$uip_arp$803
  0C:2CF37    A$uip_arp$804
  0C:2CF38    A$uip_arp$805
  0C:2CF3A    A$uip_arp$806
  0C:2CF3C    A$uip_arp$807
  0C:2CF3D    A$uip_arp$808
  0C:2CF3F    A$uip_arp$809
  0C:2CF40    A$uip_arp$810
  0C:2CF42    A$uip_arp$811
  0C:2CF43    A$uip_arp$812
  0C:2CF45    A$uip_arp$816
  0C:2CF45    C$uip_arp.c$218$1$1
  0C:2CF47    A$uip_arp$817
  0C:2CF48    A$uip_arp$818
  0C:2CF4B    A$uip_arp$819
  0C:2CF4C    A$uip_arp$820
  0C:2CF4D    A$uip_arp$821
  0C:2CF4E    A$uip_arp$822
  0C:2CF4F    A$uip_arp$823
  0C:2CF50    A$uip_arp$824
  0C:2CF51    A$uip_arp$825
  0C:2CF52    A$uip_arp$826
  0C:2CF53    A$uip_arp$827
  0C:2CF54    A$uip_arp$828
  0C:2CF55    A$uip_arp$829
  0C:2CF58    A$uip_arp$830
  0C:2CF5A    A$uip_arp$831
  0C:2CF5B    A$uip_arp$832
  0C:2CF5C    A$uip_arp$833
  0C:2CF5D    A$uip_arp$834
  0C:2CF5E    A$uip_arp$835
  0C:2CF60    A$uip_arp$836
  0C:2CF62    A$uip_arp$837
  0C:2CF63    A$uip_arp$838
  0C:2CF65    A$uip_arp$839
  0C:2CF66    A$uip_arp$840
  0C:2CF68    A$uip_arp$841
  0C:2CF69    A$uip_arp$842
  0C:2CF6B    A$uip_arp$843
  0C:2CF6E    A$uip_arp$846
  0C:2CF6E    C$uip_arp.c$219$1$1
  0C:2CF70    A$uip_arp$847
  0C:2CF72    A$uip_arp$848
  0C:2CF73    A$uip_arp$849
  0C:2CF75    A$uip_arp$850
  0C:2CF76    A$uip_arp$851
  0C:2CF77    A$uip_arp$852
  0C:2CF78    A$uip_arp$853
  0C:2CF79    A$uip_arp$854
  0C:2CF7A    A$uip_arp$855
  0C:2CF7B    A$uip_arp$856
  0C:2CF7C    A$uip_arp$857
  0C:2CF7E    A$uip_arp$858
  0C:2CF80    A$uip_arp$859
  0C:2CF82    A$uip_arp$860
  0C:2CF83    A$uip_arp$861
  0C:2CF86    A$uip_arp$862
  0C:2CF87    A$uip_arp$863
  0C:2CF88    A$uip_arp$864
  0C:2CF89    A$uip_arp$865
  0C:2CF8A    A$uip_arp$866
  0C:2CF8B    A$uip_arp$867
  0C:2CF8C    A$uip_arp$868
  0C:2CF8D    A$uip_arp$869
  0C:2CF8E    A$uip_arp$870
  0C:2CF8F    A$uip_arp$871
  0C:2CF90    A$uip_arp$872
  0C:2CF93    A$uip_arp$873
  0C:2CF95    A$uip_arp$874
  0C:2CF96    A$uip_arp$875
  0C:2CF97    A$uip_arp$876
  0C:2CF98    A$uip_arp$877
  0C:2CF99    A$uip_arp$878
  0C:2CF9B    A$uip_arp$879
  0C:2CF9D    A$uip_arp$880
  0C:2CF9F    A$uip_arp$881
  0C:2CFA2    A$uip_arp$884
  0C:2CFA2    C$uip_arp.c$220$1$1
  0C:2CFA4    A$uip_arp$885
  0C:2CFA6    A$uip_arp$886
  0C:2CFA7    A$uip_arp$887
  0C:2CFA9    A$uip_arp$888
  0C:2CFAA    A$uip_arp$889
  0C:2CFAB    A$uip_arp$890
  0C:2CFAC    A$uip_arp$891
  0C:2CFAD    A$uip_arp$892
  0C:2CFAE    A$uip_arp$893
  0C:2CFAF    A$uip_arp$894
  0C:2CFB0    A$uip_arp$895
  0C:2CFB2    A$uip_arp$896
  0C:2CFB5    A$uip_arp$897
  0C:2CFB6    A$uip_arp$898
  0C:2CFB7    A$uip_arp$899
  0C:2CFB9    A$uip_arp$900
  0C:2CFBB    A$uip_arp$901
  0C:2CFBD    A$uip_arp$902
  0C:2CFC0    A$uip_arp$904
  0C:2CFC3    A$uip_arp$905
  0C:2CFC5    A$uip_arp$908
  0C:2CFC5    C$uip_arp.c$221$1$1
  0C:2CFC5    XFuip_arp$uip_arp_update$0$0
  0C:2CFC6    A$uip_arp$922
  0C:2CFC6    C$uip_arp.c$281$1$1
  0C:2CFC6    C$uip_arp.c$284$1$1
  0C:2CFC6    G$uip_arp_arpin$0$0
  0C:2CFC6    _uip_arp_arpin
  0C:2CFC9    A$uip_arp$923
  0C:2CFCA    A$uip_arp$924
  0C:2CFCB    A$uip_arp$925
  0C:2CFCC    A$uip_arp$926
  0C:2CFCD    A$uip_arp$927
  0C:2CFCE    A$uip_arp$928
  0C:2CFCF    A$uip_arp$929
  0C:2CFD0    A$uip_arp$930
  0C:2CFD2    A$uip_arp$931
  0C:2CFD3    A$uip_arp$932
  0C:2CFD5    A$uip_arp$933
  0C:2CFD7    A$uip_arp$936
  0C:2CFD7    C$uip_arp.c$285$2$2
  0C:2CFDA    A$uip_arp$937
  0C:2CFDB    A$uip_arp$938
  0C:2CFDC    A$uip_arp$939
  0C:2CFDD    A$uip_arp$940
  0C:2CFDE    A$uip_arp$943
  0C:2CFDE    C$uip_arp.c$286$2$2
  0C:2CFE1    A$uip_arp$947
  0C:2CFE1    C$uip_arp.c$288$1$1
  0C:2CFE4    A$uip_arp$948
  0C:2CFE5    A$uip_arp$949
  0C:2CFE6    A$uip_arp$950
  0C:2CFE7    A$uip_arp$951
  0C:2CFE8    A$uip_arp$954
  0C:2CFE8    C$uip_arp.c$290$1$1
  0C:2CFEB    A$uip_arp$955
  0C:2CFEE    A$uip_arp$956
  0C:2CFF1    A$uip_arp$957
  0C:2CFF2    A$uip_arp$958
  0C:2CFF3    A$uip_arp$959
  0C:2CFF6    A$uip_arp$960
  0C:2CFF7    A$uip_arp$961
  0C:2CFFA    A$uip_arp$962
  0C:2CFFD    A$uip_arp$963
  0C:2CFFF    A$uip_arp$965
  0C:2D002    A$uip_arp$966
  0C:2D005    A$uip_arp$967
  0C:2D008    A$uip_arp$969
  0C:2D00B    A$uip_arp$975
  0C:2D00B    C$uip_arp.c$291$2$3
  0C:2D00B    C$uip_arp.c$294$2$3
  0C:2D00E    A$uip_arp$976
  0C:2D011    A$uip_arp$977
  0C:2D014    A$uip_arp$978
  0C:2D015    A$uip_arp$979
  0C:2D016    A$uip_arp$980
  0C:2D019    A$uip_arp$981
  0C:2D01A    A$uip_arp$982
  0C:2D01D    A$uip_arp$983
  0C:2D01E    A$uip_arp$984
  0C:2D01F    A$uip_arp$985
  0C:2D020    A$uip_arp$986
  0C:2D021    A$uip_arp$987
  0C:2D022    A$uip_arp$988
  0C:2D023    A$uip_arp$989
  0C:2D026    A$uip_arp$990
  0C:2D027    A$uip_arp$991
  0C:2D02A    A$uip_arp$992
  0C:2D02C    A$uip_arp$994
  0C:2D02F    A$uip_arp$996
  0C:2D032    A$uip_arp$997
  0C:2D035    A$uip_arp$998
  0C:2D038    A$uip_arp$999
  0C:2D039    A$uip_arp$1000
  0C:2D03A    A$uip_arp$1001
  0C:2D03D    A$uip_arp$1002
  0C:2D03E    A$uip_arp$1003
  0C:2D041    A$uip_arp$1004
  0C:2D044    A$uip_arp$1005
  0C:2D047    A$uip_arp$1006
  0C:2D048    A$uip_arp$1007
  0C:2D049    A$uip_arp$1008
  0C:2D04C    A$uip_arp$1009
  0C:2D04D    A$uip_arp$1010
  0C:2D04E    A$uip_arp$1011
  0C:2D051    A$uip_arp$1012
  0C:2D052    A$uip_arp$1013
  0C:2D055    A$uip_arp$1014
  0C:2D057    A$uip_arp$1016
  0C:2D05A    A$uip_arp$1020
  0C:2D05A    C$uip_arp.c$298$3$4
  0C:2D05C    A$uip_arp$1021
  0C:2D05E    A$uip_arp$1022
  0C:2D060    A$uip_arp$1023
  0C:2D062    A$uip_arp$1024
  0C:2D063    A$uip_arp$1025
  0C:2D065    A$uip_arp$1026
  0C:2D068    A$uip_arp$1027
  0C:2D06B    A$uip_arp$1028
  0C:2D06E    A$uip_arp$1029
  0C:2D070    A$uip_arp$1030
  0C:2D072    A$uip_arp$1031
  0C:2D074    A$uip_arp$1034
  0C:2D074    C$uip_arp.c$301$3$4
  0C:2D077    A$uip_arp$1035
  0C:2D078    A$uip_arp$1036
  0C:2D07A    A$uip_arp$1037
  0C:2D07D    A$uip_arp$1038
  0C:2D07E    A$uip_arp$1039
  0C:2D080    A$uip_arp$1040
  0C:2D083    A$uip_arp$1043
  0C:2D083    C$uip_arp.c$303$3$4
  0C:2D086    A$uip_arp$1044
  0C:2D088    A$uip_arp$1045
  0C:2D08A    A$uip_arp$1046
  0C:2D08B    A$uip_arp$1047
  0C:2D08C    A$uip_arp$1048
  0C:2D08E    A$uip_arp$1049
  0C:2D08F    A$uip_arp$1050
  0C:2D090    A$uip_arp$1051
  0C:2D091    A$uip_arp$1052
  0C:2D092    A$uip_arp$1053
  0C:2D093    A$uip_arp$1054
  0C:2D096    A$uip_arp$1055
  0C:2D098    A$uip_arp$1056
  0C:2D099    A$uip_arp$1057
  0C:2D09A    A$uip_arp$1058
  0C:2D09B    A$uip_arp$1059
  0C:2D09C    A$uip_arp$1060
  0C:2D09F    A$uip_arp$1061
  0C:2D0A2    A$uip_arp$1062
  0C:2D0A5    A$uip_arp$1065
  0C:2D0A5    C$uip_arp.c$304$3$4
  0C:2D0A8    A$uip_arp$1066
  0C:2D0AA    A$uip_arp$1067
  0C:2D0AB    A$uip_arp$1068
  0C:2D0AC    A$uip_arp$1069
  0C:2D0AD    A$uip_arp$1070
  0C:2D0AE    A$uip_arp$1071
  0C:2D0AF    A$uip_arp$1072
  0C:2D0B1    A$uip_arp$1073
  0C:2D0B2    A$uip_arp$1074
  0C:2D0B5    A$uip_arp$1075
  0C:2D0B7    A$uip_arp$1076
  0C:2D0B8    A$uip_arp$1077
  0C:2D0B9    A$uip_arp$1078
  0C:2D0BA    A$uip_arp$1079
  0C:2D0BB    A$uip_arp$1080
  0C:2D0BE    A$uip_arp$1081
  0C:2D0C1    A$uip_arp$1082
  0C:2D0C4    A$uip_arp$1085
  0C:2D0C4    C$uip_arp.c$305$3$4
  0C:2D0C7    A$uip_arp$1086
  0C:2D0C9    A$uip_arp$1087
  0C:2D0CA    A$uip_arp$1088
  0C:2D0CB    A$uip_arp$1089
  0C:2D0CC    A$uip_arp$1090
  0C:2D0CD    A$uip_arp$1091
  0C:2D0CE    A$uip_arp$1092
  0C:2D0D0    A$uip_arp$1093
  0C:2D0D1    A$uip_arp$1094
  0C:2D0D4    A$uip_arp$1095
  0C:2D0D6    A$uip_arp$1096
  0C:2D0D7    A$uip_arp$1097
  0C:2D0D8    A$uip_arp$1098
  0C:2D0D9    A$uip_arp$1099
  0C:2D0DA    A$uip_arp$1100
  0C:2D0DD    A$uip_arp$1101
  0C:2D0E0    A$uip_arp$1102
  0C:2D0E3    A$uip_arp$1105
  0C:2D0E3    C$uip_arp.c$306$3$4
  0C:2D0E6    A$uip_arp$1106
  0C:2D0E8    A$uip_arp$1107
  0C:2D0EA    A$uip_arp$1108
  0C:2D0EB    A$uip_arp$1109
  0C:2D0EC    A$uip_arp$1110
  0C:2D0EE    A$uip_arp$1111
  0C:2D0EF    A$uip_arp$1112
  0C:2D0F0    A$uip_arp$1113
  0C:2D0F1    A$uip_arp$1114
  0C:2D0F2    A$uip_arp$1115
  0C:2D0F3    A$uip_arp$1116
  0C:2D0F6    A$uip_arp$1117
  0C:2D0F8    A$uip_arp$1118
  0C:2D0F9    A$uip_arp$1119
  0C:2D0FA    A$uip_arp$1120
  0C:2D0FB    A$uip_arp$1121
  0C:2D0FC    A$uip_arp$1122
  0C:2D0FF    A$uip_arp$1123
  0C:2D102    A$uip_arp$1124
  0C:2D105    A$uip_arp$1127
  0C:2D105    C$uip_arp.c$308$3$4
  0C:2D107    A$uip_arp$1128
  0C:2D109    A$uip_arp$1129
  0C:2D10B    A$uip_arp$1130
  0C:2D10D    A$uip_arp$1131
  0C:2D10F    A$uip_arp$1132
  0C:2D111    A$uip_arp$1133
  0C:2D113    A$uip_arp$1134
  0C:2D115    A$uip_arp$1135
  0C:2D117    A$uip_arp$1136
  0C:2D11A    A$uip_arp$1137
  0C:2D11B    A$uip_arp$1138
  0C:2D11C    A$uip_arp$1139
  0C:2D11F    A$uip_arp$1140
  0C:2D120    A$uip_arp$1141
  0C:2D122    A$uip_arp$1142
  0C:2D124    A$uip_arp$1143
  0C:2D126    A$uip_arp$1144
  0C:2D127    A$uip_arp$1145
  0C:2D12A    A$uip_arp$1146
  0C:2D12B    A$uip_arp$1147
  0C:2D12C    A$uip_arp$1148
  0C:2D12F    A$uip_arp$1151
  0C:2D12F    C$uip_arp.c$309$3$4
  0C:2D132    A$uip_arp$1152
  0C:2D135    A$uip_arp$1153
  0C:2D138    A$uip_arp$1154
  0C:2D139    A$uip_arp$1155
  0C:2D13A    A$uip_arp$1156
  0C:2D13D    A$uip_arp$1157
  0C:2D13E    A$uip_arp$1158
  0C:2D141    A$uip_arp$1159
  0C:2D144    A$uip_arp$1160
  0C:2D145    A$uip_arp$1161
  0C:2D148    A$uip_arp$1162
  0C:2D149    A$uip_arp$1163
  0C:2D14A    A$uip_arp$1164
  0C:2D14D    A$uip_arp$1167
  0C:2D14D    C$uip_arp.c$310$3$4
  0C:2D14F    A$uip_arp$1168
  0C:2D151    A$uip_arp$1169
  0C:2D153    A$uip_arp$1170
  0C:2D156    A$uip_arp$1171
  0C:2D157    A$uip_arp$1172
  0C:2D158    A$uip_arp$1173
  0C:2D159    A$uip_arp$1174
  0C:2D15A    A$uip_arp$1175
  0C:2D15B    A$uip_arp$1176
  0C:2D15D    A$uip_arp$1177
  0C:2D15F    A$uip_arp$1178
  0C:2D161    A$uip_arp$1179
  0C:2D162    A$uip_arp$1180
  0C:2D165    A$uip_arp$1181
  0C:2D166    A$uip_arp$1182
  0C:2D167    A$uip_arp$1183
  0C:2D16A    A$uip_arp$1186
  0C:2D16A    C$uip_arp.c$311$3$4
  0C:2D16D    A$uip_arp$1187
  0C:2D16E    A$uip_arp$1188
  0C:2D16F    A$uip_arp$1189
  0C:2D170    A$uip_arp$1190
  0C:2D171    A$uip_arp$1191
  0C:2D172    A$uip_arp$1192
  0C:2D175    A$uip_arp$1193
  0C:2D178    A$uip_arp$1194
  0C:2D179    A$uip_arp$1195
  0C:2D17C    A$uip_arp$1196
  0C:2D17D    A$uip_arp$1197
  0C:2D17E    A$uip_arp$1198
  0C:2D181    A$uip_arp$1201
  0C:2D181    C$uip_arp.c$313$3$4
  0C:2D184    A$uip_arp$1202
  0C:2D187    A$uip_arp$1203
  0C:2D189    A$uip_arp$1204
  0C:2D18C    A$uip_arp$1205
  0C:2D18D    A$uip_arp$1206
  0C:2D18F    A$uip_arp$1207
  0C:2D192    A$uip_arp$1210
  0C:2D192    C$uip_arp.c$314$3$4
  0C:2D195    A$uip_arp$1211
  0C:2D197    A$uip_arp$1212
  0C:2D198    A$uip_arp$1213
  0C:2D199    A$uip_arp$1214
  0C:2D19A    A$uip_arp$1215
  0C:2D19B    A$uip_arp$1220
  0C:2D19B    C$uip_arp.c$316$2$3
  0C:2D19B    C$uip_arp.c$317$2$3
  0C:2D19D    A$uip_arp$1224
  0C:2D19D    C$uip_arp.c$320$2$3
  0C:2D1A0    A$uip_arp$1225
  0C:2D1A3    A$uip_arp$1226
  0C:2D1A6    A$uip_arp$1227
  0C:2D1A7    A$uip_arp$1228
  0C:2D1A8    A$uip_arp$1229
  0C:2D1AB    A$uip_arp$1230
  0C:2D1AC    A$uip_arp$1231
  0C:2D1AF    A$uip_arp$1232
  0C:2D1B0    A$uip_arp$1233
  0C:2D1B1    A$uip_arp$1234
  0C:2D1B2    A$uip_arp$1235
  0C:2D1B3    A$uip_arp$1236
  0C:2D1B4    A$uip_arp$1237
  0C:2D1B5    A$uip_arp$1238
  0C:2D1B8    A$uip_arp$1239
  0C:2D1B9    A$uip_arp$1240
  0C:2D1BC    A$uip_arp$1241
  0C:2D1BF    A$uip_arp$1242
  0C:2D1C2    A$uip_arp$1243
  0C:2D1C5    A$uip_arp$1244
  0C:2D1C6    A$uip_arp$1245
  0C:2D1C7    A$uip_arp$1246
  0C:2D1CA    A$uip_arp$1247
  0C:2D1CB    A$uip_arp$1248
  0C:2D1CE    A$uip_arp$1249
  0C:2D1D1    A$uip_arp$1250
  0C:2D1D4    A$uip_arp$1251
  0C:2D1D5    A$uip_arp$1252
  0C:2D1D6    A$uip_arp$1253
  0C:2D1D9    A$uip_arp$1254
  0C:2D1DA    A$uip_arp$1255
  0C:2D1DB    A$uip_arp$1256
  0C:2D1DE    A$uip_arp$1257
  0C:2D1DF    A$uip_arp$1258
  0C:2D1E2    A$uip_arp$1261
  0C:2D1E2    C$uip_arp.c$321$3$5
  0C:2D1E4    A$uip_arp$1262
  0C:2D1E6    A$uip_arp$1263
  0C:2D1E8    A$uip_arp$1264
  0C:2D1EA    A$uip_arp$1265
  0C:2D1EB    A$uip_arp$1266
  0C:2D1ED    A$uip_arp$1267
  0C:2D1F0    A$uip_arp$1268
  0C:2D1F3    A$uip_arp$1269
  0C:2D1F6    A$uip_arp$1270
  0C:2D1F8    A$uip_arp$1271
  0C:2D1FA    A$uip_arp$1272
  0C:2D1FC    A$uip_arp$1281
  0C:2D1FC    C$uip_arp.c$324$1$1
  0C:2D1FC    C$uip_arp.c$326$1$1
  0C:2D1FC    C$uip_arp.c$327$1$1
  0C:2D1FC    XG$uip_arp_arpin$0$0
  0C:2D1FF    A$uip_arp$1294
  0C:2D1FF    C$uip_arp.c$357$1$1
  0C:2D1FF    G$uip_arp_out$0$0
  0C:2D1FF    _uip_arp_out
  0C:2D201    A$uip_arp$1295
  0C:2D204    A$uip_arp$1296
  0C:2D206    A$uip_arp$1297
  0C:2D208    A$uip_arp$1298
  0C:2D20A    A$uip_arp$1301
  0C:2D20A    C$uip_arp.c$359$1$1
  0C:2D20C    A$uip_arp$1302
  0C:2D20D    A$uip_arp$1303
  0C:2D20E    A$uip_arp$1304
  0C:2D20F    A$uip_arp$1305
  0C:2D210    A$uip_arp$1306
  0C:2D211    A$uip_arp$1307
  0C:2D212    A$uip_arp$1308
  0C:2D214    A$uip_arp$1311
  0C:2D214    C$uip_arp.c$369$1$1
  0C:2D217    A$uip_arp$1312
  0C:2D21A    A$uip_arp$1313
  0C:2D21D    A$uip_arp$1314
  0C:2D21E    A$uip_arp$1315
  0C:2D21F    A$uip_arp$1316
  0C:2D222    A$uip_arp$1317
  0C:2D223    A$uip_arp$1318
  0C:2D226    A$uip_arp$1319
  0C:2D227    A$uip_arp$1320
  0C:2D228    A$uip_arp$1321
  0C:2D229    A$uip_arp$1322
  0C:2D22A    A$uip_arp$1323
  0C:2D22B    A$uip_arp$1324
  0C:2D22C    A$uip_arp$1325
  0C:2D22D    A$uip_arp$1326
  0C:2D22E    A$uip_arp$1327
  0C:2D231    A$uip_arp$1328
  0C:2D232    A$uip_arp$1329
  0C:2D235    A$uip_arp$1330
  0C:2D238    A$uip_arp$1331
  0C:2D23B    A$uip_arp$1332
  0C:2D23E    A$uip_arp$1333
  0C:2D23F    A$uip_arp$1334
  0C:2D240    A$uip_arp$1335
  0C:2D243    A$uip_arp$1336
  0C:2D244    A$uip_arp$1337
  0C:2D247    A$uip_arp$1338
  0C:2D24A    A$uip_arp$1339
  0C:2D24D    A$uip_arp$1340
  0C:2D24E    A$uip_arp$1341
  0C:2D24F    A$uip_arp$1342
  0C:2D252    A$uip_arp$1343
  0C:2D253    A$uip_arp$1344
  0C:2D254    A$uip_arp$1345
  0C:2D257    A$uip_arp$1346
  0C:2D258    A$uip_arp$1347
  0C:2D25B    A$uip_arp$1350
  0C:2D25B    C$uip_arp.c$370$2$2
  0C:2D25E    A$uip_arp$1351
  0C:2D260    A$uip_arp$1352
  0C:2D261    A$uip_arp$1353
  0C:2D262    A$uip_arp$1354
  0C:2D264    A$uip_arp$1355
  0C:2D265    A$uip_arp$1356
  0C:2D266    A$uip_arp$1357
  0C:2D268    A$uip_arp$1358
  0C:2D269    A$uip_arp$1359
  0C:2D26C    A$uip_arp$1360
  0C:2D26E    A$uip_arp$1361
  0C:2D26F    A$uip_arp$1362
  0C:2D270    A$uip_arp$1363
  0C:2D271    A$uip_arp$1364
  0C:2D272    A$uip_arp$1365
  0C:2D275    A$uip_arp$1366
  0C:2D278    A$uip_arp$1367
  0C:2D27B    A$uip_arp$1368
  0C:2D27E    A$uip_arp$1372
  0C:2D27E    C$uip_arp.c$373$2$3
  0C:2D281    A$uip_arp$1373
  0C:2D284    A$uip_arp$1374
  0C:2D287    A$uip_arp$1375
  0C:2D288    A$uip_arp$1376
  0C:2D289    A$uip_arp$1377
  0C:2D28C    A$uip_arp$1378
  0C:2D28D    A$uip_arp$1379
  0C:2D290    A$uip_arp$1380
  0C:2D291    A$uip_arp$1381
  0C:2D292    A$uip_arp$1382
  0C:2D293    A$uip_arp$1383
  0C:2D294    A$uip_arp$1384
  0C:2D295    A$uip_arp$1385
  0C:2D296    A$uip_arp$1386
  0C:2D298    A$uip_arp$1387
  0C:2D299    A$uip_arp$1388
  0C:2D29B    A$uip_arp$1389
  0C:2D29E    A$uip_arp$1390
  0C:2D29F    A$uip_arp$1391
  0C:2D2A0    A$uip_arp$1392
  0C:2D2A1    A$uip_arp$1393
  0C:2D2A2    A$uip_arp$1394
  0C:2D2A3    A$uip_arp$1395
  0C:2D2A6    A$uip_arp$1396
  0C:2D2A7    A$uip_arp$1397
  0C:2D2A8    A$uip_arp$1398
  0C:2D2A9    A$uip_arp$1399
  0C:2D2AA    A$uip_arp$1400
  0C:2D2AB    A$uip_arp$1401
  0C:2D2AC    A$uip_arp$1402
  0C:2D2AE    A$uip_arp$1403
  0C:2D2AF    A$uip_arp$1404
  0C:2D2B1    A$uip_arp$1405
  0C:2D2B2    A$uip_arp$1406
  0C:2D2B5    A$uip_arp$1407
  0C:2D2B6    A$uip_arp$1408
  0C:2D2B9    A$uip_arp$1409
  0C:2D2BC    A$uip_arp$1410
  0C:2D2BF    A$uip_arp$1411
  0C:2D2C2    A$uip_arp$1412
  0C:2D2C3    A$uip_arp$1413
  0C:2D2C4    A$uip_arp$1414
  0C:2D2C7    A$uip_arp$1415
  0C:2D2C8    A$uip_arp$1416
  0C:2D2CB    A$uip_arp$1417
  0C:2D2CE    A$uip_arp$1418
  0C:2D2D1    A$uip_arp$1419
  0C:2D2D2    A$uip_arp$1420
  0C:2D2D3    A$uip_arp$1421
  0C:2D2D6    A$uip_arp$1422
  0C:2D2D7    A$uip_arp$1423
  0C:2D2D8    A$uip_arp$1424
  0C:2D2DA    A$uip_arp$1425
  0C:2D2DB    A$uip_arp$1426
  0C:2D2DD    A$uip_arp$1427
  0C:2D2E0    A$uip_arp$1428
  0C:2D2E3    A$uip_arp$1429
  0C:2D2E6    A$uip_arp$1430
  0C:2D2E7    A$uip_arp$1431
  0C:2D2E8    A$uip_arp$1432
  0C:2D2EB    A$uip_arp$1433
  0C:2D2EC    A$uip_arp$1434
  0C:2D2EF    A$uip_arp$1435
  0C:2D2F2    A$uip_arp$1436
  0C:2D2F5    A$uip_arp$1437
  0C:2D2F6    A$uip_arp$1438
  0C:2D2F7    A$uip_arp$1439
  0C:2D2FA    A$uip_arp$1440
  0C:2D2FB    A$uip_arp$1441
  0C:2D2FC    A$uip_arp$1442
  0C:2D2FE    A$uip_arp$1443
  0C:2D2FF    A$uip_arp$1444
  0C:2D301    A$uip_arp$1445
  0C:2D302    A$uip_arp$1446
  0C:2D305    A$uip_arp$1447
  0C:2D306    A$uip_arp$1448
  0C:2D309    A$uip_arp$1449
  0C:2D30B    A$uip_arp$1454
  0C:2D30B    C$uip_arp.c$377$3$4
  0C:2D30E    A$uip_arp$1455
  0C:2D30F    A$uip_arp$1456
  0C:2D310    A$uip_arp$1457
  0C:2D311    A$uip_arp$1458
  0C:2D312    A$uip_arp$1459
  0C:2D313    A$uip_arp$1460
  0C:2D316    A$uip_arp$1461
  0C:2D317    A$uip_arp$1462
  0C:2D318    A$uip_arp$1463
  0C:2D319    A$uip_arp$1464
  0C:2D31A    A$uip_arp$1465
  0C:2D31B    A$uip_arp$1466
  0C:2D31E    A$uip_arp$1467
  0C:2D321    A$uip_arp$1468
  0C:2D324    A$uip_arp$1469
  0C:2D325    A$uip_arp$1470
  0C:2D326    A$uip_arp$1471
  0C:2D329    A$uip_arp$1472
  0C:2D32A    A$uip_arp$1473
  0C:2D32D    A$uip_arp$1474
  0C:2D330    A$uip_arp$1475
  0C:2D331    A$uip_arp$1476
  0C:2D334    A$uip_arp$1477
  0C:2D335    A$uip_arp$1478
  0C:2D336    A$uip_arp$1479
  0C:2D339    A$uip_arp$1482
  0C:2D339    C$uip_arp.c$380$3$6
  0C:2D33B    A$uip_arp$1484
  0C:2D33E    A$uip_arp$1485
  0C:2D341    A$uip_arp$1486
  0C:2D344    A$uip_arp$1487
  0C:2D345    A$uip_arp$1488
  0C:2D346    A$uip_arp$1489
  0C:2D349    A$uip_arp$1490
  0C:2D34A    A$uip_arp$1491
  0C:2D34D    A$uip_arp$1492
  0C:2D34E    A$uip_arp$1493
  0C:2D34F    A$uip_arp$1494
  0C:2D350    A$uip_arp$1495
  0C:2D351    A$uip_arp$1496
  0C:2D352    A$uip_arp$1497
  0C:2D355    A$uip_arp$1498
  0C:2D358    A$uip_arp$1499
  0C:2D35B    A$uip_arp$1500
  0C:2D35C    A$uip_arp$1501
  0C:2D35D    A$uip_arp$1502
  0C:2D360    A$uip_arp$1503
  0C:2D361    A$uip_arp$1504
  0C:2D364    A$uip_arp$1505
  0C:2D367    A$uip_arp$1506
  0C:2D368    A$uip_arp$1507
  0C:2D36B    A$uip_arp$1508
  0C:2D36C    A$uip_arp$1509
  0C:2D36D    A$uip_arp$1510
  0C:2D370    A$uip_arp$1514
  0C:2D373    A$uip_arp$1515
  0C:2D374    A$uip_arp$1516
  0C:2D375    A$uip_arp$1518
  0C:2D378    A$uip_arp$1519
  0C:2D379    A$uip_arp$1520
  0C:2D37A    A$uip_arp$1521
  0C:2D37D    A$uip_arp$1523
  0C:2D37F    A$uip_arp$1526
  0C:2D37F    C$uip_arp.c$384$3$8
  0C:2D380    A$uip_arp$1527
  0C:2D383    A$uip_arp$1528
  0C:2D384    A$uip_arp$1529
  0C:2D386    A$uip_arp$1530
  0C:2D387    A$uip_arp$1531
  0C:2D388    A$uip_arp$1532
  0C:2D38A    A$uip_arp$1533
  0C:2D38B    A$uip_arp$1534
  0C:2D38D    A$uip_arp$1535
  0C:2D38E    A$uip_arp$1536
  0C:2D390    A$uip_arp$1537
  0C:2D391    A$uip_arp$1538
  0C:2D393    A$uip_arp$1539
  0C:2D394    A$uip_arp$1540
  0C:2D396    A$uip_arp$1543
  0C:2D396    C$uip_arp.c$385$3$8
  0C:2D399    A$uip_arp$1544
  0C:2D39A    A$uip_arp$1545
  0C:2D39B    A$uip_arp$1546
  0C:2D39C    A$uip_arp$1547
  0C:2D39D    A$uip_arp$1548
  0C:2D39E    A$uip_arp$1549
  0C:2D3A0    A$uip_arp$1550
  0C:2D3A1    A$uip_arp$1551
  0C:2D3A3    A$uip_arp$1552
  0C:2D3A4    A$uip_arp$1553
  0C:2D3A6    A$uip_arp$1554
  0C:2D3A7    A$uip_arp$1555
  0C:2D3A9    A$uip_arp$1556
  0C:2D3AC    A$uip_arp$1557
  0C:2D3AD    A$uip_arp$1558
  0C:2D3AE    A$uip_arp$1559
  0C:2D3B1    A$uip_arp$1560
  0C:2D3B2    A$uip_arp$1561
  0C:2D3B3    A$uip_arp$1562
  0C:2D3B6    A$uip_arp$1563
  0C:2D3B7    A$uip_arp$1564
  0C:2D3BA    A$uip_arp$1565
  0C:2D3BD    A$uip_arp$1566
  0C:2D3C0    A$uip_arp$1567
  0C:2D3C3    A$uip_arp$1568
  0C:2D3C4    A$uip_arp$1569
  0C:2D3C5    A$uip_arp$1570
  0C:2D3C8    A$uip_arp$1571
  0C:2D3C9    A$uip_arp$1572
  0C:2D3CB    A$uip_arp$1573
  0C:2D3CC    A$uip_arp$1574
  0C:2D3CE    A$uip_arp$1575
  0C:2D3CF    A$uip_arp$1576
  0C:2D3D0    A$uip_arp$1577
  0C:2D3D1    A$uip_arp$1578
  0C:2D3D2    A$uip_arp$1579
  0C:2D3D3    A$uip_arp$1580
  0C:2D3D4    A$uip_arp$1581
  0C:2D3D5    A$uip_arp$1582
  0C:2D3D7    A$uip_arp$1583
  0C:2D3D9    A$uip_arp$1584
  0C:2D3DB    A$uip_arp$1585
  0C:2D3DD    A$uip_arp$1586
  0C:2D3E0    A$uip_arp$1587
  0C:2D3E1    A$uip_arp$1588
  0C:2D3E2    A$uip_arp$1589
  0C:2D3E5    A$uip_arp$1590
  0C:2D3E6    A$uip_arp$1591
  0C:2D3E7    A$uip_arp$1592
  0C:2D3EA    A$uip_arp$1593
  0C:2D3EB    A$uip_arp$1594
  0C:2D3EE    A$uip_arp$1595
  0C:2D3F0    A$uip_arp$1602
  0C:2D3F0    C$uip_arp.c$383$2$3
  0C:2D3F0    C$uip_arp.c$386$2$3
  0C:2D3F3    A$uip_arp$1603
  0C:2D3F4    A$uip_arp$1604
  0C:2D3F6    A$uip_arp$1605
  0C:2D3F7    A$uip_arp$1606
  0C:2D3FA    A$uip_arp$1610
  0C:2D3FA    C$uip_arp.c$390$2$3
  0C:2D3FD    A$uip_arp$1611
  0C:2D3FE    A$uip_arp$1612
  0C:2D3FF    A$uip_arp$1613
  0C:2D402    A$uip_arp$1614
  0C:2D404    A$uip_arp$1616
  0C:2D407    A$uip_arp$1620
  0C:2D407    C$uip_arp.c$394$3$10
  0C:2D40A    A$uip_arp$1621
  0C:2D40C    A$uip_arp$1622
  0C:2D40D    A$uip_arp$1623
  0C:2D410    A$uip_arp$1624
  0C:2D412    A$uip_arp$1625
  0C:2D413    A$uip_arp$1626
  0C:2D414    A$uip_arp$1627
  0C:2D415    A$uip_arp$1628
  0C:2D416    A$uip_arp$1629
  0C:2D419    A$uip_arp$1630
  0C:2D41C    A$uip_arp$1631
  0C:2D41F    A$uip_arp$1634
  0C:2D41F    C$uip_arp.c$395$3$10
  0C:2D422    A$uip_arp$1635
  0C:2D423    A$uip_arp$1636
  0C:2D424    A$uip_arp$1637
  0C:2D427    A$uip_arp$1638
  0C:2D429    A$uip_arp$1639
  0C:2D42A    A$uip_arp$1640
  0C:2D42B    A$uip_arp$1641
  0C:2D42C    A$uip_arp$1642
  0C:2D42D    A$uip_arp$1643
  0C:2D430    A$uip_arp$1644
  0C:2D433    A$uip_arp$1645
  0C:2D436    A$uip_arp$1648
  0C:2D436    C$uip_arp.c$396$3$10
  0C:2D439    A$uip_arp$1649
  0C:2D43B    A$uip_arp$1650
  0C:2D43C    A$uip_arp$1651
  0C:2D43D    A$uip_arp$1652
  0C:2D43E    A$uip_arp$1653
  0C:2D43F    A$uip_arp$1654
  0C:2D440    A$uip_arp$1655
  0C:2D442    A$uip_arp$1656
  0C:2D443    A$uip_arp$1657
  0C:2D446    A$uip_arp$1658
  0C:2D448    A$uip_arp$1659
  0C:2D449    A$uip_arp$1660
  0C:2D44A    A$uip_arp$1661
  0C:2D44B    A$uip_arp$1662
  0C:2D44C    A$uip_arp$1663
  0C:2D44F    A$uip_arp$1664
  0C:2D452    A$uip_arp$1665
  0C:2D455    A$uip_arp$1668
  0C:2D455    C$uip_arp.c$397$3$10
  0C:2D458    A$uip_arp$1669
  0C:2D45A    A$uip_arp$1670
  0C:2D45B    A$uip_arp$1671
  0C:2D45C    A$uip_arp$1672
  0C:2D45D    A$uip_arp$1673
  0C:2D45E    A$uip_arp$1674
  0C:2D45F    A$uip_arp$1675
  0C:2D461    A$uip_arp$1676
  0C:2D462    A$uip_arp$1677
  0C:2D465    A$uip_arp$1678
  0C:2D467    A$uip_arp$1679
  0C:2D468    A$uip_arp$1680
  0C:2D469    A$uip_arp$1681
  0C:2D46A    A$uip_arp$1682
  0C:2D46B    A$uip_arp$1683
  0C:2D46E    A$uip_arp$1684
  0C:2D471    A$uip_arp$1685
  0C:2D474    A$uip_arp$1688
  0C:2D474    C$uip_arp.c$399$4$11
  0C:2D477    A$uip_arp$1689
  0C:2D478    A$uip_arp$1690
  0C:2D479    A$uip_arp$1691
  0C:2D47A    A$uip_arp$1692
  0C:2D47B    A$uip_arp$1693
  0C:2D47C    A$uip_arp$1694
  0C:2D47F    A$uip_arp$1695
  0C:2D482    A$uip_arp$1696
  0C:2D483    A$uip_arp$1697
  0C:2D486    A$uip_arp$1698
  0C:2D487    A$uip_arp$1699
  0C:2D488    A$uip_arp$1700
  0C:2D48B    A$uip_arp$1701
  0C:2D48E    A$uip_arp$1702
  0C:2D491    A$uip_arp$1703
  0C:2D494    A$uip_arp$1704
  0C:2D495    A$uip_arp$1705
  0C:2D496    A$uip_arp$1706
  0C:2D499    A$uip_arp$1707
  0C:2D49A    A$uip_arp$1708
  0C:2D49D    A$uip_arp$1709
  0C:2D4A0    A$uip_arp$1710
  0C:2D4A1    A$uip_arp$1711
  0C:2D4A4    A$uip_arp$1712
  0C:2D4A5    A$uip_arp$1713
  0C:2D4A6    A$uip_arp$1714
  0C:2D4A9    A$uip_arp$1717
  0C:2D4A9    C$uip_arp.c$400$4$12
  0C:2D4AC    A$uip_arp$1718
  0C:2D4AD    A$uip_arp$1719
  0C:2D4AE    A$uip_arp$1720
  0C:2D4AF    A$uip_arp$1721
  0C:2D4B0    A$uip_arp$1722
  0C:2D4B1    A$uip_arp$1723
  0C:2D4B4    A$uip_arp$1724
  0C:2D4B7    A$uip_arp$1725
  0C:2D4B8    A$uip_arp$1726
  0C:2D4BB    A$uip_arp$1727
  0C:2D4BC    A$uip_arp$1728
  0C:2D4BD    A$uip_arp$1729
  0C:2D4C0    A$uip_arp$1730
  0C:2D4C3    A$uip_arp$1731
  0C:2D4C6    A$uip_arp$1732
  0C:2D4C9    A$uip_arp$1733
  0C:2D4CA    A$uip_arp$1734
  0C:2D4CB    A$uip_arp$1735
  0C:2D4CE    A$uip_arp$1736
  0C:2D4CF    A$uip_arp$1737
  0C:2D4D2    A$uip_arp$1738
  0C:2D4D5    A$uip_arp$1739
  0C:2D4D6    A$uip_arp$1740
  0C:2D4D9    A$uip_arp$1741
  0C:2D4DA    A$uip_arp$1742
  0C:2D4DB    A$uip_arp$1743
  0C:2D4DE    A$uip_arp$1746
  0C:2D4DE    C$uip_arp.c$401$3$10
  0C:2D4E1    A$uip_arp$1747
  0C:2D4E2    A$uip_arp$1748
  0C:2D4E4    A$uip_arp$1749
  0C:2D4E7    A$uip_arp$1750
  0C:2D4E8    A$uip_arp$1751
  0C:2D4EA    A$uip_arp$1752
  0C:2D4ED    A$uip_arp$1755
  0C:2D4ED    C$uip_arp.c$402$3$10
  0C:2D4F0    A$uip_arp$1756
  0C:2D4F1    A$uip_arp$1757
  0C:2D4F3    A$uip_arp$1758
  0C:2D4F6    A$uip_arp$1759
  0C:2D4F7    A$uip_arp$1760
  0C:2D4F9    A$uip_arp$1761
  0C:2D4FC    A$uip_arp$1764
  0C:2D4FC    C$uip_arp.c$403$3$10
  0C:2D4FF    A$uip_arp$1765
  0C:2D502    A$uip_arp$1766
  0C:2D504    A$uip_arp$1767
  0C:2D507    A$uip_arp$1768
  0C:2D508    A$uip_arp$1769
  0C:2D509    A$uip_arp$1770
  0C:2D50C    A$uip_arp$1773
  0C:2D50C    C$uip_arp.c$404$3$10
  0C:2D50F    A$uip_arp$1774
  0C:2D512    A$uip_arp$1775
  0C:2D514    A$uip_arp$1776
  0C:2D517    A$uip_arp$1779
  0C:2D517    C$uip_arp.c$405$3$10
  0C:2D51A    A$uip_arp$1780
  0C:2D51D    A$uip_arp$1781
  0C:2D51F    A$uip_arp$1782
  0C:2D522    A$uip_arp$1785
  0C:2D522    C$uip_arp.c$406$3$10
  0C:2D525    A$uip_arp$1786
  0C:2D528    A$uip_arp$1787
  0C:2D52A    A$uip_arp$1788
  0C:2D52D    A$uip_arp$1789
  0C:2D52E    A$uip_arp$1790
  0C:2D530    A$uip_arp$1791
  0C:2D533    A$uip_arp$1794
  0C:2D533    C$uip_arp.c$408$3$10
  0C:2D536    A$uip_arp$1795
  0C:2D538    A$uip_arp$1796
  0C:2D539    A$uip_arp$1797
  0C:2D53A    A$uip_arp$1798
  0C:2D53C    A$uip_arp$1799
  0C:2D53D    A$uip_arp$1800
  0C:2D53E    A$uip_arp$1801
  0C:2D53F    A$uip_arp$1802
  0C:2D540    A$uip_arp$1805
  0C:2D540    C$uip_arp.c$410$3$10
  0C:2D543    A$uip_arp$1806
  0C:2D545    A$uip_arp$1807
  0C:2D546    A$uip_arp$1808
  0C:2D547    A$uip_arp$1809
  0C:2D548    A$uip_arp$1810
  0C:2D549    A$uip_arp$1813
  0C:2D549    C$uip_arp.c$411$3$10
  0C:2D54B    A$uip_arp$1817
  0C:2D54B    C$uip_arp.c$415$2$3
  0C:2D54D    A$uip_arp$1818
  0C:2D54E    A$uip_arp$1819
  0C:2D551    A$uip_arp$1820
  0C:2D553    A$uip_arp$1821
  0C:2D554    A$uip_arp$1822
  0C:2D555    A$uip_arp$1823
  0C:2D556    A$uip_arp$1824
  0C:2D557    A$uip_arp$1825
  0C:2D558    A$uip_arp$1826
  0C:2D559    A$uip_arp$1827
  0C:2D55A    A$uip_arp$1828
  0C:2D55B    A$uip_arp$1829
  0C:2D55C    A$uip_arp$1830
  0C:2D55D    A$uip_arp$1831
  0C:2D55E    A$uip_arp$1832
  0C:2D561    A$uip_arp$1833
  0C:2D563    A$uip_arp$1834
  0C:2D564    A$uip_arp$1835
  0C:2D565    A$uip_arp$1836
  0C:2D566    A$uip_arp$1837
  0C:2D567    A$uip_arp$1838
  0C:2D56A    A$uip_arp$1839
  0C:2D56D    A$uip_arp$1840
  0C:2D570    A$uip_arp$1844
  0C:2D570    C$uip_arp.c$417$1$1
  0C:2D573    A$uip_arp$1845
  0C:2D575    A$uip_arp$1846
  0C:2D576    A$uip_arp$1847
  0C:2D577    A$uip_arp$1848
  0C:2D578    A$uip_arp$1849
  0C:2D579    A$uip_arp$1850
  0C:2D57A    A$uip_arp$1851
  0C:2D57C    A$uip_arp$1852
  0C:2D57D    A$uip_arp$1853
  0C:2D580    A$uip_arp$1854
  0C:2D582    A$uip_arp$1855
  0C:2D583    A$uip_arp$1856
  0C:2D584    A$uip_arp$1857
  0C:2D585    A$uip_arp$1858
  0C:2D586    A$uip_arp$1859
  0C:2D589    A$uip_arp$1860
  0C:2D58C    A$uip_arp$1861
  0C:2D58F    A$uip_arp$1864
  0C:2D58F    C$uip_arp.c$419$1$1
  0C:2D592    A$uip_arp$1865
  0C:2D595    A$uip_arp$1866
  0C:2D597    A$uip_arp$1867
  0C:2D59A    A$uip_arp$1868
  0C:2D59B    A$uip_arp$1869
  0C:2D59C    A$uip_arp$1870
  0C:2D59F    A$uip_arp$1873
  0C:2D59F    C$uip_arp.c$421$1$1
  0C:2D5A2    A$uip_arp$1874
  0C:2D5A3    A$uip_arp$1875
  0C:2D5A4    A$uip_arp$1876
  0C:2D5A5    A$uip_arp$1877
  0C:2D5A6    A$uip_arp$1878
  0C:2D5A7    A$uip_arp$1879
  0C:2D5AA    A$uip_arp$1880
  0C:2D5AC    A$uip_arp$1881
  0C:2D5AD    A$uip_arp$1882
  0C:2D5AE    A$uip_arp$1883
  0C:2D5AF    A$uip_arp$1884
  0C:2D5B0    A$uip_arp$1885
  0C:2D5B1    A$uip_arp$1886
  0C:2D5B2    A$uip_arp$1888
  0C:2D5B5    A$uip_arp$1889
  0C:2D5B7    A$uip_arp$1892
  0C:2D5B7    C$uip_arp.c$422$1$1
  0C:2D5B7    XG$uip_arp_out$0$0
  0C:2D5BA    A$uiplib$115
  0C:2D5BA    C$uiplib.c$46$0$0
  0C:2D5BA    G$uiplib_ipaddrconv$0$0
  0C:2D5BA    _uiplib_ipaddrconv
  0C:2D5BC    A$uiplib$116
  0C:2D5BF    A$uiplib$117
  0C:2D5C1    A$uiplib$118
  0C:2D5C3    A$uiplib$119
  0C:2D5C5    A$uiplib$120
  0C:2D5C7    A$uiplib$121
  0C:2D5C9    A$uiplib$122
  0C:2D5CB    A$uiplib$125
  0C:2D5CB    C$uiplib.c$52$1$1
  0C:2D5CD    A$uiplib$128
  0C:2D5CF    A$uiplib$129
  0C:2D5D1    A$uiplib$130
  0C:2D5D2    A$uiplib$131
  0C:2D5D4    A$uiplib$133
  0C:2D5D6    A$uiplib$134
  0C:2D5D8    A$uiplib$135
  0C:2D5D9    A$uiplib$136
  0C:2D5DC    A$uiplib$138
  0C:2D5DE    A$uiplib$139
  0C:2D5E1    A$uiplib$143
  0C:2D5E1    C$uiplib.c$56$1$1
  0C:2D5E3    A$uiplib$144
  0C:2D5E5    A$uiplib$145
  0C:2D5E6    A$uiplib$146
  0C:2D5E8    A$uiplib$147
  0C:2D5E9    A$uiplib$148
  0C:2D5EB    A$uiplib$149
  0C:2D5EC    A$uiplib$150
  0C:2D5EE    A$uiplib$151
  0C:2D5F0    A$uiplib$152
  0C:2D5F1    A$uiplib$153
  0C:2D5F3    A$uiplib$154
  0C:2D5F5    A$uiplib$155
  0C:2D5F6    A$uiplib$156
  0C:2D5F7    A$uiplib$157
  0C:2D5F8    A$uiplib$158
  0C:2D5F9    A$uiplib$159
  0C:2D5FA    A$uiplib$160
  0C:2D5FB    A$uiplib$161
  0C:2D5FC    A$uiplib$162
  0C:2D5FD    A$uiplib$163
  0C:2D5FE    A$uiplib$164
  0C:2D5FF    A$uiplib$165
  0C:2D600    A$uiplib$166
  0C:2D602    A$uiplib$170
  0C:2D602    C$uiplib.c$57$3$3
  0C:2D604    A$uiplib$171
  0C:2D606    A$uiplib$172
  0C:2D607    A$uiplib$173
  0C:2D609    A$uiplib$174
  0C:2D60A    A$uiplib$175
  0C:2D60C    A$uiplib$176
  0C:2D60D    A$uiplib$177
  0C:2D60F    A$uiplib$178
  0C:2D612    A$uiplib$179
  0C:2D613    A$uiplib$182
  0C:2D613    C$uiplib.c$58$3$3
  0C:2D614    A$uiplib$185
  0C:2D614    C$uiplib.c$59$3$3
  0C:2D615    A$uiplib$186
  0C:2D617    A$uiplib$187
  0C:2D619    A$uiplib$190
  0C:2D619    C$uiplib.c$60$4$4
  0C:2D61C    A$uiplib$191
  0C:2D61F    A$uiplib$195
  0C:2D61F    C$uiplib.c$62$3$3
  0C:2D622    A$uiplib$196
  0C:2D624    A$uiplib$198
  0C:2D625    A$uiplib$199
  0C:2D627    A$uiplib$203
  0C:2D627    C$uiplib.c$63$4$5
  0C:2D629    A$uiplib$204
  0C:2D62B    A$uiplib$205
  0C:2D62D    A$uiplib$206
  0C:2D62E    A$uiplib$207
  0C:2D631    A$uiplib$208
  0C:2D632    A$uiplib$209
  0C:2D634    A$uiplib$210
  0C:2D636    A$uiplib$213
  0C:2D636    C$uiplib.c$64$4$5
  0C:2D638    A$uiplib$214
  0C:2D63A    A$uiplib$215
  0C:2D63B    A$uiplib$216
  0C:2D63D    A$uiplib$217
  0C:2D63E    A$uiplib$218
  0C:2D640    A$uiplib$219
  0C:2D641    A$uiplib$220
  0C:2D643    A$uiplib$223
  0C:2D643    C$uiplib.c$65$4$5
  0C:2D645    A$uiplib$224
  0C:2D647    A$uiplib$228
  0C:2D647    C$uiplib.c$66$3$3
  0C:2D648    A$uiplib$229
  0C:2D649    A$uiplib$230
  0C:2D64B    A$uiplib$231
  0C:2D64D    A$uiplib$232
  0C:2D64F    A$uiplib$233
  0C:2D651    A$uiplib$234
  0C:2D653    A$uiplib$235
  0C:2D656    A$uiplib$236
  0C:2D658    A$uiplib$237
  0C:2D65A    A$uiplib$240
  0C:2D65A    C$uiplib.c$67$1$1
  0C:2D65C    A$uiplib$241
  0C:2D65D    A$uiplib$242
  0C:2D660    A$uiplib$243
  0C:2D661    A$uiplib$244
  0C:2D662    A$uiplib$245
  0C:2D663    A$uiplib$246
  0C:2D665    A$uiplib$247
  0C:2D666    A$uiplib$248
  0C:2D667    A$uiplib$249
  0C:2D669    A$uiplib$250
  0C:2D66B    A$uiplib$254
  0C:2D66B    C$uiplib.c$69$4$7
  0C:2D66E    A$uiplib$255
  0C:2D670    A$uiplib$259
  0C:2D670    C$uiplib.c$71$3$3
  0C:2D672    A$uiplib$260
  0C:2D674    A$uiplib$261
  0C:2D675    A$uiplib$262
  0C:2D676    A$uiplib$263
  0C:2D679    A$uiplib$264
  0C:2D67A    A$uiplib$265
  0C:2D67B    A$uiplib$267
  0C:2D67D    A$uiplib$268
  0C:2D67F    A$uiplib$269
  0C:2D680    A$uiplib$270
  0C:2D682    A$uiplib$271
  0C:2D683    A$uiplib$272
  0C:2D684    A$uiplib$273
  0C:2D685    A$uiplib$274
  0C:2D686    A$uiplib$275
  0C:2D687    A$uiplib$276
  0C:2D688    A$uiplib$277
  0C:2D689    A$uiplib$278
  0C:2D68A    A$uiplib$279
  0C:2D68B    A$uiplib$280
  0C:2D68C    A$uiplib$281
  0C:2D68D    A$uiplib$284
  0C:2D68D    C$uiplib.c$72$2$2
  0C:2D690    A$uiplib$285
  0C:2D692    A$uiplib$287
  0C:2D693    A$uiplib$288
  0C:2D695    A$uiplib$289
  0C:2D698    A$uiplib$294
  0C:2D698    C$uiplib.c$54$1$1
  0C:2D69A    A$uiplib$295
  0C:2D69C    A$uiplib$296
  0C:2D69D    A$uiplib$297
  0C:2D69E    A$uiplib$298
  0C:2D6A1    A$uiplib$302
  0C:2D6A1    C$uiplib.c$74$1$1
  0C:2D6A4    A$uiplib$304
  0C:2D6A7    A$uiplib$305
  0C:2D6A9    A$uiplib$308
  0C:2D6A9    C$uiplib.c$75$1$1
  0C:2D6A9    XG$uiplib_ipaddrconv$0$0
ASxxxx Linker V01.75 + NoICE + SDCC Feb 1999,  page 1.

Files Linked      [ module(s) ]

obj\Debug\applications\adcd\adcd.rel
obj\Debug\apps\smtp\smtp-strings.rel
obj\Debug\apps\smtp\smtp.rel
obj\Debug\apps\webserver\base64.rel
obj\Debug\apps\webserver\http-strings.rel
obj\Debug\apps\webserver\httpd-cgi.rel
obj\Debug\apps\webserver\httpd-fs.rel
obj\Debug\apps\webserver\httpd-param.rel
obj\Debug\apps\webserver\httpd.rel
obj\Debug\driver\adc.rel
obj\Debug\driver\dm9000.rel
obj\Debug\driver\fan_heater.rel
obj\Debug\driver\led.rel
obj\Debug\driver\swtimers.rel
obj\Debug\ip_avenger\CUart.rel
obj\Debug\ip_avenger\clock-arch.rel
obj\Debug\ip_avenger\config.rel
obj\Debug\ip_avenger\flash\Flash_02x.rel
obj\Debug\ip_avenger\flash\parameters.rel
obj\Debug\ip_avenger\main.rel
obj\Debug\ip_avenger\uip_app_registration\uip_app_registration.rel
obj\Debug\uip\psock.rel
obj\Debug\uip\timer.rel
obj\Debug\uip\uip.rel
obj\Debug\uip\uip_arp.rel
obj\Debug\uip\uiplib.rel

Libraries Linked            [   object  file   ]

C:\Program Files\SDCC\bin\..\lib\large/libsdcc.lib    [          _strcpy ]
C:\Program Files\SDCC\bin\..\lib\large/liblong.lib    [    _divslong.rel ]
C:\Program Files\SDCC\bin\..\lib\large/liblong.lib    [    _divulong.rel ]
C:\Program Files\SDCC\bin\..\lib\large/libsdcc.lib    [         _strncmp ]
C:\Program Files\SDCC\bin\..\lib\large/mcs51.lib    [     crtclear.rel ]
C:\Program Files\SDCC\bin\..\lib\large/libsdcc.lib    [         _strrchr ]
C:\Program Files\SDCC\bin\..\lib\large/libsdcc.lib    [         _isspace ]
C:\Program Files\SDCC\bin\..\lib\large/mcs51.lib    [      crtbank.rel ]
C:\Program Files\SDCC\bin\..\lib\large/libsdcc.lib    [          _memcpy ]
C:\Program Files\SDCC\bin\..\lib\large/libsdcc.lib    [          _memset ]
C:\Program Files\SDCC\bin\..\lib\large/mcs51.lib    [     crtxinit.rel ]
C:\Program Files\SDCC\bin\..\lib\large/libsdcc.lib    [         _isdigit ]
C:\Program Files\SDCC\bin\..\lib\large/libsdcc.lib    [            _atoi ]
C:\Program Files\SDCC\bin\..\lib\large/libsdcc.lib    [          _strcat ]
C:\Program Files\SDCC\bin\..\lib\large/libsdcc.lib    [         _strncpy ]
C:\Program Files\SDCC\bin\..\lib\large/libsdcc.lib    [         _gptrput ]
C:\Program Files\SDCC\bin\..\lib\large/libsdcc.lib    [          _strchr ]
C:\Program Files\SDCC\bin\..\lib\large/libsdcc.lib    [              abs ]
C:\Program Files\SDCC\bin\..\lib\large/libint.lib    [          _mulint ]
C:\Program Files\SDCC\bin\..\lib\large/libint.lib    [         _modsint ]
C:\Program Files\SDCC\bin\..\lib\large/liblong.lib    [     _mullong.rel ]
C:\Program Files\SDCC\bin\..\lib\large/libint.lib    [         _moduint ]
C:\Program Files\SDCC\bin\..\lib\large/libsdcc.lib    [         _strncat ]
C:\Program Files\SDCC\bin\..\lib\large/mcs51.lib    [    crtxclear.rel ]
C:\Program Files\SDCC\bin\..\lib\large/libint.lib    [         _divsint ]
C:\Program Files\SDCC\bin\..\lib\large/libint.lib    [         _divuint ]
C:\Program Files\SDCC\bin\..\lib\large/libsdcc.lib    [          sprintf ]
C:\Program Files\SDCC\bin\..\lib\large/mcs51.lib    [      crtcall.rel ]
C:\Program Files\SDCC\bin\..\lib\large/libsdcc.lib    [              _bp ]
C:\Program Files\SDCC\bin\..\lib\large/libsdcc.lib    [          vprintf ]
C:\Program Files\SDCC\bin\..\lib\large/libsdcc.lib    [     printf_large ]
C:\Program Files\SDCC\bin\..\lib\large/libsdcc.lib    [          _strlen ]
C:\Program Files\SDCC\bin\..\lib\large/mcs51.lib    [     crtstart.rel ]
C:\Program Files\SDCC\bin\..\lib\large/libsdcc.lib    [         _gptrget ]
C:\Program Files\SDCC\bin\..\lib\large/libsdcc.lib    [         _startup ]

ASxxxx Linker V01.75 + NoICE + SDCC Feb 1999,  page 2.

User Base Address Definitions

HOME = 0x0000
ISEG = 0x0000
BSEG = 0x0000
UIP_BANK=0x28000
APP_BANK=0x38000
CONST=0x08000

